Certificate:
    Data:
        Version: 3 (0x2)
        Serial Number: 230 (0xe6)
    Signature Algorithm: sha256WithRSAEncryption
        Issuer: C=CH, ST=Thurgau, L=Kefikon, O=guengel.ch, CN=CA guengel.ch/emailAddress=postmaster@guengel.ch
        Validity
            Not Before: Nov 20 09:17:09 2016 GMT
            Not After : Apr  4 09:17:09 2018 GMT
        Subject: C=CH, ST=Thurgau, O=guengel.ch, CN=abraxas.virtual.kruemel.home/emailAddress=postmaster@guengel.ch
        Subject Public Key Info:
            Public Key Algorithm: rsaEncryption
                Public-Key: (2048 bit)
                Modulus:
                    00:b4:d8:d6:4b:16:bd:65:a3:e2:6f:9b:e9:6b:03:
                    c9:f6:8c:f1:b8:d4:66:ad:46:1b:99:9f:a4:b5:7e:
                    63:9f:09:bc:36:aa:45:bc:ac:41:96:f7:5d:9c:a0:
                    0f:27:fc:4a:3d:e9:4e:ae:48:41:f1:1a:63:c8:c9:
                    02:cc:02:7a:95:85:8e:38:9c:7e:c6:4d:7a:5f:60:
                    ff:18:e5:c1:c5:dd:6c:5b:00:01:68:62:e0:03:54:
                    2e:c1:61:03:0b:bf:bb:a6:3a:ae:17:9e:74:cb:11:
                    7a:29:3f:a9:7d:5f:f1:ca:e2:3a:45:4b:1e:cb:66:
                    5c:b3:3b:b7:a3:53:1d:f1:b8:ca:ab:4c:bb:de:39:
                    3d:ea:2e:c1:16:f7:43:c6:d1:c8:13:f0:e3:ff:9f:
                    82:c0:15:d3:7b:83:3e:36:f3:e4:ca:fb:72:b9:a0:
                    99:71:58:82:79:86:48:ab:59:77:f1:6f:66:a6:dc:
                    f7:8c:93:26:e3:55:10:00:7e:24:bf:d4:26:5d:4c:
                    1f:ad:d3:70:16:8e:92:37:da:d8:b6:08:cd:d3:bc:
                    42:18:38:73:58:20:07:2d:d7:1a:eb:64:f5:61:5c:
                    1d:92:ec:97:f1:c9:52:98:30:7a:66:1f:fe:83:1e:
                    f0:8e:7c:3c:f5:3e:60:7b:31:23:e9:81:59:1a:4c:
                    c1:f7
                Exponent: 65537 (0x10001)
        X509v3 extensions:
            X509v3 Basic Constraints: 
                CA:FALSE
            Netscape Comment: 
                OpenSSL Generated Certificate
            X509v3 Subject Key Identifier: 
                06:E1:AE:66:2B:E0:11:A2:F1:AC:4F:36:E5:AF:60:4B:AD:18:3B:6D
            X509v3 Authority Key Identifier: 
                keyid:D6:88:F1:AA:C1:2B:09:8C:B8:5C:9D:CE:DF:57:39:62:26:10:20:90
                DirName:/C=CH/ST=Thurgau/L=Kefikon/O=guengel.ch/CN=CA guengel.ch/emailAddress=postmaster@guengel.ch
                serial:E5:25:3B:A6:77:BD:CB:FF

    Signature Algorithm: sha256WithRSAEncryption
         65:c5:8f:16:f4:a1:f2:ca:a8:af:64:af:66:17:4e:d7:7d:91:
         b9:b8:56:c6:df:ba:01:0b:24:e9:24:f9:65:55:48:c4:8a:d7:
         9b:77:58:ba:b2:18:5f:d2:3b:bf:ca:0b:5c:b8:39:55:01:08:
         46:02:78:66:cf:66:48:21:6e:7d:a3:bf:b9:13:30:36:18:25:
         f0:9c:54:fa:6d:70:af:c4:04:8f:15:74:57:ab:52:49:90:93:
         05:05:13:89:d5:1c:67:06:9f:3e:ce:58:7c:d0:9c:66:54:61:
         99:eb:f8:77:37:e4:bc:0f:73:1d:bd:9c:ff:d6:49:d4:8a:b6:
         7d:13:b6:9a:3a:a9:21:04:e4:27:62:89:41:0b:29:bb:fc:a4:
         b9:0f:82:16:c2:cb:66:89:37:17:ff:79:8e:ca:d6:36:dd:d6:
         ea:ca:20:49:3d:b5:06:a9:79:0a:07:62:31:cf:09:3f:3f:d7:
         96:c3:89:f3:fc:7e:e1:e7:cc:b0:d2:2f:e9:62:15:54:6c:64:
         09:52:0b:7f:4a:b0:f1:9f:0f:07:76:e1:9d:ae:9a:31:67:1c:
         f4:50:ff:15:58:d3:9c:92:ce:75:17:84:ab:e6:b8:24:f0:9e:
         bb:53:44:c4:3a:d4:db:99:6b:ec:6a:1d:a0:9b:79:92:ed:b1:
         c7:e5:f3:c7:4b:f8:aa:96:d8:35:b4:fe:ca:f7:c4:10:ce:1b:
         fa:f0:5e:4b:50:56:33:fa:ec:1d:9c:05:21:9a:02:50:08:d1:
         00:a4:92:37:46:ca:ca:15:cd:df:71:90:b4:f4:e2:13:db:e0:
         7b:2a:8f:4c:b7:bd:41:22:14:04:66:af:cd:2f:16:c1:80:65:
         c4:74:fd:1e:75:ac:d6:cd:96:92:52:62:a9:87:5f:0f:10:39:
         86:0d:62:3d:ef:eb:19:7c:a8:a8:81:8e:c3:4c:81:05:25:b7:
         8d:83:25:a9:03:dd:ee:5b:3e:a4:54:db:d5:cb:62:4d:e5:bc:
         d3:7a:9c:9d:b2:33:09:99:68:45:c6:77:f7:d4:34:3c:35:a7:
         6a:79:f6:1a:cd:fd:43:53:f3:ac:f8:83:e3:ca:92:73:dd:de:
         f8:dd:48:34:d0:dd:23:e3:eb:cc:00:a2:b2:d5:b9:b9:2c:b7:
         15:d9:1d:b6:7f:70:4c:61:56:94:c4:14:bb:36:ec:b6:34:87:
         e4:32:28:45:6d:5c:d6:86:1c:4a:f9:75:29:bc:09:3b:83:38:
         6c:be:00:11:a4:5c:f6:ee:5a:7a:6e:e7:04:ac:2f:fb:f5:87:
         5c:0c:cb:c8:1c:ac:21:e2:0c:45:59:a5:e6:a4:4c:2e:fc:a1:
         dd:45:7a:d5:5f:c8:fb:fd
-----BEGIN CERTIFICATE-----
MIIFnTCCA4WgAwIBAgICAOYwDQYJKoZIhvcNAQELBQAwgYQxCzAJBgNVBAYTAkNI
MRAwDgYDVQQIEwdUaHVyZ2F1MRAwDgYDVQQHEwdLZWZpa29uMRMwEQYDVQQKEwpn
dWVuZ2VsLmNoMRYwFAYDVQQDEw1DQSBndWVuZ2VsLmNoMSQwIgYJKoZIhvcNAQkB
FhVwb3N0bWFzdGVyQGd1ZW5nZWwuY2gwHhcNMTYxMTIwMDkxNzA5WhcNMTgwNDA0
MDkxNzA5WjCBgTELMAkGA1UEBhMCQ0gxEDAOBgNVBAgTB1RodXJnYXUxEzARBgNV
BAoTCmd1ZW5nZWwuY2gxJTAjBgNVBAMTHGFicmF4YXMudmlydHVhbC5rcnVlbWVs
LmhvbWUxJDAiBgkqhkiG9w0BCQEWFXBvc3RtYXN0ZXJAZ3VlbmdlbC5jaDCCASIw
DQYJKoZIhvcNAQEBBQADggEPADCCAQoCggEBALTY1ksWvWWj4m+b6WsDyfaM8bjU
Zq1GG5mfpLV+Y58JvDaqRbysQZb3XZygDyf8Sj3pTq5IQfEaY8jJAswCepWFjjic
fsZNel9g/xjlwcXdbFsAAWhi4ANULsFhAwu/u6Y6rheedMsReik/qX1f8criOkVL
HstmXLM7t6NTHfG4yqtMu945PeouwRb3Q8bRyBPw4/+fgsAV03uDPjbz5Mr7crmg
mXFYgnmGSKtZd/FvZqbc94yTJuNVEAB+JL/UJl1MH63TcBaOkjfa2LYIzdO8Qhg4
c1ggBy3XGutk9WFcHZLsl/HJUpgwemYf/oMe8I58PPU+YHsxI+mBWRpMwfcCAwEA
AaOCARgwggEUMAkGA1UdEwQCMAAwLAYJYIZIAYb4QgENBB8WHU9wZW5TU0wgR2Vu
ZXJhdGVkIENlcnRpZmljYXRlMB0GA1UdDgQWBBQG4a5mK+ARovGsTzblr2BLrRg7
bTCBuQYDVR0jBIGxMIGugBTWiPGqwSsJjLhcnc7fVzliJhAgkKGBiqSBhzCBhDEL
MAkGA1UEBhMCQ0gxEDAOBgNVBAgTB1RodXJnYXUxEDAOBgNVBAcTB0tlZmlrb24x
EzARBgNVBAoTCmd1ZW5nZWwuY2gxFjAUBgNVBAMTDUNBIGd1ZW5nZWwuY2gxJDAi
BgkqhkiG9w0BCQEWFXBvc3RtYXN0ZXJAZ3VlbmdlbC5jaIIJAOUlO6Z3vcv/MA0G
CSqGSIb3DQEBCwUAA4ICAQBlxY8W9KHyyqivZK9mF07XfZG5uFbG37oBCyTpJPll
VUjEitebd1i6shhf0ju/ygtcuDlVAQhGAnhmz2ZIIW59o7+5EzA2GCXwnFT6bXCv
xASPFXRXq1JJkJMFBROJ1RxnBp8+zlh80JxmVGGZ6/h3N+S8D3MdvZz/1knUirZ9
E7aaOqkhBOQnYolBCym7/KS5D4IWwstmiTcX/3mOytY23dbqyiBJPbUGqXkKB2Ix
zwk/P9eWw4nz/H7h58yw0i/pYhVUbGQJUgt/SrDxnw8HduGdrpoxZxz0UP8VWNOc
ks51F4Sr5rgk8J67U0TEOtTbmWvsah2gm3mS7bHH5fPHS/iqltg1tP7K98QQzhv6
8F5LUFYz+uwdnAUhmgJQCNEApJI3RsrKFc3fcZC09OIT2+B7Ko9Mt71BIhQEZq/N
LxbBgGXEdP0edazWzZaSUmKph18PEDmGDWI97+sZfKiogY7DTIEFJbeNgyWpA93u
Wz6kVNvVy2JN5bzTepydsjMJmWhFxnf31DQ8NadqefYazf1DU/Os+IPjypJz3d74
3Ug00N0j4+vMAKKy1bm5LLcV2R22f3BMYVaUxBS7Nuy2NIfkMihFbVzWhhxK+XUp
vAk7gzhsvgARpFz27lp6bucErC/79YdcDMvIHKwh4gxFWaXmpEwu/KHdRXrVX8j7
/Q==
-----END CERTIFICATE-----
