Certificate:
    Data:
        Version: 3 (0x2)
        Serial Number: 370 (0x172)
        Signature Algorithm: sha256WithRSAEncryption
        Issuer: C=CH, ST=Thurgau, L=Kefikon, O=guengel.ch, CN=CA guengel.ch/emailAddress=postmaster@guengel.ch
        Validity
            Not Before: Jan  3 10:08:43 2020 GMT
            Not After : Feb  6 10:08:43 2021 GMT
        Subject: C=CH, ST=Thurgau, O=guengel.ch, CN=abraxas.virtual.kruemel.home/emailAddress=postmaster@guengel.ch
        Subject Public Key Info:
            Public Key Algorithm: rsaEncryption
                RSA Public-Key: (2048 bit)
                Modulus:
                    00:b4:d8:d6:4b:16:bd:65:a3:e2:6f:9b:e9:6b:03:
                    c9:f6:8c:f1:b8:d4:66:ad:46:1b:99:9f:a4:b5:7e:
                    63:9f:09:bc:36:aa:45:bc:ac:41:96:f7:5d:9c:a0:
                    0f:27:fc:4a:3d:e9:4e:ae:48:41:f1:1a:63:c8:c9:
                    02:cc:02:7a:95:85:8e:38:9c:7e:c6:4d:7a:5f:60:
                    ff:18:e5:c1:c5:dd:6c:5b:00:01:68:62:e0:03:54:
                    2e:c1:61:03:0b:bf:bb:a6:3a:ae:17:9e:74:cb:11:
                    7a:29:3f:a9:7d:5f:f1:ca:e2:3a:45:4b:1e:cb:66:
                    5c:b3:3b:b7:a3:53:1d:f1:b8:ca:ab:4c:bb:de:39:
                    3d:ea:2e:c1:16:f7:43:c6:d1:c8:13:f0:e3:ff:9f:
                    82:c0:15:d3:7b:83:3e:36:f3:e4:ca:fb:72:b9:a0:
                    99:71:58:82:79:86:48:ab:59:77:f1:6f:66:a6:dc:
                    f7:8c:93:26:e3:55:10:00:7e:24:bf:d4:26:5d:4c:
                    1f:ad:d3:70:16:8e:92:37:da:d8:b6:08:cd:d3:bc:
                    42:18:38:73:58:20:07:2d:d7:1a:eb:64:f5:61:5c:
                    1d:92:ec:97:f1:c9:52:98:30:7a:66:1f:fe:83:1e:
                    f0:8e:7c:3c:f5:3e:60:7b:31:23:e9:81:59:1a:4c:
                    c1:f7
                Exponent: 65537 (0x10001)
        X509v3 extensions:
            X509v3 Basic Constraints: 
                CA:FALSE
            Netscape Comment: 
                OpenSSL Generated Certificate
            X509v3 Subject Key Identifier: 
                06:E1:AE:66:2B:E0:11:A2:F1:AC:4F:36:E5:AF:60:4B:AD:18:3B:6D
            X509v3 Authority Key Identifier: 
                keyid:D6:88:F1:AA:C1:2B:09:8C:B8:5C:9D:CE:DF:57:39:62:26:10:20:90
                DirName:/C=CH/ST=Thurgau/L=Kefikon/O=guengel.ch/CN=CA guengel.ch/emailAddress=postmaster@guengel.ch
                serial:E5:25:3B:A6:77:BD:CB:FF

    Signature Algorithm: sha256WithRSAEncryption
         83:26:df:64:02:2d:c5:92:df:c5:bf:45:4d:db:0f:62:1f:18:
         f2:eb:96:c6:a3:c0:e3:8a:9b:2b:a7:a8:a9:f3:29:61:64:47:
         b6:a6:4e:8d:e0:03:c5:07:9f:7f:0c:80:84:94:5d:5a:78:02:
         8c:1f:d5:3a:d8:19:27:36:37:67:79:98:83:41:4a:69:b3:8c:
         6c:b6:19:47:70:a5:1c:7f:be:f1:0b:0d:f5:39:6f:c6:ba:71:
         f9:40:cd:34:3f:70:03:a5:ec:f3:1f:50:ab:e4:c2:ca:97:1a:
         8e:c8:8e:21:de:34:49:0b:7b:ad:7b:36:da:ec:66:b6:15:ed:
         dd:f6:95:cf:f4:de:f6:eb:3e:d3:12:54:1a:da:68:78:20:91:
         b9:e3:dc:31:6d:72:2d:eb:ba:03:ff:fe:da:67:35:8f:4c:4a:
         39:33:57:dc:a3:cb:67:7a:84:39:d1:f1:47:98:05:b9:aa:a3:
         46:94:76:4b:29:c2:80:fb:3f:bd:57:b7:ff:e9:0b:f8:a6:f9:
         d5:89:89:39:c3:69:0b:ba:bc:19:46:ae:c7:4b:f7:74:90:4c:
         10:bd:16:0b:bc:c4:d1:92:31:37:83:25:87:6d:b8:be:93:c7:
         b5:03:87:6a:35:1b:c1:ec:e3:9f:4d:63:da:28:fb:be:fc:bd:
         3b:12:ac:51:6c:f9:e6:15:39:de:a3:ba:9a:08:b9:2f:52:cb:
         fd:c7:8b:f4:ab:e0:2a:bb:c0:fb:d2:30:c7:9f:e2:3c:f8:c4:
         0d:98:f9:dc:b6:fe:ce:23:f0:4c:cd:66:8f:6a:61:d7:2d:5a:
         1a:03:0c:6a:27:f3:3b:df:59:bd:6f:93:cc:21:6d:ce:44:3c:
         d0:79:f0:20:04:22:6a:f2:c9:0a:9c:e8:6f:c5:16:5f:5d:18:
         20:73:9d:1f:fa:4a:34:cf:5a:6e:04:e1:f3:e8:d9:d7:1f:e3:
         12:4c:59:a6:e2:7a:ac:b9:82:eb:42:db:8a:8c:17:56:ee:aa:
         c5:3e:d7:95:8a:aa:92:aa:69:7d:2b:4d:be:e1:0d:d2:eb:6e:
         0e:95:a7:b4:10:c9:21:ae:b9:77:40:ba:6d:cf:46:8d:15:4d:
         ff:44:ad:d4:9f:1f:43:ad:d7:3e:9b:bf:51:f8:3e:ae:21:8a:
         fc:0b:0d:a3:8e:0b:cf:cc:7e:35:cb:84:07:17:8c:80:60:93:
         d7:0f:73:73:81:ed:a9:74:84:a1:41:57:2a:8e:41:01:92:c6:
         65:db:74:a5:58:71:f6:bb:75:ae:1c:5f:51:ad:2e:2e:48:75:
         37:00:5f:e2:12:47:6b:10:94:61:a8:ce:41:03:08:18:01:ff:
         94:36:32:39:3d:0c:08:1c
-----BEGIN CERTIFICATE-----
MIIFnTCCA4WgAwIBAgICAXIwDQYJKoZIhvcNAQELBQAwgYQxCzAJBgNVBAYTAkNI
MRAwDgYDVQQIEwdUaHVyZ2F1MRAwDgYDVQQHEwdLZWZpa29uMRMwEQYDVQQKEwpn
dWVuZ2VsLmNoMRYwFAYDVQQDEw1DQSBndWVuZ2VsLmNoMSQwIgYJKoZIhvcNAQkB
FhVwb3N0bWFzdGVyQGd1ZW5nZWwuY2gwHhcNMjAwMTAzMTAwODQzWhcNMjEwMjA2
MTAwODQzWjCBgTELMAkGA1UEBhMCQ0gxEDAOBgNVBAgTB1RodXJnYXUxEzARBgNV
BAoTCmd1ZW5nZWwuY2gxJTAjBgNVBAMTHGFicmF4YXMudmlydHVhbC5rcnVlbWVs
LmhvbWUxJDAiBgkqhkiG9w0BCQEWFXBvc3RtYXN0ZXJAZ3VlbmdlbC5jaDCCASIw
DQYJKoZIhvcNAQEBBQADggEPADCCAQoCggEBALTY1ksWvWWj4m+b6WsDyfaM8bjU
Zq1GG5mfpLV+Y58JvDaqRbysQZb3XZygDyf8Sj3pTq5IQfEaY8jJAswCepWFjjic
fsZNel9g/xjlwcXdbFsAAWhi4ANULsFhAwu/u6Y6rheedMsReik/qX1f8criOkVL
HstmXLM7t6NTHfG4yqtMu945PeouwRb3Q8bRyBPw4/+fgsAV03uDPjbz5Mr7crmg
mXFYgnmGSKtZd/FvZqbc94yTJuNVEAB+JL/UJl1MH63TcBaOkjfa2LYIzdO8Qhg4
c1ggBy3XGutk9WFcHZLsl/HJUpgwemYf/oMe8I58PPU+YHsxI+mBWRpMwfcCAwEA
AaOCARgwggEUMAkGA1UdEwQCMAAwLAYJYIZIAYb4QgENBB8WHU9wZW5TU0wgR2Vu
ZXJhdGVkIENlcnRpZmljYXRlMB0GA1UdDgQWBBQG4a5mK+ARovGsTzblr2BLrRg7
bTCBuQYDVR0jBIGxMIGugBTWiPGqwSsJjLhcnc7fVzliJhAgkKGBiqSBhzCBhDEL
MAkGA1UEBhMCQ0gxEDAOBgNVBAgTB1RodXJnYXUxEDAOBgNVBAcTB0tlZmlrb24x
EzARBgNVBAoTCmd1ZW5nZWwuY2gxFjAUBgNVBAMTDUNBIGd1ZW5nZWwuY2gxJDAi
BgkqhkiG9w0BCQEWFXBvc3RtYXN0ZXJAZ3VlbmdlbC5jaIIJAOUlO6Z3vcv/MA0G
CSqGSIb3DQEBCwUAA4ICAQCDJt9kAi3Fkt/Fv0VN2w9iHxjy65bGo8Djipsrp6ip
8ylhZEe2pk6N4APFB59/DICElF1aeAKMH9U62BknNjdneZiDQUpps4xsthlHcKUc
f77xCw31OW/GunH5QM00P3ADpezzH1Cr5MLKlxqOyI4h3jRJC3utezba7Ga2Fe3d
9pXP9N726z7TElQa2mh4IJG549wxbXIt67oD//7aZzWPTEo5M1fco8tneoQ50fFH
mAW5qqNGlHZLKcKA+z+9V7f/6Qv4pvnViYk5w2kLurwZRq7HS/d0kEwQvRYLvMTR
kjE3gyWHbbi+k8e1A4dqNRvB7OOfTWPaKPu+/L07EqxRbPnmFTneo7qaCLkvUsv9
x4v0q+Aqu8D70jDHn+I8+MQNmPnctv7OI/BMzWaPamHXLVoaAwxqJ/M731m9b5PM
IW3ORDzQefAgBCJq8skKnOhvxRZfXRggc50f+ko0z1puBOHz6NnXH+MSTFmm4nqs
uYLrQtuKjBdW7qrFPteViqqSqml9K02+4Q3S624Olae0EMkhrrl3QLptz0aNFU3/
RK3Unx9Drdc+m79R+D6uIYr8Cw2jjgvPzH41y4QHF4yAYJPXD3Nzge2pdIShQVcq
jkEBksZl23SlWHH2u3WuHF9RrS4uSHU3AF/iEkdrEJRhqM5BAwgYAf+UNjI5PQwI
HA==
-----END CERTIFICATE-----
