Certificate:
    Data:
        Version: 3 (0x2)
        Serial Number: 331 (0x14b)
    Signature Algorithm: sha256WithRSAEncryption
        Issuer: C=CH, ST=Thurgau, L=Kefikon, O=guengel.ch, CN=CA guengel.ch/emailAddress=postmaster@guengel.ch
        Validity
            Not Before: Dec 29 14:39:56 2018 GMT
            Not After : Feb  2 14:39:56 2020 GMT
        Subject: C=CH, ST=Thurgau, O=guengel.ch, CN=abraxas.virtual.kruemel.home/emailAddress=postmaster@guengel.ch
        Subject Public Key Info:
            Public Key Algorithm: rsaEncryption
                Public-Key: (2048 bit)
                Modulus:
                    00:b4:d8:d6:4b:16:bd:65:a3:e2:6f:9b:e9:6b:03:
                    c9:f6:8c:f1:b8:d4:66:ad:46:1b:99:9f:a4:b5:7e:
                    63:9f:09:bc:36:aa:45:bc:ac:41:96:f7:5d:9c:a0:
                    0f:27:fc:4a:3d:e9:4e:ae:48:41:f1:1a:63:c8:c9:
                    02:cc:02:7a:95:85:8e:38:9c:7e:c6:4d:7a:5f:60:
                    ff:18:e5:c1:c5:dd:6c:5b:00:01:68:62:e0:03:54:
                    2e:c1:61:03:0b:bf:bb:a6:3a:ae:17:9e:74:cb:11:
                    7a:29:3f:a9:7d:5f:f1:ca:e2:3a:45:4b:1e:cb:66:
                    5c:b3:3b:b7:a3:53:1d:f1:b8:ca:ab:4c:bb:de:39:
                    3d:ea:2e:c1:16:f7:43:c6:d1:c8:13:f0:e3:ff:9f:
                    82:c0:15:d3:7b:83:3e:36:f3:e4:ca:fb:72:b9:a0:
                    99:71:58:82:79:86:48:ab:59:77:f1:6f:66:a6:dc:
                    f7:8c:93:26:e3:55:10:00:7e:24:bf:d4:26:5d:4c:
                    1f:ad:d3:70:16:8e:92:37:da:d8:b6:08:cd:d3:bc:
                    42:18:38:73:58:20:07:2d:d7:1a:eb:64:f5:61:5c:
                    1d:92:ec:97:f1:c9:52:98:30:7a:66:1f:fe:83:1e:
                    f0:8e:7c:3c:f5:3e:60:7b:31:23:e9:81:59:1a:4c:
                    c1:f7
                Exponent: 65537 (0x10001)
        X509v3 extensions:
            X509v3 Basic Constraints: 
                CA:FALSE
            Netscape Comment: 
                OpenSSL Generated Certificate
            X509v3 Subject Key Identifier: 
                06:E1:AE:66:2B:E0:11:A2:F1:AC:4F:36:E5:AF:60:4B:AD:18:3B:6D
            X509v3 Authority Key Identifier: 
                keyid:D6:88:F1:AA:C1:2B:09:8C:B8:5C:9D:CE:DF:57:39:62:26:10:20:90
                DirName:/C=CH/ST=Thurgau/L=Kefikon/O=guengel.ch/CN=CA guengel.ch/emailAddress=postmaster@guengel.ch
                serial:E5:25:3B:A6:77:BD:CB:FF

    Signature Algorithm: sha256WithRSAEncryption
         1e:72:2d:c0:35:2a:c9:13:c0:7c:0d:da:8b:4a:9b:39:83:d8:
         44:c5:7a:7f:87:9c:8e:cb:0a:a4:18:5b:84:36:f8:a7:26:7e:
         59:3d:6f:5c:26:df:f9:5c:f6:df:4a:92:e9:3d:df:81:a8:d0:
         72:a1:74:ba:d9:85:39:12:15:6e:04:de:fe:54:f3:57:97:3c:
         be:84:32:24:c9:8d:e9:03:7f:d2:5f:84:f1:4a:e4:dc:06:58:
         b4:c3:59:7e:47:29:80:5b:f6:4e:94:fb:b5:ed:d5:63:29:67:
         bd:64:ca:5f:e1:d4:f7:85:e8:d5:69:8c:b2:a7:c9:db:8a:ce:
         f8:4f:00:5f:f1:72:3d:62:4a:7d:b9:87:d2:f3:6a:22:25:33:
         c7:4a:7a:1a:e3:eb:57:49:5e:46:3f:56:f7:8e:46:05:3a:74:
         4c:5c:12:b5:be:85:f0:fb:ef:93:16:69:9a:09:e3:df:4b:a1:
         d6:df:cb:d3:de:68:ac:cc:8f:2c:64:ab:96:4f:93:48:1e:54:
         e1:97:8c:a1:a2:2f:a8:55:e0:c3:b7:f1:f2:14:34:23:2f:48:
         df:7c:af:94:51:05:15:7d:03:d4:d0:32:68:69:24:8e:f6:35:
         e6:de:a4:51:fe:88:c1:fb:c0:90:03:3e:26:d9:b6:4d:91:db:
         f3:e6:f0:e1:6b:ac:7e:3a:a7:4c:2d:6c:28:80:da:c6:cf:7f:
         d5:d6:4d:f1:b7:e5:68:2a:6a:f2:3e:3a:b9:7b:d8:4b:e6:ec:
         d4:28:14:28:4d:f1:b0:5d:b4:f6:b9:a9:a2:45:67:9a:02:b0:
         2d:5a:21:95:7d:bc:3a:c4:90:35:17:49:0d:8e:12:a0:e2:47:
         7e:0b:cd:f2:70:92:23:59:cc:08:51:dc:3e:6b:db:ca:76:16:
         1f:ed:79:18:ee:2b:57:24:ce:2f:0a:36:70:c6:70:df:84:73:
         a2:dd:3f:72:60:0b:71:68:2b:bc:05:ab:99:5e:da:4e:19:1a:
         f1:68:78:1d:1f:ce:55:92:6d:72:1e:fd:58:1e:1e:2b:d3:9b:
         d2:e1:de:24:8f:cf:30:b1:29:87:27:20:67:92:71:5e:14:11:
         a8:49:24:e3:4f:37:39:b9:43:8a:c0:e5:eb:d9:18:3b:8e:3a:
         ef:31:6b:eb:c0:05:d2:a8:fb:4d:c4:eb:49:74:c8:52:af:9d:
         45:bc:14:c3:62:a7:fc:42:89:06:86:e3:57:9f:af:66:3b:55:
         a7:88:4c:e3:25:52:6e:b9:9c:3e:d7:0a:69:17:55:50:09:e8:
         e4:c8:be:34:ec:97:2d:32:cc:14:e3:7b:2f:c7:02:fd:9c:38:
         a6:84:51:fd:2d:33:e9:fd
-----BEGIN CERTIFICATE-----
MIIFnTCCA4WgAwIBAgICAUswDQYJKoZIhvcNAQELBQAwgYQxCzAJBgNVBAYTAkNI
MRAwDgYDVQQIEwdUaHVyZ2F1MRAwDgYDVQQHEwdLZWZpa29uMRMwEQYDVQQKEwpn
dWVuZ2VsLmNoMRYwFAYDVQQDEw1DQSBndWVuZ2VsLmNoMSQwIgYJKoZIhvcNAQkB
FhVwb3N0bWFzdGVyQGd1ZW5nZWwuY2gwHhcNMTgxMjI5MTQzOTU2WhcNMjAwMjAy
MTQzOTU2WjCBgTELMAkGA1UEBhMCQ0gxEDAOBgNVBAgTB1RodXJnYXUxEzARBgNV
BAoTCmd1ZW5nZWwuY2gxJTAjBgNVBAMTHGFicmF4YXMudmlydHVhbC5rcnVlbWVs
LmhvbWUxJDAiBgkqhkiG9w0BCQEWFXBvc3RtYXN0ZXJAZ3VlbmdlbC5jaDCCASIw
DQYJKoZIhvcNAQEBBQADggEPADCCAQoCggEBALTY1ksWvWWj4m+b6WsDyfaM8bjU
Zq1GG5mfpLV+Y58JvDaqRbysQZb3XZygDyf8Sj3pTq5IQfEaY8jJAswCepWFjjic
fsZNel9g/xjlwcXdbFsAAWhi4ANULsFhAwu/u6Y6rheedMsReik/qX1f8criOkVL
HstmXLM7t6NTHfG4yqtMu945PeouwRb3Q8bRyBPw4/+fgsAV03uDPjbz5Mr7crmg
mXFYgnmGSKtZd/FvZqbc94yTJuNVEAB+JL/UJl1MH63TcBaOkjfa2LYIzdO8Qhg4
c1ggBy3XGutk9WFcHZLsl/HJUpgwemYf/oMe8I58PPU+YHsxI+mBWRpMwfcCAwEA
AaOCARgwggEUMAkGA1UdEwQCMAAwLAYJYIZIAYb4QgENBB8WHU9wZW5TU0wgR2Vu
ZXJhdGVkIENlcnRpZmljYXRlMB0GA1UdDgQWBBQG4a5mK+ARovGsTzblr2BLrRg7
bTCBuQYDVR0jBIGxMIGugBTWiPGqwSsJjLhcnc7fVzliJhAgkKGBiqSBhzCBhDEL
MAkGA1UEBhMCQ0gxEDAOBgNVBAgTB1RodXJnYXUxEDAOBgNVBAcTB0tlZmlrb24x
EzARBgNVBAoTCmd1ZW5nZWwuY2gxFjAUBgNVBAMTDUNBIGd1ZW5nZWwuY2gxJDAi
BgkqhkiG9w0BCQEWFXBvc3RtYXN0ZXJAZ3VlbmdlbC5jaIIJAOUlO6Z3vcv/MA0G
CSqGSIb3DQEBCwUAA4ICAQAeci3ANSrJE8B8DdqLSps5g9hExXp/h5yOywqkGFuE
NvinJn5ZPW9cJt/5XPbfSpLpPd+BqNByoXS62YU5EhVuBN7+VPNXlzy+hDIkyY3p
A3/SX4TxSuTcBli0w1l+RymAW/ZOlPu17dVjKWe9ZMpf4dT3hejVaYyyp8nbis74
TwBf8XI9Ykp9uYfS82oiJTPHSnoa4+tXSV5GP1b3jkYFOnRMXBK1voXw+++TFmma
CePfS6HW38vT3miszI8sZKuWT5NIHlThl4yhoi+oVeDDt/HyFDQjL0jffK+UUQUV
fQPU0DJoaSSO9jXm3qRR/ojB+8CQAz4m2bZNkdvz5vDha6x+OqdMLWwogNrGz3/V
1k3xt+VoKmryPjq5e9hL5uzUKBQoTfGwXbT2uamiRWeaArAtWiGVfbw6xJA1F0kN
jhKg4kd+C83ycJIjWcwIUdw+a9vKdhYf7XkY7itXJM4vCjZwxnDfhHOi3T9yYAtx
aCu8BauZXtpOGRrxaHgdH85Vkm1yHv1YHh4r05vS4d4kj88wsSmHJyBnknFeFBGo
SSTjTzc5uUOKwOXr2Rg7jjrvMWvrwAXSqPtNxOtJdMhSr51FvBTDYqf8QokGhuNX
n69mO1WniEzjJVJuuZw+1wppF1VQCejkyL407JctMswU43svxwL9nDimhFH9LTPp
/Q==
-----END CERTIFICATE-----
