Certificate:
    Data:
        Version: 3 (0x2)
        Serial Number: 290 (0x122)
    Signature Algorithm: sha256WithRSAEncryption
        Issuer: C=CH, ST=Thurgau, L=Kefikon, O=guengel.ch, CN=CA guengel.ch/emailAddress=postmaster@guengel.ch
        Validity
            Not Before: Jan  6 18:02:53 2018 GMT
            Not After : Feb 10 18:02:53 2019 GMT
        Subject: C=CH, ST=Thurgau, O=guengel.ch, CN=abraxas.virtual.kruemel.home/emailAddress=postmaster@guengel.ch
        Subject Public Key Info:
            Public Key Algorithm: rsaEncryption
                Public-Key: (2048 bit)
                Modulus:
                    00:b4:d8:d6:4b:16:bd:65:a3:e2:6f:9b:e9:6b:03:
                    c9:f6:8c:f1:b8:d4:66:ad:46:1b:99:9f:a4:b5:7e:
                    63:9f:09:bc:36:aa:45:bc:ac:41:96:f7:5d:9c:a0:
                    0f:27:fc:4a:3d:e9:4e:ae:48:41:f1:1a:63:c8:c9:
                    02:cc:02:7a:95:85:8e:38:9c:7e:c6:4d:7a:5f:60:
                    ff:18:e5:c1:c5:dd:6c:5b:00:01:68:62:e0:03:54:
                    2e:c1:61:03:0b:bf:bb:a6:3a:ae:17:9e:74:cb:11:
                    7a:29:3f:a9:7d:5f:f1:ca:e2:3a:45:4b:1e:cb:66:
                    5c:b3:3b:b7:a3:53:1d:f1:b8:ca:ab:4c:bb:de:39:
                    3d:ea:2e:c1:16:f7:43:c6:d1:c8:13:f0:e3:ff:9f:
                    82:c0:15:d3:7b:83:3e:36:f3:e4:ca:fb:72:b9:a0:
                    99:71:58:82:79:86:48:ab:59:77:f1:6f:66:a6:dc:
                    f7:8c:93:26:e3:55:10:00:7e:24:bf:d4:26:5d:4c:
                    1f:ad:d3:70:16:8e:92:37:da:d8:b6:08:cd:d3:bc:
                    42:18:38:73:58:20:07:2d:d7:1a:eb:64:f5:61:5c:
                    1d:92:ec:97:f1:c9:52:98:30:7a:66:1f:fe:83:1e:
                    f0:8e:7c:3c:f5:3e:60:7b:31:23:e9:81:59:1a:4c:
                    c1:f7
                Exponent: 65537 (0x10001)
        X509v3 extensions:
            X509v3 Basic Constraints: 
                CA:FALSE
            Netscape Comment: 
                OpenSSL Generated Certificate
            X509v3 Subject Key Identifier: 
                06:E1:AE:66:2B:E0:11:A2:F1:AC:4F:36:E5:AF:60:4B:AD:18:3B:6D
            X509v3 Authority Key Identifier: 
                keyid:D6:88:F1:AA:C1:2B:09:8C:B8:5C:9D:CE:DF:57:39:62:26:10:20:90
                DirName:/C=CH/ST=Thurgau/L=Kefikon/O=guengel.ch/CN=CA guengel.ch/emailAddress=postmaster@guengel.ch
                serial:E5:25:3B:A6:77:BD:CB:FF

    Signature Algorithm: sha256WithRSAEncryption
         02:0d:d4:ba:43:36:e6:8b:f4:e6:5b:cd:ca:c2:47:fe:f5:d4:
         b6:62:9d:bd:2f:9f:08:18:f0:c4:eb:f2:aa:81:8c:7c:91:f3:
         da:e4:e6:ec:3d:bb:cf:0e:b7:33:4d:c3:00:82:9b:13:56:38:
         19:34:63:25:db:f7:81:0d:64:be:27:41:da:08:09:f2:a4:d2:
         66:4e:14:0c:a1:20:e6:89:5a:aa:3d:45:33:a6:25:16:6c:b2:
         88:cc:1d:29:53:83:9a:e2:97:c0:f2:65:2e:e3:7d:c1:00:97:
         24:93:e8:80:41:a7:b7:32:0d:97:38:27:2b:73:7c:7b:bc:74:
         63:dd:c6:c5:b6:e9:2f:f6:60:1a:6e:c0:ef:16:aa:39:61:91:
         ee:e4:bd:2e:d5:c6:2f:28:97:43:02:c8:65:72:60:69:4a:60:
         d9:6e:b7:5e:e6:8a:a6:b1:5b:68:ba:45:f5:dc:e4:2a:77:b9:
         a8:ac:ae:74:95:c5:8b:a8:e0:f1:61:9c:9c:c2:3e:2d:67:f6:
         62:cf:e1:6b:92:93:8d:9a:58:ba:aa:97:3a:36:ab:56:db:3d:
         ee:6c:25:13:ba:48:e7:b7:52:b3:2c:af:ba:fc:87:2c:81:ad:
         79:ae:40:87:a4:5f:27:41:26:46:78:99:85:bf:ae:7e:ef:da:
         01:b9:a7:42:80:a5:72:25:c3:48:03:5c:96:5e:12:3a:52:1e:
         68:e0:94:d7:cb:10:e5:c8:c7:02:39:b3:f6:27:55:2d:92:17:
         12:e4:c6:60:9b:33:34:6b:40:01:71:50:ff:34:a9:a9:18:43:
         fd:0e:2d:a9:7f:ab:bb:46:4a:5e:03:d1:f5:f6:7b:7f:06:22:
         5b:9b:80:ec:94:56:8b:6b:7a:f8:bd:c5:20:ab:ec:7c:ff:e6:
         69:51:f2:7b:58:9d:0d:f4:3e:11:77:dc:ce:3e:07:5f:d5:29:
         ec:cf:d5:b9:84:53:a9:82:21:35:ce:4b:eb:ba:a5:e5:b5:82:
         d9:3d:a6:05:e2:db:a1:80:04:d6:84:c7:f5:0a:cd:5c:86:9f:
         c8:40:b7:de:17:ae:da:00:6d:36:7b:34:dd:da:2b:e7:3c:83:
         13:51:56:0a:35:cd:02:3d:be:e7:87:9f:f9:00:e3:a2:ee:ab:
         85:f1:7c:a5:05:28:58:69:3f:04:2d:15:fe:f0:cd:41:90:60:
         56:cc:00:16:13:f5:b0:22:ec:4c:ac:8b:5d:44:73:15:6c:03:
         23:da:f6:ff:f8:b5:96:96:00:6c:55:83:53:6e:6c:38:12:20:
         b9:cd:e4:64:ca:59:dc:99:0d:1b:60:3f:a8:12:76:82:60:3e:
         fc:61:b1:a9:ca:b2:20:81
-----BEGIN CERTIFICATE-----
MIIFnTCCA4WgAwIBAgICASIwDQYJKoZIhvcNAQELBQAwgYQxCzAJBgNVBAYTAkNI
MRAwDgYDVQQIEwdUaHVyZ2F1MRAwDgYDVQQHEwdLZWZpa29uMRMwEQYDVQQKEwpn
dWVuZ2VsLmNoMRYwFAYDVQQDEw1DQSBndWVuZ2VsLmNoMSQwIgYJKoZIhvcNAQkB
FhVwb3N0bWFzdGVyQGd1ZW5nZWwuY2gwHhcNMTgwMTA2MTgwMjUzWhcNMTkwMjEw
MTgwMjUzWjCBgTELMAkGA1UEBhMCQ0gxEDAOBgNVBAgTB1RodXJnYXUxEzARBgNV
BAoTCmd1ZW5nZWwuY2gxJTAjBgNVBAMTHGFicmF4YXMudmlydHVhbC5rcnVlbWVs
LmhvbWUxJDAiBgkqhkiG9w0BCQEWFXBvc3RtYXN0ZXJAZ3VlbmdlbC5jaDCCASIw
DQYJKoZIhvcNAQEBBQADggEPADCCAQoCggEBALTY1ksWvWWj4m+b6WsDyfaM8bjU
Zq1GG5mfpLV+Y58JvDaqRbysQZb3XZygDyf8Sj3pTq5IQfEaY8jJAswCepWFjjic
fsZNel9g/xjlwcXdbFsAAWhi4ANULsFhAwu/u6Y6rheedMsReik/qX1f8criOkVL
HstmXLM7t6NTHfG4yqtMu945PeouwRb3Q8bRyBPw4/+fgsAV03uDPjbz5Mr7crmg
mXFYgnmGSKtZd/FvZqbc94yTJuNVEAB+JL/UJl1MH63TcBaOkjfa2LYIzdO8Qhg4
c1ggBy3XGutk9WFcHZLsl/HJUpgwemYf/oMe8I58PPU+YHsxI+mBWRpMwfcCAwEA
AaOCARgwggEUMAkGA1UdEwQCMAAwLAYJYIZIAYb4QgENBB8WHU9wZW5TU0wgR2Vu
ZXJhdGVkIENlcnRpZmljYXRlMB0GA1UdDgQWBBQG4a5mK+ARovGsTzblr2BLrRg7
bTCBuQYDVR0jBIGxMIGugBTWiPGqwSsJjLhcnc7fVzliJhAgkKGBiqSBhzCBhDEL
MAkGA1UEBhMCQ0gxEDAOBgNVBAgTB1RodXJnYXUxEDAOBgNVBAcTB0tlZmlrb24x
EzARBgNVBAoTCmd1ZW5nZWwuY2gxFjAUBgNVBAMTDUNBIGd1ZW5nZWwuY2gxJDAi
BgkqhkiG9w0BCQEWFXBvc3RtYXN0ZXJAZ3VlbmdlbC5jaIIJAOUlO6Z3vcv/MA0G
CSqGSIb3DQEBCwUAA4ICAQACDdS6Qzbmi/TmW83Kwkf+9dS2Yp29L58IGPDE6/Kq
gYx8kfPa5ObsPbvPDrczTcMAgpsTVjgZNGMl2/eBDWS+J0HaCAnypNJmThQMoSDm
iVqqPUUzpiUWbLKIzB0pU4Oa4pfA8mUu433BAJckk+iAQae3Mg2XOCcrc3x7vHRj
3cbFtukv9mAabsDvFqo5YZHu5L0u1cYvKJdDAshlcmBpSmDZbrde5oqmsVtoukX1
3OQqd7morK50lcWLqODxYZycwj4tZ/Ziz+FrkpONmli6qpc6NqtW2z3ubCUTukjn
t1KzLK+6/Icsga15rkCHpF8nQSZGeJmFv65+79oBuadCgKVyJcNIA1yWXhI6Uh5o
4JTXyxDlyMcCObP2J1UtkhcS5MZgmzM0a0ABcVD/NKmpGEP9Di2pf6u7RkpeA9H1
9nt/BiJbm4DslFaLa3r4vcUgq+x8/+ZpUfJ7WJ0N9D4Rd9zOPgdf1Snsz9W5hFOp
giE1zkvruqXltYLZPaYF4tuhgATWhMf1Cs1chp/IQLfeF67aAG02ezTd2ivnPIMT
UVYKNc0CPb7nh5/5AOOi7quF8XylBShYaT8ELRX+8M1BkGBWzAAWE/WwIuxMrItd
RHMVbAMj2vb/+LWWlgBsVYNTbmw4EiC5zeRkylncmQ0bYD+oEnaCYD78YbGpyrIg
gQ==
-----END CERTIFICATE-----
