Certificate:
    Data:
        Version: 3 (0x2)
        Serial Number: 332 (0x14c)
    Signature Algorithm: sha256WithRSAEncryption
        Issuer: C=CH, ST=Thurgau, L=Kefikon, O=guengel.ch, CN=CA guengel.ch/emailAddress=postmaster@guengel.ch
        Validity
            Not Before: Dec 29 14:39:56 2018 GMT
            Not After : Feb  2 14:39:56 2020 GMT
        Subject: C=CH, ST=Thurgau, O=guengel.ch, CN=agentsmith.web.kruemel.home/emailAddress=postmaster@guengel.ch
        Subject Public Key Info:
            Public Key Algorithm: rsaEncryption
                Public-Key: (2048 bit)
                Modulus:
                    00:df:cc:df:23:ec:3c:56:b7:33:97:d1:a2:04:74:
                    04:3e:3d:48:a9:14:70:8c:dc:bd:a4:d0:9c:c0:c2:
                    8d:0c:2f:1b:a4:f1:96:e4:f3:e6:f2:28:d3:90:f5:
                    eb:01:b3:f8:8b:85:e7:cb:ab:53:8d:ac:41:75:28:
                    99:a2:5b:9c:31:d5:e9:00:3e:0b:63:e2:fb:63:e2:
                    15:8b:c5:be:13:88:90:48:58:46:9b:6b:de:6f:66:
                    09:ea:19:63:09:6e:f2:62:97:0e:86:f6:5f:c7:9e:
                    c8:1c:fe:74:15:27:f6:81:3c:5c:38:6a:15:00:4a:
                    bd:4c:f8:6f:d4:d7:45:95:bb:c1:6c:76:f2:8c:14:
                    69:d9:3d:27:b2:c5:df:61:57:91:d9:1d:0d:22:17:
                    2f:b1:0f:8b:81:0e:30:0c:39:c5:27:72:29:76:29:
                    c7:c4:ba:04:c5:1f:63:fc:3c:b1:3c:ea:7b:00:35:
                    a8:6d:c5:57:de:6d:bc:53:c0:52:05:cf:fc:80:ae:
                    03:c2:c6:4d:e1:30:69:28:03:51:bb:2a:2a:5a:a2:
                    cf:be:e3:8e:8d:f0:05:40:71:0e:0d:c1:a2:d1:69:
                    d7:01:c2:f4:27:0c:da:95:2f:6e:cf:e9:b8:49:cd:
                    db:1f:e1:6a:4c:3d:07:96:d0:6e:38:b9:9c:c0:b7:
                    71:eb
                Exponent: 65537 (0x10001)
        X509v3 extensions:
            X509v3 Basic Constraints: 
                CA:FALSE
            Netscape Comment: 
                OpenSSL Generated Certificate
            X509v3 Subject Key Identifier: 
                40:28:9A:EC:5A:A6:E3:5D:39:D6:70:D6:D7:48:6A:B5:DF:8C:BA:E6
            X509v3 Authority Key Identifier: 
                keyid:D6:88:F1:AA:C1:2B:09:8C:B8:5C:9D:CE:DF:57:39:62:26:10:20:90
                DirName:/C=CH/ST=Thurgau/L=Kefikon/O=guengel.ch/CN=CA guengel.ch/emailAddress=postmaster@guengel.ch
                serial:E5:25:3B:A6:77:BD:CB:FF

    Signature Algorithm: sha256WithRSAEncryption
         63:00:f0:6c:43:15:e5:57:e8:38:93:5b:aa:8c:2d:53:e5:4b:
         3e:25:81:05:c9:94:2d:3b:c3:48:5f:cc:31:c1:69:cf:c8:2f:
         d5:f5:98:70:db:5a:5e:09:b9:a5:a0:0b:7f:7b:34:73:96:d3:
         14:7e:a4:35:44:b7:2a:70:38:33:1e:2c:9a:50:ee:06:ef:a2:
         ca:4b:d6:0d:16:91:98:55:47:23:c3:3e:e9:f1:ef:3c:2a:ac:
         81:75:da:f0:42:48:e3:82:18:b6:43:08:1f:3e:f2:ce:37:91:
         57:e5:91:d9:5f:27:7f:69:2a:fb:13:1c:65:0f:df:b7:52:c6:
         1a:87:bd:4c:2c:09:72:8b:75:ba:a1:02:c8:cc:f3:e0:8c:2b:
         86:03:e6:1d:e5:1f:94:91:1e:27:4b:0d:c6:af:a9:ad:ef:7d:
         b9:98:c6:ec:ae:2d:a3:4e:a4:f6:99:5b:f2:03:3e:dc:aa:cb:
         84:80:b6:fb:80:a2:03:3d:70:92:ed:a9:c4:cb:25:b5:bd:c9:
         8e:e8:58:84:8d:29:91:71:e2:da:9e:40:40:37:db:e7:91:d9:
         d5:02:ae:6a:b4:84:21:bf:ce:e4:bd:e4:dc:80:70:c9:a1:4a:
         90:3a:27:7e:d8:6a:60:86:c1:71:ec:28:ae:d9:b0:63:83:b8:
         c5:fe:10:f5:51:cb:aa:31:3a:fb:f8:a7:56:e4:7d:d9:83:c5:
         57:12:55:46:d7:c2:33:0e:35:d0:28:98:22:8e:6b:8e:47:84:
         98:17:e0:5e:7c:f0:a7:89:67:7b:86:de:c9:0d:75:c0:02:d8:
         a5:35:91:1d:fb:ed:c0:48:fb:b8:bf:51:af:73:28:03:08:fa:
         b5:a7:cc:62:c4:94:e3:93:5b:03:38:9e:13:13:1b:6d:c9:42:
         20:1b:4a:4e:d7:6f:c3:4a:1b:f4:65:7c:58:3e:b9:ab:01:94:
         2b:66:46:cb:c9:88:cf:cc:00:a7:e1:24:c2:d0:6b:1c:02:f9:
         66:1e:99:c6:07:c5:ff:bc:56:d2:2d:45:ba:f7:f2:ce:63:29:
         cd:fd:f6:c3:83:6e:7a:a0:3b:74:d7:94:69:e2:d6:b2:dd:9c:
         1c:a9:de:b6:c6:be:35:a1:be:89:91:80:3d:ba:7e:a0:30:88:
         b7:93:ee:71:c9:54:fb:84:71:37:a2:c8:61:71:e1:12:3d:d3:
         af:db:59:c7:b3:71:e6:23:e1:b9:a3:1a:ae:fe:73:05:22:bb:
         c5:eb:7b:ea:91:78:ef:9f:c7:8b:8c:bb:ba:57:96:84:d3:d1:
         e2:2d:83:b1:84:34:b2:f1:6c:1d:d0:0d:80:77:cb:74:c0:c7:
         2f:e6:63:49:69:0a:b1:34
-----BEGIN CERTIFICATE-----
MIIFnDCCA4SgAwIBAgICAUwwDQYJKoZIhvcNAQELBQAwgYQxCzAJBgNVBAYTAkNI
MRAwDgYDVQQIEwdUaHVyZ2F1MRAwDgYDVQQHEwdLZWZpa29uMRMwEQYDVQQKEwpn
dWVuZ2VsLmNoMRYwFAYDVQQDEw1DQSBndWVuZ2VsLmNoMSQwIgYJKoZIhvcNAQkB
FhVwb3N0bWFzdGVyQGd1ZW5nZWwuY2gwHhcNMTgxMjI5MTQzOTU2WhcNMjAwMjAy
MTQzOTU2WjCBgDELMAkGA1UEBhMCQ0gxEDAOBgNVBAgTB1RodXJnYXUxEzARBgNV
BAoTCmd1ZW5nZWwuY2gxJDAiBgNVBAMTG2FnZW50c21pdGgud2ViLmtydWVtZWwu
aG9tZTEkMCIGCSqGSIb3DQEJARYVcG9zdG1hc3RlckBndWVuZ2VsLmNoMIIBIjAN
BgkqhkiG9w0BAQEFAAOCAQ8AMIIBCgKCAQEA38zfI+w8Vrczl9GiBHQEPj1IqRRw
jNy9pNCcwMKNDC8bpPGW5PPm8ijTkPXrAbP4i4Xny6tTjaxBdSiZolucMdXpAD4L
Y+L7Y+IVi8W+E4iQSFhGm2veb2YJ6hljCW7yYpcOhvZfx57IHP50FSf2gTxcOGoV
AEq9TPhv1NdFlbvBbHbyjBRp2T0nssXfYVeR2R0NIhcvsQ+LgQ4wDDnFJ3IpdinH
xLoExR9j/DyxPOp7ADWobcVX3m28U8BSBc/8gK4DwsZN4TBpKANRuyoqWqLPvuOO
jfAFQHEODcGi0WnXAcL0JwzalS9uz+m4Sc3bH+FqTD0HltBuOLmcwLdx6wIDAQAB
o4IBGDCCARQwCQYDVR0TBAIwADAsBglghkgBhvhCAQ0EHxYdT3BlblNTTCBHZW5l
cmF0ZWQgQ2VydGlmaWNhdGUwHQYDVR0OBBYEFEAomuxapuNdOdZw1tdIarXfjLrm
MIG5BgNVHSMEgbEwga6AFNaI8arBKwmMuFydzt9XOWImECCQoYGKpIGHMIGEMQsw
CQYDVQQGEwJDSDEQMA4GA1UECBMHVGh1cmdhdTEQMA4GA1UEBxMHS2VmaWtvbjET
MBEGA1UEChMKZ3VlbmdlbC5jaDEWMBQGA1UEAxMNQ0EgZ3VlbmdlbC5jaDEkMCIG
CSqGSIb3DQEJARYVcG9zdG1hc3RlckBndWVuZ2VsLmNoggkA5SU7pne9y/8wDQYJ
KoZIhvcNAQELBQADggIBAGMA8GxDFeVX6DiTW6qMLVPlSz4lgQXJlC07w0hfzDHB
ac/IL9X1mHDbWl4JuaWgC397NHOW0xR+pDVEtypwODMeLJpQ7gbvospL1g0WkZhV
RyPDPunx7zwqrIF12vBCSOOCGLZDCB8+8s43kVflkdlfJ39pKvsTHGUP37dSxhqH
vUwsCXKLdbqhAsjM8+CMK4YD5h3lH5SRHidLDcavqa3vfbmYxuyuLaNOpPaZW/ID
Ptyqy4SAtvuAogM9cJLtqcTLJbW9yY7oWISNKZFx4tqeQEA32+eR2dUCrmq0hCG/
zuS95NyAcMmhSpA6J37YamCGwXHsKK7ZsGODuMX+EPVRy6oxOvv4p1bkfdmDxVcS
VUbXwjMONdAomCKOa45HhJgX4F588KeJZ3uG3skNdcAC2KU1kR377cBI+7i/Ua9z
KAMI+rWnzGLElOOTWwM4nhMTG23JQiAbSk7Xb8NKG/RlfFg+uasBlCtmRsvJiM/M
AKfhJMLQaxwC+WYemcYHxf+8VtItRbr38s5jKc399sODbnqgO3TXlGni1rLdnByp
3rbGvjWhvomRgD26fqAwiLeT7nHJVPuEcTeiyGFx4RI906/bWcezceYj4bmjGq7+
cwUiu8Xre+qReO+fx4uMu7pXloTT0eItg7GENLLxbB3QDYB3y3TAxy/mY0lpCrE0
-----END CERTIFICATE-----
