Certificate:
    Data:
        Version: 3 (0x2)
        Serial Number: 455 (0x1c7)
        Signature Algorithm: sha256WithRSAEncryption
        Issuer: C=CH, ST=Thurgau, L=Kefikon, O=guengel.ch, CN=CA guengel.ch/emailAddress=postmaster@guengel.ch
        Validity
            Not Before: Feb 11 07:06:57 2022 GMT
            Not After : Mar 18 07:06:57 2023 GMT
        Subject: C=CH, ST=Thurgau, O=guengel.ch, CN=amd64-2.k8s.kruemel.home/emailAddress=postmaster@guengel.ch
        Subject Public Key Info:
            Public Key Algorithm: rsaEncryption
                RSA Public-Key: (2048 bit)
                Modulus:
                    00:c2:17:69:c6:34:52:c6:42:d2:3c:f1:6d:1e:99:
                    95:0b:40:47:e4:06:b7:6f:6d:3f:5c:97:eb:24:74:
                    29:38:bd:f1:14:c2:7e:fb:88:ab:6b:c9:36:ae:ff:
                    62:84:c6:51:73:e0:a3:45:db:17:86:a7:49:36:39:
                    e5:c4:0f:d4:75:68:7c:25:0b:7f:59:db:e1:bc:30:
                    07:1b:9d:f5:8b:8e:cf:e4:bc:94:43:28:07:77:f6:
                    d4:54:bb:1c:de:d5:de:e1:1b:6d:cc:a0:4a:8d:41:
                    48:d7:af:a5:76:12:66:d4:7b:c0:82:ba:c1:23:ba:
                    e0:e6:b4:4d:8f:f2:4a:c2:22:10:05:08:47:66:67:
                    f7:9b:ef:9c:5f:06:32:af:82:34:3c:a1:20:90:b6:
                    85:fb:a8:e3:77:d4:f7:03:eb:3e:bb:ce:22:16:1a:
                    f8:9a:a5:03:58:b1:0f:ad:77:5e:45:a4:f4:d8:69:
                    0e:95:59:3d:44:e1:d1:7c:9f:7d:a3:bb:6e:fa:59:
                    fb:10:3f:a4:f4:2a:20:1a:a3:b9:aa:9a:83:15:2a:
                    e5:95:0f:a7:c0:3e:a4:89:cf:88:16:70:19:78:42:
                    1a:ec:4c:08:27:8c:d6:04:b1:c6:df:a8:13:2c:bc:
                    db:bf:51:0a:17:f8:c9:5a:3c:47:02:a5:af:f8:90:
                    bf:77
                Exponent: 65537 (0x10001)
        X509v3 extensions:
            X509v3 Key Usage: 
                Digital Signature, Key Encipherment, Key Agreement
            X509v3 Basic Constraints: critical
                CA:FALSE
            Netscape Cert Type: 
                SSL Client, SSL Server
            X509v3 Extended Key Usage: 
                TLS Web Server Authentication, TLS Web Client Authentication
            X509v3 Subject Alternative Name: 
                DNS:amd64-2.k8s.kruemel.home
            X509v3 Subject Key Identifier: 
                92:B8:46:E3:69:B5:71:1E:71:57:69:BA:00:41:83:0A:27:BE:72:9D
            X509v3 Authority Key Identifier: 
                keyid:D6:88:F1:AA:C1:2B:09:8C:B8:5C:9D:CE:DF:57:39:62:26:10:20:90
                DirName:/C=CH/ST=Thurgau/L=Kefikon/O=guengel.ch/CN=CA guengel.ch/emailAddress=postmaster@guengel.ch
                serial:E5:25:3B:A6:77:BD:CB:FF

    Signature Algorithm: sha256WithRSAEncryption
         5b:d6:f1:4c:94:5a:03:5a:e1:4a:26:4d:85:51:7c:3f:cf:2b:
         91:58:27:6d:38:16:56:55:2e:dd:c3:70:31:13:f7:d4:fb:87:
         19:d7:5f:16:f8:2b:4d:bc:6a:b4:36:60:cd:b7:4a:d0:2b:da:
         e3:9f:13:ae:d1:a1:f4:ad:88:a4:26:aa:c6:c1:07:9d:e6:6d:
         1d:ce:a8:e5:4d:80:7a:74:32:87:07:4a:22:36:30:ab:d0:8c:
         74:92:97:22:c7:12:d9:e8:7d:18:c9:8e:7a:13:d2:bd:5f:a3:
         6e:9a:c7:00:4a:a2:d0:2c:4b:62:da:a8:89:46:8a:2b:9f:2b:
         4b:0d:68:f2:2e:54:5f:0c:87:ed:1e:ad:ac:db:6e:81:83:a5:
         98:3b:c2:49:4d:98:69:d5:e6:29:55:71:72:1a:8a:89:e8:31:
         9c:84:fd:6f:87:ac:77:95:7a:40:ae:f2:f4:eb:37:49:92:ed:
         6a:bb:c9:0e:6d:28:46:d5:ed:e1:7c:8b:13:04:e5:1f:c4:b6:
         67:21:ba:1e:92:41:62:80:9a:92:f4:dc:fe:de:7c:26:c2:02:
         c2:51:5c:72:21:0a:82:60:ef:c4:f5:0c:d1:9a:b6:43:a4:f5:
         e3:2d:67:4e:a4:dd:07:64:7c:a0:4e:e0:81:6a:70:27:be:bb:
         1a:1b:ee:c4:fd:0b:61:92:50:9f:fa:b3:8a:47:32:e9:af:82:
         58:eb:38:85:de:0e:37:42:3c:40:ee:2f:20:87:8f:95:dc:b0:
         e9:28:ca:be:e4:41:6f:14:f2:c5:78:ea:51:d8:96:3f:1f:f2:
         4b:6d:e0:2b:7d:b0:8d:f7:3a:6f:41:c9:78:b1:db:a6:ec:3e:
         13:59:93:3f:7c:ef:b8:8b:8a:28:a3:99:e9:29:70:e4:4a:8a:
         3d:33:01:18:68:3b:a0:8a:51:e2:6f:76:a5:57:fa:19:5e:5b:
         b6:db:52:81:6a:24:5c:7c:ca:eb:d3:80:73:9c:d8:54:a9:0f:
         55:c1:63:98:7c:f9:ba:88:df:0a:84:db:db:90:17:09:ec:99:
         d5:40:87:c4:33:43:a8:ef:37:3a:b8:7a:d0:aa:78:0d:4d:2a:
         71:0e:b4:90:ee:69:cd:3d:aa:08:68:99:ba:8b:b0:d0:ca:1d:
         de:82:1f:b6:77:a0:0f:97:cc:af:d0:01:35:50:54:11:b3:b6:
         ce:4f:fa:0e:71:43:fd:18:47:1b:f3:15:6c:bb:99:dc:60:7f:
         d5:6d:b2:36:1d:14:f2:7a:41:fd:46:d3:71:12:4f:53:ba:bc:
         b1:69:c3:3a:cb:3d:21:8c:4f:07:59:ad:2e:b6:08:07:11:6a:
         2c:c0:16:c2:25:49:70:17
-----BEGIN CERTIFICATE-----
MIIF0TCCA7mgAwIBAgICAccwDQYJKoZIhvcNAQELBQAwgYQxCzAJBgNVBAYTAkNI
MRAwDgYDVQQIEwdUaHVyZ2F1MRAwDgYDVQQHEwdLZWZpa29uMRMwEQYDVQQKEwpn
dWVuZ2VsLmNoMRYwFAYDVQQDEw1DQSBndWVuZ2VsLmNoMSQwIgYJKoZIhvcNAQkB
FhVwb3N0bWFzdGVyQGd1ZW5nZWwuY2gwHhcNMjIwMjExMDcwNjU3WhcNMjMwMzE4
MDcwNjU3WjB9MQswCQYDVQQGEwJDSDEQMA4GA1UECBMHVGh1cmdhdTETMBEGA1UE
ChMKZ3VlbmdlbC5jaDEhMB8GA1UEAxMYYW1kNjQtMi5rOHMua3J1ZW1lbC5ob21l
MSQwIgYJKoZIhvcNAQkBFhVwb3N0bWFzdGVyQGd1ZW5nZWwuY2gwggEiMA0GCSqG
SIb3DQEBAQUAA4IBDwAwggEKAoIBAQDCF2nGNFLGQtI88W0emZULQEfkBrdvbT9c
l+skdCk4vfEUwn77iKtryTau/2KExlFz4KNF2xeGp0k2OeXED9R1aHwlC39Z2+G8
MAcbnfWLjs/kvJRDKAd39tRUuxze1d7hG23MoEqNQUjXr6V2EmbUe8CCusEjuuDm
tE2P8krCIhAFCEdmZ/eb75xfBjKvgjQ8oSCQtoX7qON31PcD6z67ziIWGviapQNY
sQ+td15FpPTYaQ6VWT1E4dF8n32ju276WfsQP6T0KiAao7mqmoMVKuWVD6fAPqSJ
z4gWcBl4QhrsTAgnjNYEscbfqBMsvNu/UQoX+MlaPEcCpa/4kL93AgMBAAGjggFR
MIIBTTALBgNVHQ8EBAMCA6gwDAYDVR0TAQH/BAIwADARBglghkgBhvhCAQEEBAMC
BsAwHQYDVR0lBBYwFAYIKwYBBQUHAwEGCCsGAQUFBwMCMCMGA1UdEQQcMBqCGGFt
ZDY0LTIuazhzLmtydWVtZWwuaG9tZTAdBgNVHQ4EFgQUkrhG42m1cR5xV2m6AEGD
Cie+cp0wgbkGA1UdIwSBsTCBroAU1ojxqsErCYy4XJ3O31c5YiYQIJChgYqkgYcw
gYQxCzAJBgNVBAYTAkNIMRAwDgYDVQQIEwdUaHVyZ2F1MRAwDgYDVQQHEwdLZWZp
a29uMRMwEQYDVQQKEwpndWVuZ2VsLmNoMRYwFAYDVQQDEw1DQSBndWVuZ2VsLmNo
MSQwIgYJKoZIhvcNAQkBFhVwb3N0bWFzdGVyQGd1ZW5nZWwuY2iCCQDlJTumd73L
/zANBgkqhkiG9w0BAQsFAAOCAgEAW9bxTJRaA1rhSiZNhVF8P88rkVgnbTgWVlUu
3cNwMRP31PuHGddfFvgrTbxqtDZgzbdK0Cva458TrtGh9K2IpCaqxsEHneZtHc6o
5U2AenQyhwdKIjYwq9CMdJKXIscS2eh9GMmOehPSvV+jbprHAEqi0CxLYtqoiUaK
K58rSw1o8i5UXwyH7R6trNtugYOlmDvCSU2YadXmKVVxchqKiegxnIT9b4esd5V6
QK7y9Os3SZLtarvJDm0oRtXt4XyLEwTlH8S2ZyG6HpJBYoCakvTc/t58JsICwlFc
ciEKgmDvxPUM0Zq2Q6T14y1nTqTdB2R8oE7ggWpwJ767GhvuxP0LYZJQn/qzikcy
6a+CWOs4hd4ON0I8QO4vIIePldyw6SjKvuRBbxTyxXjqUdiWPx/yS23gK32wjfc6
b0HJeLHbpuw+E1mTP3zvuIuKKKOZ6Slw5EqKPTMBGGg7oIpR4m92pVf6GV5btttS
gWokXHzK69OAc5zYVKkPVcFjmHz5uojfCoTb25AXCeyZ1UCHxDNDqO83Orh60Kp4
DU0qcQ60kO5pzT2qCGiZuouw0Mod3oIftnegD5fMr9ABNVBUEbO2zk/6DnFD/RhH
G/MVbLuZ3GB/1W2yNh0U8npB/UbTcRJPU7q8sWnDOss9IYxPB1mtLrYIBxFqLMAW
wiVJcBc=
-----END CERTIFICATE-----
