Certificate:
    Data:
        Version: 3 (0x2)
        Serial Number:
            7b:01:b2:a2:f4:05:4e:81:5b:d4:83:f0:60:4b:3d:6c:27:70:03:3d
        Signature Algorithm: sha256WithRSAEncryption
        Issuer: C=CH, ST=Thurgau, L=Kefikon, O=guengel.ch, CN=CA 2022/emailAddress=postmaster@guengel.ch
        Validity
            Not Before: Jan  3 14:04:16 2025 GMT
            Not After : Feb  7 14:04:16 2026 GMT
        Subject: C=CH, ST=Thurgau, O=guengel.ch, CN=amd64-1.k8s.kruemel.home/emailAddress=postmaster@guengel.ch
        Subject Public Key Info:
            Public Key Algorithm: rsaEncryption
                Public-Key: (2048 bit)
                Modulus:
                    00:b1:68:c2:89:f3:bc:aa:68:b4:43:e8:4e:8c:71:
                    ce:46:a0:21:77:67:58:86:ec:f4:74:18:52:82:42:
                    78:61:37:2a:c5:0d:64:06:e9:dc:20:26:f3:b5:f4:
                    85:d1:ee:ce:7c:88:cc:cd:0f:21:5f:b1:2f:87:ed:
                    d2:76:3c:b7:59:89:31:e4:6b:58:9f:d9:33:bd:3f:
                    23:5b:35:36:7f:61:ae:6b:2b:ec:cc:dd:e3:09:5f:
                    ab:02:14:88:f4:bd:0c:f4:52:0b:ab:1c:f7:3b:25:
                    0e:57:59:fb:c4:8d:2d:fd:fe:89:d0:91:5d:c7:a1:
                    cc:cd:86:df:d3:50:25:3f:37:bd:5d:3d:41:a1:97:
                    52:cb:90:04:c3:d1:a5:0e:31:a9:24:a7:33:28:19:
                    f0:c4:65:e9:c8:04:f1:d7:97:73:c5:3c:b5:99:71:
                    ef:51:63:23:02:81:22:91:fe:a3:bf:d1:ba:62:aa:
                    ad:04:81:a7:7e:1f:92:a5:1e:11:21:ae:a7:a4:87:
                    12:69:0b:a5:80:fb:9e:18:f3:c9:bf:e9:5d:04:6e:
                    ea:fd:d0:9e:02:f0:00:9f:95:e5:b6:d5:28:fa:85:
                    4b:b5:ca:a8:80:be:d4:21:d3:4b:59:dc:5a:39:50:
                    fe:11:8f:d5:b5:43:18:ac:25:2f:f6:78:bb:b1:e8:
                    79:89
                Exponent: 65537 (0x10001)
        X509v3 extensions:
            X509v3 Basic Constraints: critical
                CA:FALSE
            X509v3 Key Usage: 
                Digital Signature, Key Encipherment, Key Agreement
            X509v3 Subject Key Identifier: 
                93:9C:19:9A:10:D9:7B:F9:07:75:C7:EE:62:C6:03:D8:F7:3E:33:B5
            X509v3 Authority Key Identifier: 
                keyid:22:20:0D:51:40:61:42:BE:DD:BA:D9:C9:C1:77:B6:93:28:C3:99:EC
                DirName:/C=CH/ST=Thurgau/L=Kefikon/O=guengel.ch/CN=CA 2022/emailAddress=postmaster@guengel.ch
                serial:6D:29:90:54:E9:17:E9:C2:6A:E6:52:AD:84:4E:30:8E:6E:57:FB:1C
            Netscape Cert Type: 
                SSL Client, SSL Server
            X509v3 Extended Key Usage: 
                TLS Web Server Authentication, TLS Web Client Authentication
    Signature Algorithm: sha256WithRSAEncryption
    Signature Value:
        b0:a9:24:08:36:06:97:f6:fb:53:02:a1:39:14:d4:d1:65:d9:
        4b:3e:ca:9a:7f:fb:97:a6:c2:ea:89:ab:70:ae:2d:c4:54:63:
        86:c7:1c:16:13:ac:5d:57:ab:2e:b6:61:96:23:66:04:9c:9b:
        51:17:db:b5:f9:97:dd:cb:e9:ab:f5:0e:d1:01:7c:7b:17:c5:
        04:d1:93:49:ae:6f:d5:60:5c:f1:73:46:1b:2a:a9:41:30:66:
        5c:d1:1b:66:2e:f1:ad:5b:31:7f:46:59:77:a1:f4:11:c1:e8:
        2d:06:81:be:14:fb:e6:36:0c:9a:f3:4f:cd:15:5e:35:f7:ce:
        37:a5:ff:6b:8b:11:1a:da:c7:59:06:88:11:37:0c:d9:cd:2d:
        70:7e:8b:fe:99:f1:41:74:e7:f5:c5:87:6d:f0:c8:df:73:6d:
        6b:06:5b:c2:d6:49:b1:e4:c9:5d:18:f8:37:f6:53:50:5c:4d:
        92:7f:5b:c8:03:92:e0:12:50:22:d0:f8:f9:d3:7d:46:7f:2a:
        c8:61:cd:ba:b4:93:fd:e5:71:23:92:bb:ba:c1:ae:de:1a:6d:
        21:f1:39:62:c6:31:21:75:f6:a6:5a:d7:5c:33:cf:0c:b5:0b:
        f4:d7:7f:d5:a5:93:40:65:3d:fd:1b:7f:3c:05:d4:58:49:21:
        b3:e6:bc:f4:60:36:2d:fd:37:13:25:70:89:c4:6a:22:5c:83:
        ce:5d:77:2a:7d:4d:5e:38:ae:74:e9:0f:9b:26:89:28:88:93:
        f7:6b:4e:cf:70:76:1a:d6:54:5b:9d:81:7a:ac:18:ae:be:e3:
        99:b3:30:dd:bc:bc:c7:0f:ae:16:f5:58:b9:7f:4a:fc:b2:72:
        d5:9c:4d:40:51:a3:07:21:c8:01:ec:08:e9:b0:5d:13:84:f2:
        70:9f:4e:e1:b9:0a:60:cd:4c:81:22:e1:3c:07:02:91:f2:1a:
        69:d9:bc:6c:24:d6:58:04:c9:91:7e:38:50:95:c7:b9:e4:00:
        62:8b:ad:5d:9c:35:4e:a1:01:92:a7:5f:02:70:5b:40:fa:16:
        f3:99:eb:5c:c6:01:d0:e5:0c:0c:84:ee:7e:4e:11:89:2c:e1:
        a8:6c:68:46:5c:56:26:fa:da:9c:ce:a6:d4:e5:02:94:ce:8d:
        fd:8e:b9:2e:f0:ff:54:14:1c:b1:fb:2a:dc:38:e4:cf:d7:f3:
        2c:3a:0e:f1:97:bf:e8:60:70:96:0f:e3:27:c2:01:69:a8:81:
        e9:53:bb:26:7d:21:d2:e2:23:3a:e5:85:f9:50:2b:dc:b7:8b:
        74:0e:3f:0b:5e:88:ed:0d:1f:bc:c7:dd:a6:a5:74:ff:28:6c:
        20:0e:59:f9:03:31:21:8c
-----BEGIN CERTIFICATE-----
MIIFuzCCA6OgAwIBAgIUewGyovQFToFb1IPwYEs9bCdwAz0wDQYJKoZIhvcNAQEL
BQAwfjELMAkGA1UEBhMCQ0gxEDAOBgNVBAgTB1RodXJnYXUxEDAOBgNVBAcTB0tl
Zmlrb24xEzARBgNVBAoTCmd1ZW5nZWwuY2gxEDAOBgNVBAMTB0NBIDIwMjIxJDAi
BgkqhkiG9w0BCQEWFXBvc3RtYXN0ZXJAZ3VlbmdlbC5jaDAeFw0yNTAxMDMxNDA0
MTZaFw0yNjAyMDcxNDA0MTZaMH0xCzAJBgNVBAYTAkNIMRAwDgYDVQQIEwdUaHVy
Z2F1MRMwEQYDVQQKEwpndWVuZ2VsLmNoMSEwHwYDVQQDExhhbWQ2NC0xLms4cy5r
cnVlbWVsLmhvbWUxJDAiBgkqhkiG9w0BCQEWFXBvc3RtYXN0ZXJAZ3VlbmdlbC5j
aDCCASIwDQYJKoZIhvcNAQEBBQADggEPADCCAQoCggEBALFowonzvKpotEPoToxx
zkagIXdnWIbs9HQYUoJCeGE3KsUNZAbp3CAm87X0hdHuznyIzM0PIV+xL4ft0nY8
t1mJMeRrWJ/ZM70/I1s1Nn9hrmsr7Mzd4wlfqwIUiPS9DPRSC6sc9zslDldZ+8SN
Lf3+idCRXcehzM2G39NQJT83vV09QaGXUsuQBMPRpQ4xqSSnMygZ8MRl6cgE8deX
c8U8tZlx71FjIwKBIpH+o7/RumKqrQSBp34fkqUeESGup6SHEmkLpYD7nhjzyb/p
XQRu6v3QngLwAJ+V5bbVKPqFS7XKqIC+1CHTS1ncWjlQ/hGP1bVDGKwlL/Z4u7Ho
eYkCAwEAAaOCATAwggEsMAwGA1UdEwEB/wQCMAAwCwYDVR0PBAQDAgOoMB0GA1Ud
DgQWBBSTnBmaENl7+Qd1x+5ixgPY9z4ztTCBvQYDVR0jBIG1MIGygBQiIA1RQGFC
vt262cnBd7aTKMOZ7KGBg6SBgDB+MQswCQYDVQQGEwJDSDEQMA4GA1UECBMHVGh1
cmdhdTEQMA4GA1UEBxMHS2VmaWtvbjETMBEGA1UEChMKZ3VlbmdlbC5jaDEQMA4G
A1UEAxMHQ0EgMjAyMjEkMCIGCSqGSIb3DQEJARYVcG9zdG1hc3RlckBndWVuZ2Vs
LmNoghRtKZBU6RfpwmrmUq2ETjCOblf7HDARBglghkgBhvhCAQEEBAMCBsAwHQYD
VR0lBBYwFAYIKwYBBQUHAwEGCCsGAQUFBwMCMA0GCSqGSIb3DQEBCwUAA4ICAQCw
qSQINgaX9vtTAqE5FNTRZdlLPsqaf/uXpsLqiatwri3EVGOGxxwWE6xdV6sutmGW
I2YEnJtRF9u1+Zfdy+mr9Q7RAXx7F8UE0ZNJrm/VYFzxc0YbKqlBMGZc0RtmLvGt
WzF/Rll3ofQRwegtBoG+FPvmNgya80/NFV419843pf9rixEa2sdZBogRNwzZzS1w
fov+mfFBdOf1xYdt8Mjfc21rBlvC1kmx5MldGPg39lNQXE2Sf1vIA5LgElAi0Pj5
031GfyrIYc26tJP95XEjkru6wa7eGm0h8TlixjEhdfamWtdcM88MtQv013/VpZNA
ZT39G388BdRYSSGz5rz0YDYt/TcTJXCJxGoiXIPOXXcqfU1eOK506Q+bJokoiJP3
a07PcHYa1lRbnYF6rBiuvuOZszDdvLzHD64W9Vi5f0r8snLVnE1AUaMHIcgB7Ajp
sF0ThPJwn07huQpgzUyBIuE8BwKR8hpp2bxsJNZYBMmRfjhQlce55ABii61dnDVO
oQGSp18CcFtA+hbzmetcxgHQ5QwMhO5+ThGJLOGobGhGXFYm+tqczqbU5QKUzo39
jrku8P9UFByx+yrcOOTP1/MsOg7xl7/oYHCWD+MnwgFpqIHpU7smfSHS4iM65YX5
UCvct4t0Dj8LXojtDR+8x92mpXT/KGwgDln5AzEhjA==
-----END CERTIFICATE-----
