Certificate:
    Data:
        Version: 3 (0x2)
        Serial Number:
            46:0a:01:d4:3a:43:59:06:30:99:d4:b6:f0:1a:08:f8:63:39:09:b2
        Signature Algorithm: sha256WithRSAEncryption
        Issuer: C=CH, ST=Thurgau, L=Kefikon, O=guengel.ch, CN=CA 2022/emailAddress=postmaster@guengel.ch
        Validity
            Not Before: Dec 30 08:44:19 2023 GMT
            Not After : Feb  2 08:44:19 2025 GMT
        Subject: C=CH, ST=Thurgau, O=guengel.ch, CN=amd64-2.k8s.kruemel.home/emailAddress=postmaster@guengel.ch
        Subject Public Key Info:
            Public Key Algorithm: rsaEncryption
                RSA Public-Key: (2048 bit)
                Modulus:
                    00:c4:a9:e9:e9:48:4c:e4:14:ef:bc:3f:19:2d:52:
                    34:a9:55:d3:dc:22:c6:e6:80:36:66:de:46:4b:ec:
                    d6:5a:d9:2e:94:d8:15:27:52:f9:5c:1f:3e:e2:dd:
                    16:e8:1d:e3:83:1b:6d:6d:ef:4e:ce:a6:fc:54:a1:
                    96:42:38:79:29:49:db:9f:d4:ec:59:f8:ef:12:61:
                    c8:8d:4e:7e:66:68:5a:4b:0b:df:e1:cd:e0:a8:7e:
                    cd:ae:63:84:f0:90:d7:45:91:6e:1f:be:dc:bc:a6:
                    5b:18:6b:c3:66:96:8e:56:06:f7:95:f2:b8:72:c2:
                    96:84:4c:d3:64:47:17:f7:9a:8e:b1:34:97:6b:2d:
                    82:99:46:0c:df:28:ad:f0:04:b5:ea:15:f5:da:63:
                    b8:91:07:2b:d3:55:49:54:a8:00:18:da:df:c4:03:
                    92:42:21:59:23:17:bf:3f:39:02:71:20:c5:95:f2:
                    12:5c:c9:6b:89:99:85:ad:52:3d:e7:6c:32:9c:71:
                    ef:3d:5c:1a:5a:cc:f4:d7:9e:be:76:54:dd:6d:c5:
                    24:e5:18:e1:7c:3b:a1:33:3a:1b:60:eb:fc:43:48:
                    22:a7:ca:36:83:0c:a3:c3:46:26:05:a2:74:2a:e1:
                    27:cc:b0:fc:07:f7:92:51:e0:81:51:9b:f3:7e:35:
                    41:cf
                Exponent: 65537 (0x10001)
        X509v3 extensions:
            X509v3 Basic Constraints: critical
                CA:FALSE
            X509v3 Key Usage: 
                Digital Signature, Key Encipherment, Key Agreement
            X509v3 Subject Key Identifier: 
                6A:11:ED:2D:75:55:AB:55:34:47:76:5E:45:96:F0:A7:00:94:F8:DA
            X509v3 Authority Key Identifier: 
                keyid:22:20:0D:51:40:61:42:BE:DD:BA:D9:C9:C1:77:B6:93:28:C3:99:EC
                DirName:/C=CH/ST=Thurgau/L=Kefikon/O=guengel.ch/CN=CA 2022/emailAddress=postmaster@guengel.ch
                serial:6D:29:90:54:E9:17:E9:C2:6A:E6:52:AD:84:4E:30:8E:6E:57:FB:1C

            Netscape Cert Type: 
                SSL Client, SSL Server
            X509v3 Extended Key Usage: 
                TLS Web Server Authentication, TLS Web Client Authentication
    Signature Algorithm: sha256WithRSAEncryption
         22:ea:dd:e0:2a:83:4b:8c:4a:f4:4d:1e:a3:12:f0:be:89:05:
         00:db:65:2a:d9:87:d3:42:9b:0e:44:53:58:03:52:d1:5c:12:
         40:06:54:29:bb:3e:dd:4e:d6:aa:bb:8a:96:c7:fd:53:2f:2b:
         62:3f:f2:7c:85:78:28:09:04:93:36:0f:fc:c0:3a:fe:b3:fe:
         91:fc:f1:68:21:96:4f:38:16:f3:1c:40:32:ee:ba:f3:69:a5:
         7f:5e:6b:77:7c:9d:4b:1e:e7:20:45:e2:5e:37:91:53:aa:b5:
         12:38:5d:cc:85:7f:23:0e:6a:39:e0:ad:af:21:f7:0c:16:3a:
         f8:60:98:a7:d9:66:1a:d2:cb:51:fa:2a:57:b0:df:5f:09:ff:
         3f:50:ec:86:50:ea:e0:06:d9:e9:a1:43:23:23:be:e2:4b:a1:
         b4:5b:b7:86:fb:6e:e4:8d:1b:92:8f:e8:dd:12:3a:39:cc:66:
         2b:ac:ab:c8:a9:32:72:d2:c2:31:5f:50:e6:02:4c:2c:0e:4e:
         7c:4d:7d:42:76:b7:9b:e3:f1:2c:1b:a2:de:3f:86:2f:4d:74:
         78:a4:e4:00:ce:22:51:7b:d6:56:5d:85:69:04:3e:08:72:34:
         51:8c:df:13:4b:ff:0c:3c:e1:ed:9c:57:25:f3:c9:9b:cb:7e:
         e5:9d:94:ef:cf:3a:77:27:f1:cf:3c:a2:0c:86:ec:2a:7a:ce:
         39:06:ab:4d:1f:5a:b2:e5:0c:75:3a:d0:d7:ad:25:fa:91:c4:
         b7:7f:da:51:46:5f:68:eb:9b:81:4f:69:1f:d2:d5:77:fd:19:
         c3:9f:c4:04:76:2f:e6:46:94:de:1c:be:af:19:60:ca:e4:c7:
         07:2c:73:60:b2:c3:80:8b:be:11:e8:68:52:4f:03:0c:5d:08:
         57:6c:e8:0e:b4:a5:9f:6a:19:d6:e1:2c:af:7c:51:35:58:04:
         fc:50:cf:bc:71:02:61:96:d6:60:53:f5:dd:b6:df:54:f1:df:
         a5:6f:b7:89:68:09:93:af:cd:8e:91:82:68:7a:df:36:35:ae:
         e1:18:24:03:96:59:2d:b8:cc:22:51:d1:e6:61:fc:1a:44:c8:
         e6:d1:a9:93:23:5e:cd:80:a3:c8:30:ea:aa:db:fb:24:4f:b8:
         87:7c:73:16:00:6d:ae:26:9c:51:c5:62:27:08:7f:e6:c5:86:
         93:6e:ca:87:e8:90:d8:bf:bd:cc:89:45:5f:3b:3d:35:de:55:
         3c:9d:6f:f6:c8:32:8e:f7:e0:9c:19:d2:5d:9a:97:9a:94:08:
         e9:f6:7b:2d:80:03:b2:be:9b:e0:78:6a:62:9c:7d:1e:da:51:
         b1:c5:a7:bd:35:ab:8e:23
-----BEGIN CERTIFICATE-----
MIIFuzCCA6OgAwIBAgIURgoB1DpDWQYwmdS28BoI+GM5CbIwDQYJKoZIhvcNAQEL
BQAwfjELMAkGA1UEBhMCQ0gxEDAOBgNVBAgTB1RodXJnYXUxEDAOBgNVBAcTB0tl
Zmlrb24xEzARBgNVBAoTCmd1ZW5nZWwuY2gxEDAOBgNVBAMTB0NBIDIwMjIxJDAi
BgkqhkiG9w0BCQEWFXBvc3RtYXN0ZXJAZ3VlbmdlbC5jaDAeFw0yMzEyMzAwODQ0
MTlaFw0yNTAyMDIwODQ0MTlaMH0xCzAJBgNVBAYTAkNIMRAwDgYDVQQIEwdUaHVy
Z2F1MRMwEQYDVQQKEwpndWVuZ2VsLmNoMSEwHwYDVQQDExhhbWQ2NC0yLms4cy5r
cnVlbWVsLmhvbWUxJDAiBgkqhkiG9w0BCQEWFXBvc3RtYXN0ZXJAZ3VlbmdlbC5j
aDCCASIwDQYJKoZIhvcNAQEBBQADggEPADCCAQoCggEBAMSp6elITOQU77w/GS1S
NKlV09wixuaANmbeRkvs1lrZLpTYFSdS+VwfPuLdFugd44MbbW3vTs6m/FShlkI4
eSlJ25/U7Fn47xJhyI1OfmZoWksL3+HN4Kh+za5jhPCQ10WRbh++3LymWxhrw2aW
jlYG95XyuHLCloRM02RHF/eajrE0l2stgplGDN8orfAEteoV9dpjuJEHK9NVSVSo
ABja38QDkkIhWSMXvz85AnEgxZXyElzJa4mZha1SPedsMpxx7z1cGlrM9NeevnZU
3W3FJOUY4Xw7oTM6G2Dr/ENIIqfKNoMMo8NGJgWidCrhJ8yw/Af3klHggVGb8341
Qc8CAwEAAaOCATAwggEsMAwGA1UdEwEB/wQCMAAwCwYDVR0PBAQDAgOoMB0GA1Ud
DgQWBBRqEe0tdVWrVTRHdl5FlvCnAJT42jCBvQYDVR0jBIG1MIGygBQiIA1RQGFC
vt262cnBd7aTKMOZ7KGBg6SBgDB+MQswCQYDVQQGEwJDSDEQMA4GA1UECBMHVGh1
cmdhdTEQMA4GA1UEBxMHS2VmaWtvbjETMBEGA1UEChMKZ3VlbmdlbC5jaDEQMA4G
A1UEAxMHQ0EgMjAyMjEkMCIGCSqGSIb3DQEJARYVcG9zdG1hc3RlckBndWVuZ2Vs
LmNoghRtKZBU6RfpwmrmUq2ETjCOblf7HDARBglghkgBhvhCAQEEBAMCBsAwHQYD
VR0lBBYwFAYIKwYBBQUHAwEGCCsGAQUFBwMCMA0GCSqGSIb3DQEBCwUAA4ICAQAi
6t3gKoNLjEr0TR6jEvC+iQUA22Uq2YfTQpsORFNYA1LRXBJABlQpuz7dTtaqu4qW
x/1TLytiP/J8hXgoCQSTNg/8wDr+s/6R/PFoIZZPOBbzHEAy7rrzaaV/Xmt3fJ1L
HucgReJeN5FTqrUSOF3MhX8jDmo54K2vIfcMFjr4YJin2WYa0stR+ipXsN9fCf8/
UOyGUOrgBtnpoUMjI77iS6G0W7eG+27kjRuSj+jdEjo5zGYrrKvIqTJy0sIxX1Dm
AkwsDk58TX1Cdreb4/EsG6LeP4YvTXR4pOQAziJRe9ZWXYVpBD4IcjRRjN8TS/8M
POHtnFcl88mby37lnZTvzzp3J/HPPKIMhuwqes45BqtNH1qy5Qx1OtDXrSX6kcS3
f9pRRl9o65uBT2kf0tV3/RnDn8QEdi/mRpTeHL6vGWDK5McHLHNgssOAi74R6GhS
TwMMXQhXbOgOtKWfahnW4SyvfFE1WAT8UM+8cQJhltZgU/Xdtt9U8d+lb7eJaAmT
r82OkYJoet82Na7hGCQDllktuMwiUdHmYfwaRMjm0amTI17NgKPIMOqq2/skT7iH
fHMWAG2uJpxRxWInCH/mxYaTbsqH6JDYv73MiUVfOz013lU8nW/2yDKO9+CcGdJd
mpealAjp9nstgAOyvpvgeGpinH0e2lGxxae9NauOIw==
-----END CERTIFICATE-----
