Certificate:
    Data:
        Version: 3 (0x2)
        Serial Number:
            20:b4:2d:84:48:04:62:9d:15:22:71:03:8c:57:09:e5:dd:e2:a5:96
        Signature Algorithm: sha256WithRSAEncryption
        Issuer: C=CH, ST=Thurgau, L=Kefikon, O=guengel.ch, CN=CA 2022/emailAddress=postmaster@guengel.ch
        Validity
            Not Before: Feb 28 06:36:38 2023 GMT
            Not After : Apr  3 06:36:38 2024 GMT
        Subject: C=CH, ST=Thurgau, O=guengel.ch, CN=amd64-2.k8s.kruemel.home/emailAddress=postmaster@guengel.ch
        Subject Public Key Info:
            Public Key Algorithm: rsaEncryption
                RSA Public-Key: (2048 bit)
                Modulus:
                    00:c4:a9:e9:e9:48:4c:e4:14:ef:bc:3f:19:2d:52:
                    34:a9:55:d3:dc:22:c6:e6:80:36:66:de:46:4b:ec:
                    d6:5a:d9:2e:94:d8:15:27:52:f9:5c:1f:3e:e2:dd:
                    16:e8:1d:e3:83:1b:6d:6d:ef:4e:ce:a6:fc:54:a1:
                    96:42:38:79:29:49:db:9f:d4:ec:59:f8:ef:12:61:
                    c8:8d:4e:7e:66:68:5a:4b:0b:df:e1:cd:e0:a8:7e:
                    cd:ae:63:84:f0:90:d7:45:91:6e:1f:be:dc:bc:a6:
                    5b:18:6b:c3:66:96:8e:56:06:f7:95:f2:b8:72:c2:
                    96:84:4c:d3:64:47:17:f7:9a:8e:b1:34:97:6b:2d:
                    82:99:46:0c:df:28:ad:f0:04:b5:ea:15:f5:da:63:
                    b8:91:07:2b:d3:55:49:54:a8:00:18:da:df:c4:03:
                    92:42:21:59:23:17:bf:3f:39:02:71:20:c5:95:f2:
                    12:5c:c9:6b:89:99:85:ad:52:3d:e7:6c:32:9c:71:
                    ef:3d:5c:1a:5a:cc:f4:d7:9e:be:76:54:dd:6d:c5:
                    24:e5:18:e1:7c:3b:a1:33:3a:1b:60:eb:fc:43:48:
                    22:a7:ca:36:83:0c:a3:c3:46:26:05:a2:74:2a:e1:
                    27:cc:b0:fc:07:f7:92:51:e0:81:51:9b:f3:7e:35:
                    41:cf
                Exponent: 65537 (0x10001)
        X509v3 extensions:
            X509v3 Basic Constraints: critical
                CA:FALSE
            X509v3 Key Usage: 
                Digital Signature, Key Encipherment, Key Agreement
            X509v3 Subject Key Identifier: 
                6A:11:ED:2D:75:55:AB:55:34:47:76:5E:45:96:F0:A7:00:94:F8:DA
            X509v3 Authority Key Identifier: 
                keyid:22:20:0D:51:40:61:42:BE:DD:BA:D9:C9:C1:77:B6:93:28:C3:99:EC
                DirName:/C=CH/ST=Thurgau/L=Kefikon/O=guengel.ch/CN=CA 2022/emailAddress=postmaster@guengel.ch
                serial:6D:29:90:54:E9:17:E9:C2:6A:E6:52:AD:84:4E:30:8E:6E:57:FB:1C

            Netscape Cert Type: 
                SSL Client, SSL Server
            X509v3 Extended Key Usage: 
                TLS Web Server Authentication, TLS Web Client Authentication
    Signature Algorithm: sha256WithRSAEncryption
         23:a0:a4:b4:e1:d0:b4:24:2f:28:d3:6e:63:1f:b1:d7:e8:80:
         c1:cb:dd:40:bf:a9:06:19:2e:a7:4c:86:8b:4a:50:e1:e9:af:
         83:c7:b0:b2:e7:85:77:a8:88:b7:f7:fc:9b:51:0a:af:37:fa:
         29:40:a8:be:2b:d6:24:06:5f:a6:ca:d3:89:50:5b:65:95:f5:
         8b:68:f2:3a:e7:86:77:81:34:72:64:86:80:16:0b:ac:cb:97:
         82:15:32:26:ed:d3:d2:8c:39:a1:c9:1c:72:d7:10:dd:37:a0:
         db:b1:2c:b0:43:c5:d1:e4:ed:a3:87:a7:31:56:24:ed:1d:2c:
         85:e8:64:d2:09:87:d3:58:4a:43:84:ae:24:6b:6c:54:70:9e:
         a2:a6:e1:fe:92:04:f8:8e:59:34:ae:c8:1a:51:4e:00:82:f7:
         50:53:2f:f0:e6:5e:5c:50:73:df:e1:60:41:4d:e2:65:08:f2:
         59:7f:48:77:50:8a:44:23:b8:81:e8:19:ad:6e:57:cc:69:ec:
         4d:6a:ba:77:4a:fd:5b:2f:a0:e1:0d:24:ea:56:b8:09:c4:76:
         19:b3:5a:7b:cf:09:ce:6e:a6:4a:81:0e:04:64:24:4f:ea:56:
         d6:3a:30:ec:28:19:92:ec:15:ae:c5:b5:ed:e3:c3:0d:ef:f5:
         1b:42:7c:7e:ca:2d:24:04:db:9f:2c:40:c6:ca:1c:a7:0a:a8:
         1a:b3:36:da:e1:6f:e9:ff:58:e5:ed:38:f6:60:2a:5d:ed:e7:
         03:f4:6b:00:bc:69:35:00:54:ca:d3:99:59:8b:72:d8:0c:54:
         61:f1:d7:a9:e1:a6:3c:3a:5b:04:58:71:57:71:36:18:c0:75:
         4f:64:bb:75:61:bc:7b:5a:8f:d9:00:cc:44:8a:00:e2:5c:21:
         1f:15:bd:9e:3e:5f:57:bd:89:b8:58:d2:a7:3b:8a:14:09:c7:
         99:21:96:a2:a6:09:1a:71:55:4a:cc:33:ba:c7:73:cc:b1:72:
         a9:67:cd:8e:c5:48:c5:67:57:64:c9:25:70:fb:cd:d0:ab:cf:
         7d:44:8b:c8:85:14:9c:07:0e:8b:61:2e:40:14:fc:3c:a2:0e:
         d4:61:49:d8:8f:58:bd:96:f5:0b:ba:81:44:c0:a1:12:a1:3a:
         20:de:9e:b8:fb:c4:eb:d4:ae:9e:b1:23:08:79:ec:bf:33:1b:
         91:1d:61:7b:97:df:c5:63:9c:3b:5c:cd:09:b9:b5:65:81:0d:
         e2:a7:0a:82:4c:03:8c:56:b8:3f:67:7c:d3:40:b9:d6:ae:6f:
         23:33:de:cd:28:6c:b2:fb:68:25:c5:cc:a6:95:ce:73:e7:ab:
         dc:b5:70:2f:78:6c:f4:63
-----BEGIN CERTIFICATE-----
MIIFuzCCA6OgAwIBAgIUILQthEgEYp0VInEDjFcJ5d3ipZYwDQYJKoZIhvcNAQEL
BQAwfjELMAkGA1UEBhMCQ0gxEDAOBgNVBAgTB1RodXJnYXUxEDAOBgNVBAcTB0tl
Zmlrb24xEzARBgNVBAoTCmd1ZW5nZWwuY2gxEDAOBgNVBAMTB0NBIDIwMjIxJDAi
BgkqhkiG9w0BCQEWFXBvc3RtYXN0ZXJAZ3VlbmdlbC5jaDAeFw0yMzAyMjgwNjM2
MzhaFw0yNDA0MDMwNjM2MzhaMH0xCzAJBgNVBAYTAkNIMRAwDgYDVQQIEwdUaHVy
Z2F1MRMwEQYDVQQKEwpndWVuZ2VsLmNoMSEwHwYDVQQDExhhbWQ2NC0yLms4cy5r
cnVlbWVsLmhvbWUxJDAiBgkqhkiG9w0BCQEWFXBvc3RtYXN0ZXJAZ3VlbmdlbC5j
aDCCASIwDQYJKoZIhvcNAQEBBQADggEPADCCAQoCggEBAMSp6elITOQU77w/GS1S
NKlV09wixuaANmbeRkvs1lrZLpTYFSdS+VwfPuLdFugd44MbbW3vTs6m/FShlkI4
eSlJ25/U7Fn47xJhyI1OfmZoWksL3+HN4Kh+za5jhPCQ10WRbh++3LymWxhrw2aW
jlYG95XyuHLCloRM02RHF/eajrE0l2stgplGDN8orfAEteoV9dpjuJEHK9NVSVSo
ABja38QDkkIhWSMXvz85AnEgxZXyElzJa4mZha1SPedsMpxx7z1cGlrM9NeevnZU
3W3FJOUY4Xw7oTM6G2Dr/ENIIqfKNoMMo8NGJgWidCrhJ8yw/Af3klHggVGb8341
Qc8CAwEAAaOCATAwggEsMAwGA1UdEwEB/wQCMAAwCwYDVR0PBAQDAgOoMB0GA1Ud
DgQWBBRqEe0tdVWrVTRHdl5FlvCnAJT42jCBvQYDVR0jBIG1MIGygBQiIA1RQGFC
vt262cnBd7aTKMOZ7KGBg6SBgDB+MQswCQYDVQQGEwJDSDEQMA4GA1UECBMHVGh1
cmdhdTEQMA4GA1UEBxMHS2VmaWtvbjETMBEGA1UEChMKZ3VlbmdlbC5jaDEQMA4G
A1UEAxMHQ0EgMjAyMjEkMCIGCSqGSIb3DQEJARYVcG9zdG1hc3RlckBndWVuZ2Vs
LmNoghRtKZBU6RfpwmrmUq2ETjCOblf7HDARBglghkgBhvhCAQEEBAMCBsAwHQYD
VR0lBBYwFAYIKwYBBQUHAwEGCCsGAQUFBwMCMA0GCSqGSIb3DQEBCwUAA4ICAQAj
oKS04dC0JC8o025jH7HX6IDBy91Av6kGGS6nTIaLSlDh6a+Dx7Cy54V3qIi39/yb
UQqvN/opQKi+K9YkBl+mytOJUFtllfWLaPI654Z3gTRyZIaAFgusy5eCFTIm7dPS
jDmhyRxy1xDdN6DbsSywQ8XR5O2jh6cxViTtHSyF6GTSCYfTWEpDhK4ka2xUcJ6i
puH+kgT4jlk0rsgaUU4AgvdQUy/w5l5cUHPf4WBBTeJlCPJZf0h3UIpEI7iB6Bmt
blfMaexNarp3Sv1bL6DhDSTqVrgJxHYZs1p7zwnObqZKgQ4EZCRP6lbWOjDsKBmS
7BWuxbXt48MN7/UbQnx+yi0kBNufLEDGyhynCqgaszba4W/p/1jl7Tj2YCpd7ecD
9GsAvGk1AFTK05lZi3LYDFRh8dep4aY8OlsEWHFXcTYYwHVPZLt1Ybx7Wo/ZAMxE
igDiXCEfFb2ePl9XvYm4WNKnO4oUCceZIZaipgkacVVKzDO6x3PMsXKpZ82OxUjF
Z1dkySVw+83Qq899RIvIhRScBw6LYS5AFPw8og7UYUnYj1i9lvULuoFEwKESoTog
3p64+8Tr1K6esSMIeey/MxuRHWF7l9/FY5w7XM0JubVlgQ3ipwqCTAOMVrg/Z3zT
QLnWrm8jM97NKGyy+2glxcymlc5z56vctXAveGz0Yw==
-----END CERTIFICATE-----
