Certificate:
    Data:
        Version: 3 (0x2)
        Serial Number:
            4c:88:54:35:71:87:9c:1f:9d:a4:1b:71:39:68:d2:8d:53:49:02:c1
        Signature Algorithm: sha256WithRSAEncryption
        Issuer: C=CH, ST=Thurgau, L=Kefikon, O=guengel.ch, CN=CA 2022/emailAddress=postmaster@guengel.ch
        Validity
            Not Before: Feb 11 13:53:08 2022 GMT
            Not After : Mar 18 13:53:08 2023 GMT
        Subject: C=CH, ST=Thurgau, O=guengel.ch, CN=amd64-1.k8s.kruemel.home/emailAddress=postmaster@guengel.ch
        Subject Public Key Info:
            Public Key Algorithm: rsaEncryption
                RSA Public-Key: (2048 bit)
                Modulus:
                    00:b1:68:c2:89:f3:bc:aa:68:b4:43:e8:4e:8c:71:
                    ce:46:a0:21:77:67:58:86:ec:f4:74:18:52:82:42:
                    78:61:37:2a:c5:0d:64:06:e9:dc:20:26:f3:b5:f4:
                    85:d1:ee:ce:7c:88:cc:cd:0f:21:5f:b1:2f:87:ed:
                    d2:76:3c:b7:59:89:31:e4:6b:58:9f:d9:33:bd:3f:
                    23:5b:35:36:7f:61:ae:6b:2b:ec:cc:dd:e3:09:5f:
                    ab:02:14:88:f4:bd:0c:f4:52:0b:ab:1c:f7:3b:25:
                    0e:57:59:fb:c4:8d:2d:fd:fe:89:d0:91:5d:c7:a1:
                    cc:cd:86:df:d3:50:25:3f:37:bd:5d:3d:41:a1:97:
                    52:cb:90:04:c3:d1:a5:0e:31:a9:24:a7:33:28:19:
                    f0:c4:65:e9:c8:04:f1:d7:97:73:c5:3c:b5:99:71:
                    ef:51:63:23:02:81:22:91:fe:a3:bf:d1:ba:62:aa:
                    ad:04:81:a7:7e:1f:92:a5:1e:11:21:ae:a7:a4:87:
                    12:69:0b:a5:80:fb:9e:18:f3:c9:bf:e9:5d:04:6e:
                    ea:fd:d0:9e:02:f0:00:9f:95:e5:b6:d5:28:fa:85:
                    4b:b5:ca:a8:80:be:d4:21:d3:4b:59:dc:5a:39:50:
                    fe:11:8f:d5:b5:43:18:ac:25:2f:f6:78:bb:b1:e8:
                    79:89
                Exponent: 65537 (0x10001)
        X509v3 extensions:
            X509v3 Basic Constraints: critical
                CA:FALSE
            X509v3 Key Usage: 
                Digital Signature, Key Encipherment, Key Agreement
            X509v3 Subject Key Identifier: 
                93:9C:19:9A:10:D9:7B:F9:07:75:C7:EE:62:C6:03:D8:F7:3E:33:B5
            X509v3 Authority Key Identifier: 
                keyid:22:20:0D:51:40:61:42:BE:DD:BA:D9:C9:C1:77:B6:93:28:C3:99:EC
                DirName:/C=CH/ST=Thurgau/L=Kefikon/O=guengel.ch/CN=CA 2022/emailAddress=postmaster@guengel.ch
                serial:6D:29:90:54:E9:17:E9:C2:6A:E6:52:AD:84:4E:30:8E:6E:57:FB:1C

            Netscape Cert Type: 
                SSL Client, SSL Server
            X509v3 Extended Key Usage: 
                TLS Web Server Authentication, TLS Web Client Authentication
    Signature Algorithm: sha256WithRSAEncryption
         9a:ec:fd:ee:73:16:74:59:40:69:b1:ef:61:00:2c:dc:8d:24:
         d0:61:b9:5c:c7:eb:03:4f:ef:a6:03:a9:3c:0c:e2:5a:72:46:
         12:d5:56:b3:ec:6e:69:7b:c3:4e:70:a7:4a:10:74:b1:73:d6:
         00:1e:5a:6a:cf:7c:c2:83:17:cf:ee:65:71:a0:75:03:43:0f:
         0c:98:71:7c:90:10:9b:5b:8c:1e:f4:52:80:77:56:f9:d1:c0:
         2e:1e:d0:6b:92:54:cf:75:d1:e1:52:66:90:0b:23:f8:7d:e1:
         b6:10:57:87:59:27:36:8c:6a:8b:39:75:29:e9:ba:88:72:7c:
         ef:6e:4a:ba:2a:ed:b1:5f:9b:29:4a:92:5c:6e:cb:23:13:23:
         3c:d1:c0:88:22:00:34:19:f0:54:98:af:cd:df:a3:70:d0:d7:
         d9:32:28:72:68:b6:06:1d:b1:a1:01:d1:cf:5d:b1:31:55:eb:
         21:2b:ec:56:9f:fe:c5:ac:5e:b2:39:75:b3:36:e8:2a:f2:f0:
         24:8b:5b:5a:06:2d:ca:98:fa:d3:2d:b8:b5:73:8c:fe:27:84:
         54:38:dc:b4:70:ba:33:76:12:47:de:cd:4b:19:2d:20:d9:73:
         0e:89:5d:00:c8:98:42:bf:ab:ff:cd:15:f4:66:4b:e5:98:a0:
         b2:f5:57:8e:e5:92:3c:42:b9:3f:c5:18:54:f1:ce:85:c8:46:
         46:82:59:c2:bb:8f:37:7d:51:e9:8d:69:7f:41:03:a1:9d:56:
         41:56:64:d7:0b:02:16:4f:c9:6d:7f:69:d0:cd:70:20:4d:23:
         4e:84:a9:36:5f:f6:8e:57:1c:04:14:60:17:6c:05:53:a6:c9:
         8b:dd:12:f1:f0:03:02:60:4c:3d:42:7f:72:2a:67:08:86:cf:
         61:e7:e7:ea:d5:9a:d6:e3:f6:26:b6:bd:66:93:57:c4:c7:1d:
         f3:a2:84:74:a9:2b:6f:7c:66:59:09:c9:9b:bb:69:79:29:08:
         97:a6:86:8c:f3:80:3f:7c:96:47:43:9d:5d:91:03:57:76:e5:
         a5:a5:2c:ef:7d:ce:cf:bc:f2:74:cc:21:9a:a2:64:52:ff:58:
         5c:7b:66:e1:26:cb:5e:ec:4e:e4:38:03:f6:be:af:91:d6:41:
         6a:3d:d0:06:9e:34:8d:a4:25:f0:13:9b:17:b4:f5:06:bb:5e:
         1e:5f:4c:56:7e:bc:f8:29:53:a5:39:84:a8:52:7d:55:27:45:
         65:b6:e8:e3:49:f7:ae:35:59:47:66:1e:e2:f3:26:5a:1c:9c:
         4a:11:4b:fe:a9:38:31:31:50:aa:f1:50:8b:9e:d9:50:8c:e5:
         7d:7b:73:22:b1:ca:c4:19
-----BEGIN CERTIFICATE-----
MIIFuzCCA6OgAwIBAgIUTIhUNXGHnB+dpBtxOWjSjVNJAsEwDQYJKoZIhvcNAQEL
BQAwfjELMAkGA1UEBhMCQ0gxEDAOBgNVBAgTB1RodXJnYXUxEDAOBgNVBAcTB0tl
Zmlrb24xEzARBgNVBAoTCmd1ZW5nZWwuY2gxEDAOBgNVBAMTB0NBIDIwMjIxJDAi
BgkqhkiG9w0BCQEWFXBvc3RtYXN0ZXJAZ3VlbmdlbC5jaDAeFw0yMjAyMTExMzUz
MDhaFw0yMzAzMTgxMzUzMDhaMH0xCzAJBgNVBAYTAkNIMRAwDgYDVQQIEwdUaHVy
Z2F1MRMwEQYDVQQKEwpndWVuZ2VsLmNoMSEwHwYDVQQDExhhbWQ2NC0xLms4cy5r
cnVlbWVsLmhvbWUxJDAiBgkqhkiG9w0BCQEWFXBvc3RtYXN0ZXJAZ3VlbmdlbC5j
aDCCASIwDQYJKoZIhvcNAQEBBQADggEPADCCAQoCggEBALFowonzvKpotEPoToxx
zkagIXdnWIbs9HQYUoJCeGE3KsUNZAbp3CAm87X0hdHuznyIzM0PIV+xL4ft0nY8
t1mJMeRrWJ/ZM70/I1s1Nn9hrmsr7Mzd4wlfqwIUiPS9DPRSC6sc9zslDldZ+8SN
Lf3+idCRXcehzM2G39NQJT83vV09QaGXUsuQBMPRpQ4xqSSnMygZ8MRl6cgE8deX
c8U8tZlx71FjIwKBIpH+o7/RumKqrQSBp34fkqUeESGup6SHEmkLpYD7nhjzyb/p
XQRu6v3QngLwAJ+V5bbVKPqFS7XKqIC+1CHTS1ncWjlQ/hGP1bVDGKwlL/Z4u7Ho
eYkCAwEAAaOCATAwggEsMAwGA1UdEwEB/wQCMAAwCwYDVR0PBAQDAgOoMB0GA1Ud
DgQWBBSTnBmaENl7+Qd1x+5ixgPY9z4ztTCBvQYDVR0jBIG1MIGygBQiIA1RQGFC
vt262cnBd7aTKMOZ7KGBg6SBgDB+MQswCQYDVQQGEwJDSDEQMA4GA1UECBMHVGh1
cmdhdTEQMA4GA1UEBxMHS2VmaWtvbjETMBEGA1UEChMKZ3VlbmdlbC5jaDEQMA4G
A1UEAxMHQ0EgMjAyMjEkMCIGCSqGSIb3DQEJARYVcG9zdG1hc3RlckBndWVuZ2Vs
LmNoghRtKZBU6RfpwmrmUq2ETjCOblf7HDARBglghkgBhvhCAQEEBAMCBsAwHQYD
VR0lBBYwFAYIKwYBBQUHAwEGCCsGAQUFBwMCMA0GCSqGSIb3DQEBCwUAA4ICAQCa
7P3ucxZ0WUBpse9hACzcjSTQYblcx+sDT++mA6k8DOJackYS1Vaz7G5pe8NOcKdK
EHSxc9YAHlpqz3zCgxfP7mVxoHUDQw8MmHF8kBCbW4we9FKAd1b50cAuHtBrklTP
ddHhUmaQCyP4feG2EFeHWSc2jGqLOXUp6bqIcnzvbkq6Ku2xX5spSpJcbssjEyM8
0cCIIgA0GfBUmK/N36Nw0NfZMihyaLYGHbGhAdHPXbExVeshK+xWn/7FrF6yOXWz
Nugq8vAki1taBi3KmPrTLbi1c4z+J4RUONy0cLozdhJH3s1LGS0g2XMOiV0AyJhC
v6v/zRX0ZkvlmKCy9VeO5ZI8Qrk/xRhU8c6FyEZGglnCu483fVHpjWl/QQOhnVZB
VmTXCwIWT8ltf2nQzXAgTSNOhKk2X/aOVxwEFGAXbAVTpsmL3RLx8AMCYEw9Qn9y
KmcIhs9h5+fq1ZrW4/Ymtr1mk1fExx3zooR0qStvfGZZCcmbu2l5KQiXpoaM84A/
fJZHQ51dkQNXduWlpSzvfc7PvPJ0zCGaomRS/1hce2bhJste7E7kOAP2vq+R1kFq
PdAGnjSNpCXwE5sXtPUGu14eX0xWfrz4KVOlOYSoUn1VJ0VltujjSfeuNVlHZh7i
8yZaHJxKEUv+qTgxMVCq8VCLntlQjOV9e3MiscrEGQ==
-----END CERTIFICATE-----
