Certificate:
    Data:
        Version: 3 (0x2)
        Serial Number:
            0b:00:13:74:a5:9a:17:8f:2e:a4:af:2e:8a:06:f9:9e:57:8f:1f:7a
        Signature Algorithm: sha256WithRSAEncryption
        Issuer: C=CH, ST=Thurgau, L=Kefikon, O=guengel.ch, CN=CA 2022/emailAddress=postmaster@guengel.ch
        Validity
            Not Before: Feb 11 13:53:22 2022 GMT
            Not After : Mar 18 13:53:22 2023 GMT
        Subject: C=CH, ST=Thurgau, O=guengel.ch, CN=amd64-2.k8s.kruemel.home/emailAddress=postmaster@guengel.ch
        Subject Public Key Info:
            Public Key Algorithm: rsaEncryption
                RSA Public-Key: (2048 bit)
                Modulus:
                    00:c4:a9:e9:e9:48:4c:e4:14:ef:bc:3f:19:2d:52:
                    34:a9:55:d3:dc:22:c6:e6:80:36:66:de:46:4b:ec:
                    d6:5a:d9:2e:94:d8:15:27:52:f9:5c:1f:3e:e2:dd:
                    16:e8:1d:e3:83:1b:6d:6d:ef:4e:ce:a6:fc:54:a1:
                    96:42:38:79:29:49:db:9f:d4:ec:59:f8:ef:12:61:
                    c8:8d:4e:7e:66:68:5a:4b:0b:df:e1:cd:e0:a8:7e:
                    cd:ae:63:84:f0:90:d7:45:91:6e:1f:be:dc:bc:a6:
                    5b:18:6b:c3:66:96:8e:56:06:f7:95:f2:b8:72:c2:
                    96:84:4c:d3:64:47:17:f7:9a:8e:b1:34:97:6b:2d:
                    82:99:46:0c:df:28:ad:f0:04:b5:ea:15:f5:da:63:
                    b8:91:07:2b:d3:55:49:54:a8:00:18:da:df:c4:03:
                    92:42:21:59:23:17:bf:3f:39:02:71:20:c5:95:f2:
                    12:5c:c9:6b:89:99:85:ad:52:3d:e7:6c:32:9c:71:
                    ef:3d:5c:1a:5a:cc:f4:d7:9e:be:76:54:dd:6d:c5:
                    24:e5:18:e1:7c:3b:a1:33:3a:1b:60:eb:fc:43:48:
                    22:a7:ca:36:83:0c:a3:c3:46:26:05:a2:74:2a:e1:
                    27:cc:b0:fc:07:f7:92:51:e0:81:51:9b:f3:7e:35:
                    41:cf
                Exponent: 65537 (0x10001)
        X509v3 extensions:
            X509v3 Basic Constraints: critical
                CA:FALSE
            X509v3 Key Usage: 
                Digital Signature, Key Encipherment, Key Agreement
            X509v3 Subject Key Identifier: 
                6A:11:ED:2D:75:55:AB:55:34:47:76:5E:45:96:F0:A7:00:94:F8:DA
            X509v3 Authority Key Identifier: 
                keyid:22:20:0D:51:40:61:42:BE:DD:BA:D9:C9:C1:77:B6:93:28:C3:99:EC
                DirName:/C=CH/ST=Thurgau/L=Kefikon/O=guengel.ch/CN=CA 2022/emailAddress=postmaster@guengel.ch
                serial:6D:29:90:54:E9:17:E9:C2:6A:E6:52:AD:84:4E:30:8E:6E:57:FB:1C

            Netscape Cert Type: 
                SSL Client, SSL Server
            X509v3 Extended Key Usage: 
                TLS Web Server Authentication, TLS Web Client Authentication
    Signature Algorithm: sha256WithRSAEncryption
         2f:b2:80:54:5a:18:fa:cd:77:30:19:3c:8c:fa:08:67:d7:5f:
         a3:e3:bb:fb:6a:cc:fc:03:00:3c:70:27:85:62:31:0c:da:2f:
         f1:58:a3:1c:9f:5f:a8:88:65:cf:9a:fb:d9:9d:2b:6c:fc:5e:
         3e:bc:59:f5:19:8d:89:2b:4b:d6:a9:d3:b9:e8:70:8c:a5:9c:
         65:54:ff:19:38:be:bf:e3:62:45:18:59:79:ed:b8:3e:a1:cb:
         c1:be:d0:3f:8d:86:d8:67:af:6f:cb:11:bf:5f:1f:cf:bb:02:
         b6:e4:d3:bf:3a:69:c8:3f:a5:d2:86:f2:ea:c8:23:a0:79:bb:
         5d:37:69:d2:dc:c1:f2:fd:17:3e:8a:cd:45:2d:a5:ae:6f:35:
         85:b6:86:12:58:b8:31:8a:d6:39:81:50:62:0e:60:60:f2:bb:
         86:e9:78:35:0e:b8:98:b8:f2:4f:fc:a4:d5:1c:96:d6:cc:db:
         f6:d7:5a:1b:e8:f7:ed:08:10:94:ae:fb:36:64:6e:e5:98:90:
         83:e7:38:be:8b:eb:98:0e:7d:6f:93:43:ac:21:5a:6e:4a:2b:
         ae:6e:36:d9:bf:3d:dc:84:a4:01:78:a1:30:b2:6f:a9:c6:42:
         ce:0e:aa:96:b0:b7:1c:45:6a:fb:6e:a3:ac:88:c7:03:8c:16:
         e2:9a:93:52:fa:cf:65:5f:dd:1c:67:44:f0:56:a4:2a:e4:cd:
         68:26:c4:13:a1:97:f4:02:bd:40:c6:e2:18:0c:b4:f2:60:c4:
         5e:a7:d8:7e:92:ad:06:58:f7:40:7b:53:6d:61:7f:35:7c:da:
         98:c0:6f:2b:1d:f9:bf:e7:02:51:c4:33:ca:e1:11:3a:3e:5d:
         7c:d0:4a:4e:cb:16:0d:8b:1e:6d:82:5e:41:b8:c0:0b:e1:7e:
         cf:62:57:4c:1c:5e:89:b5:c3:54:3e:da:40:8a:14:89:00:a6:
         e6:2c:c0:59:f8:96:ae:9f:1d:fd:67:be:2c:51:37:5c:dd:ad:
         04:b3:0c:47:80:bd:87:a0:e5:46:42:4b:11:82:66:c6:81:38:
         d3:d7:a7:6c:a6:ce:34:96:65:fb:8e:1a:93:1a:e9:f8:21:11:
         0f:65:fc:be:77:84:c7:e1:83:be:3e:52:b1:cb:4b:56:66:56:
         c1:77:b4:eb:13:19:ec:82:d5:8f:75:4e:95:65:8f:e6:11:c6:
         d0:49:21:e1:1b:43:03:70:62:e8:7e:51:08:55:ff:c7:3c:7c:
         9b:ef:01:35:3a:94:a0:7a:af:ac:d5:fc:f5:90:73:31:4d:1f:
         92:2f:db:a1:fe:f2:8a:a5:bc:dd:24:b8:2f:cb:f2:76:c3:36:
         b8:dc:bd:34:8c:b8:0e:52
-----BEGIN CERTIFICATE-----
MIIFuzCCA6OgAwIBAgIUCwATdKWaF48upK8uigb5nlePH3owDQYJKoZIhvcNAQEL
BQAwfjELMAkGA1UEBhMCQ0gxEDAOBgNVBAgTB1RodXJnYXUxEDAOBgNVBAcTB0tl
Zmlrb24xEzARBgNVBAoTCmd1ZW5nZWwuY2gxEDAOBgNVBAMTB0NBIDIwMjIxJDAi
BgkqhkiG9w0BCQEWFXBvc3RtYXN0ZXJAZ3VlbmdlbC5jaDAeFw0yMjAyMTExMzUz
MjJaFw0yMzAzMTgxMzUzMjJaMH0xCzAJBgNVBAYTAkNIMRAwDgYDVQQIEwdUaHVy
Z2F1MRMwEQYDVQQKEwpndWVuZ2VsLmNoMSEwHwYDVQQDExhhbWQ2NC0yLms4cy5r
cnVlbWVsLmhvbWUxJDAiBgkqhkiG9w0BCQEWFXBvc3RtYXN0ZXJAZ3VlbmdlbC5j
aDCCASIwDQYJKoZIhvcNAQEBBQADggEPADCCAQoCggEBAMSp6elITOQU77w/GS1S
NKlV09wixuaANmbeRkvs1lrZLpTYFSdS+VwfPuLdFugd44MbbW3vTs6m/FShlkI4
eSlJ25/U7Fn47xJhyI1OfmZoWksL3+HN4Kh+za5jhPCQ10WRbh++3LymWxhrw2aW
jlYG95XyuHLCloRM02RHF/eajrE0l2stgplGDN8orfAEteoV9dpjuJEHK9NVSVSo
ABja38QDkkIhWSMXvz85AnEgxZXyElzJa4mZha1SPedsMpxx7z1cGlrM9NeevnZU
3W3FJOUY4Xw7oTM6G2Dr/ENIIqfKNoMMo8NGJgWidCrhJ8yw/Af3klHggVGb8341
Qc8CAwEAAaOCATAwggEsMAwGA1UdEwEB/wQCMAAwCwYDVR0PBAQDAgOoMB0GA1Ud
DgQWBBRqEe0tdVWrVTRHdl5FlvCnAJT42jCBvQYDVR0jBIG1MIGygBQiIA1RQGFC
vt262cnBd7aTKMOZ7KGBg6SBgDB+MQswCQYDVQQGEwJDSDEQMA4GA1UECBMHVGh1
cmdhdTEQMA4GA1UEBxMHS2VmaWtvbjETMBEGA1UEChMKZ3VlbmdlbC5jaDEQMA4G
A1UEAxMHQ0EgMjAyMjEkMCIGCSqGSIb3DQEJARYVcG9zdG1hc3RlckBndWVuZ2Vs
LmNoghRtKZBU6RfpwmrmUq2ETjCOblf7HDARBglghkgBhvhCAQEEBAMCBsAwHQYD
VR0lBBYwFAYIKwYBBQUHAwEGCCsGAQUFBwMCMA0GCSqGSIb3DQEBCwUAA4ICAQAv
soBUWhj6zXcwGTyM+ghn11+j47v7asz8AwA8cCeFYjEM2i/xWKMcn1+oiGXPmvvZ
nSts/F4+vFn1GY2JK0vWqdO56HCMpZxlVP8ZOL6/42JFGFl57bg+ocvBvtA/jYbY
Z69vyxG/Xx/PuwK25NO/OmnIP6XShvLqyCOgebtdN2nS3MHy/Rc+is1FLaWubzWF
toYSWLgxitY5gVBiDmBg8ruG6Xg1DriYuPJP/KTVHJbWzNv211ob6PftCBCUrvs2
ZG7lmJCD5zi+i+uYDn1vk0OsIVpuSiuubjbZvz3chKQBeKEwsm+pxkLODqqWsLcc
RWr7bqOsiMcDjBbimpNS+s9lX90cZ0TwVqQq5M1oJsQToZf0Ar1AxuIYDLTyYMRe
p9h+kq0GWPdAe1NtYX81fNqYwG8rHfm/5wJRxDPK4RE6Pl180EpOyxYNix5tgl5B
uMAL4X7PYldMHF6JtcNUPtpAihSJAKbmLMBZ+Jaunx39Z74sUTdc3a0EswxHgL2H
oOVGQksRgmbGgTjT16dsps40lmX7jhqTGun4IREPZfy+d4TH4YO+PlKxy0tWZlbB
d7TrExnsgtWPdU6VZY/mEcbQSSHhG0MDcGLoflEIVf/HPHyb7wE1OpSgeq+s1fz1
kHMxTR+SL9uh/vKKpbzdJLgvy/J2wza43L00jLgOUg==
-----END CERTIFICATE-----
