Certificate:
    Data:
        Version: 3 (0x2)
        Serial Number:
            54:00:b2:b7:06:33:70:3c:fa:4e:b5:2c:72:3b:70:b8:b9:5d:df:c1
        Signature Algorithm: sha256WithRSAEncryption
        Issuer: C=CH, ST=Thurgau, L=Kefikon, O=guengel.ch, CN=CA 2022/emailAddress=postmaster@guengel.ch
        Validity
            Not Before: Dec 30 08:44:17 2023 GMT
            Not After : Feb  2 08:44:17 2025 GMT
        Subject: C=CH, ST=Thurgau, O=guengel.ch, CN=amd64-1.k8s.kruemel.home/emailAddress=postmaster@guengel.ch
        Subject Public Key Info:
            Public Key Algorithm: rsaEncryption
                RSA Public-Key: (2048 bit)
                Modulus:
                    00:b1:68:c2:89:f3:bc:aa:68:b4:43:e8:4e:8c:71:
                    ce:46:a0:21:77:67:58:86:ec:f4:74:18:52:82:42:
                    78:61:37:2a:c5:0d:64:06:e9:dc:20:26:f3:b5:f4:
                    85:d1:ee:ce:7c:88:cc:cd:0f:21:5f:b1:2f:87:ed:
                    d2:76:3c:b7:59:89:31:e4:6b:58:9f:d9:33:bd:3f:
                    23:5b:35:36:7f:61:ae:6b:2b:ec:cc:dd:e3:09:5f:
                    ab:02:14:88:f4:bd:0c:f4:52:0b:ab:1c:f7:3b:25:
                    0e:57:59:fb:c4:8d:2d:fd:fe:89:d0:91:5d:c7:a1:
                    cc:cd:86:df:d3:50:25:3f:37:bd:5d:3d:41:a1:97:
                    52:cb:90:04:c3:d1:a5:0e:31:a9:24:a7:33:28:19:
                    f0:c4:65:e9:c8:04:f1:d7:97:73:c5:3c:b5:99:71:
                    ef:51:63:23:02:81:22:91:fe:a3:bf:d1:ba:62:aa:
                    ad:04:81:a7:7e:1f:92:a5:1e:11:21:ae:a7:a4:87:
                    12:69:0b:a5:80:fb:9e:18:f3:c9:bf:e9:5d:04:6e:
                    ea:fd:d0:9e:02:f0:00:9f:95:e5:b6:d5:28:fa:85:
                    4b:b5:ca:a8:80:be:d4:21:d3:4b:59:dc:5a:39:50:
                    fe:11:8f:d5:b5:43:18:ac:25:2f:f6:78:bb:b1:e8:
                    79:89
                Exponent: 65537 (0x10001)
        X509v3 extensions:
            X509v3 Basic Constraints: critical
                CA:FALSE
            X509v3 Key Usage: 
                Digital Signature, Key Encipherment, Key Agreement
            X509v3 Subject Key Identifier: 
                93:9C:19:9A:10:D9:7B:F9:07:75:C7:EE:62:C6:03:D8:F7:3E:33:B5
            X509v3 Authority Key Identifier: 
                keyid:22:20:0D:51:40:61:42:BE:DD:BA:D9:C9:C1:77:B6:93:28:C3:99:EC
                DirName:/C=CH/ST=Thurgau/L=Kefikon/O=guengel.ch/CN=CA 2022/emailAddress=postmaster@guengel.ch
                serial:6D:29:90:54:E9:17:E9:C2:6A:E6:52:AD:84:4E:30:8E:6E:57:FB:1C

            Netscape Cert Type: 
                SSL Client, SSL Server
            X509v3 Extended Key Usage: 
                TLS Web Server Authentication, TLS Web Client Authentication
    Signature Algorithm: sha256WithRSAEncryption
         b4:27:16:e4:21:e1:e8:36:a2:11:a4:4b:fe:a6:60:c4:c5:75:
         66:77:66:e6:94:51:c0:0f:ab:1e:b2:a3:c7:60:9c:4a:35:6c:
         13:59:4e:35:ff:78:55:69:17:19:d9:e6:a1:a9:c8:e1:20:2b:
         03:f6:6e:0b:79:6a:84:ae:75:f7:f6:c2:fa:c5:e0:59:bb:85:
         7d:88:ee:3b:4d:a9:d9:e0:fe:17:a9:ef:84:57:b8:63:f5:b8:
         5b:2d:2b:75:fd:af:6a:e9:3e:e5:3f:d8:b7:8c:85:9d:69:76:
         ff:6f:c8:07:70:c8:66:ce:aa:6c:d5:7f:57:82:9b:77:51:e0:
         b2:51:e9:ec:02:b5:9f:1e:5b:67:b0:28:66:db:0d:77:b6:4a:
         80:38:45:6c:1d:c4:e7:b5:8c:40:e8:24:46:f7:db:b3:4f:f8:
         e5:24:fa:a4:b3:90:39:12:58:82:f1:b7:99:30:34:84:b6:8c:
         1b:9b:31:a6:a4:48:7b:06:9d:da:1d:a5:f7:87:84:b7:f7:a9:
         cf:1a:06:30:43:c0:23:3c:3e:97:95:60:56:9a:8e:1d:5f:0e:
         23:16:6f:db:25:11:87:2c:ae:d1:bc:c9:28:40:23:10:97:cf:
         5a:c4:27:6a:a3:b1:75:0d:58:58:59:af:5e:7f:e3:d4:15:a8:
         37:c5:a5:55:da:45:45:fe:0a:49:23:9d:32:d6:e8:d9:db:29:
         6e:63:38:e2:ff:c0:63:dd:66:87:c4:14:19:cd:32:cb:02:41:
         cc:09:80:ac:5b:2f:08:74:76:34:37:64:77:05:a0:71:2f:a4:
         13:bf:41:30:9a:c9:81:2c:7e:6d:ff:65:81:ab:82:9c:c3:71:
         0b:a6:8e:33:81:b5:a7:fa:33:75:c0:30:cd:d0:03:9d:8f:bb:
         d8:f3:6b:1d:63:43:35:38:65:04:bb:4b:91:af:9e:0a:09:62:
         52:b9:47:b1:18:67:ad:73:9e:86:4c:e4:f0:fd:32:45:92:1c:
         5c:65:39:54:d1:c7:2f:c3:9a:76:7c:b4:ea:1b:26:d9:8c:26:
         30:93:27:9b:43:42:6b:db:e1:33:2a:0c:4e:b4:e0:9d:e7:1a:
         44:1c:dd:af:27:01:4d:e3:a3:01:96:25:3a:d3:99:fd:29:4d:
         45:7e:3e:8e:9f:fe:93:9e:9c:86:9f:92:62:3d:b0:f9:6f:52:
         a9:f0:7c:84:d3:95:fa:5a:c8:c4:a7:ef:0d:e1:b4:7b:39:17:
         f7:c8:72:88:97:99:7c:59:d0:51:8d:02:44:b0:29:ff:79:84:
         a3:93:ea:44:6c:96:84:ab:5c:1d:3c:34:f4:26:08:07:d0:ff:
         41:ab:44:e4:97:cf:a0:57
-----BEGIN CERTIFICATE-----
MIIFuzCCA6OgAwIBAgIUVACytwYzcDz6TrUscjtwuLld38EwDQYJKoZIhvcNAQEL
BQAwfjELMAkGA1UEBhMCQ0gxEDAOBgNVBAgTB1RodXJnYXUxEDAOBgNVBAcTB0tl
Zmlrb24xEzARBgNVBAoTCmd1ZW5nZWwuY2gxEDAOBgNVBAMTB0NBIDIwMjIxJDAi
BgkqhkiG9w0BCQEWFXBvc3RtYXN0ZXJAZ3VlbmdlbC5jaDAeFw0yMzEyMzAwODQ0
MTdaFw0yNTAyMDIwODQ0MTdaMH0xCzAJBgNVBAYTAkNIMRAwDgYDVQQIEwdUaHVy
Z2F1MRMwEQYDVQQKEwpndWVuZ2VsLmNoMSEwHwYDVQQDExhhbWQ2NC0xLms4cy5r
cnVlbWVsLmhvbWUxJDAiBgkqhkiG9w0BCQEWFXBvc3RtYXN0ZXJAZ3VlbmdlbC5j
aDCCASIwDQYJKoZIhvcNAQEBBQADggEPADCCAQoCggEBALFowonzvKpotEPoToxx
zkagIXdnWIbs9HQYUoJCeGE3KsUNZAbp3CAm87X0hdHuznyIzM0PIV+xL4ft0nY8
t1mJMeRrWJ/ZM70/I1s1Nn9hrmsr7Mzd4wlfqwIUiPS9DPRSC6sc9zslDldZ+8SN
Lf3+idCRXcehzM2G39NQJT83vV09QaGXUsuQBMPRpQ4xqSSnMygZ8MRl6cgE8deX
c8U8tZlx71FjIwKBIpH+o7/RumKqrQSBp34fkqUeESGup6SHEmkLpYD7nhjzyb/p
XQRu6v3QngLwAJ+V5bbVKPqFS7XKqIC+1CHTS1ncWjlQ/hGP1bVDGKwlL/Z4u7Ho
eYkCAwEAAaOCATAwggEsMAwGA1UdEwEB/wQCMAAwCwYDVR0PBAQDAgOoMB0GA1Ud
DgQWBBSTnBmaENl7+Qd1x+5ixgPY9z4ztTCBvQYDVR0jBIG1MIGygBQiIA1RQGFC
vt262cnBd7aTKMOZ7KGBg6SBgDB+MQswCQYDVQQGEwJDSDEQMA4GA1UECBMHVGh1
cmdhdTEQMA4GA1UEBxMHS2VmaWtvbjETMBEGA1UEChMKZ3VlbmdlbC5jaDEQMA4G
A1UEAxMHQ0EgMjAyMjEkMCIGCSqGSIb3DQEJARYVcG9zdG1hc3RlckBndWVuZ2Vs
LmNoghRtKZBU6RfpwmrmUq2ETjCOblf7HDARBglghkgBhvhCAQEEBAMCBsAwHQYD
VR0lBBYwFAYIKwYBBQUHAwEGCCsGAQUFBwMCMA0GCSqGSIb3DQEBCwUAA4ICAQC0
JxbkIeHoNqIRpEv+pmDExXVmd2bmlFHAD6sesqPHYJxKNWwTWU41/3hVaRcZ2eah
qcjhICsD9m4LeWqErnX39sL6xeBZu4V9iO47TanZ4P4Xqe+EV7hj9bhbLSt1/a9q
6T7lP9i3jIWdaXb/b8gHcMhmzqps1X9Xgpt3UeCyUensArWfHltnsChm2w13tkqA
OEVsHcTntYxA6CRG99uzT/jlJPqks5A5EliC8beZMDSEtowbmzGmpEh7Bp3aHaX3
h4S396nPGgYwQ8AjPD6XlWBWmo4dXw4jFm/bJRGHLK7RvMkoQCMQl89axCdqo7F1
DVhYWa9ef+PUFag3xaVV2kVF/gpJI50y1ujZ2yluYzji/8Bj3WaHxBQZzTLLAkHM
CYCsWy8IdHY0N2R3BaBxL6QTv0EwmsmBLH5t/2WBq4Kcw3ELpo4zgbWn+jN1wDDN
0AOdj7vY82sdY0M1OGUEu0uRr54KCWJSuUexGGetc56GTOTw/TJFkhxcZTlU0ccv
w5p2fLTqGybZjCYwkyebQ0Jr2+EzKgxOtOCd5xpEHN2vJwFN46MBliU605n9KU1F
fj6On/6TnpyGn5JiPbD5b1Kp8HyE05X6WsjEp+8N4bR7ORf3yHKIl5l8WdBRjQJE
sCn/eYSjk+pEbJaEq1wdPDT0JggH0P9Bq0Tkl8+gVw==
-----END CERTIFICATE-----
