Certificate:
    Data:
        Version: 3 (0x2)
        Serial Number:
            12:6f:fa:c2:52:4f:97:e7:b3:81:07:9e:d7:c3:c0:55:36:e5:b0:ce
        Signature Algorithm: sha256WithRSAEncryption
        Issuer: C=CH, ST=Thurgau, L=Kefikon, O=guengel.ch, CN=CA 2022/emailAddress=postmaster@guengel.ch
        Validity
            Not Before: Feb 28 06:35:38 2023 GMT
            Not After : Apr  3 06:35:38 2024 GMT
        Subject: C=CH, ST=Thurgau, O=guengel.ch, CN=amd64-1.k8s.kruemel.home/emailAddress=postmaster@guengel.ch
        Subject Public Key Info:
            Public Key Algorithm: rsaEncryption
                RSA Public-Key: (2048 bit)
                Modulus:
                    00:b1:68:c2:89:f3:bc:aa:68:b4:43:e8:4e:8c:71:
                    ce:46:a0:21:77:67:58:86:ec:f4:74:18:52:82:42:
                    78:61:37:2a:c5:0d:64:06:e9:dc:20:26:f3:b5:f4:
                    85:d1:ee:ce:7c:88:cc:cd:0f:21:5f:b1:2f:87:ed:
                    d2:76:3c:b7:59:89:31:e4:6b:58:9f:d9:33:bd:3f:
                    23:5b:35:36:7f:61:ae:6b:2b:ec:cc:dd:e3:09:5f:
                    ab:02:14:88:f4:bd:0c:f4:52:0b:ab:1c:f7:3b:25:
                    0e:57:59:fb:c4:8d:2d:fd:fe:89:d0:91:5d:c7:a1:
                    cc:cd:86:df:d3:50:25:3f:37:bd:5d:3d:41:a1:97:
                    52:cb:90:04:c3:d1:a5:0e:31:a9:24:a7:33:28:19:
                    f0:c4:65:e9:c8:04:f1:d7:97:73:c5:3c:b5:99:71:
                    ef:51:63:23:02:81:22:91:fe:a3:bf:d1:ba:62:aa:
                    ad:04:81:a7:7e:1f:92:a5:1e:11:21:ae:a7:a4:87:
                    12:69:0b:a5:80:fb:9e:18:f3:c9:bf:e9:5d:04:6e:
                    ea:fd:d0:9e:02:f0:00:9f:95:e5:b6:d5:28:fa:85:
                    4b:b5:ca:a8:80:be:d4:21:d3:4b:59:dc:5a:39:50:
                    fe:11:8f:d5:b5:43:18:ac:25:2f:f6:78:bb:b1:e8:
                    79:89
                Exponent: 65537 (0x10001)
        X509v3 extensions:
            X509v3 Basic Constraints: critical
                CA:FALSE
            X509v3 Key Usage: 
                Digital Signature, Key Encipherment, Key Agreement
            X509v3 Subject Key Identifier: 
                93:9C:19:9A:10:D9:7B:F9:07:75:C7:EE:62:C6:03:D8:F7:3E:33:B5
            X509v3 Authority Key Identifier: 
                keyid:22:20:0D:51:40:61:42:BE:DD:BA:D9:C9:C1:77:B6:93:28:C3:99:EC
                DirName:/C=CH/ST=Thurgau/L=Kefikon/O=guengel.ch/CN=CA 2022/emailAddress=postmaster@guengel.ch
                serial:6D:29:90:54:E9:17:E9:C2:6A:E6:52:AD:84:4E:30:8E:6E:57:FB:1C

            Netscape Cert Type: 
                SSL Client, SSL Server
            X509v3 Extended Key Usage: 
                TLS Web Server Authentication, TLS Web Client Authentication
    Signature Algorithm: sha256WithRSAEncryption
         2c:1a:9e:0b:e8:1b:df:0c:a8:9b:15:ea:65:81:b7:28:97:cf:
         24:4b:a2:55:39:ad:f0:11:61:b0:b1:5d:3d:7f:b3:e5:1f:1e:
         e1:40:b4:60:be:56:76:b2:90:b9:ab:ca:35:47:f3:85:10:ec:
         9f:f7:ed:36:e7:cb:ee:ad:ef:68:16:1a:9c:b7:04:cf:c2:06:
         c9:27:9f:3b:2e:68:7a:62:df:23:97:73:ba:1c:d2:89:2e:b7:
         c0:91:af:31:73:81:58:89:3e:66:ee:e1:03:79:0a:1e:ed:05:
         d3:e9:3b:21:21:1d:7e:c4:17:72:cd:66:4b:6a:cd:b4:c5:38:
         57:11:c8:0e:51:42:fd:50:8a:04:76:e2:3b:08:28:b1:c0:c2:
         24:c4:24:d2:c9:dd:34:8e:78:08:37:3f:ba:d5:50:7d:a9:e5:
         c5:e4:87:98:02:c6:53:3c:f7:e2:65:0a:10:05:af:84:bc:30:
         7a:98:58:6d:b8:79:b0:0d:0e:8e:6b:64:40:ef:19:a4:83:5a:
         2a:78:88:ed:32:db:92:49:6e:cb:6f:01:b0:69:8b:88:aa:b0:
         24:f4:52:f0:f4:52:65:ee:b4:7c:59:f6:b3:83:62:2d:4b:9f:
         b8:f6:f7:31:a3:26:cd:8d:58:95:19:3c:a8:81:a1:99:51:40:
         53:11:44:35:4a:1e:07:a7:15:79:00:cf:9d:0d:1d:ef:a1:a9:
         1b:bd:05:c5:f9:7d:2a:6a:c5:2e:19:bd:4a:10:b0:ab:16:cc:
         2c:a3:63:74:61:e5:06:3d:c2:4b:ba:9d:e2:52:66:09:21:57:
         5a:92:2e:d2:6a:e2:01:26:73:ed:de:c5:b5:92:02:1b:80:a2:
         2c:65:9a:8b:56:8c:ef:db:20:c7:2f:95:6c:b9:f1:a6:cc:d1:
         e6:c7:e3:4e:9b:ed:8a:f2:75:12:a4:c7:05:af:ec:42:50:53:
         cb:51:87:0b:df:95:7a:69:c3:b0:4c:c9:a4:d7:17:c9:00:97:
         20:57:2d:d1:75:04:09:91:a0:cf:7a:ac:93:c3:82:62:1a:f2:
         ca:54:8b:1d:7c:51:1a:0e:b1:ac:17:4e:5b:6b:a3:37:12:ae:
         34:22:3e:c9:ac:b5:a9:dc:56:77:f7:27:16:08:f4:a1:13:38:
         19:b5:1f:80:9e:7b:74:3c:67:b9:d4:83:dc:b2:03:e8:80:8c:
         5e:7f:23:0b:bc:ee:7a:3c:2e:1a:ce:1d:81:88:4b:6c:a4:37:
         a8:9b:36:30:d9:66:6c:cd:ab:06:7a:c0:fa:25:74:2d:98:b4:
         a7:aa:8b:c2:0c:8a:40:0a:a8:29:38:10:be:a7:fe:e9:e6:93:
         bf:4a:77:a3:80:5a:de:35
-----BEGIN CERTIFICATE-----
MIIFuzCCA6OgAwIBAgIUEm/6wlJPl+ezgQee18PAVTblsM4wDQYJKoZIhvcNAQEL
BQAwfjELMAkGA1UEBhMCQ0gxEDAOBgNVBAgTB1RodXJnYXUxEDAOBgNVBAcTB0tl
Zmlrb24xEzARBgNVBAoTCmd1ZW5nZWwuY2gxEDAOBgNVBAMTB0NBIDIwMjIxJDAi
BgkqhkiG9w0BCQEWFXBvc3RtYXN0ZXJAZ3VlbmdlbC5jaDAeFw0yMzAyMjgwNjM1
MzhaFw0yNDA0MDMwNjM1MzhaMH0xCzAJBgNVBAYTAkNIMRAwDgYDVQQIEwdUaHVy
Z2F1MRMwEQYDVQQKEwpndWVuZ2VsLmNoMSEwHwYDVQQDExhhbWQ2NC0xLms4cy5r
cnVlbWVsLmhvbWUxJDAiBgkqhkiG9w0BCQEWFXBvc3RtYXN0ZXJAZ3VlbmdlbC5j
aDCCASIwDQYJKoZIhvcNAQEBBQADggEPADCCAQoCggEBALFowonzvKpotEPoToxx
zkagIXdnWIbs9HQYUoJCeGE3KsUNZAbp3CAm87X0hdHuznyIzM0PIV+xL4ft0nY8
t1mJMeRrWJ/ZM70/I1s1Nn9hrmsr7Mzd4wlfqwIUiPS9DPRSC6sc9zslDldZ+8SN
Lf3+idCRXcehzM2G39NQJT83vV09QaGXUsuQBMPRpQ4xqSSnMygZ8MRl6cgE8deX
c8U8tZlx71FjIwKBIpH+o7/RumKqrQSBp34fkqUeESGup6SHEmkLpYD7nhjzyb/p
XQRu6v3QngLwAJ+V5bbVKPqFS7XKqIC+1CHTS1ncWjlQ/hGP1bVDGKwlL/Z4u7Ho
eYkCAwEAAaOCATAwggEsMAwGA1UdEwEB/wQCMAAwCwYDVR0PBAQDAgOoMB0GA1Ud
DgQWBBSTnBmaENl7+Qd1x+5ixgPY9z4ztTCBvQYDVR0jBIG1MIGygBQiIA1RQGFC
vt262cnBd7aTKMOZ7KGBg6SBgDB+MQswCQYDVQQGEwJDSDEQMA4GA1UECBMHVGh1
cmdhdTEQMA4GA1UEBxMHS2VmaWtvbjETMBEGA1UEChMKZ3VlbmdlbC5jaDEQMA4G
A1UEAxMHQ0EgMjAyMjEkMCIGCSqGSIb3DQEJARYVcG9zdG1hc3RlckBndWVuZ2Vs
LmNoghRtKZBU6RfpwmrmUq2ETjCOblf7HDARBglghkgBhvhCAQEEBAMCBsAwHQYD
VR0lBBYwFAYIKwYBBQUHAwEGCCsGAQUFBwMCMA0GCSqGSIb3DQEBCwUAA4ICAQAs
Gp4L6BvfDKibFeplgbcol88kS6JVOa3wEWGwsV09f7PlHx7hQLRgvlZ2spC5q8o1
R/OFEOyf9+0258vure9oFhqctwTPwgbJJ587Lmh6Yt8jl3O6HNKJLrfAka8xc4FY
iT5m7uEDeQoe7QXT6TshIR1+xBdyzWZLas20xThXEcgOUUL9UIoEduI7CCixwMIk
xCTSyd00jngINz+61VB9qeXF5IeYAsZTPPfiZQoQBa+EvDB6mFhtuHmwDQ6Oa2RA
7xmkg1oqeIjtMtuSSW7LbwGwaYuIqrAk9FLw9FJl7rR8Wfazg2ItS5+49vcxoybN
jViVGTyogaGZUUBTEUQ1Sh4HpxV5AM+dDR3voakbvQXF+X0qasUuGb1KELCrFsws
o2N0YeUGPcJLup3iUmYJIVdaki7SauIBJnPt3sW1kgIbgKIsZZqLVozv2yDHL5Vs
ufGmzNHmx+NOm+2K8nUSpMcFr+xCUFPLUYcL35V6acOwTMmk1xfJAJcgVy3RdQQJ
kaDPeqyTw4JiGvLKVIsdfFEaDrGsF05ba6M3Eq40Ij7JrLWp3FZ39ycWCPShEzgZ
tR+Annt0PGe51IPcsgPogIxefyMLvO56PC4azh2BiEtspDeomzYw2WZszasGesD6
JXQtmLSnqovCDIpACqgpOBC+p/7p5pO/SnejgFreNQ==
-----END CERTIFICATE-----
