Certificate:
    Data:
        Version: 3 (0x2)
        Serial Number:
            6b:3a:b3:41:11:82:5c:65:c6:0c:6e:45:f6:c5:94:20:11:86:ec:84
        Signature Algorithm: sha256WithRSAEncryption
        Issuer: C=CH, ST=Thurgau, L=Kefikon, O=guengel.ch, CN=CA 2022/emailAddress=postmaster@guengel.ch
        Validity
            Not Before: Jan  3 14:04:17 2025 GMT
            Not After : Feb  7 14:04:17 2026 GMT
        Subject: C=CH, ST=Thurgau, O=guengel.ch, CN=amd64-2.k8s.kruemel.home/emailAddress=postmaster@guengel.ch
        Subject Public Key Info:
            Public Key Algorithm: rsaEncryption
                Public-Key: (2048 bit)
                Modulus:
                    00:c4:a9:e9:e9:48:4c:e4:14:ef:bc:3f:19:2d:52:
                    34:a9:55:d3:dc:22:c6:e6:80:36:66:de:46:4b:ec:
                    d6:5a:d9:2e:94:d8:15:27:52:f9:5c:1f:3e:e2:dd:
                    16:e8:1d:e3:83:1b:6d:6d:ef:4e:ce:a6:fc:54:a1:
                    96:42:38:79:29:49:db:9f:d4:ec:59:f8:ef:12:61:
                    c8:8d:4e:7e:66:68:5a:4b:0b:df:e1:cd:e0:a8:7e:
                    cd:ae:63:84:f0:90:d7:45:91:6e:1f:be:dc:bc:a6:
                    5b:18:6b:c3:66:96:8e:56:06:f7:95:f2:b8:72:c2:
                    96:84:4c:d3:64:47:17:f7:9a:8e:b1:34:97:6b:2d:
                    82:99:46:0c:df:28:ad:f0:04:b5:ea:15:f5:da:63:
                    b8:91:07:2b:d3:55:49:54:a8:00:18:da:df:c4:03:
                    92:42:21:59:23:17:bf:3f:39:02:71:20:c5:95:f2:
                    12:5c:c9:6b:89:99:85:ad:52:3d:e7:6c:32:9c:71:
                    ef:3d:5c:1a:5a:cc:f4:d7:9e:be:76:54:dd:6d:c5:
                    24:e5:18:e1:7c:3b:a1:33:3a:1b:60:eb:fc:43:48:
                    22:a7:ca:36:83:0c:a3:c3:46:26:05:a2:74:2a:e1:
                    27:cc:b0:fc:07:f7:92:51:e0:81:51:9b:f3:7e:35:
                    41:cf
                Exponent: 65537 (0x10001)
        X509v3 extensions:
            X509v3 Basic Constraints: critical
                CA:FALSE
            X509v3 Key Usage: 
                Digital Signature, Key Encipherment, Key Agreement
            X509v3 Subject Key Identifier: 
                6A:11:ED:2D:75:55:AB:55:34:47:76:5E:45:96:F0:A7:00:94:F8:DA
            X509v3 Authority Key Identifier: 
                keyid:22:20:0D:51:40:61:42:BE:DD:BA:D9:C9:C1:77:B6:93:28:C3:99:EC
                DirName:/C=CH/ST=Thurgau/L=Kefikon/O=guengel.ch/CN=CA 2022/emailAddress=postmaster@guengel.ch
                serial:6D:29:90:54:E9:17:E9:C2:6A:E6:52:AD:84:4E:30:8E:6E:57:FB:1C
            Netscape Cert Type: 
                SSL Client, SSL Server
            X509v3 Extended Key Usage: 
                TLS Web Server Authentication, TLS Web Client Authentication
    Signature Algorithm: sha256WithRSAEncryption
    Signature Value:
        9d:29:d9:db:3f:a6:56:03:62:ab:6d:46:9c:43:69:a6:b7:dd:
        9d:25:4c:5f:a6:ec:7a:80:c3:7a:93:87:3e:0b:cb:fa:99:3e:
        9e:bb:ed:cb:d3:08:63:de:62:61:2c:bf:b6:6c:a0:cb:81:85:
        9f:e4:bc:81:42:62:97:1e:77:a4:ab:4e:26:9c:6f:84:5d:42:
        be:a0:47:c3:f9:da:00:dc:43:33:8b:a4:0e:3d:e1:78:1f:1f:
        28:ce:49:9e:25:8a:a7:c3:e7:e1:2d:39:95:7d:2f:12:89:16:
        2c:2c:27:18:96:6e:70:b8:29:9c:3b:58:81:24:32:9c:d6:61:
        f3:74:20:e4:21:d4:38:e0:5d:15:52:59:68:83:34:90:df:4a:
        76:f5:7d:c2:ad:37:97:94:73:d9:73:15:47:89:09:ae:eb:f3:
        9a:fc:38:bb:ea:c8:a2:5c:d6:64:52:f6:a8:92:13:57:a5:a1:
        80:4d:1e:fb:4b:37:07:0a:a9:69:e8:a5:32:9a:62:c9:8b:f3:
        66:41:a4:01:2e:92:75:36:b6:e0:48:58:07:82:78:ab:0f:33:
        ee:51:7c:46:63:4b:6b:bc:98:0c:16:38:6b:19:0d:b7:2a:60:
        23:83:dc:76:55:fc:5d:7e:b0:59:c2:cc:4b:2d:08:c3:68:35:
        6e:db:d7:7d:27:f7:9c:e1:94:42:6f:a0:02:b6:fc:a9:00:5d:
        1b:db:81:0b:29:81:53:68:f9:c9:6f:c5:da:47:57:bb:47:91:
        b7:96:e3:0e:6c:f7:ec:91:5c:2b:bd:6e:86:fb:a2:c4:2a:0f:
        29:46:2e:d2:09:1c:1d:f9:4b:9e:0f:5e:d5:e9:a5:05:40:c2:
        05:00:2f:a1:db:5d:2d:c6:6c:80:69:95:c1:c2:15:13:fb:27:
        08:c5:b3:bc:f5:45:b6:dd:48:1e:86:51:aa:f2:a8:a3:da:98:
        6b:f1:24:c0:f1:17:8d:65:60:bd:9d:06:fb:c0:b6:27:4d:ee:
        8e:d0:80:99:30:c0:6c:54:8a:18:2e:43:e1:84:e1:70:69:47:
        25:77:c0:9d:7e:51:98:48:d5:0a:51:8a:de:7d:8a:66:5b:e0:
        7f:53:63:81:76:00:e2:34:ac:79:b2:64:ed:e1:f6:a5:1f:a8:
        3e:a4:ee:37:68:2e:be:68:e5:f3:76:ba:dc:92:73:bc:69:02:
        3d:09:9a:62:6d:c1:7f:88:d8:81:89:cd:16:0b:fd:6f:82:83:
        a2:1f:05:df:39:9b:4f:79:55:49:80:76:d0:f1:bb:54:91:88:
        5d:d8:04:86:69:8e:d6:33:71:95:81:10:96:23:eb:ef:32:48:
        5c:25:fd:c5:8f:ad:f2:f0
-----BEGIN CERTIFICATE-----
MIIFuzCCA6OgAwIBAgIUazqzQRGCXGXGDG5F9sWUIBGG7IQwDQYJKoZIhvcNAQEL
BQAwfjELMAkGA1UEBhMCQ0gxEDAOBgNVBAgTB1RodXJnYXUxEDAOBgNVBAcTB0tl
Zmlrb24xEzARBgNVBAoTCmd1ZW5nZWwuY2gxEDAOBgNVBAMTB0NBIDIwMjIxJDAi
BgkqhkiG9w0BCQEWFXBvc3RtYXN0ZXJAZ3VlbmdlbC5jaDAeFw0yNTAxMDMxNDA0
MTdaFw0yNjAyMDcxNDA0MTdaMH0xCzAJBgNVBAYTAkNIMRAwDgYDVQQIEwdUaHVy
Z2F1MRMwEQYDVQQKEwpndWVuZ2VsLmNoMSEwHwYDVQQDExhhbWQ2NC0yLms4cy5r
cnVlbWVsLmhvbWUxJDAiBgkqhkiG9w0BCQEWFXBvc3RtYXN0ZXJAZ3VlbmdlbC5j
aDCCASIwDQYJKoZIhvcNAQEBBQADggEPADCCAQoCggEBAMSp6elITOQU77w/GS1S
NKlV09wixuaANmbeRkvs1lrZLpTYFSdS+VwfPuLdFugd44MbbW3vTs6m/FShlkI4
eSlJ25/U7Fn47xJhyI1OfmZoWksL3+HN4Kh+za5jhPCQ10WRbh++3LymWxhrw2aW
jlYG95XyuHLCloRM02RHF/eajrE0l2stgplGDN8orfAEteoV9dpjuJEHK9NVSVSo
ABja38QDkkIhWSMXvz85AnEgxZXyElzJa4mZha1SPedsMpxx7z1cGlrM9NeevnZU
3W3FJOUY4Xw7oTM6G2Dr/ENIIqfKNoMMo8NGJgWidCrhJ8yw/Af3klHggVGb8341
Qc8CAwEAAaOCATAwggEsMAwGA1UdEwEB/wQCMAAwCwYDVR0PBAQDAgOoMB0GA1Ud
DgQWBBRqEe0tdVWrVTRHdl5FlvCnAJT42jCBvQYDVR0jBIG1MIGygBQiIA1RQGFC
vt262cnBd7aTKMOZ7KGBg6SBgDB+MQswCQYDVQQGEwJDSDEQMA4GA1UECBMHVGh1
cmdhdTEQMA4GA1UEBxMHS2VmaWtvbjETMBEGA1UEChMKZ3VlbmdlbC5jaDEQMA4G
A1UEAxMHQ0EgMjAyMjEkMCIGCSqGSIb3DQEJARYVcG9zdG1hc3RlckBndWVuZ2Vs
LmNoghRtKZBU6RfpwmrmUq2ETjCOblf7HDARBglghkgBhvhCAQEEBAMCBsAwHQYD
VR0lBBYwFAYIKwYBBQUHAwEGCCsGAQUFBwMCMA0GCSqGSIb3DQEBCwUAA4ICAQCd
KdnbP6ZWA2KrbUacQ2mmt92dJUxfpux6gMN6k4c+C8v6mT6eu+3L0whj3mJhLL+2
bKDLgYWf5LyBQmKXHnekq04mnG+EXUK+oEfD+doA3EMzi6QOPeF4Hx8ozkmeJYqn
w+fhLTmVfS8SiRYsLCcYlm5wuCmcO1iBJDKc1mHzdCDkIdQ44F0VUllogzSQ30p2
9X3CrTeXlHPZcxVHiQmu6/Oa/Di76siiXNZkUvaokhNXpaGATR77SzcHCqlp6KUy
mmLJi/NmQaQBLpJ1NrbgSFgHgnirDzPuUXxGY0trvJgMFjhrGQ23KmAjg9x2Vfxd
frBZwsxLLQjDaDVu29d9J/ec4ZRCb6ACtvypAF0b24ELKYFTaPnJb8XaR1e7R5G3
luMObPfskVwrvW6G+6LEKg8pRi7SCRwd+UueD17V6aUFQMIFAC+h210txmyAaZXB
whUT+ycIxbO89UW23UgehlGq8qij2phr8STA8ReNZWC9nQb7wLYnTe6O0ICZMMBs
VIoYLkPhhOFwaUcld8CdflGYSNUKUYrefYpmW+B/U2OBdgDiNKx5smTt4falH6g+
pO43aC6+aOXzdrrcknO8aQI9CZpibcF/iNiBic0WC/1vgoOiHwXfOZtPeVVJgHbQ
8btUkYhd2ASGaY7WM3GVgRCWI+vvMkhcJf3Fj63y8A==
-----END CERTIFICATE-----
