Certificate:
    Data:
        Version: 3 (0x2)
        Serial Number: 454 (0x1c6)
        Signature Algorithm: sha256WithRSAEncryption
        Issuer: C=CH, ST=Thurgau, L=Kefikon, O=guengel.ch, CN=CA guengel.ch/emailAddress=postmaster@guengel.ch
        Validity
            Not Before: Feb 11 07:06:56 2022 GMT
            Not After : Mar 18 07:06:56 2023 GMT
        Subject: C=CH, ST=Thurgau, O=guengel.ch, CN=amd64-1.k8s.kruemel.home/emailAddress=postmaster@guengel.ch
        Subject Public Key Info:
            Public Key Algorithm: rsaEncryption
                RSA Public-Key: (2048 bit)
                Modulus:
                    00:d7:cf:ef:f5:ab:4f:0c:45:fc:1e:6c:eb:8d:8a:
                    5a:08:86:70:f0:76:f9:fe:70:ed:72:32:35:5b:85:
                    e5:1d:9b:79:fc:6d:5c:b1:fe:4e:44:bf:77:dd:d8:
                    14:fb:68:47:a2:43:68:af:1b:d8:b9:cb:1c:4b:33:
                    df:54:bc:f9:eb:22:73:26:36:44:da:86:57:9d:b1:
                    8c:65:0e:f3:3e:c7:0f:7d:f7:a1:18:90:ea:7e:77:
                    4a:9d:29:b4:53:a9:05:6d:5a:2e:9e:95:52:70:2b:
                    a0:f2:90:87:50:74:cc:a0:99:50:5c:0e:79:75:d3:
                    43:66:f9:01:8f:a5:80:72:84:82:45:d7:04:bc:05:
                    d5:68:7e:99:99:4e:02:72:34:8c:69:c2:a5:3a:1a:
                    38:36:be:2e:36:21:4e:4b:7a:41:20:70:63:77:b4:
                    06:81:14:c3:b9:14:2d:ec:26:2a:4d:a9:41:7e:f2:
                    4f:b5:d2:05:8b:6e:56:2b:84:a0:b1:6a:ba:82:d4:
                    b0:66:04:54:5f:67:cb:8b:d5:23:f8:14:24:bd:f7:
                    00:18:a6:93:f1:66:b8:99:19:14:cb:b7:99:97:a2:
                    ca:a2:f4:4f:00:46:c6:ec:62:98:d5:8f:b7:d3:f1:
                    35:b6:6b:e6:4e:0a:8e:44:b5:ed:90:ed:ee:2e:eb:
                    7d:93
                Exponent: 65537 (0x10001)
        X509v3 extensions:
            X509v3 Key Usage: 
                Digital Signature, Key Encipherment, Key Agreement
            X509v3 Basic Constraints: critical
                CA:FALSE
            Netscape Cert Type: 
                SSL Client, SSL Server
            X509v3 Extended Key Usage: 
                TLS Web Server Authentication, TLS Web Client Authentication
            X509v3 Subject Alternative Name: 
                DNS:amd64-1.k8s.kruemel.home
            X509v3 Subject Key Identifier: 
                79:F5:F7:FD:3D:F8:A2:F6:D7:60:5A:50:16:D0:74:20:7F:8C:8C:48
            X509v3 Authority Key Identifier: 
                keyid:D6:88:F1:AA:C1:2B:09:8C:B8:5C:9D:CE:DF:57:39:62:26:10:20:90
                DirName:/C=CH/ST=Thurgau/L=Kefikon/O=guengel.ch/CN=CA guengel.ch/emailAddress=postmaster@guengel.ch
                serial:E5:25:3B:A6:77:BD:CB:FF

    Signature Algorithm: sha256WithRSAEncryption
         42:44:62:e3:b1:ae:de:47:27:96:b6:3b:6e:0f:1b:0e:c5:cf:
         a7:b9:6c:84:66:fd:ff:9b:41:63:02:72:62:7f:59:45:23:d8:
         18:19:03:31:3b:60:60:4f:98:31:f1:1f:57:19:71:f6:6b:1c:
         5b:18:dd:f9:fd:79:7b:13:cd:45:e2:5e:e4:ce:12:3a:6c:71:
         96:63:ee:07:7e:4a:ea:84:c7:10:b3:66:ac:3a:2d:fc:cf:27:
         24:93:a1:b3:4a:71:9d:97:9c:ac:ea:17:92:1c:c3:34:3a:2a:
         12:3e:8c:56:ab:df:bd:43:e0:78:bf:f7:e8:9b:d1:cb:bc:52:
         28:f3:a2:d7:2b:60:00:ca:84:3f:7d:ef:25:e6:7a:ee:67:f8:
         25:2a:4b:55:9c:9b:05:8d:2a:e3:d0:29:80:cd:8f:ee:04:a8:
         a3:fa:7a:a2:76:0a:83:47:14:78:a7:3b:2a:0b:50:cb:34:81:
         7f:e8:5b:fb:1b:e5:b6:2a:b6:8e:b9:2a:d2:14:d8:fc:ae:17:
         3e:83:fe:2e:be:15:55:2a:94:dc:3e:ae:de:9a:be:6f:f1:3d:
         01:c0:8c:70:b5:29:59:5c:dc:33:62:11:0f:b0:00:9e:02:8f:
         9c:84:24:b0:28:b4:a7:32:7c:b1:9b:d9:d4:1f:7e:43:1e:94:
         89:0e:c9:2f:56:3e:ff:47:68:f5:8f:40:4b:25:42:ce:3c:e7:
         b4:ed:62:15:5d:fc:58:11:5b:8d:0d:bd:02:39:5c:d4:7c:db:
         fb:12:b1:a3:73:1f:6a:1e:87:8e:b6:6a:9e:b2:17:05:11:5e:
         67:2c:1a:86:9a:e1:fc:f3:90:a3:fb:0b:18:7a:58:fd:ac:a8:
         83:ac:48:3b:13:5c:06:b7:0a:50:52:bd:4d:47:fd:45:47:5c:
         31:42:2a:e6:5e:0a:fc:af:b3:d9:26:43:d1:a1:94:a1:b3:ad:
         cc:59:29:b6:03:72:b1:d7:41:5b:86:67:ee:60:f7:0b:dd:e1:
         24:a7:6f:90:b0:67:7f:65:2a:70:f8:5c:98:22:48:fc:6a:f6:
         e0:1b:3b:d4:b5:72:dd:61:bf:07:fb:6d:0b:e8:57:fa:19:b5:
         0b:83:b8:2d:7a:a5:61:fd:6b:d0:47:23:59:ce:da:2b:fa:e0:
         90:37:e5:20:62:66:07:d6:cc:98:62:d2:2e:7f:b0:dc:c6:b1:
         db:e2:ee:6b:d3:a7:b5:e2:b1:fd:8a:8e:93:cb:0e:3d:a5:3a:
         3a:e7:f9:c3:76:86:7a:5a:58:7b:53:6e:bc:2f:5a:77:2b:a2:
         1a:14:3d:98:d7:60:57:40:0d:3d:d8:ca:1a:36:67:e5:10:6e:
         56:af:c0:ad:40:1d:d2:b8
-----BEGIN CERTIFICATE-----
MIIF0TCCA7mgAwIBAgICAcYwDQYJKoZIhvcNAQELBQAwgYQxCzAJBgNVBAYTAkNI
MRAwDgYDVQQIEwdUaHVyZ2F1MRAwDgYDVQQHEwdLZWZpa29uMRMwEQYDVQQKEwpn
dWVuZ2VsLmNoMRYwFAYDVQQDEw1DQSBndWVuZ2VsLmNoMSQwIgYJKoZIhvcNAQkB
FhVwb3N0bWFzdGVyQGd1ZW5nZWwuY2gwHhcNMjIwMjExMDcwNjU2WhcNMjMwMzE4
MDcwNjU2WjB9MQswCQYDVQQGEwJDSDEQMA4GA1UECBMHVGh1cmdhdTETMBEGA1UE
ChMKZ3VlbmdlbC5jaDEhMB8GA1UEAxMYYW1kNjQtMS5rOHMua3J1ZW1lbC5ob21l
MSQwIgYJKoZIhvcNAQkBFhVwb3N0bWFzdGVyQGd1ZW5nZWwuY2gwggEiMA0GCSqG
SIb3DQEBAQUAA4IBDwAwggEKAoIBAQDXz+/1q08MRfwebOuNiloIhnDwdvn+cO1y
MjVbheUdm3n8bVyx/k5Ev3fd2BT7aEeiQ2ivG9i5yxxLM99UvPnrInMmNkTahled
sYxlDvM+xw9996EYkOp+d0qdKbRTqQVtWi6elVJwK6DykIdQdMygmVBcDnl100Nm
+QGPpYByhIJF1wS8BdVofpmZTgJyNIxpwqU6Gjg2vi42IU5LekEgcGN3tAaBFMO5
FC3sJipNqUF+8k+10gWLblYrhKCxarqC1LBmBFRfZ8uL1SP4FCS99wAYppPxZriZ
GRTLt5mXosqi9E8ARsbsYpjVj7fT8TW2a+ZOCo5Ete2Q7e4u632TAgMBAAGjggFR
MIIBTTALBgNVHQ8EBAMCA6gwDAYDVR0TAQH/BAIwADARBglghkgBhvhCAQEEBAMC
BsAwHQYDVR0lBBYwFAYIKwYBBQUHAwEGCCsGAQUFBwMCMCMGA1UdEQQcMBqCGGFt
ZDY0LTEuazhzLmtydWVtZWwuaG9tZTAdBgNVHQ4EFgQUefX3/T34ovbXYFpQFtB0
IH+MjEgwgbkGA1UdIwSBsTCBroAU1ojxqsErCYy4XJ3O31c5YiYQIJChgYqkgYcw
gYQxCzAJBgNVBAYTAkNIMRAwDgYDVQQIEwdUaHVyZ2F1MRAwDgYDVQQHEwdLZWZp
a29uMRMwEQYDVQQKEwpndWVuZ2VsLmNoMRYwFAYDVQQDEw1DQSBndWVuZ2VsLmNo
MSQwIgYJKoZIhvcNAQkBFhVwb3N0bWFzdGVyQGd1ZW5nZWwuY2iCCQDlJTumd73L
/zANBgkqhkiG9w0BAQsFAAOCAgEAQkRi47Gu3kcnlrY7bg8bDsXPp7lshGb9/5tB
YwJyYn9ZRSPYGBkDMTtgYE+YMfEfVxlx9mscWxjd+f15exPNReJe5M4SOmxxlmPu
B35K6oTHELNmrDot/M8nJJOhs0pxnZecrOoXkhzDNDoqEj6MVqvfvUPgeL/36JvR
y7xSKPOi1ytgAMqEP33vJeZ67mf4JSpLVZybBY0q49ApgM2P7gSoo/p6onYKg0cU
eKc7KgtQyzSBf+hb+xvltiq2jrkq0hTY/K4XPoP+Lr4VVSqU3D6u3pq+b/E9AcCM
cLUpWVzcM2IRD7AAngKPnIQksCi0pzJ8sZvZ1B9+Qx6UiQ7JL1Y+/0do9Y9ASyVC
zjzntO1iFV38WBFbjQ29Ajlc1Hzb+xKxo3Mfah6HjrZqnrIXBRFeZywahprh/POQ
o/sLGHpY/ayog6xIOxNcBrcKUFK9TUf9RUdcMUIq5l4K/K+z2SZD0aGUobOtzFkp
tgNysddBW4Zn7mD3C93hJKdvkLBnf2UqcPhcmCJI/Gr24Bs71LVy3WG/B/ttC+hX
+hm1C4O4LXqlYf1r0EcjWc7aK/rgkDflIGJmB9bMmGLSLn+w3Max2+Lua9OnteKx
/YqOk8sOPaU6Ouf5w3aGelpYe1NuvC9adyuiGhQ9mNdgV0ANPdjKGjZn5RBuVq/A
rUAd0rg=
-----END CERTIFICATE-----
