Certificate:
    Data:
        Version: 3 (0x2)
        Serial Number: 291 (0x123)
    Signature Algorithm: sha256WithRSAEncryption
        Issuer: C=CH, ST=Thurgau, L=Kefikon, O=guengel.ch, CN=CA guengel.ch/emailAddress=postmaster@guengel.ch
        Validity
            Not Before: Jan  6 18:02:53 2018 GMT
            Not After : Feb 10 18:02:53 2019 GMT
        Subject: C=CH, ST=Thurgau, O=guengel.ch, CN=anic.web.kruemel.home/emailAddress=postmaster@guengel.ch
        Subject Public Key Info:
            Public Key Algorithm: rsaEncryption
                Public-Key: (2048 bit)
                Modulus:
                    00:e3:7e:6f:2a:86:19:e1:42:a1:ec:fd:1a:30:c5:
                    3f:c5:66:8b:ab:e6:6a:4e:5c:b0:ee:1f:e1:7d:ed:
                    1e:12:bc:34:20:73:f6:9a:33:b7:40:49:d4:67:08:
                    ca:b1:ac:5d:2e:ed:61:c7:50:f0:81:33:c2:82:18:
                    fe:eb:65:23:34:cd:92:62:21:a2:8d:85:73:e6:c8:
                    41:da:f1:fc:9a:40:b3:db:ad:ae:54:60:77:aa:60:
                    ad:e5:ca:09:72:b4:cd:9f:47:ea:00:f0:6c:f2:87:
                    e4:0c:13:a2:9c:eb:9f:c5:c2:1d:e2:21:be:a7:fa:
                    38:98:6a:8c:a4:be:72:80:26:0d:57:68:6d:4a:4f:
                    ec:f3:e5:ac:46:60:28:28:23:ec:53:59:fa:9d:e6:
                    23:cb:21:79:09:96:b4:db:a5:f4:bb:22:3a:d7:09:
                    cd:ca:57:ea:17:23:5f:1d:c9:52:ee:0d:9d:60:e9:
                    e1:f0:24:78:66:c9:9d:27:ec:12:01:f7:ec:fb:19:
                    1f:e1:5b:1b:23:33:13:cb:84:57:e4:ff:5d:40:f2:
                    11:ff:d1:37:84:b5:91:bb:62:b6:78:cb:81:e2:48:
                    d3:59:10:f9:49:16:6c:bb:6e:5b:3c:f2:3c:fb:9d:
                    a4:98:0f:71:55:51:35:e9:90:66:64:f5:7e:e9:22:
                    f6:4d
                Exponent: 65537 (0x10001)
        X509v3 extensions:
            X509v3 Basic Constraints: 
                CA:FALSE
            Netscape Comment: 
                OpenSSL Generated Certificate
            X509v3 Subject Key Identifier: 
                0D:69:DC:7A:C4:01:EA:B7:4D:D0:37:D4:41:5B:85:C1:B4:2B:BB:41
            X509v3 Authority Key Identifier: 
                keyid:D6:88:F1:AA:C1:2B:09:8C:B8:5C:9D:CE:DF:57:39:62:26:10:20:90
                DirName:/C=CH/ST=Thurgau/L=Kefikon/O=guengel.ch/CN=CA guengel.ch/emailAddress=postmaster@guengel.ch
                serial:E5:25:3B:A6:77:BD:CB:FF

    Signature Algorithm: sha256WithRSAEncryption
         c5:54:72:4d:db:49:99:81:9d:fd:34:1c:00:94:2b:41:2a:3e:
         22:db:3a:82:b4:b1:34:a1:d6:cc:53:68:7d:3f:9d:55:5f:2d:
         c3:bd:aa:9c:4c:4d:89:5b:0d:40:fc:04:50:67:1d:f3:e1:ba:
         13:ae:b8:c9:08:2d:7e:55:35:30:f5:6f:b0:76:71:e1:79:f0:
         09:cf:f8:c4:1f:d5:11:34:22:2e:7a:0b:f6:2c:21:70:98:e5:
         a0:f9:e8:ec:54:fc:f1:c9:45:4d:2c:0f:8f:a7:1a:87:d1:98:
         62:fe:4e:2a:7d:b8:c1:4f:fa:37:bb:17:99:97:f3:74:3c:48:
         4f:f1:4e:1a:b4:15:57:6e:04:99:ec:f8:72:79:f4:30:01:3f:
         31:59:cf:84:2e:5c:c1:d1:ee:8b:93:11:fa:9d:89:d3:de:91:
         cd:39:65:d3:4e:66:da:66:25:94:6a:c0:cb:0e:51:e0:ad:a3:
         f8:7e:01:12:67:d8:8b:d2:ac:1a:0c:ac:6e:cb:25:0c:c1:39:
         fe:93:29:f2:9e:5d:d0:63:5a:24:f6:bf:4c:e8:a1:e7:a4:28:
         c0:64:31:ca:1f:e7:4d:3d:35:e1:93:b9:63:34:bf:1f:39:ac:
         1c:98:57:d2:8e:07:af:cc:50:0a:33:91:02:38:d2:49:56:c1:
         6d:fc:d1:43:61:9b:e5:eb:e0:bd:98:91:d3:d2:0f:a5:8e:81:
         69:e2:13:0f:80:85:e3:ec:03:8c:f5:de:bf:36:23:5b:6c:72:
         1f:6c:bb:63:44:a2:4f:f8:c7:af:58:b7:24:ce:9c:23:28:1a:
         c9:03:ff:54:8b:cb:a6:84:08:28:27:61:f7:d6:6e:3d:0b:ed:
         df:a3:93:8e:c5:29:ef:2c:68:85:18:9c:89:50:42:2e:de:63:
         8c:9a:15:5c:41:54:be:c4:03:07:cb:08:39:1e:f5:3e:62:89:
         cf:86:7a:78:5a:72:21:e4:e0:4b:ff:da:78:fa:cc:0b:94:2c:
         81:14:0a:7f:6c:bb:e0:91:92:40:42:d4:c3:f5:4a:57:43:cb:
         51:ae:12:23:eb:1b:8b:86:53:e0:57:25:23:97:a9:21:eb:ff:
         90:28:59:0b:56:85:98:00:aa:f8:58:3b:e3:83:d2:a4:88:46:
         7b:1d:14:8d:90:0e:0f:44:72:47:df:b1:cd:d0:51:1c:50:8d:
         7f:ad:23:c8:17:00:17:cc:fa:4e:2f:4c:f8:a3:5d:13:b7:2f:
         99:59:6d:40:9a:fc:d2:42:1e:31:8e:75:df:62:84:5f:f7:16:
         93:63:db:41:eb:49:75:84:01:94:f0:3e:c0:67:4c:57:3c:7f:
         b1:b3:ac:45:7b:0d:2f:6c
-----BEGIN CERTIFICATE-----
MIIFlTCCA32gAwIBAgICASMwDQYJKoZIhvcNAQELBQAwgYQxCzAJBgNVBAYTAkNI
MRAwDgYDVQQIEwdUaHVyZ2F1MRAwDgYDVQQHEwdLZWZpa29uMRMwEQYDVQQKEwpn
dWVuZ2VsLmNoMRYwFAYDVQQDEw1DQSBndWVuZ2VsLmNoMSQwIgYJKoZIhvcNAQkB
FhVwb3N0bWFzdGVyQGd1ZW5nZWwuY2gwHhcNMTgwMTA2MTgwMjUzWhcNMTkwMjEw
MTgwMjUzWjB6MQswCQYDVQQGEwJDSDEQMA4GA1UECBMHVGh1cmdhdTETMBEGA1UE
ChMKZ3VlbmdlbC5jaDEeMBwGA1UEAxMVYW5pYy53ZWIua3J1ZW1lbC5ob21lMSQw
IgYJKoZIhvcNAQkBFhVwb3N0bWFzdGVyQGd1ZW5nZWwuY2gwggEiMA0GCSqGSIb3
DQEBAQUAA4IBDwAwggEKAoIBAQDjfm8qhhnhQqHs/RowxT/FZour5mpOXLDuH+F9
7R4SvDQgc/aaM7dASdRnCMqxrF0u7WHHUPCBM8KCGP7rZSM0zZJiIaKNhXPmyEHa
8fyaQLPbra5UYHeqYK3lyglytM2fR+oA8Gzyh+QME6Kc65/Fwh3iIb6n+jiYaoyk
vnKAJg1XaG1KT+zz5axGYCgoI+xTWfqd5iPLIXkJlrTbpfS7IjrXCc3KV+oXI18d
yVLuDZ1g6eHwJHhmyZ0n7BIB9+z7GR/hWxsjMxPLhFfk/11A8hH/0TeEtZG7YrZ4
y4HiSNNZEPlJFmy7bls88jz7naSYD3FVUTXpkGZk9X7pIvZNAgMBAAGjggEYMIIB
FDAJBgNVHRMEAjAAMCwGCWCGSAGG+EIBDQQfFh1PcGVuU1NMIEdlbmVyYXRlZCBD
ZXJ0aWZpY2F0ZTAdBgNVHQ4EFgQUDWncesQB6rdN0DfUQVuFwbQru0EwgbkGA1Ud
IwSBsTCBroAU1ojxqsErCYy4XJ3O31c5YiYQIJChgYqkgYcwgYQxCzAJBgNVBAYT
AkNIMRAwDgYDVQQIEwdUaHVyZ2F1MRAwDgYDVQQHEwdLZWZpa29uMRMwEQYDVQQK
EwpndWVuZ2VsLmNoMRYwFAYDVQQDEw1DQSBndWVuZ2VsLmNoMSQwIgYJKoZIhvcN
AQkBFhVwb3N0bWFzdGVyQGd1ZW5nZWwuY2iCCQDlJTumd73L/zANBgkqhkiG9w0B
AQsFAAOCAgEAxVRyTdtJmYGd/TQcAJQrQSo+Its6grSxNKHWzFNofT+dVV8tw72q
nExNiVsNQPwEUGcd8+G6E664yQgtflU1MPVvsHZx4XnwCc/4xB/VETQiLnoL9iwh
cJjloPno7FT88clFTSwPj6cah9GYYv5OKn24wU/6N7sXmZfzdDxIT/FOGrQVV24E
mez4cnn0MAE/MVnPhC5cwdHui5MR+p2J096RzTll005m2mYllGrAyw5R4K2j+H4B
EmfYi9KsGgysbsslDME5/pMp8p5d0GNaJPa/TOih56QowGQxyh/nTT014ZO5YzS/
HzmsHJhX0o4Hr8xQCjORAjjSSVbBbfzRQ2Gb5evgvZiR09IPpY6BaeITD4CF4+wD
jPXevzYjW2xyH2y7Y0SiT/jHr1i3JM6cIygayQP/VIvLpoQIKCdh99ZuPQvt36OT
jsUp7yxohRiciVBCLt5jjJoVXEFUvsQDB8sIOR71PmKJz4Z6eFpyIeTgS//aePrM
C5QsgRQKf2y74JGSQELUw/VKV0PLUa4SI+sbi4ZT4FclI5epIev/kChZC1aFmACq
+Fg744PSpIhGex0UjZAOD0RyR9+xzdBRHFCNf60jyBcAF8z6Ti9M+KNdE7cvmVlt
QJr80kIeMY5132KEX/cWk2PbQetJdYQBlPA+wGdMVzx/sbOsRXsNL2w=
-----END CERTIFICATE-----
