Certificate:
    Data:
        Version: 3 (0x2)
        Serial Number:
            38:09:2f:45:6b:6d:4c:34:90:80:12:54:de:d2:ad:95:8b:af:cf:e2
        Signature Algorithm: sha256WithRSAEncryption
        Issuer: C=CH, ST=Thurgau, L=Kefikon, O=guengel.ch, CN=CA 2022/emailAddress=postmaster@guengel.ch
        Validity
            Not Before: Jan  3 14:04:34 2025 GMT
            Not After : Feb  7 14:04:34 2026 GMT
        Subject: C=CH, ST=Thurgau, O=guengel.ch, CN=app-1/emailAddress=postmaster@guengel.ch
        Subject Public Key Info:
            Public Key Algorithm: rsaEncryption
                Public-Key: (2048 bit)
                Modulus:
                    00:c4:09:76:00:6f:14:59:e1:50:6b:b7:8a:5b:9d:
                    02:a0:a4:44:89:fc:a9:ef:5c:ad:7b:48:eb:c6:c7:
                    3f:1b:6a:df:da:2d:1a:30:32:7d:48:b4:d5:f4:8b:
                    39:e8:60:ff:4a:20:f6:5e:75:b6:3c:d8:6b:24:ed:
                    5c:dd:60:b8:7f:8e:7f:3f:f5:36:3c:c2:79:87:78:
                    1a:a0:79:00:46:1c:2d:32:e3:be:5b:53:9e:8b:28:
                    d9:0f:f1:28:23:c8:5b:1f:2e:a5:fc:50:a9:63:05:
                    83:3d:88:bf:56:0d:19:70:04:5e:b6:fd:62:9d:98:
                    74:be:3c:b1:79:b1:46:50:7d:cb:9d:64:c3:a2:38:
                    59:30:9c:12:30:70:9c:b6:55:6d:80:1d:9e:1c:5f:
                    e9:ff:dd:13:2d:c5:34:5f:94:3c:84:af:b0:dc:c6:
                    d5:f9:fe:4b:5f:bb:65:53:b9:23:c8:27:bb:4a:5b:
                    b8:5d:dd:71:9a:16:bd:31:2c:96:19:84:ed:0d:93:
                    da:e7:8f:5d:42:0e:4c:ec:7e:bf:38:b5:a6:f1:35:
                    d3:de:5d:a7:4b:37:42:30:ad:9b:79:2c:6a:1c:af:
                    1e:b0:4a:0a:e2:d9:fc:25:28:d3:5a:d1:fe:2c:6e:
                    8e:45:3c:bd:58:5c:9c:32:89:fd:08:24:8d:f1:a4:
                    18:57
                Exponent: 65537 (0x10001)
        X509v3 extensions:
            X509v3 Basic Constraints: critical
                CA:FALSE
            X509v3 Key Usage: 
                Digital Signature, Key Encipherment, Key Agreement
            X509v3 Subject Key Identifier: 
                60:B3:14:92:80:05:AF:99:52:64:A9:21:30:0F:6E:4E:84:B4:04:67
            X509v3 Authority Key Identifier: 
                keyid:22:20:0D:51:40:61:42:BE:DD:BA:D9:C9:C1:77:B6:93:28:C3:99:EC
                DirName:/C=CH/ST=Thurgau/L=Kefikon/O=guengel.ch/CN=CA 2022/emailAddress=postmaster@guengel.ch
                serial:6D:29:90:54:E9:17:E9:C2:6A:E6:52:AD:84:4E:30:8E:6E:57:FB:1C
            Netscape Cert Type: 
                SSL Client, SSL Server
            X509v3 Extended Key Usage: 
                TLS Web Server Authentication, TLS Web Client Authentication
    Signature Algorithm: sha256WithRSAEncryption
    Signature Value:
        3a:a5:cb:10:76:12:5d:51:4e:69:50:81:f8:be:11:00:dd:6a:
        51:e2:61:f8:aa:a8:db:e8:33:c8:31:6e:23:f2:3e:79:a3:a5:
        aa:b4:81:3b:f6:d8:df:dc:9d:b4:30:ee:71:0b:ce:2b:0a:12:
        ac:2c:f7:45:e2:61:4b:46:40:a7:5a:3d:44:39:da:77:a0:ba:
        32:0e:40:f9:97:cd:64:17:ff:eb:e2:72:4d:6e:6b:95:3c:40:
        68:05:8f:fd:a6:ac:eb:fa:6c:c5:01:8c:03:51:eb:6c:d1:53:
        5f:f6:81:35:11:5a:66:7f:07:55:6f:be:25:14:9f:0c:0e:e0:
        b8:f8:28:ac:fb:f3:fc:f6:94:1f:96:f8:cd:5b:5b:34:f1:2f:
        98:7d:13:84:a0:85:55:c4:fe:5e:52:6d:57:75:76:3e:a0:8d:
        18:f2:9e:54:ef:5b:92:11:95:9b:cb:81:79:e3:e6:fe:c6:da:
        85:2a:22:44:14:85:29:9e:3c:9f:2e:de:8f:e2:a3:23:26:41:
        d5:10:c6:7e:e8:62:07:6c:cb:04:e8:e1:75:21:b8:e7:df:ba:
        f4:b8:5a:0b:25:8e:01:5d:32:e4:45:d7:81:6a:a5:d7:79:c5:
        62:7f:34:46:27:82:86:45:e1:0f:9f:8d:a2:9b:a0:bb:4b:41:
        c3:a7:76:43:61:d7:94:db:6f:41:73:a3:e8:26:2b:5d:53:7c:
        c9:e3:ba:11:38:20:1e:c7:44:d9:43:cf:d5:39:87:5a:7f:91:
        2f:e2:44:49:b6:f1:e2:70:54:a9:db:7f:71:7d:b3:12:39:84:
        b6:64:2d:24:60:36:f2:d4:1c:22:90:67:57:97:af:f9:ab:cd:
        5a:b7:52:2f:99:b6:0d:99:34:10:0c:e5:be:8b:0f:08:fd:05:
        97:ce:e9:d5:e7:cc:39:1b:6a:ed:03:dc:04:84:78:fc:2e:c2:
        67:78:ce:b8:1e:55:ee:f7:6a:82:3c:5e:c4:9f:c3:ca:33:7a:
        c8:6a:25:d8:b4:76:de:84:f5:6d:ba:86:f4:5b:56:0f:6d:3f:
        de:37:f7:b8:9e:35:61:ab:59:02:f4:65:3a:8f:e7:5f:f0:e3:
        2f:97:7e:2a:0a:dc:a8:61:28:9b:52:ff:a2:72:6f:09:87:72:
        25:e8:57:1e:ac:c6:91:8c:64:82:eb:52:3b:82:a4:26:8a:fe:
        71:57:ca:42:de:a0:d0:76:5b:31:6b:d9:22:15:82:18:5d:5b:
        21:e5:91:0c:0d:c9:7f:8e:fd:36:4f:78:7c:c1:4b:6b:fc:8d:
        5b:23:ee:5d:51:27:33:52:3b:0b:f2:e7:9e:60:14:db:bd:ce:
        37:12:0f:3f:6d:53:28:2c
-----BEGIN CERTIFICATE-----
MIIFqDCCA5CgAwIBAgIUOAkvRWttTDSQgBJU3tKtlYuvz+IwDQYJKoZIhvcNAQEL
BQAwfjELMAkGA1UEBhMCQ0gxEDAOBgNVBAgTB1RodXJnYXUxEDAOBgNVBAcTB0tl
Zmlrb24xEzARBgNVBAoTCmd1ZW5nZWwuY2gxEDAOBgNVBAMTB0NBIDIwMjIxJDAi
BgkqhkiG9w0BCQEWFXBvc3RtYXN0ZXJAZ3VlbmdlbC5jaDAeFw0yNTAxMDMxNDA0
MzRaFw0yNjAyMDcxNDA0MzRaMGoxCzAJBgNVBAYTAkNIMRAwDgYDVQQIEwdUaHVy
Z2F1MRMwEQYDVQQKEwpndWVuZ2VsLmNoMQ4wDAYDVQQDEwVhcHAtMTEkMCIGCSqG
SIb3DQEJARYVcG9zdG1hc3RlckBndWVuZ2VsLmNoMIIBIjANBgkqhkiG9w0BAQEF
AAOCAQ8AMIIBCgKCAQEAxAl2AG8UWeFQa7eKW50CoKREifyp71yte0jrxsc/G2rf
2i0aMDJ9SLTV9Is56GD/SiD2XnW2PNhrJO1c3WC4f45/P/U2PMJ5h3gaoHkARhwt
MuO+W1OeiyjZD/EoI8hbHy6l/FCpYwWDPYi/Vg0ZcARetv1inZh0vjyxebFGUH3L
nWTDojhZMJwSMHCctlVtgB2eHF/p/90TLcU0X5Q8hK+w3MbV+f5LX7tlU7kjyCe7
Slu4Xd1xmha9MSyWGYTtDZPa549dQg5M7H6/OLWm8TXT3l2nSzdCMK2beSxqHK8e
sEoK4tn8JSjTWtH+LG6ORTy9WFycMon9CCSN8aQYVwIDAQABo4IBMDCCASwwDAYD
VR0TAQH/BAIwADALBgNVHQ8EBAMCA6gwHQYDVR0OBBYEFGCzFJKABa+ZUmSpITAP
bk6EtARnMIG9BgNVHSMEgbUwgbKAFCIgDVFAYUK+3brZycF3tpMow5nsoYGDpIGA
MH4xCzAJBgNVBAYTAkNIMRAwDgYDVQQIEwdUaHVyZ2F1MRAwDgYDVQQHEwdLZWZp
a29uMRMwEQYDVQQKEwpndWVuZ2VsLmNoMRAwDgYDVQQDEwdDQSAyMDIyMSQwIgYJ
KoZIhvcNAQkBFhVwb3N0bWFzdGVyQGd1ZW5nZWwuY2iCFG0pkFTpF+nCauZSrYRO
MI5uV/scMBEGCWCGSAGG+EIBAQQEAwIGwDAdBgNVHSUEFjAUBggrBgEFBQcDAQYI
KwYBBQUHAwIwDQYJKoZIhvcNAQELBQADggIBADqlyxB2El1RTmlQgfi+EQDdalHi
YfiqqNvoM8gxbiPyPnmjpaq0gTv22N/cnbQw7nELzisKEqws90XiYUtGQKdaPUQ5
2negujIOQPmXzWQX/+vick1ua5U8QGgFj/2mrOv6bMUBjANR62zRU1/2gTURWmZ/
B1VvviUUnwwO4Lj4KKz78/z2lB+W+M1bWzTxL5h9E4SghVXE/l5SbVd1dj6gjRjy
nlTvW5IRlZvLgXnj5v7G2oUqIkQUhSmePJ8u3o/ioyMmQdUQxn7oYgdsywTo4XUh
uOffuvS4WgsljgFdMuRF14Fqpdd5xWJ/NEYngoZF4Q+fjaKboLtLQcOndkNh15Tb
b0Fzo+gmK11TfMnjuhE4IB7HRNlDz9U5h1p/kS/iREm28eJwVKnbf3F9sxI5hLZk
LSRgNvLUHCKQZ1eXr/mrzVq3Ui+Ztg2ZNBAM5b6LDwj9BZfO6dXnzDkbau0D3ASE
ePwuwmd4zrgeVe73aoI8XsSfw8ozeshqJdi0dt6E9W26hvRbVg9tP94397ieNWGr
WQL0ZTqP51/w4y+XfioK3KhhKJtS/6JybwmHciXoVx6sxpGMZILrUjuCpCaK/nFX
ykLeoNB2WzFr2SIVghhdWyHlkQwNyX+O/TZPeHzBS2v8jVsj7l1RJzNSOwvy555g
FNu9zjcSDz9tUygs
-----END CERTIFICATE-----
