Certificate:
    Data:
        Version: 3 (0x2)
        Serial Number: 424 (0x1a8)
        Signature Algorithm: sha256WithRSAEncryption
        Issuer: C=CH, ST=Thurgau, L=Kefikon, O=guengel.ch, CN=CA guengel.ch/emailAddress=postmaster@guengel.ch
        Validity
            Not Before: Feb  6 15:12:47 2021 GMT
            Not After : Mar 13 15:12:47 2022 GMT
        Subject: C=CH, ST=Thurgau, O=guengel.ch, CN=app-1/emailAddress=postmaster@guengel.ch
        Subject Public Key Info:
            Public Key Algorithm: rsaEncryption
                RSA Public-Key: (2048 bit)
                Modulus:
                    00:a5:48:bd:f2:85:53:60:b3:20:05:08:b5:b3:14:
                    a7:54:7e:59:9a:6a:4d:8c:42:cb:41:4b:67:2a:d3:
                    cb:d7:5e:ef:a7:99:f6:50:ee:11:01:39:5d:f4:0c:
                    9d:9d:10:a5:38:1e:a8:81:4f:c6:f3:a6:0c:bf:ef:
                    a6:b3:aa:bd:44:33:06:fc:09:9a:3d:84:30:8a:b9:
                    66:61:b9:36:96:ed:63:cc:6d:fd:65:26:7b:0f:be:
                    4f:61:8d:bc:0f:15:1f:8b:a4:cc:ce:28:31:37:7d:
                    ac:1e:3e:4c:f6:c6:a8:b8:5d:b7:d0:b2:bb:f5:dd:
                    bb:de:c7:2a:32:3c:f0:77:fc:02:ac:c6:1a:d3:08:
                    eb:f4:dc:51:6f:54:82:c8:cf:82:08:0d:8b:9c:73:
                    df:53:1a:e0:37:cf:2a:84:db:14:d1:b8:e4:0f:a7:
                    97:0b:53:f4:05:41:fb:dc:ee:a2:85:15:70:ee:d9:
                    8a:66:6b:4a:8e:3b:21:60:77:6e:04:36:44:7b:a8:
                    ed:97:84:f0:f9:d0:99:33:a5:0a:7b:c5:ba:2c:26:
                    5a:66:9f:e8:ec:45:cd:6d:39:13:3d:69:e7:ce:ec:
                    f3:b4:0b:3c:f0:d1:59:1e:f5:9c:69:2d:18:dd:5c:
                    e4:5c:f1:c9:62:cb:99:6d:c3:cc:9c:0b:6c:2a:3c:
                    f9:2f
                Exponent: 65537 (0x10001)
        X509v3 extensions:
            X509v3 Key Usage: 
                Digital Signature, Key Encipherment, Key Agreement
            X509v3 Basic Constraints: critical
                CA:FALSE
            Netscape Cert Type: 
                SSL Client, SSL Server
            X509v3 Extended Key Usage: 
                TLS Web Server Authentication, TLS Web Client Authentication
            X509v3 Subject Alternative Name: 
                DNS:app-1
            X509v3 Subject Key Identifier: 
                B4:60:C4:18:3E:59:21:7F:34:9F:08:A4:AB:97:21:8C:1C:3A:BC:88
            X509v3 Authority Key Identifier: 
                keyid:D6:88:F1:AA:C1:2B:09:8C:B8:5C:9D:CE:DF:57:39:62:26:10:20:90
                DirName:/C=CH/ST=Thurgau/L=Kefikon/O=guengel.ch/CN=CA guengel.ch/emailAddress=postmaster@guengel.ch
                serial:E5:25:3B:A6:77:BD:CB:FF

    Signature Algorithm: sha256WithRSAEncryption
         64:a9:73:84:a4:80:2f:68:e3:bb:20:c5:3a:b3:a4:ae:54:f5:
         d5:8d:87:5e:a6:84:08:c2:c0:f1:eb:f5:5f:cf:48:3e:3f:bf:
         52:59:19:78:68:f9:29:8c:33:14:16:a5:17:44:7e:4c:0d:ac:
         6c:50:11:f8:c2:af:01:42:44:23:ac:7b:09:53:dd:fd:d1:a9:
         7c:21:da:40:06:0e:4f:46:4f:aa:57:6b:4b:56:28:24:cf:bc:
         0f:f7:e9:7c:cd:13:a7:07:8f:47:c6:95:70:69:38:9b:aa:59:
         1c:b4:0f:3d:c9:0e:5e:32:67:36:ed:ff:66:60:1b:72:16:af:
         68:a2:87:76:f0:27:a0:81:55:e2:66:da:ac:90:23:d6:80:0b:
         43:ca:e5:7f:0c:f1:91:ec:53:1b:bb:66:6b:82:c4:e9:9c:af:
         8a:c8:90:61:eb:1e:7b:5f:fe:a2:6e:c2:2d:15:4a:8c:1f:53:
         3f:e4:17:1d:b9:4a:40:2e:74:f1:4e:de:93:b1:0f:f0:ca:23:
         9a:49:af:f9:b9:1b:46:02:f0:f2:74:d8:f4:04:2b:fd:68:51:
         93:a2:9e:3f:7a:fb:3c:9f:03:02:67:f1:14:6f:dd:c9:2b:35:
         fe:19:75:fe:48:63:10:a7:c7:b8:ca:28:00:c0:f4:50:64:bf:
         65:66:9b:a4:d8:ac:e7:12:a9:9a:30:98:77:95:0e:d7:28:2d:
         00:19:86:e2:33:92:1d:83:f5:7a:d1:04:73:ee:df:a8:67:8c:
         91:78:6d:2b:0d:98:ce:bf:dd:09:d1:12:96:65:f9:af:6d:3f:
         fb:6e:17:e6:50:78:d9:2f:82:6f:83:54:c3:60:9c:5f:16:52:
         36:d6:97:4e:5c:69:3a:9f:b3:9e:97:a9:30:83:c5:2b:1b:97:
         9b:01:4c:5d:04:cf:f3:b6:c2:ac:d4:6c:7e:39:a7:de:81:39:
         51:3e:6c:5a:10:04:0e:14:d2:b2:36:5b:eb:ba:9c:96:73:65:
         11:62:9e:97:81:47:8e:c2:0d:f3:15:94:27:6a:44:19:04:20:
         81:a4:25:a1:e0:a7:af:55:58:0a:9f:c7:f7:25:21:fc:f3:21:
         cf:0f:e1:5f:0c:dc:d6:28:97:36:b5:00:80:7f:d3:0e:46:39:
         ee:45:47:8b:b0:24:08:bf:ea:5b:e8:af:9e:63:ed:cc:30:5d:
         18:ad:06:b9:09:1a:12:c6:b2:29:f3:c9:a9:f7:db:a0:ef:91:
         ae:8b:9f:bb:af:bb:6d:95:e1:58:d8:4d:51:e1:01:21:dc:ea:
         49:1a:b3:fa:e2:cd:9d:0b:a3:f9:0d:41:a6:e0:db:dd:3a:b1:
         99:0d:6f:3b:d9:0e:ee:1f
-----BEGIN CERTIFICATE-----
MIIFqzCCA5OgAwIBAgICAagwDQYJKoZIhvcNAQELBQAwgYQxCzAJBgNVBAYTAkNI
MRAwDgYDVQQIEwdUaHVyZ2F1MRAwDgYDVQQHEwdLZWZpa29uMRMwEQYDVQQKEwpn
dWVuZ2VsLmNoMRYwFAYDVQQDEw1DQSBndWVuZ2VsLmNoMSQwIgYJKoZIhvcNAQkB
FhVwb3N0bWFzdGVyQGd1ZW5nZWwuY2gwHhcNMjEwMjA2MTUxMjQ3WhcNMjIwMzEz
MTUxMjQ3WjBqMQswCQYDVQQGEwJDSDEQMA4GA1UECBMHVGh1cmdhdTETMBEGA1UE
ChMKZ3VlbmdlbC5jaDEOMAwGA1UEAxMFYXBwLTExJDAiBgkqhkiG9w0BCQEWFXBv
c3RtYXN0ZXJAZ3VlbmdlbC5jaDCCASIwDQYJKoZIhvcNAQEBBQADggEPADCCAQoC
ggEBAKVIvfKFU2CzIAUItbMUp1R+WZpqTYxCy0FLZyrTy9de76eZ9lDuEQE5XfQM
nZ0QpTgeqIFPxvOmDL/vprOqvUQzBvwJmj2EMIq5ZmG5NpbtY8xt/WUmew++T2GN
vA8VH4ukzM4oMTd9rB4+TPbGqLhdt9Cyu/Xdu97HKjI88Hf8AqzGGtMI6/TcUW9U
gsjPgggNi5xz31Ma4DfPKoTbFNG45A+nlwtT9AVB+9zuooUVcO7ZimZrSo47IWB3
bgQ2RHuo7ZeE8PnQmTOlCnvFuiwmWmaf6OxFzW05Ez1p587s87QLPPDRWR71nGkt
GN1c5FzxyWLLmW3DzJwLbCo8+S8CAwEAAaOCAT4wggE6MAsGA1UdDwQEAwIDqDAM
BgNVHRMBAf8EAjAAMBEGCWCGSAGG+EIBAQQEAwIGwDAdBgNVHSUEFjAUBggrBgEF
BQcDAQYIKwYBBQUHAwIwEAYDVR0RBAkwB4IFYXBwLTEwHQYDVR0OBBYEFLRgxBg+
WSF/NJ8IpKuXIYwcOryIMIG5BgNVHSMEgbEwga6AFNaI8arBKwmMuFydzt9XOWIm
ECCQoYGKpIGHMIGEMQswCQYDVQQGEwJDSDEQMA4GA1UECBMHVGh1cmdhdTEQMA4G
A1UEBxMHS2VmaWtvbjETMBEGA1UEChMKZ3VlbmdlbC5jaDEWMBQGA1UEAxMNQ0Eg
Z3VlbmdlbC5jaDEkMCIGCSqGSIb3DQEJARYVcG9zdG1hc3RlckBndWVuZ2VsLmNo
ggkA5SU7pne9y/8wDQYJKoZIhvcNAQELBQADggIBAGSpc4SkgC9o47sgxTqzpK5U
9dWNh16mhAjCwPHr9V/PSD4/v1JZGXho+SmMMxQWpRdEfkwNrGxQEfjCrwFCRCOs
ewlT3f3RqXwh2kAGDk9GT6pXa0tWKCTPvA/36XzNE6cHj0fGlXBpOJuqWRy0Dz3J
Dl4yZzbt/2ZgG3IWr2iih3bwJ6CBVeJm2qyQI9aAC0PK5X8M8ZHsUxu7ZmuCxOmc
r4rIkGHrHntf/qJuwi0VSowfUz/kFx25SkAudPFO3pOxD/DKI5pJr/m5G0YC8PJ0
2PQEK/1oUZOinj96+zyfAwJn8RRv3ckrNf4Zdf5IYxCnx7jKKADA9FBkv2Vmm6TY
rOcSqZowmHeVDtcoLQAZhuIzkh2D9XrRBHPu36hnjJF4bSsNmM6/3QnREpZl+a9t
P/tuF+ZQeNkvgm+DVMNgnF8WUjbWl05caTqfs56XqTCDxSsbl5sBTF0Ez/O2wqzU
bH45p96BOVE+bFoQBA4U0rI2W+u6nJZzZRFinpeBR47CDfMVlCdqRBkEIIGkJaHg
p69VWAqfx/clIfzzIc8P4V8M3NYolza1AIB/0w5GOe5FR4uwJAi/6lvor55j7cww
XRitBrkJGhLGsinzyan326Dvka6Ln7uvu22V4VjYTVHhASHc6kkas/rizZ0Lo/kN
Qabg2906sZkNbzvZDu4f
-----END CERTIFICATE-----
