Certificate:
    Data:
        Version: 3 (0x2)
        Serial Number:
            18:64:88:e1:61:33:bb:4a:2e:77:77:42:28:a0:f4:7a:eb:89:db:9f
        Signature Algorithm: sha256WithRSAEncryption
        Issuer: C=CH, ST=Thurgau, L=Kefikon, O=guengel.ch, CN=CA 2022/emailAddress=postmaster@guengel.ch
        Validity
            Not Before: Feb 11 13:57:15 2022 GMT
            Not After : Mar 18 13:57:15 2023 GMT
        Subject: C=CH, ST=Thurgau, O=guengel.ch, CN=app-1/emailAddress=postmaster@guengel.ch
        Subject Public Key Info:
            Public Key Algorithm: rsaEncryption
                RSA Public-Key: (2048 bit)
                Modulus:
                    00:c4:09:76:00:6f:14:59:e1:50:6b:b7:8a:5b:9d:
                    02:a0:a4:44:89:fc:a9:ef:5c:ad:7b:48:eb:c6:c7:
                    3f:1b:6a:df:da:2d:1a:30:32:7d:48:b4:d5:f4:8b:
                    39:e8:60:ff:4a:20:f6:5e:75:b6:3c:d8:6b:24:ed:
                    5c:dd:60:b8:7f:8e:7f:3f:f5:36:3c:c2:79:87:78:
                    1a:a0:79:00:46:1c:2d:32:e3:be:5b:53:9e:8b:28:
                    d9:0f:f1:28:23:c8:5b:1f:2e:a5:fc:50:a9:63:05:
                    83:3d:88:bf:56:0d:19:70:04:5e:b6:fd:62:9d:98:
                    74:be:3c:b1:79:b1:46:50:7d:cb:9d:64:c3:a2:38:
                    59:30:9c:12:30:70:9c:b6:55:6d:80:1d:9e:1c:5f:
                    e9:ff:dd:13:2d:c5:34:5f:94:3c:84:af:b0:dc:c6:
                    d5:f9:fe:4b:5f:bb:65:53:b9:23:c8:27:bb:4a:5b:
                    b8:5d:dd:71:9a:16:bd:31:2c:96:19:84:ed:0d:93:
                    da:e7:8f:5d:42:0e:4c:ec:7e:bf:38:b5:a6:f1:35:
                    d3:de:5d:a7:4b:37:42:30:ad:9b:79:2c:6a:1c:af:
                    1e:b0:4a:0a:e2:d9:fc:25:28:d3:5a:d1:fe:2c:6e:
                    8e:45:3c:bd:58:5c:9c:32:89:fd:08:24:8d:f1:a4:
                    18:57
                Exponent: 65537 (0x10001)
        X509v3 extensions:
            X509v3 Basic Constraints: critical
                CA:FALSE
            X509v3 Key Usage: 
                Digital Signature, Key Encipherment, Key Agreement
            X509v3 Subject Key Identifier: 
                60:B3:14:92:80:05:AF:99:52:64:A9:21:30:0F:6E:4E:84:B4:04:67
            X509v3 Authority Key Identifier: 
                keyid:22:20:0D:51:40:61:42:BE:DD:BA:D9:C9:C1:77:B6:93:28:C3:99:EC
                DirName:/C=CH/ST=Thurgau/L=Kefikon/O=guengel.ch/CN=CA 2022/emailAddress=postmaster@guengel.ch
                serial:6D:29:90:54:E9:17:E9:C2:6A:E6:52:AD:84:4E:30:8E:6E:57:FB:1C

            Netscape Cert Type: 
                SSL Client, SSL Server
            X509v3 Extended Key Usage: 
                TLS Web Server Authentication, TLS Web Client Authentication
    Signature Algorithm: sha256WithRSAEncryption
         39:4f:f1:f1:b6:83:ef:f8:98:44:95:42:85:13:b3:6c:f6:2f:
         9c:5f:a2:79:b4:fe:0d:93:70:56:13:41:bc:a0:19:d4:c8:d5:
         6c:8f:13:1d:bc:44:82:f5:9b:a0:3a:d5:64:3a:fc:d1:44:ad:
         c6:76:d8:a0:2f:0f:6e:b2:ce:be:eb:e3:a4:ea:4a:46:3f:f2:
         6f:04:80:24:17:0e:b0:88:03:b5:01:b6:d1:a8:d7:df:61:e8:
         4d:ce:c9:85:3f:e5:d0:80:1f:66:5e:07:f6:80:b2:9b:a8:d5:
         18:03:3d:72:28:96:75:d5:f5:71:67:73:45:be:de:78:f9:7c:
         b0:1a:eb:ae:85:8f:f4:4b:d7:95:cc:d6:ac:27:19:30:c8:96:
         42:d4:bb:b8:2b:d7:83:6b:86:d0:3e:ac:74:0b:18:a7:cb:01:
         d3:6c:4c:2e:fa:1c:a6:e4:cb:e2:fb:db:35:89:13:64:d2:5a:
         62:c9:b0:cb:4a:e3:fa:39:dc:71:62:7e:90:a7:36:85:a9:01:
         8d:8a:b9:01:d7:64:27:08:26:08:1a:1d:b9:0c:09:98:51:ae:
         96:18:cc:cd:54:91:1b:69:a3:d0:7d:27:0c:77:eb:39:b7:87:
         24:b5:1a:35:82:0c:c4:b7:c7:e5:2d:a1:ff:91:72:6f:a3:c0:
         52:50:6b:b8:18:94:78:40:65:a7:c4:8e:9b:af:e6:94:95:27:
         ad:2d:d9:f0:27:30:bd:bd:7c:e8:d2:5d:26:56:ff:33:c8:ed:
         94:73:1a:f8:a1:da:4f:71:57:91:43:cc:1b:e7:46:aa:9e:69:
         4a:67:c9:7b:be:f3:67:9a:68:ea:be:4b:57:bd:61:b1:07:94:
         30:9b:27:76:c9:34:64:a1:be:ba:eb:58:92:74:5c:ec:b4:18:
         62:e6:86:aa:e6:fc:40:9e:43:7f:e3:3e:7f:1a:22:42:5c:4b:
         48:48:3d:92:2f:36:8c:8e:aa:2e:24:5b:15:0b:fc:5d:e8:07:
         1d:cc:e7:7c:a3:7e:a2:b9:39:f4:3a:13:43:f7:83:b9:0c:e8:
         8f:ad:4a:f5:54:d8:c2:9a:2c:8a:53:8a:e6:af:c7:dd:56:61:
         d8:97:a4:0c:04:c9:0c:a7:3b:d4:67:ef:c0:9e:f3:ae:79:76:
         71:d7:b0:e2:7a:f3:e0:f1:93:85:5e:55:85:3a:9f:8f:71:02:
         87:fd:62:bd:62:51:4c:5e:e7:49:a4:2f:f0:b7:08:ea:c9:2a:
         70:32:ae:67:7f:d1:4c:a3:d3:20:e3:a5:5c:1b:37:6c:17:7b:
         56:04:57:1e:9a:a2:69:6c:74:b7:8b:14:51:46:ee:e8:ac:e7:
         57:3b:9d:0d:22:2a:c8:1a
-----BEGIN CERTIFICATE-----
MIIFqDCCA5CgAwIBAgIUGGSI4WEzu0oud3dCKKD0euuJ258wDQYJKoZIhvcNAQEL
BQAwfjELMAkGA1UEBhMCQ0gxEDAOBgNVBAgTB1RodXJnYXUxEDAOBgNVBAcTB0tl
Zmlrb24xEzARBgNVBAoTCmd1ZW5nZWwuY2gxEDAOBgNVBAMTB0NBIDIwMjIxJDAi
BgkqhkiG9w0BCQEWFXBvc3RtYXN0ZXJAZ3VlbmdlbC5jaDAeFw0yMjAyMTExMzU3
MTVaFw0yMzAzMTgxMzU3MTVaMGoxCzAJBgNVBAYTAkNIMRAwDgYDVQQIEwdUaHVy
Z2F1MRMwEQYDVQQKEwpndWVuZ2VsLmNoMQ4wDAYDVQQDEwVhcHAtMTEkMCIGCSqG
SIb3DQEJARYVcG9zdG1hc3RlckBndWVuZ2VsLmNoMIIBIjANBgkqhkiG9w0BAQEF
AAOCAQ8AMIIBCgKCAQEAxAl2AG8UWeFQa7eKW50CoKREifyp71yte0jrxsc/G2rf
2i0aMDJ9SLTV9Is56GD/SiD2XnW2PNhrJO1c3WC4f45/P/U2PMJ5h3gaoHkARhwt
MuO+W1OeiyjZD/EoI8hbHy6l/FCpYwWDPYi/Vg0ZcARetv1inZh0vjyxebFGUH3L
nWTDojhZMJwSMHCctlVtgB2eHF/p/90TLcU0X5Q8hK+w3MbV+f5LX7tlU7kjyCe7
Slu4Xd1xmha9MSyWGYTtDZPa549dQg5M7H6/OLWm8TXT3l2nSzdCMK2beSxqHK8e
sEoK4tn8JSjTWtH+LG6ORTy9WFycMon9CCSN8aQYVwIDAQABo4IBMDCCASwwDAYD
VR0TAQH/BAIwADALBgNVHQ8EBAMCA6gwHQYDVR0OBBYEFGCzFJKABa+ZUmSpITAP
bk6EtARnMIG9BgNVHSMEgbUwgbKAFCIgDVFAYUK+3brZycF3tpMow5nsoYGDpIGA
MH4xCzAJBgNVBAYTAkNIMRAwDgYDVQQIEwdUaHVyZ2F1MRAwDgYDVQQHEwdLZWZp
a29uMRMwEQYDVQQKEwpndWVuZ2VsLmNoMRAwDgYDVQQDEwdDQSAyMDIyMSQwIgYJ
KoZIhvcNAQkBFhVwb3N0bWFzdGVyQGd1ZW5nZWwuY2iCFG0pkFTpF+nCauZSrYRO
MI5uV/scMBEGCWCGSAGG+EIBAQQEAwIGwDAdBgNVHSUEFjAUBggrBgEFBQcDAQYI
KwYBBQUHAwIwDQYJKoZIhvcNAQELBQADggIBADlP8fG2g+/4mESVQoUTs2z2L5xf
onm0/g2TcFYTQbygGdTI1WyPEx28RIL1m6A61WQ6/NFErcZ22KAvD26yzr7r46Tq
SkY/8m8EgCQXDrCIA7UBttGo199h6E3OyYU/5dCAH2ZeB/aAspuo1RgDPXIolnXV
9XFnc0W+3nj5fLAa666Fj/RL15XM1qwnGTDIlkLUu7gr14NrhtA+rHQLGKfLAdNs
TC76HKbky+L72zWJE2TSWmLJsMtK4/o53HFifpCnNoWpAY2KuQHXZCcIJggaHbkM
CZhRrpYYzM1UkRtpo9B9Jwx36zm3hyS1GjWCDMS3x+Utof+Rcm+jwFJQa7gYlHhA
ZafEjpuv5pSVJ60t2fAnML29fOjSXSZW/zPI7ZRzGvih2k9xV5FDzBvnRqqeaUpn
yXu+82eaaOq+S1e9YbEHlDCbJ3bJNGShvrrrWJJ0XOy0GGLmhqrm/ECeQ3/jPn8a
IkJcS0hIPZIvNoyOqi4kWxUL/F3oBx3M53yjfqK5OfQ6E0P3g7kM6I+tSvVU2MKa
LIpTiuavx91WYdiXpAwEyQynO9Rn78Ce8655dnHXsOJ68+Dxk4VeVYU6n49xAof9
Yr1iUUxe50mkL/C3COrJKnAyrmd/0Uyj0yDjpVwbN2wXe1YEVx6aomlsdLeLFFFG
7uis51c7nQ0iKsga
-----END CERTIFICATE-----
