Certificate:
    Data:
        Version: 3 (0x2)
        Serial Number: 479 (0x1df)
        Signature Algorithm: sha256WithRSAEncryption
        Issuer: C=CH, ST=Thurgau, L=Kefikon, O=guengel.ch, CN=CA guengel.ch/emailAddress=postmaster@guengel.ch
        Validity
            Not Before: Feb 11 07:07:35 2022 GMT
            Not After : Mar 18 07:07:35 2023 GMT
        Subject: C=CH, ST=Thurgau, O=guengel.ch, CN=app-1/emailAddress=postmaster@guengel.ch
        Subject Public Key Info:
            Public Key Algorithm: rsaEncryption
                RSA Public-Key: (2048 bit)
                Modulus:
                    00:a5:48:bd:f2:85:53:60:b3:20:05:08:b5:b3:14:
                    a7:54:7e:59:9a:6a:4d:8c:42:cb:41:4b:67:2a:d3:
                    cb:d7:5e:ef:a7:99:f6:50:ee:11:01:39:5d:f4:0c:
                    9d:9d:10:a5:38:1e:a8:81:4f:c6:f3:a6:0c:bf:ef:
                    a6:b3:aa:bd:44:33:06:fc:09:9a:3d:84:30:8a:b9:
                    66:61:b9:36:96:ed:63:cc:6d:fd:65:26:7b:0f:be:
                    4f:61:8d:bc:0f:15:1f:8b:a4:cc:ce:28:31:37:7d:
                    ac:1e:3e:4c:f6:c6:a8:b8:5d:b7:d0:b2:bb:f5:dd:
                    bb:de:c7:2a:32:3c:f0:77:fc:02:ac:c6:1a:d3:08:
                    eb:f4:dc:51:6f:54:82:c8:cf:82:08:0d:8b:9c:73:
                    df:53:1a:e0:37:cf:2a:84:db:14:d1:b8:e4:0f:a7:
                    97:0b:53:f4:05:41:fb:dc:ee:a2:85:15:70:ee:d9:
                    8a:66:6b:4a:8e:3b:21:60:77:6e:04:36:44:7b:a8:
                    ed:97:84:f0:f9:d0:99:33:a5:0a:7b:c5:ba:2c:26:
                    5a:66:9f:e8:ec:45:cd:6d:39:13:3d:69:e7:ce:ec:
                    f3:b4:0b:3c:f0:d1:59:1e:f5:9c:69:2d:18:dd:5c:
                    e4:5c:f1:c9:62:cb:99:6d:c3:cc:9c:0b:6c:2a:3c:
                    f9:2f
                Exponent: 65537 (0x10001)
        X509v3 extensions:
            X509v3 Key Usage: 
                Digital Signature, Key Encipherment, Key Agreement
            X509v3 Basic Constraints: critical
                CA:FALSE
            Netscape Cert Type: 
                SSL Client, SSL Server
            X509v3 Extended Key Usage: 
                TLS Web Server Authentication, TLS Web Client Authentication
            X509v3 Subject Alternative Name: 
                DNS:app-1
            X509v3 Subject Key Identifier: 
                B4:60:C4:18:3E:59:21:7F:34:9F:08:A4:AB:97:21:8C:1C:3A:BC:88
            X509v3 Authority Key Identifier: 
                keyid:D6:88:F1:AA:C1:2B:09:8C:B8:5C:9D:CE:DF:57:39:62:26:10:20:90
                DirName:/C=CH/ST=Thurgau/L=Kefikon/O=guengel.ch/CN=CA guengel.ch/emailAddress=postmaster@guengel.ch
                serial:E5:25:3B:A6:77:BD:CB:FF

    Signature Algorithm: sha256WithRSAEncryption
         92:d9:b8:a4:0d:e5:22:22:b0:04:b1:c2:b7:97:0d:d6:7c:7e:
         6f:58:d5:70:c6:72:7a:cc:e8:a9:0b:f4:9e:86:3a:31:74:42:
         11:04:dc:8c:58:39:9d:33:dc:6e:97:f2:72:b3:ce:eb:66:f9:
         cb:a2:03:41:f2:d2:d0:6d:0a:f6:17:9c:34:30:1a:be:ab:b7:
         d4:9f:1c:52:6f:26:db:62:c2:5f:8b:1a:f3:3f:15:9b:dc:1c:
         a4:d0:12:86:99:98:f6:55:bc:1e:15:da:dd:3b:c6:6b:e7:7b:
         16:3b:5e:a4:78:11:42:2e:63:7f:e3:2a:87:3c:04:5b:db:30:
         32:e6:df:b9:11:06:4a:b6:7e:7b:ac:40:75:c0:8e:80:85:0c:
         0c:13:51:5c:a1:44:9a:1f:7c:c8:8d:33:26:20:43:0e:57:0a:
         af:1d:3a:86:f3:d2:3f:f5:20:64:20:c5:3e:f4:5d:88:cb:f2:
         9d:0e:e4:a5:b1:84:43:ef:f1:28:00:5b:4d:ea:fe:ca:94:8a:
         f5:e6:54:6d:3b:fe:d8:c6:9a:64:02:79:06:51:27:24:79:14:
         e4:3f:e7:b3:48:30:dc:5e:1b:50:96:d5:29:e0:97:3e:3d:68:
         46:6c:17:ae:ff:75:90:2b:74:72:3d:28:2f:0f:79:31:76:13:
         8e:49:94:28:b3:64:29:fe:2e:06:06:77:6b:3b:ae:f5:86:62:
         86:92:40:68:a8:d2:ee:64:ee:39:e3:bb:51:94:d4:5d:9f:3a:
         de:0c:10:cb:9c:23:89:9e:af:21:af:96:5c:a3:d9:c1:cf:e5:
         6f:60:aa:8a:4c:09:27:d6:26:7a:fa:e1:b8:0d:80:b6:0d:b1:
         8e:9f:f3:6f:16:69:aa:48:71:39:2a:43:c4:42:4f:b8:89:b0:
         86:6f:03:32:2d:0a:5e:95:8c:c3:9f:0c:06:d5:4d:be:11:e3:
         20:bf:24:c3:c4:04:be:af:9b:89:df:4a:09:5d:e7:ea:64:1d:
         28:5b:df:29:99:cf:25:46:55:29:94:0a:5c:7e:6d:f3:f3:52:
         35:f0:bd:2a:7f:e2:b5:8b:67:4a:c3:b6:71:c3:45:2e:aa:c8:
         80:eb:7c:b4:fa:ce:c2:6a:3e:4d:e6:0d:66:eb:80:1e:dd:74:
         8c:44:bf:16:21:8f:c5:3f:dc:bf:af:2e:4c:71:2d:8d:12:84:
         13:23:00:c6:1e:af:3c:10:8f:90:40:92:8a:47:3f:f5:84:50:
         12:a1:52:cb:91:49:f0:29:b1:5c:07:c7:50:06:2c:46:c2:97:
         f2:5e:a3:f0:3c:f0:a5:da:44:61:6a:91:3d:72:1a:83:d3:24:
         23:f7:03:ff:45:12:f5:e8
-----BEGIN CERTIFICATE-----
MIIFqzCCA5OgAwIBAgICAd8wDQYJKoZIhvcNAQELBQAwgYQxCzAJBgNVBAYTAkNI
MRAwDgYDVQQIEwdUaHVyZ2F1MRAwDgYDVQQHEwdLZWZpa29uMRMwEQYDVQQKEwpn
dWVuZ2VsLmNoMRYwFAYDVQQDEw1DQSBndWVuZ2VsLmNoMSQwIgYJKoZIhvcNAQkB
FhVwb3N0bWFzdGVyQGd1ZW5nZWwuY2gwHhcNMjIwMjExMDcwNzM1WhcNMjMwMzE4
MDcwNzM1WjBqMQswCQYDVQQGEwJDSDEQMA4GA1UECBMHVGh1cmdhdTETMBEGA1UE
ChMKZ3VlbmdlbC5jaDEOMAwGA1UEAxMFYXBwLTExJDAiBgkqhkiG9w0BCQEWFXBv
c3RtYXN0ZXJAZ3VlbmdlbC5jaDCCASIwDQYJKoZIhvcNAQEBBQADggEPADCCAQoC
ggEBAKVIvfKFU2CzIAUItbMUp1R+WZpqTYxCy0FLZyrTy9de76eZ9lDuEQE5XfQM
nZ0QpTgeqIFPxvOmDL/vprOqvUQzBvwJmj2EMIq5ZmG5NpbtY8xt/WUmew++T2GN
vA8VH4ukzM4oMTd9rB4+TPbGqLhdt9Cyu/Xdu97HKjI88Hf8AqzGGtMI6/TcUW9U
gsjPgggNi5xz31Ma4DfPKoTbFNG45A+nlwtT9AVB+9zuooUVcO7ZimZrSo47IWB3
bgQ2RHuo7ZeE8PnQmTOlCnvFuiwmWmaf6OxFzW05Ez1p587s87QLPPDRWR71nGkt
GN1c5FzxyWLLmW3DzJwLbCo8+S8CAwEAAaOCAT4wggE6MAsGA1UdDwQEAwIDqDAM
BgNVHRMBAf8EAjAAMBEGCWCGSAGG+EIBAQQEAwIGwDAdBgNVHSUEFjAUBggrBgEF
BQcDAQYIKwYBBQUHAwIwEAYDVR0RBAkwB4IFYXBwLTEwHQYDVR0OBBYEFLRgxBg+
WSF/NJ8IpKuXIYwcOryIMIG5BgNVHSMEgbEwga6AFNaI8arBKwmMuFydzt9XOWIm
ECCQoYGKpIGHMIGEMQswCQYDVQQGEwJDSDEQMA4GA1UECBMHVGh1cmdhdTEQMA4G
A1UEBxMHS2VmaWtvbjETMBEGA1UEChMKZ3VlbmdlbC5jaDEWMBQGA1UEAxMNQ0Eg
Z3VlbmdlbC5jaDEkMCIGCSqGSIb3DQEJARYVcG9zdG1hc3RlckBndWVuZ2VsLmNo
ggkA5SU7pne9y/8wDQYJKoZIhvcNAQELBQADggIBAJLZuKQN5SIisASxwreXDdZ8
fm9Y1XDGcnrM6KkL9J6GOjF0QhEE3IxYOZ0z3G6X8nKzzutm+cuiA0Hy0tBtCvYX
nDQwGr6rt9SfHFJvJttiwl+LGvM/FZvcHKTQEoaZmPZVvB4V2t07xmvnexY7XqR4
EUIuY3/jKoc8BFvbMDLm37kRBkq2fnusQHXAjoCFDAwTUVyhRJoffMiNMyYgQw5X
Cq8dOobz0j/1IGQgxT70XYjL8p0O5KWxhEPv8SgAW03q/sqUivXmVG07/tjGmmQC
eQZRJyR5FOQ/57NIMNxeG1CW1Snglz49aEZsF67/dZArdHI9KC8PeTF2E45JlCiz
ZCn+LgYGd2s7rvWGYoaSQGio0u5k7jnju1GU1F2fOt4MEMucI4meryGvllyj2cHP
5W9gqopMCSfWJnr64bgNgLYNsY6f828WaapIcTkqQ8RCT7iJsIZvAzItCl6VjMOf
DAbVTb4R4yC/JMPEBL6vm4nfSgld5+pkHShb3ymZzyVGVSmUClx+bfPzUjXwvSp/
4rWLZ0rDtnHDRS6qyIDrfLT6zsJqPk3mDWbrgB7ddIxEvxYhj8U/3L+vLkxxLY0S
hBMjAMYerzwQj5BAkopHP/WEUBKhUsuRSfApsVwHx1AGLEbCl/Jeo/A88KXaRGFq
kT1yGoPTJCP3A/9FEvXo
-----END CERTIFICATE-----
