Certificate:
    Data:
        Version: 3 (0x2)
        Serial Number: 366 (0x16e)
        Signature Algorithm: sha256WithRSAEncryption
        Issuer: C=CH, ST=Thurgau, L=Kefikon, O=guengel.ch, CN=CA guengel.ch/emailAddress=postmaster@guengel.ch
        Validity
            Not Before: Aug 25 09:48:14 2019 GMT
            Not After : Sep  8 09:48:14 2020 GMT
        Subject: C=CH, ST=Thurgau, O=guengel.ch, CN=app-1/emailAddress=postmaster@guengel.ch
        Subject Public Key Info:
            Public Key Algorithm: rsaEncryption
                RSA Public-Key: (2048 bit)
                Modulus:
                    00:a5:48:bd:f2:85:53:60:b3:20:05:08:b5:b3:14:
                    a7:54:7e:59:9a:6a:4d:8c:42:cb:41:4b:67:2a:d3:
                    cb:d7:5e:ef:a7:99:f6:50:ee:11:01:39:5d:f4:0c:
                    9d:9d:10:a5:38:1e:a8:81:4f:c6:f3:a6:0c:bf:ef:
                    a6:b3:aa:bd:44:33:06:fc:09:9a:3d:84:30:8a:b9:
                    66:61:b9:36:96:ed:63:cc:6d:fd:65:26:7b:0f:be:
                    4f:61:8d:bc:0f:15:1f:8b:a4:cc:ce:28:31:37:7d:
                    ac:1e:3e:4c:f6:c6:a8:b8:5d:b7:d0:b2:bb:f5:dd:
                    bb:de:c7:2a:32:3c:f0:77:fc:02:ac:c6:1a:d3:08:
                    eb:f4:dc:51:6f:54:82:c8:cf:82:08:0d:8b:9c:73:
                    df:53:1a:e0:37:cf:2a:84:db:14:d1:b8:e4:0f:a7:
                    97:0b:53:f4:05:41:fb:dc:ee:a2:85:15:70:ee:d9:
                    8a:66:6b:4a:8e:3b:21:60:77:6e:04:36:44:7b:a8:
                    ed:97:84:f0:f9:d0:99:33:a5:0a:7b:c5:ba:2c:26:
                    5a:66:9f:e8:ec:45:cd:6d:39:13:3d:69:e7:ce:ec:
                    f3:b4:0b:3c:f0:d1:59:1e:f5:9c:69:2d:18:dd:5c:
                    e4:5c:f1:c9:62:cb:99:6d:c3:cc:9c:0b:6c:2a:3c:
                    f9:2f
                Exponent: 65537 (0x10001)
        X509v3 extensions:
            X509v3 Basic Constraints: 
                CA:FALSE
            Netscape Comment: 
                OpenSSL Generated Certificate
            X509v3 Subject Key Identifier: 
                B4:60:C4:18:3E:59:21:7F:34:9F:08:A4:AB:97:21:8C:1C:3A:BC:88
            X509v3 Authority Key Identifier: 
                keyid:D6:88:F1:AA:C1:2B:09:8C:B8:5C:9D:CE:DF:57:39:62:26:10:20:90
                DirName:/C=CH/ST=Thurgau/L=Kefikon/O=guengel.ch/CN=CA guengel.ch/emailAddress=postmaster@guengel.ch
                serial:E5:25:3B:A6:77:BD:CB:FF

    Signature Algorithm: sha256WithRSAEncryption
         7c:e6:da:53:21:5e:ad:56:82:9c:51:7b:20:56:1d:d9:c6:3b:
         c6:5a:f6:92:ce:fb:bd:a1:dd:60:bd:a9:28:7d:fa:a6:42:d8:
         2d:5b:95:4d:1a:d4:26:1f:1a:a5:c1:31:f9:e5:7a:70:46:0c:
         89:20:46:8f:fd:9d:a5:20:c1:65:13:f3:f7:50:41:b1:3d:f3:
         d2:8e:51:de:fc:f9:8e:35:dd:f7:43:81:af:46:72:13:e2:27:
         a0:f0:f3:3b:3b:34:8b:9c:e2:b0:2f:50:37:09:b9:28:9c:9b:
         1c:7e:aa:25:ed:5c:1e:86:e2:af:ac:f2:07:78:24:36:35:1b:
         8c:f8:f5:96:b2:f5:3d:3c:7a:bc:02:e3:36:53:0e:23:0c:23:
         da:03:6d:6b:ad:4e:0a:ba:60:9f:4a:60:f7:d7:4d:4f:0b:2c:
         78:75:a6:fc:f8:2d:9c:cb:ac:c5:88:19:9d:55:4c:d7:43:eb:
         ba:fb:2e:87:e4:36:8b:cc:9e:95:8b:55:54:19:bc:ce:21:27:
         3a:1f:15:41:f2:b0:8e:12:b8:f1:ad:2b:17:4e:ae:44:a4:6a:
         8d:a1:5e:bd:cd:fb:39:1d:b6:93:0a:a4:37:e3:21:9c:f2:bd:
         48:46:ee:49:dc:eb:e8:2c:55:94:1c:2c:c0:17:bc:b1:a0:6d:
         14:0f:93:20:e9:83:59:22:19:ff:82:e7:26:fb:e7:e0:10:67:
         6f:be:7b:d3:0d:ab:38:c3:c5:0a:f8:1d:4b:c9:93:6f:33:21:
         d8:37:49:81:f7:98:96:2b:59:f3:dd:c1:21:f2:03:55:d6:47:
         24:21:c4:f2:a8:9f:79:cd:52:1d:fb:92:f5:d0:ac:7a:84:89:
         a3:5a:65:22:00:a6:65:0f:c5:e7:17:7e:07:3a:01:d7:3f:ee:
         61:01:5d:e8:42:08:11:c4:54:ad:4a:f9:e6:96:46:a0:21:3c:
         51:f8:b1:ec:4a:5a:e9:b8:5a:57:05:09:52:a6:38:03:45:98:
         84:1d:5f:f8:3b:76:47:c8:40:b5:52:5e:95:0e:91:06:ba:19:
         22:0d:8f:c3:ea:ac:2c:3b:6e:81:79:3d:58:68:25:82:20:fc:
         eb:57:39:ff:89:90:35:01:a7:08:3f:fc:88:13:c0:25:18:28:
         31:c0:51:f6:9a:ee:ab:b9:23:66:97:2e:a5:a9:be:20:93:4d:
         ec:1b:c9:c3:bf:67:9d:c2:b1:de:3e:ff:90:75:23:0b:b8:79:
         aa:aa:99:38:43:8b:72:80:e4:7a:b5:69:b0:3f:19:e5:6e:43:
         49:c1:54:e1:b5:6f:be:af:fc:c9:34:d4:43:e6:e7:9a:0f:ff:
         07:f6:b8:db:62:a1:88:1e
-----BEGIN CERTIFICATE-----
MIIFhTCCA22gAwIBAgICAW4wDQYJKoZIhvcNAQELBQAwgYQxCzAJBgNVBAYTAkNI
MRAwDgYDVQQIEwdUaHVyZ2F1MRAwDgYDVQQHEwdLZWZpa29uMRMwEQYDVQQKEwpn
dWVuZ2VsLmNoMRYwFAYDVQQDEw1DQSBndWVuZ2VsLmNoMSQwIgYJKoZIhvcNAQkB
FhVwb3N0bWFzdGVyQGd1ZW5nZWwuY2gwHhcNMTkwODI1MDk0ODE0WhcNMjAwOTA4
MDk0ODE0WjBqMQswCQYDVQQGEwJDSDEQMA4GA1UECBMHVGh1cmdhdTETMBEGA1UE
ChMKZ3VlbmdlbC5jaDEOMAwGA1UEAxMFYXBwLTExJDAiBgkqhkiG9w0BCQEWFXBv
c3RtYXN0ZXJAZ3VlbmdlbC5jaDCCASIwDQYJKoZIhvcNAQEBBQADggEPADCCAQoC
ggEBAKVIvfKFU2CzIAUItbMUp1R+WZpqTYxCy0FLZyrTy9de76eZ9lDuEQE5XfQM
nZ0QpTgeqIFPxvOmDL/vprOqvUQzBvwJmj2EMIq5ZmG5NpbtY8xt/WUmew++T2GN
vA8VH4ukzM4oMTd9rB4+TPbGqLhdt9Cyu/Xdu97HKjI88Hf8AqzGGtMI6/TcUW9U
gsjPgggNi5xz31Ma4DfPKoTbFNG45A+nlwtT9AVB+9zuooUVcO7ZimZrSo47IWB3
bgQ2RHuo7ZeE8PnQmTOlCnvFuiwmWmaf6OxFzW05Ez1p587s87QLPPDRWR71nGkt
GN1c5FzxyWLLmW3DzJwLbCo8+S8CAwEAAaOCARgwggEUMAkGA1UdEwQCMAAwLAYJ
YIZIAYb4QgENBB8WHU9wZW5TU0wgR2VuZXJhdGVkIENlcnRpZmljYXRlMB0GA1Ud
DgQWBBS0YMQYPlkhfzSfCKSrlyGMHDq8iDCBuQYDVR0jBIGxMIGugBTWiPGqwSsJ
jLhcnc7fVzliJhAgkKGBiqSBhzCBhDELMAkGA1UEBhMCQ0gxEDAOBgNVBAgTB1Ro
dXJnYXUxEDAOBgNVBAcTB0tlZmlrb24xEzARBgNVBAoTCmd1ZW5nZWwuY2gxFjAU
BgNVBAMTDUNBIGd1ZW5nZWwuY2gxJDAiBgkqhkiG9w0BCQEWFXBvc3RtYXN0ZXJA
Z3VlbmdlbC5jaIIJAOUlO6Z3vcv/MA0GCSqGSIb3DQEBCwUAA4ICAQB85tpTIV6t
VoKcUXsgVh3ZxjvGWvaSzvu9od1gvakoffqmQtgtW5VNGtQmHxqlwTH55XpwRgyJ
IEaP/Z2lIMFlE/P3UEGxPfPSjlHe/PmONd33Q4GvRnIT4ieg8PM7OzSLnOKwL1A3
CbkonJscfqol7VwehuKvrPIHeCQ2NRuM+PWWsvU9PHq8AuM2Uw4jDCPaA21rrU4K
umCfSmD3101PCyx4dab8+C2cy6zFiBmdVUzXQ+u6+y6H5DaLzJ6Vi1VUGbzOISc6
HxVB8rCOErjxrSsXTq5EpGqNoV69zfs5HbaTCqQ34yGc8r1IRu5J3OvoLFWUHCzA
F7yxoG0UD5Mg6YNZIhn/gucm++fgEGdvvnvTDas4w8UK+B1LyZNvMyHYN0mB95iW
K1nz3cEh8gNV1kckIcTyqJ95zVId+5L10Kx6hImjWmUiAKZlD8XnF34HOgHXP+5h
AV3oQggRxFStSvnmlkagITxR+LHsSlrpuFpXBQlSpjgDRZiEHV/4O3ZHyEC1Ul6V
DpEGuhkiDY/D6qwsO26BeT1YaCWCIPzrVzn/iZA1AacIP/yIE8AlGCgxwFH2mu6r
uSNmly6lqb4gk03sG8nDv2edwrHePv+QdSMLuHmqqpk4Q4tygOR6tWmwPxnlbkNJ
wVThtW++r/zJNNRD5ueaD/8H9rjbYqGIHg==
-----END CERTIFICATE-----
