Certificate:
    Data:
        Version: 3 (0x2)
        Serial Number:
            19:32:21:05:72:5c:83:a6:89:d6:a9:8b:01:78:e8:1c:40:64:49:6a
        Signature Algorithm: sha256WithRSAEncryption
        Issuer: C=CH, ST=Thurgau, L=Kefikon, O=guengel.ch, CN=CA 2022/emailAddress=postmaster@guengel.ch
        Validity
            Not Before: Dec 30 08:48:50 2023 GMT
            Not After : Feb  2 08:48:50 2025 GMT
        Subject: C=CH, ST=Thurgau, O=guengel.ch, CN=app-1/emailAddress=postmaster@guengel.ch
        Subject Public Key Info:
            Public Key Algorithm: rsaEncryption
                RSA Public-Key: (2048 bit)
                Modulus:
                    00:c4:09:76:00:6f:14:59:e1:50:6b:b7:8a:5b:9d:
                    02:a0:a4:44:89:fc:a9:ef:5c:ad:7b:48:eb:c6:c7:
                    3f:1b:6a:df:da:2d:1a:30:32:7d:48:b4:d5:f4:8b:
                    39:e8:60:ff:4a:20:f6:5e:75:b6:3c:d8:6b:24:ed:
                    5c:dd:60:b8:7f:8e:7f:3f:f5:36:3c:c2:79:87:78:
                    1a:a0:79:00:46:1c:2d:32:e3:be:5b:53:9e:8b:28:
                    d9:0f:f1:28:23:c8:5b:1f:2e:a5:fc:50:a9:63:05:
                    83:3d:88:bf:56:0d:19:70:04:5e:b6:fd:62:9d:98:
                    74:be:3c:b1:79:b1:46:50:7d:cb:9d:64:c3:a2:38:
                    59:30:9c:12:30:70:9c:b6:55:6d:80:1d:9e:1c:5f:
                    e9:ff:dd:13:2d:c5:34:5f:94:3c:84:af:b0:dc:c6:
                    d5:f9:fe:4b:5f:bb:65:53:b9:23:c8:27:bb:4a:5b:
                    b8:5d:dd:71:9a:16:bd:31:2c:96:19:84:ed:0d:93:
                    da:e7:8f:5d:42:0e:4c:ec:7e:bf:38:b5:a6:f1:35:
                    d3:de:5d:a7:4b:37:42:30:ad:9b:79:2c:6a:1c:af:
                    1e:b0:4a:0a:e2:d9:fc:25:28:d3:5a:d1:fe:2c:6e:
                    8e:45:3c:bd:58:5c:9c:32:89:fd:08:24:8d:f1:a4:
                    18:57
                Exponent: 65537 (0x10001)
        X509v3 extensions:
            X509v3 Basic Constraints: critical
                CA:FALSE
            X509v3 Key Usage: 
                Digital Signature, Key Encipherment, Key Agreement
            X509v3 Subject Key Identifier: 
                60:B3:14:92:80:05:AF:99:52:64:A9:21:30:0F:6E:4E:84:B4:04:67
            X509v3 Authority Key Identifier: 
                keyid:22:20:0D:51:40:61:42:BE:DD:BA:D9:C9:C1:77:B6:93:28:C3:99:EC
                DirName:/C=CH/ST=Thurgau/L=Kefikon/O=guengel.ch/CN=CA 2022/emailAddress=postmaster@guengel.ch
                serial:6D:29:90:54:E9:17:E9:C2:6A:E6:52:AD:84:4E:30:8E:6E:57:FB:1C

            Netscape Cert Type: 
                SSL Client, SSL Server
            X509v3 Extended Key Usage: 
                TLS Web Server Authentication, TLS Web Client Authentication
    Signature Algorithm: sha256WithRSAEncryption
         3a:d3:73:26:72:9d:cf:54:8a:92:60:22:e7:28:45:db:77:d0:
         50:66:09:b5:8b:da:0e:45:49:84:36:b0:42:60:ca:49:9f:b3:
         a0:a9:b1:09:f4:de:02:a7:34:36:72:4e:c7:5a:59:ba:33:87:
         7b:01:28:e7:ba:19:9e:c9:49:0d:aa:cc:cc:86:13:e0:10:43:
         8f:7c:e9:57:f2:e4:77:3d:4d:3a:ec:2b:51:9c:c4:b7:3c:d4:
         98:b8:5a:12:63:a6:70:73:9d:f7:e6:c1:b5:8b:e7:c3:98:1a:
         c0:04:78:4f:43:47:dd:10:6c:62:b9:95:cf:df:0a:b6:01:a5:
         5c:84:25:e7:b9:9b:b0:44:a6:c2:4d:11:c3:5c:0e:51:92:9d:
         c0:13:06:55:48:4e:90:8a:a6:4e:c3:d7:dd:57:c4:1c:0e:ff:
         43:e8:00:1b:d4:8b:2a:f8:eb:86:f9:20:92:2f:b3:b1:86:ea:
         87:d9:ef:99:ea:a7:3c:c3:36:4f:70:71:2d:1c:60:d0:c1:4a:
         ee:f7:75:2d:27:95:f9:0c:70:3f:fa:30:ba:eb:11:ef:b3:7e:
         75:00:9e:fa:05:6d:9e:3e:9b:61:9c:a3:ca:ca:4e:7f:48:d9:
         60:a9:c6:8e:d8:bb:6c:66:97:3c:ad:0e:af:0d:d6:b6:84:a6:
         40:0a:7d:47:6d:ad:da:5d:54:95:db:d7:c0:81:58:c9:12:a6:
         66:f0:bc:80:5a:5c:dd:e7:e4:1f:25:bb:49:9c:ee:24:51:05:
         89:b0:d6:90:66:2c:37:43:04:e4:96:e9:ce:70:20:13:e9:39:
         e5:b8:e8:c2:26:d8:ef:27:36:85:6f:f9:0d:51:d8:57:f1:02:
         8b:31:14:e4:29:04:36:c5:4b:08:f3:1a:22:54:e9:52:22:20:
         03:6a:9a:ed:34:91:52:f6:ef:f9:57:8d:d2:2d:d7:4f:a7:95:
         a2:e2:44:86:00:3b:d6:2f:80:9a:8f:1b:65:b2:32:25:22:92:
         74:7a:d1:71:1c:d4:f2:a0:02:ea:67:fe:2b:54:ef:df:d2:af:
         e9:09:ec:01:78:fc:7a:1a:66:d7:eb:06:9b:16:26:f7:c2:ac:
         13:5f:90:6d:5f:f8:50:bf:7d:62:10:a8:18:ec:a1:e0:ae:ea:
         eb:79:9a:39:02:e2:0f:b4:26:a0:91:e1:1a:df:26:75:df:47:
         65:cd:cf:27:00:e1:60:2c:d6:9a:99:8a:3b:2b:bd:50:97:75:
         86:ee:af:df:6c:1f:b2:e0:16:db:6d:14:a2:4e:26:87:78:d1:
         b5:db:2e:0b:c6:f9:70:ac:61:25:64:2e:c2:3a:08:50:a8:08:
         d8:db:c9:76:f1:66:82:09
-----BEGIN CERTIFICATE-----
MIIFqDCCA5CgAwIBAgIUGTIhBXJcg6aJ1qmLAXjoHEBkSWowDQYJKoZIhvcNAQEL
BQAwfjELMAkGA1UEBhMCQ0gxEDAOBgNVBAgTB1RodXJnYXUxEDAOBgNVBAcTB0tl
Zmlrb24xEzARBgNVBAoTCmd1ZW5nZWwuY2gxEDAOBgNVBAMTB0NBIDIwMjIxJDAi
BgkqhkiG9w0BCQEWFXBvc3RtYXN0ZXJAZ3VlbmdlbC5jaDAeFw0yMzEyMzAwODQ4
NTBaFw0yNTAyMDIwODQ4NTBaMGoxCzAJBgNVBAYTAkNIMRAwDgYDVQQIEwdUaHVy
Z2F1MRMwEQYDVQQKEwpndWVuZ2VsLmNoMQ4wDAYDVQQDEwVhcHAtMTEkMCIGCSqG
SIb3DQEJARYVcG9zdG1hc3RlckBndWVuZ2VsLmNoMIIBIjANBgkqhkiG9w0BAQEF
AAOCAQ8AMIIBCgKCAQEAxAl2AG8UWeFQa7eKW50CoKREifyp71yte0jrxsc/G2rf
2i0aMDJ9SLTV9Is56GD/SiD2XnW2PNhrJO1c3WC4f45/P/U2PMJ5h3gaoHkARhwt
MuO+W1OeiyjZD/EoI8hbHy6l/FCpYwWDPYi/Vg0ZcARetv1inZh0vjyxebFGUH3L
nWTDojhZMJwSMHCctlVtgB2eHF/p/90TLcU0X5Q8hK+w3MbV+f5LX7tlU7kjyCe7
Slu4Xd1xmha9MSyWGYTtDZPa549dQg5M7H6/OLWm8TXT3l2nSzdCMK2beSxqHK8e
sEoK4tn8JSjTWtH+LG6ORTy9WFycMon9CCSN8aQYVwIDAQABo4IBMDCCASwwDAYD
VR0TAQH/BAIwADALBgNVHQ8EBAMCA6gwHQYDVR0OBBYEFGCzFJKABa+ZUmSpITAP
bk6EtARnMIG9BgNVHSMEgbUwgbKAFCIgDVFAYUK+3brZycF3tpMow5nsoYGDpIGA
MH4xCzAJBgNVBAYTAkNIMRAwDgYDVQQIEwdUaHVyZ2F1MRAwDgYDVQQHEwdLZWZp
a29uMRMwEQYDVQQKEwpndWVuZ2VsLmNoMRAwDgYDVQQDEwdDQSAyMDIyMSQwIgYJ
KoZIhvcNAQkBFhVwb3N0bWFzdGVyQGd1ZW5nZWwuY2iCFG0pkFTpF+nCauZSrYRO
MI5uV/scMBEGCWCGSAGG+EIBAQQEAwIGwDAdBgNVHSUEFjAUBggrBgEFBQcDAQYI
KwYBBQUHAwIwDQYJKoZIhvcNAQELBQADggIBADrTcyZync9UipJgIucoRdt30FBm
CbWL2g5FSYQ2sEJgykmfs6CpsQn03gKnNDZyTsdaWbozh3sBKOe6GZ7JSQ2qzMyG
E+AQQ4986Vfy5Hc9TTrsK1GcxLc81Ji4WhJjpnBznffmwbWL58OYGsAEeE9DR90Q
bGK5lc/fCrYBpVyEJee5m7BEpsJNEcNcDlGSncATBlVITpCKpk7D191XxBwO/0Po
ABvUiyr464b5IJIvs7GG6ofZ75nqpzzDNk9wcS0cYNDBSu73dS0nlfkMcD/6MLrr
Ee+zfnUAnvoFbZ4+m2Gco8rKTn9I2WCpxo7Yu2xmlzytDq8N1raEpkAKfUdtrdpd
VJXb18CBWMkSpmbwvIBaXN3n5B8lu0mc7iRRBYmw1pBmLDdDBOSW6c5wIBPpOeW4
6MIm2O8nNoVv+Q1R2FfxAosxFOQpBDbFSwjzGiJU6VIiIANqmu00kVL27/lXjdIt
10+nlaLiRIYAO9YvgJqPG2WyMiUiknR60XEc1PKgAupn/itU79/Sr+kJ7AF4/Hoa
ZtfrBpsWJvfCrBNfkG1f+FC/fWIQqBjsoeCu6ut5mjkC4g+0JqCR4RrfJnXfR2XN
zycA4WAs1pqZijsrvVCXdYbur99sH7LgFtttFKJOJod40bXbLgvG+XCsYSVkLsI6
CFCoCNjbyXbxZoIJ
-----END CERTIFICATE-----
