Certificate:
    Data:
        Version: 3 (0x2)
        Serial Number:
            5e:53:dc:31:3e:ee:dd:4d:6e:fe:81:4e:1a:cb:2c:6b:d7:34:80:16
        Signature Algorithm: sha256WithRSAEncryption
        Issuer: C=CH, ST=Thurgau, L=Kefikon, O=guengel.ch, CN=CA 2022/emailAddress=postmaster@guengel.ch
        Validity
            Not Before: Feb 28 06:36:54 2023 GMT
            Not After : Apr  3 06:36:54 2024 GMT
        Subject: C=CH, ST=Thurgau, O=guengel.ch, CN=app-1/emailAddress=postmaster@guengel.ch
        Subject Public Key Info:
            Public Key Algorithm: rsaEncryption
                RSA Public-Key: (2048 bit)
                Modulus:
                    00:c4:09:76:00:6f:14:59:e1:50:6b:b7:8a:5b:9d:
                    02:a0:a4:44:89:fc:a9:ef:5c:ad:7b:48:eb:c6:c7:
                    3f:1b:6a:df:da:2d:1a:30:32:7d:48:b4:d5:f4:8b:
                    39:e8:60:ff:4a:20:f6:5e:75:b6:3c:d8:6b:24:ed:
                    5c:dd:60:b8:7f:8e:7f:3f:f5:36:3c:c2:79:87:78:
                    1a:a0:79:00:46:1c:2d:32:e3:be:5b:53:9e:8b:28:
                    d9:0f:f1:28:23:c8:5b:1f:2e:a5:fc:50:a9:63:05:
                    83:3d:88:bf:56:0d:19:70:04:5e:b6:fd:62:9d:98:
                    74:be:3c:b1:79:b1:46:50:7d:cb:9d:64:c3:a2:38:
                    59:30:9c:12:30:70:9c:b6:55:6d:80:1d:9e:1c:5f:
                    e9:ff:dd:13:2d:c5:34:5f:94:3c:84:af:b0:dc:c6:
                    d5:f9:fe:4b:5f:bb:65:53:b9:23:c8:27:bb:4a:5b:
                    b8:5d:dd:71:9a:16:bd:31:2c:96:19:84:ed:0d:93:
                    da:e7:8f:5d:42:0e:4c:ec:7e:bf:38:b5:a6:f1:35:
                    d3:de:5d:a7:4b:37:42:30:ad:9b:79:2c:6a:1c:af:
                    1e:b0:4a:0a:e2:d9:fc:25:28:d3:5a:d1:fe:2c:6e:
                    8e:45:3c:bd:58:5c:9c:32:89:fd:08:24:8d:f1:a4:
                    18:57
                Exponent: 65537 (0x10001)
        X509v3 extensions:
            X509v3 Basic Constraints: critical
                CA:FALSE
            X509v3 Key Usage: 
                Digital Signature, Key Encipherment, Key Agreement
            X509v3 Subject Key Identifier: 
                60:B3:14:92:80:05:AF:99:52:64:A9:21:30:0F:6E:4E:84:B4:04:67
            X509v3 Authority Key Identifier: 
                keyid:22:20:0D:51:40:61:42:BE:DD:BA:D9:C9:C1:77:B6:93:28:C3:99:EC
                DirName:/C=CH/ST=Thurgau/L=Kefikon/O=guengel.ch/CN=CA 2022/emailAddress=postmaster@guengel.ch
                serial:6D:29:90:54:E9:17:E9:C2:6A:E6:52:AD:84:4E:30:8E:6E:57:FB:1C

            Netscape Cert Type: 
                SSL Client, SSL Server
            X509v3 Extended Key Usage: 
                TLS Web Server Authentication, TLS Web Client Authentication
    Signature Algorithm: sha256WithRSAEncryption
         3f:04:04:1c:bb:36:79:77:58:01:10:5c:be:fb:ff:e5:ad:8d:
         d4:fd:e6:16:e2:e8:52:9b:fe:ec:fe:2b:cc:3e:36:c7:29:ae:
         05:26:c4:2e:78:08:f6:28:e1:90:c5:18:07:6f:51:92:1e:e1:
         39:c0:a0:20:5e:6d:2d:56:37:b9:96:e9:1e:e5:25:90:10:03:
         f1:5d:4e:76:83:c3:d8:46:7a:7e:24:25:74:07:6e:32:db:c3:
         3f:2c:1d:74:cb:8d:27:55:e6:92:1a:c1:34:f5:75:c2:85:a0:
         26:8d:e5:76:97:99:6c:16:e4:fd:e3:13:be:af:c0:f2:94:0f:
         b3:ee:de:58:f1:fa:f6:d6:0d:3a:d0:7c:8e:d0:4a:90:66:10:
         7a:28:35:3c:5b:90:da:d4:de:78:e7:12:4b:fd:75:0c:16:2e:
         29:42:c7:b8:95:c6:46:1c:d6:c6:4c:49:f0:b9:6e:da:d4:37:
         27:c5:c2:83:94:8a:d5:19:0f:0f:d7:71:3b:79:e1:dd:24:61:
         d2:18:09:3d:9f:ba:d4:c3:46:24:ae:98:ac:93:91:79:51:33:
         b7:ea:12:3d:24:1b:97:94:23:84:65:48:7e:35:fb:53:33:fe:
         13:58:97:cc:46:19:be:5f:6c:ad:9f:92:4d:2f:93:28:13:5b:
         d7:8a:dd:7c:f0:7f:08:ec:3e:9e:07:70:44:bb:e6:a2:54:ab:
         de:f8:39:23:a0:ae:b4:c6:65:f0:09:ab:60:22:8c:2c:6b:9f:
         c8:8e:35:4f:45:45:24:be:ba:4e:12:f5:9f:c4:2f:8d:61:9c:
         37:eb:6b:88:d5:a4:56:7e:d0:08:2e:09:c8:c0:86:e2:02:1b:
         0d:1e:0d:d3:d3:bd:e4:28:37:ac:98:ff:09:11:7f:46:07:30:
         51:82:94:05:ff:36:28:41:b1:c7:85:d2:77:02:9c:28:3c:92:
         c6:9f:cd:71:8e:43:98:43:76:44:32:65:2f:0b:62:5a:87:83:
         fc:2d:53:68:d4:0b:9c:47:d9:06:9b:a2:8c:88:8a:c9:e2:bd:
         99:48:7c:0e:74:e1:d3:79:1d:c8:80:01:e2:34:27:d8:06:7c:
         74:ab:1e:72:14:b9:d9:bb:6b:dd:e5:7a:83:a9:b7:a5:b5:7d:
         60:d7:49:ed:93:45:21:a5:50:33:48:39:b3:2b:8a:48:49:ba:
         37:72:2a:b7:79:31:27:8d:91:2d:a3:06:5e:7f:d8:a3:b2:89:
         14:60:82:fb:40:fd:7e:b3:82:6d:1e:2a:ce:12:bb:59:bd:dd:
         6a:2f:b3:a1:51:80:93:75:1f:e1:e2:ed:7b:1f:b5:40:58:37:
         1e:ae:95:74:52:c9:21:ab
-----BEGIN CERTIFICATE-----
MIIFqDCCA5CgAwIBAgIUXlPcMT7u3U1u/oFOGsssa9c0gBYwDQYJKoZIhvcNAQEL
BQAwfjELMAkGA1UEBhMCQ0gxEDAOBgNVBAgTB1RodXJnYXUxEDAOBgNVBAcTB0tl
Zmlrb24xEzARBgNVBAoTCmd1ZW5nZWwuY2gxEDAOBgNVBAMTB0NBIDIwMjIxJDAi
BgkqhkiG9w0BCQEWFXBvc3RtYXN0ZXJAZ3VlbmdlbC5jaDAeFw0yMzAyMjgwNjM2
NTRaFw0yNDA0MDMwNjM2NTRaMGoxCzAJBgNVBAYTAkNIMRAwDgYDVQQIEwdUaHVy
Z2F1MRMwEQYDVQQKEwpndWVuZ2VsLmNoMQ4wDAYDVQQDEwVhcHAtMTEkMCIGCSqG
SIb3DQEJARYVcG9zdG1hc3RlckBndWVuZ2VsLmNoMIIBIjANBgkqhkiG9w0BAQEF
AAOCAQ8AMIIBCgKCAQEAxAl2AG8UWeFQa7eKW50CoKREifyp71yte0jrxsc/G2rf
2i0aMDJ9SLTV9Is56GD/SiD2XnW2PNhrJO1c3WC4f45/P/U2PMJ5h3gaoHkARhwt
MuO+W1OeiyjZD/EoI8hbHy6l/FCpYwWDPYi/Vg0ZcARetv1inZh0vjyxebFGUH3L
nWTDojhZMJwSMHCctlVtgB2eHF/p/90TLcU0X5Q8hK+w3MbV+f5LX7tlU7kjyCe7
Slu4Xd1xmha9MSyWGYTtDZPa549dQg5M7H6/OLWm8TXT3l2nSzdCMK2beSxqHK8e
sEoK4tn8JSjTWtH+LG6ORTy9WFycMon9CCSN8aQYVwIDAQABo4IBMDCCASwwDAYD
VR0TAQH/BAIwADALBgNVHQ8EBAMCA6gwHQYDVR0OBBYEFGCzFJKABa+ZUmSpITAP
bk6EtARnMIG9BgNVHSMEgbUwgbKAFCIgDVFAYUK+3brZycF3tpMow5nsoYGDpIGA
MH4xCzAJBgNVBAYTAkNIMRAwDgYDVQQIEwdUaHVyZ2F1MRAwDgYDVQQHEwdLZWZp
a29uMRMwEQYDVQQKEwpndWVuZ2VsLmNoMRAwDgYDVQQDEwdDQSAyMDIyMSQwIgYJ
KoZIhvcNAQkBFhVwb3N0bWFzdGVyQGd1ZW5nZWwuY2iCFG0pkFTpF+nCauZSrYRO
MI5uV/scMBEGCWCGSAGG+EIBAQQEAwIGwDAdBgNVHSUEFjAUBggrBgEFBQcDAQYI
KwYBBQUHAwIwDQYJKoZIhvcNAQELBQADggIBAD8EBBy7Nnl3WAEQXL77/+WtjdT9
5hbi6FKb/uz+K8w+NscprgUmxC54CPYo4ZDFGAdvUZIe4TnAoCBebS1WN7mW6R7l
JZAQA/FdTnaDw9hGen4kJXQHbjLbwz8sHXTLjSdV5pIawTT1dcKFoCaN5XaXmWwW
5P3jE76vwPKUD7Pu3ljx+vbWDTrQfI7QSpBmEHooNTxbkNrU3njnEkv9dQwWLilC
x7iVxkYc1sZMSfC5btrUNyfFwoOUitUZDw/XcTt54d0kYdIYCT2futTDRiSumKyT
kXlRM7fqEj0kG5eUI4RlSH41+1Mz/hNYl8xGGb5fbK2fkk0vkygTW9eK3Xzwfwjs
Pp4HcES75qJUq974OSOgrrTGZfAJq2AijCxrn8iONU9FRSS+uk4S9Z/EL41hnDfr
a4jVpFZ+0AguCcjAhuICGw0eDdPTveQoN6yY/wkRf0YHMFGClAX/NihBsceF0ncC
nCg8ksafzXGOQ5hDdkQyZS8LYlqHg/wtU2jUC5xH2QabooyIisnivZlIfA504dN5
HciAAeI0J9gGfHSrHnIUudm7a93leoOpt6W1fWDXSe2TRSGlUDNIObMrikhJujdy
Krd5MSeNkS2jBl5/2KOyiRRggvtA/X6zgm0eKs4Su1m93Wovs6FRgJN1H+Hi7Xsf
tUBYNx6ulXRSySGr
-----END CERTIFICATE-----
