Certificate:
    Data:
        Version: 3 (0x2)
        Serial Number: 381 (0x17d)
        Signature Algorithm: sha256WithRSAEncryption
        Issuer: C=CH, ST=Thurgau, L=Kefikon, O=guengel.ch, CN=CA guengel.ch/emailAddress=postmaster@guengel.ch
        Validity
            Not Before: Jan  3 10:08:57 2020 GMT
            Not After : Feb  6 10:08:57 2021 GMT
        Subject: C=CH, ST=Thurgau, O=guengel.ch, CN=app-1/emailAddress=postmaster@guengel.ch
        Subject Public Key Info:
            Public Key Algorithm: rsaEncryption
                RSA Public-Key: (2048 bit)
                Modulus:
                    00:a5:48:bd:f2:85:53:60:b3:20:05:08:b5:b3:14:
                    a7:54:7e:59:9a:6a:4d:8c:42:cb:41:4b:67:2a:d3:
                    cb:d7:5e:ef:a7:99:f6:50:ee:11:01:39:5d:f4:0c:
                    9d:9d:10:a5:38:1e:a8:81:4f:c6:f3:a6:0c:bf:ef:
                    a6:b3:aa:bd:44:33:06:fc:09:9a:3d:84:30:8a:b9:
                    66:61:b9:36:96:ed:63:cc:6d:fd:65:26:7b:0f:be:
                    4f:61:8d:bc:0f:15:1f:8b:a4:cc:ce:28:31:37:7d:
                    ac:1e:3e:4c:f6:c6:a8:b8:5d:b7:d0:b2:bb:f5:dd:
                    bb:de:c7:2a:32:3c:f0:77:fc:02:ac:c6:1a:d3:08:
                    eb:f4:dc:51:6f:54:82:c8:cf:82:08:0d:8b:9c:73:
                    df:53:1a:e0:37:cf:2a:84:db:14:d1:b8:e4:0f:a7:
                    97:0b:53:f4:05:41:fb:dc:ee:a2:85:15:70:ee:d9:
                    8a:66:6b:4a:8e:3b:21:60:77:6e:04:36:44:7b:a8:
                    ed:97:84:f0:f9:d0:99:33:a5:0a:7b:c5:ba:2c:26:
                    5a:66:9f:e8:ec:45:cd:6d:39:13:3d:69:e7:ce:ec:
                    f3:b4:0b:3c:f0:d1:59:1e:f5:9c:69:2d:18:dd:5c:
                    e4:5c:f1:c9:62:cb:99:6d:c3:cc:9c:0b:6c:2a:3c:
                    f9:2f
                Exponent: 65537 (0x10001)
        X509v3 extensions:
            X509v3 Basic Constraints: 
                CA:FALSE
            Netscape Comment: 
                OpenSSL Generated Certificate
            X509v3 Subject Key Identifier: 
                B4:60:C4:18:3E:59:21:7F:34:9F:08:A4:AB:97:21:8C:1C:3A:BC:88
            X509v3 Authority Key Identifier: 
                keyid:D6:88:F1:AA:C1:2B:09:8C:B8:5C:9D:CE:DF:57:39:62:26:10:20:90
                DirName:/C=CH/ST=Thurgau/L=Kefikon/O=guengel.ch/CN=CA guengel.ch/emailAddress=postmaster@guengel.ch
                serial:E5:25:3B:A6:77:BD:CB:FF

    Signature Algorithm: sha256WithRSAEncryption
         02:62:5f:11:9d:6e:62:23:e3:74:a6:57:2f:2c:b0:c4:73:d1:
         b6:b3:5c:43:d6:e6:29:64:5b:4c:00:de:59:ea:7f:46:65:b8:
         1f:1c:c4:52:27:38:45:4d:79:33:40:97:70:6e:8c:1f:e7:24:
         fb:36:6d:90:40:4c:9b:32:d5:29:a5:6f:b1:da:c1:17:21:1c:
         b9:79:ae:ef:22:82:07:c2:48:ee:6e:c0:a3:d8:6d:8f:62:d2:
         fe:62:85:91:ea:ce:53:a6:d4:1b:a8:fb:62:66:66:c8:95:cf:
         e0:e3:27:c7:ff:39:e5:71:1e:c8:27:e4:64:17:55:f5:74:ae:
         d6:bc:fd:34:ff:ec:fe:82:63:7a:e6:97:38:e4:65:22:7d:10:
         6d:18:56:7d:b9:57:ef:71:81:f2:a5:36:30:38:7b:64:ed:ac:
         a0:c7:63:35:df:93:b1:64:42:73:20:3b:83:0b:38:1f:3c:88:
         dc:80:ef:b6:ce:f8:d9:09:fd:95:67:85:12:c1:14:34:f2:09:
         d2:a8:3a:a7:82:83:4b:3c:a1:56:df:ba:08:4f:56:3a:01:9f:
         89:52:5d:cb:74:5e:63:06:4a:be:a6:6f:12:39:5b:6f:44:30:
         e9:04:ef:61:10:10:4b:5d:31:b6:a0:85:74:ee:2d:06:de:cc:
         91:8c:75:f0:18:78:23:52:bf:51:ef:7b:62:ad:31:c0:dd:30:
         6a:38:6a:6b:0b:d9:7c:7d:75:7b:2f:03:fd:22:aa:c3:56:40:
         60:e6:c8:df:f3:25:3b:fd:30:bd:22:dc:7d:ac:4d:82:8c:09:
         f8:30:b8:32:5b:e5:05:1f:97:17:00:bc:d2:36:70:9d:92:e7:
         66:58:a5:a9:e0:07:8a:f6:12:ea:8d:55:f3:d9:8b:58:32:04:
         6e:fa:a7:01:01:7a:11:d0:3e:29:d0:27:16:af:d3:a7:8c:1c:
         30:6e:9c:74:f7:29:85:bc:df:f9:04:ea:2b:38:93:71:28:57:
         60:30:4f:82:3a:03:f8:44:49:bf:a3:9a:fb:ec:73:44:5c:94:
         78:88:c4:b9:b4:bc:95:ff:ac:6e:ad:36:94:0c:8a:3e:c2:1f:
         de:5a:fa:2c:e7:c4:59:3f:48:1f:bb:7f:64:54:96:7a:c3:20:
         41:c2:54:ac:26:ca:12:eb:fc:21:7b:c4:5a:13:a3:b3:2a:11:
         ee:7f:ef:16:65:35:68:5f:2e:b0:b4:e2:71:cf:67:6a:b2:42:
         b5:f5:c5:8c:69:dd:51:2c:78:54:d0:98:c7:29:d1:b8:34:7c:
         88:2d:46:91:3e:fa:76:ae:2c:46:53:c9:c0:fe:53:31:3f:c9:
         2d:d1:2d:ea:0b:dd:84:41
-----BEGIN CERTIFICATE-----
MIIFhTCCA22gAwIBAgICAX0wDQYJKoZIhvcNAQELBQAwgYQxCzAJBgNVBAYTAkNI
MRAwDgYDVQQIEwdUaHVyZ2F1MRAwDgYDVQQHEwdLZWZpa29uMRMwEQYDVQQKEwpn
dWVuZ2VsLmNoMRYwFAYDVQQDEw1DQSBndWVuZ2VsLmNoMSQwIgYJKoZIhvcNAQkB
FhVwb3N0bWFzdGVyQGd1ZW5nZWwuY2gwHhcNMjAwMTAzMTAwODU3WhcNMjEwMjA2
MTAwODU3WjBqMQswCQYDVQQGEwJDSDEQMA4GA1UECBMHVGh1cmdhdTETMBEGA1UE
ChMKZ3VlbmdlbC5jaDEOMAwGA1UEAxMFYXBwLTExJDAiBgkqhkiG9w0BCQEWFXBv
c3RtYXN0ZXJAZ3VlbmdlbC5jaDCCASIwDQYJKoZIhvcNAQEBBQADggEPADCCAQoC
ggEBAKVIvfKFU2CzIAUItbMUp1R+WZpqTYxCy0FLZyrTy9de76eZ9lDuEQE5XfQM
nZ0QpTgeqIFPxvOmDL/vprOqvUQzBvwJmj2EMIq5ZmG5NpbtY8xt/WUmew++T2GN
vA8VH4ukzM4oMTd9rB4+TPbGqLhdt9Cyu/Xdu97HKjI88Hf8AqzGGtMI6/TcUW9U
gsjPgggNi5xz31Ma4DfPKoTbFNG45A+nlwtT9AVB+9zuooUVcO7ZimZrSo47IWB3
bgQ2RHuo7ZeE8PnQmTOlCnvFuiwmWmaf6OxFzW05Ez1p587s87QLPPDRWR71nGkt
GN1c5FzxyWLLmW3DzJwLbCo8+S8CAwEAAaOCARgwggEUMAkGA1UdEwQCMAAwLAYJ
YIZIAYb4QgENBB8WHU9wZW5TU0wgR2VuZXJhdGVkIENlcnRpZmljYXRlMB0GA1Ud
DgQWBBS0YMQYPlkhfzSfCKSrlyGMHDq8iDCBuQYDVR0jBIGxMIGugBTWiPGqwSsJ
jLhcnc7fVzliJhAgkKGBiqSBhzCBhDELMAkGA1UEBhMCQ0gxEDAOBgNVBAgTB1Ro
dXJnYXUxEDAOBgNVBAcTB0tlZmlrb24xEzARBgNVBAoTCmd1ZW5nZWwuY2gxFjAU
BgNVBAMTDUNBIGd1ZW5nZWwuY2gxJDAiBgkqhkiG9w0BCQEWFXBvc3RtYXN0ZXJA
Z3VlbmdlbC5jaIIJAOUlO6Z3vcv/MA0GCSqGSIb3DQEBCwUAA4ICAQACYl8RnW5i
I+N0plcvLLDEc9G2s1xD1uYpZFtMAN5Z6n9GZbgfHMRSJzhFTXkzQJdwbowf5yT7
Nm2QQEybMtUppW+x2sEXIRy5ea7vIoIHwkjubsCj2G2PYtL+YoWR6s5TptQbqPti
ZmbIlc/g4yfH/znlcR7IJ+RkF1X1dK7WvP00/+z+gmN65pc45GUifRBtGFZ9uVfv
cYHypTYwOHtk7aygx2M135OxZEJzIDuDCzgfPIjcgO+2zvjZCf2VZ4USwRQ08gnS
qDqngoNLPKFW37oIT1Y6AZ+JUl3LdF5jBkq+pm8SOVtvRDDpBO9hEBBLXTG2oIV0
7i0G3syRjHXwGHgjUr9R73tirTHA3TBqOGprC9l8fXV7LwP9IqrDVkBg5sjf8yU7
/TC9Itx9rE2CjAn4MLgyW+UFH5cXALzSNnCdkudmWKWp4AeK9hLqjVXz2YtYMgRu
+qcBAXoR0D4p0CcWr9OnjBwwbpx09ymFvN/5BOorOJNxKFdgME+COgP4REm/o5r7
7HNEXJR4iMS5tLyV/6xurTaUDIo+wh/eWvos58RZP0gfu39kVJZ6wyBBwlSsJsoS
6/whe8RaE6OzKhHuf+8WZTVoXy6wtOJxz2dqskK19cWMad1RLHhU0JjHKdG4NHyI
LUaRPvp2rixGU8nA/lMxP8kt0S3qC92EQQ==
-----END CERTIFICATE-----
