Certificate:
    Data:
        Version: 3 (0x2)
        Serial Number: 428 (0x1ac)
        Signature Algorithm: sha256WithRSAEncryption
        Issuer: C=CH, ST=Thurgau, L=Kefikon, O=guengel.ch, CN=CA guengel.ch/emailAddress=postmaster@guengel.ch
        Validity
            Not Before: Feb  6 15:16:39 2021 GMT
            Not After : Mar 13 15:16:39 2022 GMT
        Subject: C=CH, ST=Thurgau, O=guengel.ch, CN=aurora.virtual.kruemel.home/emailAddress=postmaster@guengel.ch
        Subject Public Key Info:
            Public Key Algorithm: rsaEncryption
                RSA Public-Key: (2048 bit)
                Modulus:
                    00:da:90:21:f0:b4:03:27:be:b0:dd:29:b5:aa:2d:
                    c7:28:79:4f:4e:7f:85:15:3d:a8:d9:7c:da:e5:10:
                    8d:bb:62:a8:d2:dc:b8:96:08:39:32:fb:51:a2:84:
                    28:89:c2:93:73:72:16:b9:f4:66:cd:dd:99:6c:48:
                    54:23:bf:3b:f3:47:c8:46:bf:e1:86:76:5f:4f:a8:
                    31:37:db:16:81:1c:60:8e:cf:13:ee:5e:4d:d5:98:
                    1b:3a:49:06:42:2b:71:34:0c:17:bb:c8:dc:97:db:
                    96:8a:a4:08:a3:cd:62:ce:90:2f:dd:11:ca:21:01:
                    f8:01:46:3b:ec:de:93:2a:9c:16:a9:5c:a9:66:93:
                    e5:9a:a4:9d:79:4b:e4:2c:83:ab:0b:9d:20:f0:ff:
                    e0:0f:3e:01:1b:0f:6d:f5:a1:7c:f5:2d:a9:e0:f7:
                    15:2e:ae:c0:d8:ac:f1:65:51:67:e1:69:3b:52:5a:
                    c5:91:9b:0b:ce:81:11:9d:de:13:06:d1:4e:39:5e:
                    4a:94:28:30:77:90:39:f2:3a:07:47:1a:80:73:77:
                    15:94:fb:cb:09:01:36:f4:b7:8d:6f:29:0e:a4:b6:
                    f1:b7:12:92:a1:d2:8e:44:e0:61:54:00:01:d6:11:
                    27:49:17:f1:71:05:8c:4d:6b:6e:80:48:9e:3e:fb:
                    5e:b5
                Exponent: 65537 (0x10001)
        X509v3 extensions:
            X509v3 Key Usage: 
                Digital Signature, Key Encipherment, Key Agreement
            X509v3 Basic Constraints: critical
                CA:FALSE
            Netscape Cert Type: 
                SSL Client, SSL Server
            X509v3 Extended Key Usage: 
                TLS Web Server Authentication, TLS Web Client Authentication
            X509v3 Subject Alternative Name: 
                DNS:aurora.virtual.kruemel.home
            X509v3 Subject Key Identifier: 
                FE:2D:FF:AC:5E:6A:9A:FA:96:A4:A0:B7:0B:7E:C7:26:6F:6A:42:A6
            X509v3 Authority Key Identifier: 
                keyid:D6:88:F1:AA:C1:2B:09:8C:B8:5C:9D:CE:DF:57:39:62:26:10:20:90
                DirName:/C=CH/ST=Thurgau/L=Kefikon/O=guengel.ch/CN=CA guengel.ch/emailAddress=postmaster@guengel.ch
                serial:E5:25:3B:A6:77:BD:CB:FF

    Signature Algorithm: sha256WithRSAEncryption
         67:19:f1:4e:9c:ff:c9:35:95:0a:e9:a3:35:74:82:ae:b0:a3:
         00:39:8d:3a:3b:20:1b:e5:10:f5:75:f0:b7:2c:9b:74:23:c9:
         8a:0e:94:3f:b1:81:58:63:f6:af:ae:d0:e5:ab:b4:18:fc:66:
         20:cc:72:c0:be:45:e1:81:79:c7:2d:e6:b2:1e:8c:96:47:51:
         44:85:c3:cb:0a:99:e3:b8:cb:24:ae:1b:63:3a:bf:38:92:4e:
         1a:15:4b:30:c0:70:95:ff:71:18:24:ad:b8:08:a4:15:1b:7a:
         76:9f:12:d9:03:b0:e8:f6:05:c8:fc:1c:39:c3:66:5d:36:96:
         74:0c:b8:0d:7f:09:93:8f:83:4d:9c:85:b9:92:93:7a:89:97:
         17:8c:c1:f8:9c:e9:54:ed:84:96:14:c5:da:2b:05:ca:da:be:
         23:59:7a:45:4e:96:1c:07:76:86:c3:99:79:69:ba:6f:1e:73:
         ed:6e:44:2d:d1:74:d3:0c:a7:f8:ae:0b:b8:96:ea:ff:06:e1:
         f0:37:61:05:0d:c3:f8:09:fc:33:85:11:9d:7e:09:18:08:06:
         70:2d:1d:d7:c3:19:0c:6a:8e:3a:f2:47:19:09:84:cb:e3:44:
         4b:00:b2:59:d9:ea:50:f3:b1:4d:f8:af:a7:0e:d6:03:6e:d6:
         1b:82:e5:28:24:41:e9:1a:7d:4e:74:dd:f5:60:af:0f:ef:cf:
         c2:0b:f2:9b:8a:7e:69:29:ab:8c:e1:8a:b3:dd:e0:05:f4:15:
         07:bb:8f:5a:89:32:57:62:6c:5e:90:6e:92:12:0b:75:50:e0:
         cc:2b:60:26:11:39:6e:55:f7:7f:2f:a7:a5:82:09:34:1c:99:
         3a:97:69:a9:3c:e1:10:50:6c:90:5a:14:a8:b5:c2:65:dd:90:
         a8:d5:54:e2:38:8b:cb:18:3c:a1:18:22:74:62:64:21:fc:b7:
         3b:f2:b7:c6:ca:e1:4c:53:87:28:fd:87:c9:0d:50:b2:2d:06:
         a6:14:78:c9:52:cc:cd:12:d5:9e:70:fb:b1:62:3f:3d:5f:b5:
         35:cc:8d:d8:a0:85:91:eb:ed:97:93:f7:6d:1e:4b:d7:0d:7d:
         3d:a2:80:5d:ea:98:ea:ff:3d:df:66:41:8f:22:a1:a3:fa:e1:
         f8:97:1d:37:1e:08:9f:f4:ba:ef:9c:af:f1:2b:1f:e0:c5:01:
         2b:d0:d1:c1:89:60:cf:4f:29:93:86:33:9f:b3:e1:37:04:56:
         33:5b:4d:a9:4e:69:33:1b:ac:0d:c6:5e:fe:56:62:c8:88:e0:
         b3:b0:a3:e1:98:ba:21:51:9a:40:d7:90:88:34:9c:f7:af:6a:
         ad:0b:b1:8e:35:f5:69:fa
-----BEGIN CERTIFICATE-----
MIIF2DCCA8CgAwIBAgICAawwDQYJKoZIhvcNAQELBQAwgYQxCzAJBgNVBAYTAkNI
MRAwDgYDVQQIEwdUaHVyZ2F1MRAwDgYDVQQHEwdLZWZpa29uMRMwEQYDVQQKEwpn
dWVuZ2VsLmNoMRYwFAYDVQQDEw1DQSBndWVuZ2VsLmNoMSQwIgYJKoZIhvcNAQkB
FhVwb3N0bWFzdGVyQGd1ZW5nZWwuY2gwHhcNMjEwMjA2MTUxNjM5WhcNMjIwMzEz
MTUxNjM5WjCBgDELMAkGA1UEBhMCQ0gxEDAOBgNVBAgTB1RodXJnYXUxEzARBgNV
BAoTCmd1ZW5nZWwuY2gxJDAiBgNVBAMTG2F1cm9yYS52aXJ0dWFsLmtydWVtZWwu
aG9tZTEkMCIGCSqGSIb3DQEJARYVcG9zdG1hc3RlckBndWVuZ2VsLmNoMIIBIjAN
BgkqhkiG9w0BAQEFAAOCAQ8AMIIBCgKCAQEA2pAh8LQDJ76w3Sm1qi3HKHlPTn+F
FT2o2Xza5RCNu2Ko0ty4lgg5MvtRooQoicKTc3IWufRmzd2ZbEhUI78780fIRr/h
hnZfT6gxN9sWgRxgjs8T7l5N1ZgbOkkGQitxNAwXu8jcl9uWiqQIo81izpAv3RHK
IQH4AUY77N6TKpwWqVypZpPlmqSdeUvkLIOrC50g8P/gDz4BGw9t9aF89S2p4PcV
Lq7A2KzxZVFn4Wk7UlrFkZsLzoERnd4TBtFOOV5KlCgwd5A58joHRxqAc3cVlPvL
CQE29LeNbykOpLbxtxKSodKOROBhVAAB1hEnSRfxcQWMTWtugEiePvtetQIDAQAB
o4IBVDCCAVAwCwYDVR0PBAQDAgOoMAwGA1UdEwEB/wQCMAAwEQYJYIZIAYb4QgEB
BAQDAgbAMB0GA1UdJQQWMBQGCCsGAQUFBwMBBggrBgEFBQcDAjAmBgNVHREEHzAd
ghthdXJvcmEudmlydHVhbC5rcnVlbWVsLmhvbWUwHQYDVR0OBBYEFP4t/6xeapr6
lqSgtwt+xyZvakKmMIG5BgNVHSMEgbEwga6AFNaI8arBKwmMuFydzt9XOWImECCQ
oYGKpIGHMIGEMQswCQYDVQQGEwJDSDEQMA4GA1UECBMHVGh1cmdhdTEQMA4GA1UE
BxMHS2VmaWtvbjETMBEGA1UEChMKZ3VlbmdlbC5jaDEWMBQGA1UEAxMNQ0EgZ3Vl
bmdlbC5jaDEkMCIGCSqGSIb3DQEJARYVcG9zdG1hc3RlckBndWVuZ2VsLmNoggkA
5SU7pne9y/8wDQYJKoZIhvcNAQELBQADggIBAGcZ8U6c/8k1lQrpozV0gq6wowA5
jTo7IBvlEPV18Lcsm3QjyYoOlD+xgVhj9q+u0OWrtBj8ZiDMcsC+ReGBecct5rIe
jJZHUUSFw8sKmeO4yySuG2M6vziSThoVSzDAcJX/cRgkrbgIpBUbenafEtkDsOj2
Bcj8HDnDZl02lnQMuA1/CZOPg02chbmSk3qJlxeMwfic6VTthJYUxdorBcraviNZ
ekVOlhwHdobDmXlpum8ec+1uRC3RdNMMp/iuC7iW6v8G4fA3YQUNw/gJ/DOFEZ1+
CRgIBnAtHdfDGQxqjjryRxkJhMvjREsAslnZ6lDzsU34r6cO1gNu1huC5SgkQeka
fU503fVgrw/vz8IL8puKfmkpq4zhirPd4AX0FQe7j1qJMldibF6QbpISC3VQ4Mwr
YCYROW5V938vp6WCCTQcmTqXaak84RBQbJBaFKi1wmXdkKjVVOI4i8sYPKEYInRi
ZCH8tzvyt8bK4UxThyj9h8kNULItBqYUeMlSzM0S1Z5w+7FiPz1ftTXMjdighZHr
7ZeT920eS9cNfT2igF3qmOr/Pd9mQY8ioaP64fiXHTceCJ/0uu+cr/ErH+DFASvQ
0cGJYM9PKZOGM5+z4TcEVjNbTalOaTMbrA3GXv5WYsiI4LOwo+GYuiFRmkDXkIg0
nPevaq0LsY419Wn6
-----END CERTIFICATE-----
