Certificate:
    Data:
        Version: 3 (0x2)
        Serial Number: 371 (0x173)
        Signature Algorithm: sha256WithRSAEncryption
        Issuer: C=CH, ST=Thurgau, L=Kefikon, O=guengel.ch, CN=CA guengel.ch/emailAddress=postmaster@guengel.ch
        Validity
            Not Before: Jan  3 10:08:45 2020 GMT
            Not After : Feb  6 10:08:45 2021 GMT
        Subject: C=CH, ST=Thurgau, O=guengel.ch, CN=aurora.virtual.kruemel.home/emailAddress=postmaster@guengel.ch
        Subject Public Key Info:
            Public Key Algorithm: rsaEncryption
                RSA Public-Key: (2048 bit)
                Modulus:
                    00:da:90:21:f0:b4:03:27:be:b0:dd:29:b5:aa:2d:
                    c7:28:79:4f:4e:7f:85:15:3d:a8:d9:7c:da:e5:10:
                    8d:bb:62:a8:d2:dc:b8:96:08:39:32:fb:51:a2:84:
                    28:89:c2:93:73:72:16:b9:f4:66:cd:dd:99:6c:48:
                    54:23:bf:3b:f3:47:c8:46:bf:e1:86:76:5f:4f:a8:
                    31:37:db:16:81:1c:60:8e:cf:13:ee:5e:4d:d5:98:
                    1b:3a:49:06:42:2b:71:34:0c:17:bb:c8:dc:97:db:
                    96:8a:a4:08:a3:cd:62:ce:90:2f:dd:11:ca:21:01:
                    f8:01:46:3b:ec:de:93:2a:9c:16:a9:5c:a9:66:93:
                    e5:9a:a4:9d:79:4b:e4:2c:83:ab:0b:9d:20:f0:ff:
                    e0:0f:3e:01:1b:0f:6d:f5:a1:7c:f5:2d:a9:e0:f7:
                    15:2e:ae:c0:d8:ac:f1:65:51:67:e1:69:3b:52:5a:
                    c5:91:9b:0b:ce:81:11:9d:de:13:06:d1:4e:39:5e:
                    4a:94:28:30:77:90:39:f2:3a:07:47:1a:80:73:77:
                    15:94:fb:cb:09:01:36:f4:b7:8d:6f:29:0e:a4:b6:
                    f1:b7:12:92:a1:d2:8e:44:e0:61:54:00:01:d6:11:
                    27:49:17:f1:71:05:8c:4d:6b:6e:80:48:9e:3e:fb:
                    5e:b5
                Exponent: 65537 (0x10001)
        X509v3 extensions:
            X509v3 Basic Constraints: 
                CA:FALSE
            Netscape Comment: 
                OpenSSL Generated Certificate
            X509v3 Subject Key Identifier: 
                FE:2D:FF:AC:5E:6A:9A:FA:96:A4:A0:B7:0B:7E:C7:26:6F:6A:42:A6
            X509v3 Authority Key Identifier: 
                keyid:D6:88:F1:AA:C1:2B:09:8C:B8:5C:9D:CE:DF:57:39:62:26:10:20:90
                DirName:/C=CH/ST=Thurgau/L=Kefikon/O=guengel.ch/CN=CA guengel.ch/emailAddress=postmaster@guengel.ch
                serial:E5:25:3B:A6:77:BD:CB:FF

    Signature Algorithm: sha256WithRSAEncryption
         d3:74:26:f3:b2:a7:d4:06:39:bd:3d:bb:62:79:9d:ff:7d:d8:
         23:9f:98:04:67:a3:13:0f:06:f5:b4:05:0e:d5:01:77:d6:ce:
         85:70:bf:0d:fb:f2:66:0b:e1:ab:04:37:38:c1:43:e7:d7:84:
         1a:38:cb:9a:91:ed:97:f7:f4:e0:39:2d:28:fc:01:8e:52:3e:
         ac:59:6f:e3:42:bf:da:6a:66:34:c0:65:cc:7f:55:f0:f3:5e:
         b5:58:9d:11:da:79:e1:69:f6:b2:43:fb:73:81:34:72:fe:5d:
         77:08:61:20:c7:90:6a:77:f3:1e:67:c3:aa:c7:64:a4:7b:25:
         ad:89:31:a3:bc:af:b3:da:43:3e:e3:29:9e:30:43:4a:01:2e:
         e4:c1:65:7e:bc:04:a9:dc:f9:03:1f:2c:21:b8:6c:9e:4f:42:
         52:5e:ca:4d:d2:1f:dd:4a:9e:c9:b3:f0:a0:47:74:bd:e4:cb:
         ed:1b:0f:bd:8d:aa:13:83:7f:46:7a:f2:61:ab:5e:98:db:6a:
         51:0f:3d:ab:28:11:2e:17:db:a4:95:72:03:4b:3c:d0:9f:23:
         77:ab:e0:85:8e:16:91:5b:6b:f6:9a:6a:07:b6:69:52:3d:e1:
         97:89:96:5d:9c:99:55:02:56:15:29:e7:10:da:22:fe:41:b1:
         60:97:bf:09:b7:4d:02:54:2b:82:fe:ff:c9:62:60:4b:54:1c:
         a5:47:91:c5:0a:ea:47:c1:57:3f:e4:57:f9:fd:2e:7c:97:30:
         b3:8f:a1:90:59:2a:41:6c:ba:57:d5:3e:74:1b:d8:91:93:33:
         39:e1:7f:31:4e:09:a2:cb:80:cf:c1:b5:0b:34:a7:b9:f2:c9:
         a1:6a:c3:f8:31:bd:46:63:70:ad:7f:b3:cf:dc:07:06:0a:f1:
         95:fd:cb:fa:02:f7:56:8b:94:8f:28:b3:07:98:ef:9e:2d:19:
         a2:30:9e:c8:b7:6d:f3:69:fc:6a:b2:aa:69:8a:28:b8:72:18:
         32:51:1c:1e:c2:44:8b:6b:7b:e7:a0:38:ae:41:82:9b:d5:74:
         33:05:7c:8b:e3:2a:60:51:fd:1a:c3:64:b7:a7:2b:1b:e7:51:
         06:8a:84:5b:b5:3d:82:d9:09:72:e1:53:34:f4:22:cb:3f:3f:
         5f:60:89:91:2d:2f:71:41:6a:2c:1e:86:75:ca:11:ce:64:9f:
         83:72:d9:de:a5:84:50:f8:19:7e:03:71:80:06:0c:bc:40:88:
         8f:0b:47:57:46:0d:dc:3d:2e:04:79:db:56:59:da:3c:4a:4a:
         d9:ce:f2:41:d1:5b:f0:5d:fe:70:3f:93:36:bc:4b:6e:b5:b3:
         2f:b2:98:67:d2:84:bf:15
-----BEGIN CERTIFICATE-----
MIIFnDCCA4SgAwIBAgICAXMwDQYJKoZIhvcNAQELBQAwgYQxCzAJBgNVBAYTAkNI
MRAwDgYDVQQIEwdUaHVyZ2F1MRAwDgYDVQQHEwdLZWZpa29uMRMwEQYDVQQKEwpn
dWVuZ2VsLmNoMRYwFAYDVQQDEw1DQSBndWVuZ2VsLmNoMSQwIgYJKoZIhvcNAQkB
FhVwb3N0bWFzdGVyQGd1ZW5nZWwuY2gwHhcNMjAwMTAzMTAwODQ1WhcNMjEwMjA2
MTAwODQ1WjCBgDELMAkGA1UEBhMCQ0gxEDAOBgNVBAgTB1RodXJnYXUxEzARBgNV
BAoTCmd1ZW5nZWwuY2gxJDAiBgNVBAMTG2F1cm9yYS52aXJ0dWFsLmtydWVtZWwu
aG9tZTEkMCIGCSqGSIb3DQEJARYVcG9zdG1hc3RlckBndWVuZ2VsLmNoMIIBIjAN
BgkqhkiG9w0BAQEFAAOCAQ8AMIIBCgKCAQEA2pAh8LQDJ76w3Sm1qi3HKHlPTn+F
FT2o2Xza5RCNu2Ko0ty4lgg5MvtRooQoicKTc3IWufRmzd2ZbEhUI78780fIRr/h
hnZfT6gxN9sWgRxgjs8T7l5N1ZgbOkkGQitxNAwXu8jcl9uWiqQIo81izpAv3RHK
IQH4AUY77N6TKpwWqVypZpPlmqSdeUvkLIOrC50g8P/gDz4BGw9t9aF89S2p4PcV
Lq7A2KzxZVFn4Wk7UlrFkZsLzoERnd4TBtFOOV5KlCgwd5A58joHRxqAc3cVlPvL
CQE29LeNbykOpLbxtxKSodKOROBhVAAB1hEnSRfxcQWMTWtugEiePvtetQIDAQAB
o4IBGDCCARQwCQYDVR0TBAIwADAsBglghkgBhvhCAQ0EHxYdT3BlblNTTCBHZW5l
cmF0ZWQgQ2VydGlmaWNhdGUwHQYDVR0OBBYEFP4t/6xeapr6lqSgtwt+xyZvakKm
MIG5BgNVHSMEgbEwga6AFNaI8arBKwmMuFydzt9XOWImECCQoYGKpIGHMIGEMQsw
CQYDVQQGEwJDSDEQMA4GA1UECBMHVGh1cmdhdTEQMA4GA1UEBxMHS2VmaWtvbjET
MBEGA1UEChMKZ3VlbmdlbC5jaDEWMBQGA1UEAxMNQ0EgZ3VlbmdlbC5jaDEkMCIG
CSqGSIb3DQEJARYVcG9zdG1hc3RlckBndWVuZ2VsLmNoggkA5SU7pne9y/8wDQYJ
KoZIhvcNAQELBQADggIBANN0JvOyp9QGOb09u2J5nf992COfmARnoxMPBvW0BQ7V
AXfWzoVwvw378mYL4asENzjBQ+fXhBo4y5qR7Zf39OA5LSj8AY5SPqxZb+NCv9pq
ZjTAZcx/VfDzXrVYnRHaeeFp9rJD+3OBNHL+XXcIYSDHkGp38x5nw6rHZKR7Ja2J
MaO8r7PaQz7jKZ4wQ0oBLuTBZX68BKnc+QMfLCG4bJ5PQlJeyk3SH91Knsmz8KBH
dL3ky+0bD72NqhODf0Z68mGrXpjbalEPPasoES4X26SVcgNLPNCfI3er4IWOFpFb
a/aaage2aVI94ZeJll2cmVUCVhUp5xDaIv5BsWCXvwm3TQJUK4L+/8liYEtUHKVH
kcUK6kfBVz/kV/n9LnyXMLOPoZBZKkFsulfVPnQb2JGTMznhfzFOCaLLgM/BtQs0
p7nyyaFqw/gxvUZjcK1/s8/cBwYK8ZX9y/oC91aLlI8osweY754tGaIwnsi3bfNp
/GqyqmmKKLhyGDJRHB7CRItre+egOK5BgpvVdDMFfIvjKmBR/RrDZLenKxvnUQaK
hFu1PYLZCXLhUzT0Iss/P19giZEtL3FBaiwehnXKEc5kn4Ny2d6lhFD4GX4DcYAG
DLxAiI8LR1dGDdw9LgR521ZZ2jxKStnO8kHRW/Bd/nA/kza8S261sy+ymGfShL8V
-----END CERTIFICATE-----
