Certificate:
    Data:
        Version: 3 (0x2)
        Serial Number:
            6f:23:45:84:d5:91:54:d6:75:8b:23:0c:41:8f:2d:c5:5a:cd:8d:f0
        Signature Algorithm: sha256WithRSAEncryption
        Issuer: C=CH, ST=Thurgau, L=Kefikon, O=guengel.ch, CN=CA 2022/emailAddress=postmaster@guengel.ch
        Validity
            Not Before: Feb 11 13:53:43 2022 GMT
            Not After : Mar 18 13:53:43 2023 GMT
        Subject: C=CH, ST=Thurgau, O=guengel.ch, CN=aurora.virtual.kruemel.home/emailAddress=postmaster@guengel.ch
        Subject Public Key Info:
            Public Key Algorithm: rsaEncryption
                RSA Public-Key: (2048 bit)
                Modulus:
                    00:d6:db:1a:66:82:a3:39:78:75:52:91:10:f9:50:
                    94:d4:3c:b3:be:0a:37:bc:33:a8:15:b3:06:ba:fb:
                    d5:5a:a8:0d:3d:21:e6:ff:03:41:07:62:99:da:c4:
                    d1:06:7b:d6:70:da:97:a6:85:0f:40:c7:2d:83:1b:
                    c5:ad:c5:e4:3d:d1:6d:d7:33:47:48:18:3a:64:ec:
                    aa:81:ed:52:4b:38:9c:70:d0:7d:de:5e:62:5f:26:
                    2b:d7:b2:73:22:b0:0d:e5:c1:d0:6d:5b:9b:0a:c8:
                    1a:fe:81:9f:c0:a7:c2:00:dd:57:21:4f:76:79:45:
                    a0:bb:d3:44:c0:5b:7e:e3:8d:7e:61:4f:d9:2c:e0:
                    3c:89:29:1a:82:87:6e:8d:fa:a6:89:35:a0:9b:07:
                    98:5f:d7:82:b4:8f:2e:ae:c9:7c:5b:fe:98:ab:46:
                    5d:dd:f5:ff:42:f5:69:e8:82:6c:81:0d:bc:5f:58:
                    e0:44:dc:95:82:9e:9c:cb:08:b5:a1:cf:e7:0c:00:
                    82:46:8c:59:6c:e9:09:24:89:1c:62:9a:47:9c:02:
                    d8:d3:67:69:e5:6e:b5:1e:20:f6:fa:79:4d:4a:6b:
                    0e:8d:8e:a9:03:a6:44:64:73:ab:84:22:ce:40:6f:
                    53:0d:5f:2c:6d:2d:02:3b:6e:04:47:07:b1:9c:96:
                    67:59
                Exponent: 65537 (0x10001)
        X509v3 extensions:
            X509v3 Basic Constraints: critical
                CA:FALSE
            X509v3 Key Usage: 
                Digital Signature, Key Encipherment, Key Agreement
            X509v3 Subject Key Identifier: 
                F1:94:7C:38:1F:23:DE:65:9C:53:15:7C:A4:50:A8:37:8F:3B:C3:A8
            X509v3 Authority Key Identifier: 
                keyid:22:20:0D:51:40:61:42:BE:DD:BA:D9:C9:C1:77:B6:93:28:C3:99:EC
                DirName:/C=CH/ST=Thurgau/L=Kefikon/O=guengel.ch/CN=CA 2022/emailAddress=postmaster@guengel.ch
                serial:6D:29:90:54:E9:17:E9:C2:6A:E6:52:AD:84:4E:30:8E:6E:57:FB:1C

            Netscape Cert Type: 
                SSL Client, SSL Server
            X509v3 Extended Key Usage: 
                TLS Web Server Authentication, TLS Web Client Authentication
    Signature Algorithm: sha256WithRSAEncryption
         2f:b9:f9:10:cf:82:53:cb:1a:26:7b:ba:8e:05:1f:d1:5c:0c:
         5c:98:93:b9:67:8a:e2:ba:c8:ee:2f:ea:8e:6c:98:d4:d8:db:
         ba:8a:2b:7f:d4:3b:36:73:8c:dd:1f:8a:f5:10:27:89:22:76:
         d8:1e:a9:88:00:b1:34:f4:65:bf:1f:8d:a5:52:f4:0f:e2:0a:
         b7:f6:db:6d:d7:ae:16:40:c6:ae:0a:a7:53:8c:0d:65:a8:f1:
         ff:07:62:e2:40:95:0e:9e:13:92:31:39:4d:11:e6:04:08:2a:
         fe:05:06:83:77:fe:76:12:99:26:f7:bb:dd:6a:53:93:74:d0:
         b4:bb:9e:a9:75:16:47:4f:bf:75:a4:6d:e6:08:4e:0e:34:ae:
         38:21:53:4e:12:1a:17:6a:23:cb:f7:82:f1:44:84:80:02:8b:
         94:e6:df:53:be:07:55:28:2a:63:b8:74:38:58:2f:98:89:46:
         61:8a:87:de:e5:70:f8:85:98:d2:52:37:57:94:4e:ae:e7:19:
         0d:84:4c:ee:30:86:6d:08:17:6a:21:57:d3:e2:fa:1e:b5:e6:
         c6:10:41:c9:34:07:c8:d1:6d:19:9f:9f:ea:ad:44:32:45:b7:
         e3:b1:15:ae:40:51:3c:02:25:d7:62:97:42:e4:f9:75:4d:ad:
         64:29:bf:a0:6e:9c:05:10:8c:f8:4a:d3:89:69:51:3e:ac:fb:
         7f:af:82:44:98:9b:43:50:95:2c:fa:63:41:06:10:d2:d2:7b:
         18:dd:e6:bc:71:cb:52:06:eb:e5:6f:13:1f:6c:03:62:03:c0:
         17:b6:a4:4d:f7:ea:60:14:50:9b:fe:1b:ac:f2:11:9f:0b:62:
         a1:46:52:d3:8b:a5:9a:82:77:85:81:0e:fe:fb:ea:a6:6e:93:
         07:dd:eb:b8:4c:f6:7c:92:b5:7d:db:ef:22:b3:3d:b9:7c:44:
         9a:b4:7b:9a:3c:b4:57:3c:ce:bd:7a:bf:df:b1:0e:2b:73:be:
         0f:da:4b:7e:c8:9c:56:a7:e2:28:c8:f3:66:f1:9d:0f:50:5b:
         26:8c:b0:f6:e0:91:72:fe:ae:ee:2a:a5:d1:4c:c7:b6:a2:0d:
         ec:e9:a7:12:ad:96:c0:6a:c6:ec:4c:bb:31:d2:80:12:5d:ef:
         f4:df:03:9d:ed:bb:de:68:9e:c6:a5:d4:ed:0e:3e:94:72:1c:
         cd:bf:4e:46:22:5d:df:6e:00:85:30:86:ec:f6:a7:7c:ca:57:
         d5:e6:b6:45:0b:2b:dc:aa:3b:2e:fe:cc:76:9b:0c:28:47:d6:
         33:db:9b:59:84:47:2d:94:9b:1e:df:8e:ce:8b:42:96:59:4c:
         2d:c3:62:3f:90:ac:6c:85
-----BEGIN CERTIFICATE-----
MIIFvzCCA6egAwIBAgIUbyNFhNWRVNZ1iyMMQY8txVrNjfAwDQYJKoZIhvcNAQEL
BQAwfjELMAkGA1UEBhMCQ0gxEDAOBgNVBAgTB1RodXJnYXUxEDAOBgNVBAcTB0tl
Zmlrb24xEzARBgNVBAoTCmd1ZW5nZWwuY2gxEDAOBgNVBAMTB0NBIDIwMjIxJDAi
BgkqhkiG9w0BCQEWFXBvc3RtYXN0ZXJAZ3VlbmdlbC5jaDAeFw0yMjAyMTExMzUz
NDNaFw0yMzAzMTgxMzUzNDNaMIGAMQswCQYDVQQGEwJDSDEQMA4GA1UECBMHVGh1
cmdhdTETMBEGA1UEChMKZ3VlbmdlbC5jaDEkMCIGA1UEAxMbYXVyb3JhLnZpcnR1
YWwua3J1ZW1lbC5ob21lMSQwIgYJKoZIhvcNAQkBFhVwb3N0bWFzdGVyQGd1ZW5n
ZWwuY2gwggEiMA0GCSqGSIb3DQEBAQUAA4IBDwAwggEKAoIBAQDW2xpmgqM5eHVS
kRD5UJTUPLO+Cje8M6gVswa6+9VaqA09Ieb/A0EHYpnaxNEGe9Zw2pemhQ9Axy2D
G8WtxeQ90W3XM0dIGDpk7KqB7VJLOJxw0H3eXmJfJivXsnMisA3lwdBtW5sKyBr+
gZ/Ap8IA3VchT3Z5RaC700TAW37jjX5hT9ks4DyJKRqCh26N+qaJNaCbB5hf14K0
jy6uyXxb/pirRl3d9f9C9WnogmyBDbxfWOBE3JWCnpzLCLWhz+cMAIJGjFls6Qkk
iRximkecAtjTZ2nlbrUeIPb6eU1Kaw6NjqkDpkRkc6uEIs5Ab1MNXyxtLQI7bgRH
B7GclmdZAgMBAAGjggEwMIIBLDAMBgNVHRMBAf8EAjAAMAsGA1UdDwQEAwIDqDAd
BgNVHQ4EFgQU8ZR8OB8j3mWcUxV8pFCoN487w6gwgb0GA1UdIwSBtTCBsoAUIiAN
UUBhQr7dutnJwXe2kyjDmeyhgYOkgYAwfjELMAkGA1UEBhMCQ0gxEDAOBgNVBAgT
B1RodXJnYXUxEDAOBgNVBAcTB0tlZmlrb24xEzARBgNVBAoTCmd1ZW5nZWwuY2gx
EDAOBgNVBAMTB0NBIDIwMjIxJDAiBgkqhkiG9w0BCQEWFXBvc3RtYXN0ZXJAZ3Vl
bmdlbC5jaIIUbSmQVOkX6cJq5lKthE4wjm5X+xwwEQYJYIZIAYb4QgEBBAQDAgbA
MB0GA1UdJQQWMBQGCCsGAQUFBwMBBggrBgEFBQcDAjANBgkqhkiG9w0BAQsFAAOC
AgEAL7n5EM+CU8saJnu6jgUf0VwMXJiTuWeK4rrI7i/qjmyY1Njbuoorf9Q7NnOM
3R+K9RAniSJ22B6piACxNPRlvx+NpVL0D+IKt/bbbdeuFkDGrgqnU4wNZajx/wdi
4kCVDp4TkjE5TRHmBAgq/gUGg3f+dhKZJve73WpTk3TQtLueqXUWR0+/daRt5ghO
DjSuOCFTThIaF2ojy/eC8USEgAKLlObfU74HVSgqY7h0OFgvmIlGYYqH3uVw+IWY
0lI3V5ROrucZDYRM7jCGbQgXaiFX0+L6HrXmxhBByTQHyNFtGZ+f6q1EMkW347EV
rkBRPAIl12KXQuT5dU2tZCm/oG6cBRCM+ErTiWlRPqz7f6+CRJibQ1CVLPpjQQYQ
0tJ7GN3mvHHLUgbr5W8TH2wDYgPAF7akTffqYBRQm/4brPIRnwtioUZS04ulmoJ3
hYEO/vvqpm6TB93ruEz2fJK1fdvvIrM9uXxEmrR7mjy0VzzOvXq/37EOK3O+D9pL
fsicVqfiKMjzZvGdD1BbJoyw9uCRcv6u7iql0UzHtqIN7OmnEq2WwGrG7Ey7MdKA
El3v9N8Dne273miexqXU7Q4+lHIczb9ORiJd324AhTCG7PanfMpX1ea2RQsr3Ko7
Lv7MdpsMKEfWM9ubWYRHLZSbHt+OzotClllMLcNiP5CsbIU=
-----END CERTIFICATE-----
