Certificate:
    Data:
        Version: 3 (0x2)
        Serial Number: 292 (0x124)
    Signature Algorithm: sha256WithRSAEncryption
        Issuer: C=CH, ST=Thurgau, L=Kefikon, O=guengel.ch, CN=CA guengel.ch/emailAddress=postmaster@guengel.ch
        Validity
            Not Before: Jan  6 18:02:54 2018 GMT
            Not After : Feb 10 18:02:54 2019 GMT
        Subject: C=CH, ST=Thurgau, O=guengel.ch, CN=aurora.virtual.kruemel.home/emailAddress=postmaster@guengel.ch
        Subject Public Key Info:
            Public Key Algorithm: rsaEncryption
                Public-Key: (2048 bit)
                Modulus:
                    00:da:90:21:f0:b4:03:27:be:b0:dd:29:b5:aa:2d:
                    c7:28:79:4f:4e:7f:85:15:3d:a8:d9:7c:da:e5:10:
                    8d:bb:62:a8:d2:dc:b8:96:08:39:32:fb:51:a2:84:
                    28:89:c2:93:73:72:16:b9:f4:66:cd:dd:99:6c:48:
                    54:23:bf:3b:f3:47:c8:46:bf:e1:86:76:5f:4f:a8:
                    31:37:db:16:81:1c:60:8e:cf:13:ee:5e:4d:d5:98:
                    1b:3a:49:06:42:2b:71:34:0c:17:bb:c8:dc:97:db:
                    96:8a:a4:08:a3:cd:62:ce:90:2f:dd:11:ca:21:01:
                    f8:01:46:3b:ec:de:93:2a:9c:16:a9:5c:a9:66:93:
                    e5:9a:a4:9d:79:4b:e4:2c:83:ab:0b:9d:20:f0:ff:
                    e0:0f:3e:01:1b:0f:6d:f5:a1:7c:f5:2d:a9:e0:f7:
                    15:2e:ae:c0:d8:ac:f1:65:51:67:e1:69:3b:52:5a:
                    c5:91:9b:0b:ce:81:11:9d:de:13:06:d1:4e:39:5e:
                    4a:94:28:30:77:90:39:f2:3a:07:47:1a:80:73:77:
                    15:94:fb:cb:09:01:36:f4:b7:8d:6f:29:0e:a4:b6:
                    f1:b7:12:92:a1:d2:8e:44:e0:61:54:00:01:d6:11:
                    27:49:17:f1:71:05:8c:4d:6b:6e:80:48:9e:3e:fb:
                    5e:b5
                Exponent: 65537 (0x10001)
        X509v3 extensions:
            X509v3 Basic Constraints: 
                CA:FALSE
            Netscape Comment: 
                OpenSSL Generated Certificate
            X509v3 Subject Key Identifier: 
                FE:2D:FF:AC:5E:6A:9A:FA:96:A4:A0:B7:0B:7E:C7:26:6F:6A:42:A6
            X509v3 Authority Key Identifier: 
                keyid:D6:88:F1:AA:C1:2B:09:8C:B8:5C:9D:CE:DF:57:39:62:26:10:20:90
                DirName:/C=CH/ST=Thurgau/L=Kefikon/O=guengel.ch/CN=CA guengel.ch/emailAddress=postmaster@guengel.ch
                serial:E5:25:3B:A6:77:BD:CB:FF

    Signature Algorithm: sha256WithRSAEncryption
         7e:aa:41:19:b0:64:df:27:d9:4a:31:35:be:0e:b2:84:fa:21:
         ff:81:62:8a:c8:97:9c:43:fc:64:97:11:6a:80:63:cd:af:b4:
         44:b2:6c:8d:bf:9e:51:ca:7a:d8:91:3a:88:57:25:a8:94:70:
         b2:74:7d:94:12:86:75:49:14:84:b2:f6:1c:2e:35:8e:c3:1b:
         d4:7e:65:6f:85:5f:9b:2d:11:1e:29:43:b4:f1:83:c5:0e:fb:
         55:bb:1b:da:4f:ac:1b:48:30:fc:a2:83:46:f2:1b:58:37:91:
         43:41:26:9a:f5:e7:00:1b:af:b8:eb:de:06:3c:4c:af:ab:d0:
         64:f9:d8:a9:ea:45:51:07:b6:58:76:d8:78:a8:5b:09:ca:a8:
         75:3e:84:40:68:ed:91:b6:58:58:d1:76:ad:3c:4b:b9:a8:a2:
         2c:17:d3:8e:ff:6f:ec:47:77:1b:47:e7:46:4f:6c:af:24:e1:
         49:b9:17:f5:06:60:78:0a:99:83:df:71:f3:a7:17:40:c5:81:
         17:fc:f8:ed:84:e0:56:f5:d5:33:af:c9:8c:19:2d:bf:be:ce:
         3c:07:a2:6a:36:ef:24:2b:bd:35:44:b2:e1:e2:3b:5a:35:a1:
         92:db:9e:04:1a:fc:d7:74:2e:41:53:55:b5:5b:03:2c:b7:34:
         ea:59:c1:52:66:61:a5:ea:69:cc:ff:cd:f2:e8:48:2c:f9:b2:
         ee:80:79:8b:1c:b6:77:88:5f:af:c2:f6:63:a6:af:95:ac:5b:
         55:dd:2c:83:71:a6:8c:5a:c1:db:91:1c:cf:58:09:01:57:c0:
         35:da:ad:8f:c4:ed:0c:d2:d1:4c:24:94:7c:f5:1a:dc:51:d0:
         04:ba:25:38:75:04:ce:50:3d:ac:03:99:c8:d1:95:93:c9:bd:
         c2:25:a1:6b:e6:66:c8:fd:47:f2:00:4b:eb:0c:ef:80:fe:c8:
         70:ad:85:73:b7:99:25:1c:da:cf:53:64:cc:7b:86:95:10:b6:
         77:54:02:3d:37:3e:d9:f6:ff:af:b2:37:2c:e5:cc:6c:76:2b:
         9d:7b:26:21:5d:70:63:c0:5d:7d:7e:15:84:87:f3:61:7b:66:
         df:e3:70:b8:6c:7a:5c:ef:61:ac:43:bd:f9:6f:a3:00:4e:7a:
         d7:d5:06:ea:59:b9:68:0a:c4:37:41:cc:26:fc:a8:f4:44:9e:
         11:67:9f:d0:03:2d:87:0c:db:6c:b3:83:9b:c5:d5:d6:d0:56:
         4e:24:42:58:12:5a:94:c1:a4:d2:d9:f8:50:b7:c8:d9:a0:19:
         ac:63:12:8e:ea:82:9f:c6:01:9d:6d:d3:1f:46:e2:74:a4:6f:
         83:19:7b:c4:eb:96:e4:c7
-----BEGIN CERTIFICATE-----
MIIFnDCCA4SgAwIBAgICASQwDQYJKoZIhvcNAQELBQAwgYQxCzAJBgNVBAYTAkNI
MRAwDgYDVQQIEwdUaHVyZ2F1MRAwDgYDVQQHEwdLZWZpa29uMRMwEQYDVQQKEwpn
dWVuZ2VsLmNoMRYwFAYDVQQDEw1DQSBndWVuZ2VsLmNoMSQwIgYJKoZIhvcNAQkB
FhVwb3N0bWFzdGVyQGd1ZW5nZWwuY2gwHhcNMTgwMTA2MTgwMjU0WhcNMTkwMjEw
MTgwMjU0WjCBgDELMAkGA1UEBhMCQ0gxEDAOBgNVBAgTB1RodXJnYXUxEzARBgNV
BAoTCmd1ZW5nZWwuY2gxJDAiBgNVBAMTG2F1cm9yYS52aXJ0dWFsLmtydWVtZWwu
aG9tZTEkMCIGCSqGSIb3DQEJARYVcG9zdG1hc3RlckBndWVuZ2VsLmNoMIIBIjAN
BgkqhkiG9w0BAQEFAAOCAQ8AMIIBCgKCAQEA2pAh8LQDJ76w3Sm1qi3HKHlPTn+F
FT2o2Xza5RCNu2Ko0ty4lgg5MvtRooQoicKTc3IWufRmzd2ZbEhUI78780fIRr/h
hnZfT6gxN9sWgRxgjs8T7l5N1ZgbOkkGQitxNAwXu8jcl9uWiqQIo81izpAv3RHK
IQH4AUY77N6TKpwWqVypZpPlmqSdeUvkLIOrC50g8P/gDz4BGw9t9aF89S2p4PcV
Lq7A2KzxZVFn4Wk7UlrFkZsLzoERnd4TBtFOOV5KlCgwd5A58joHRxqAc3cVlPvL
CQE29LeNbykOpLbxtxKSodKOROBhVAAB1hEnSRfxcQWMTWtugEiePvtetQIDAQAB
o4IBGDCCARQwCQYDVR0TBAIwADAsBglghkgBhvhCAQ0EHxYdT3BlblNTTCBHZW5l
cmF0ZWQgQ2VydGlmaWNhdGUwHQYDVR0OBBYEFP4t/6xeapr6lqSgtwt+xyZvakKm
MIG5BgNVHSMEgbEwga6AFNaI8arBKwmMuFydzt9XOWImECCQoYGKpIGHMIGEMQsw
CQYDVQQGEwJDSDEQMA4GA1UECBMHVGh1cmdhdTEQMA4GA1UEBxMHS2VmaWtvbjET
MBEGA1UEChMKZ3VlbmdlbC5jaDEWMBQGA1UEAxMNQ0EgZ3VlbmdlbC5jaDEkMCIG
CSqGSIb3DQEJARYVcG9zdG1hc3RlckBndWVuZ2VsLmNoggkA5SU7pne9y/8wDQYJ
KoZIhvcNAQELBQADggIBAH6qQRmwZN8n2UoxNb4OsoT6If+BYorIl5xD/GSXEWqA
Y82vtESybI2/nlHKetiROohXJaiUcLJ0fZQShnVJFISy9hwuNY7DG9R+ZW+FX5st
ER4pQ7Txg8UO+1W7G9pPrBtIMPyig0byG1g3kUNBJpr15wAbr7jr3gY8TK+r0GT5
2KnqRVEHtlh22HioWwnKqHU+hEBo7ZG2WFjRdq08S7mooiwX047/b+xHdxtH50ZP
bK8k4Um5F/UGYHgKmYPfcfOnF0DFgRf8+O2E4Fb11TOvyYwZLb++zjwHomo27yQr
vTVEsuHiO1o1oZLbngQa/Nd0LkFTVbVbAyy3NOpZwVJmYaXqacz/zfLoSCz5su6A
eYsctneIX6/C9mOmr5WsW1XdLINxpoxawduRHM9YCQFXwDXarY/E7QzS0UwklHz1
GtxR0AS6JTh1BM5QPawDmcjRlZPJvcIloWvmZsj9R/IAS+sM74D+yHCthXO3mSUc
2s9TZMx7hpUQtndUAj03Ptn2/6+yNyzlzGx2K517JiFdcGPAXX1+FYSH82F7Zt/j
cLhselzvYaxDvflvowBOetfVBupZuWgKxDdBzCb8qPREnhFnn9ADLYcM22yzg5vF
1dbQVk4kQlgSWpTBpNLZ+FC3yNmgGaxjEo7qgp/GAZ1t0x9G4nSkb4MZe8TrluTH
-----END CERTIFICATE-----
