Certificate:
    Data:
        Version: 3 (0x2)
        Serial Number:
            76:ae:7e:8f:ee:77:11:d7:77:48:cd:30:d2:47:cb:66:da:a1:63:29
        Signature Algorithm: sha256WithRSAEncryption
        Issuer: C=CH, ST=Thurgau, L=Kefikon, O=guengel.ch, CN=CA 2022/emailAddress=postmaster@guengel.ch
        Validity
            Not Before: Feb 28 06:37:06 2023 GMT
            Not After : Apr  3 06:37:06 2024 GMT
        Subject: C=CH, ST=Thurgau, O=guengel.ch, CN=aurora.virtual.kruemel.home/emailAddress=postmaster@guengel.ch
        Subject Public Key Info:
            Public Key Algorithm: rsaEncryption
                RSA Public-Key: (2048 bit)
                Modulus:
                    00:d6:db:1a:66:82:a3:39:78:75:52:91:10:f9:50:
                    94:d4:3c:b3:be:0a:37:bc:33:a8:15:b3:06:ba:fb:
                    d5:5a:a8:0d:3d:21:e6:ff:03:41:07:62:99:da:c4:
                    d1:06:7b:d6:70:da:97:a6:85:0f:40:c7:2d:83:1b:
                    c5:ad:c5:e4:3d:d1:6d:d7:33:47:48:18:3a:64:ec:
                    aa:81:ed:52:4b:38:9c:70:d0:7d:de:5e:62:5f:26:
                    2b:d7:b2:73:22:b0:0d:e5:c1:d0:6d:5b:9b:0a:c8:
                    1a:fe:81:9f:c0:a7:c2:00:dd:57:21:4f:76:79:45:
                    a0:bb:d3:44:c0:5b:7e:e3:8d:7e:61:4f:d9:2c:e0:
                    3c:89:29:1a:82:87:6e:8d:fa:a6:89:35:a0:9b:07:
                    98:5f:d7:82:b4:8f:2e:ae:c9:7c:5b:fe:98:ab:46:
                    5d:dd:f5:ff:42:f5:69:e8:82:6c:81:0d:bc:5f:58:
                    e0:44:dc:95:82:9e:9c:cb:08:b5:a1:cf:e7:0c:00:
                    82:46:8c:59:6c:e9:09:24:89:1c:62:9a:47:9c:02:
                    d8:d3:67:69:e5:6e:b5:1e:20:f6:fa:79:4d:4a:6b:
                    0e:8d:8e:a9:03:a6:44:64:73:ab:84:22:ce:40:6f:
                    53:0d:5f:2c:6d:2d:02:3b:6e:04:47:07:b1:9c:96:
                    67:59
                Exponent: 65537 (0x10001)
        X509v3 extensions:
            X509v3 Basic Constraints: critical
                CA:FALSE
            X509v3 Key Usage: 
                Digital Signature, Key Encipherment, Key Agreement
            X509v3 Subject Key Identifier: 
                F1:94:7C:38:1F:23:DE:65:9C:53:15:7C:A4:50:A8:37:8F:3B:C3:A8
            X509v3 Authority Key Identifier: 
                keyid:22:20:0D:51:40:61:42:BE:DD:BA:D9:C9:C1:77:B6:93:28:C3:99:EC
                DirName:/C=CH/ST=Thurgau/L=Kefikon/O=guengel.ch/CN=CA 2022/emailAddress=postmaster@guengel.ch
                serial:6D:29:90:54:E9:17:E9:C2:6A:E6:52:AD:84:4E:30:8E:6E:57:FB:1C

            Netscape Cert Type: 
                SSL Client, SSL Server
            X509v3 Extended Key Usage: 
                TLS Web Server Authentication, TLS Web Client Authentication
    Signature Algorithm: sha256WithRSAEncryption
         60:f0:53:ea:9d:87:64:cb:ed:3c:e2:4f:3b:61:8a:0b:ce:be:
         26:f7:a1:ce:7e:70:57:b7:d4:2a:5d:36:3d:f0:69:44:02:84:
         a7:49:95:64:15:c1:60:ec:17:97:f6:db:ab:89:25:48:d6:1e:
         a3:66:48:a7:fd:32:65:f3:85:19:42:d8:c0:9c:ad:32:6a:15:
         70:74:45:2a:e6:c8:a5:5a:a7:47:9a:c2:d6:03:98:f1:05:21:
         67:6c:81:c6:ab:30:89:19:f9:3e:b4:59:b8:e1:7f:e2:ae:e7:
         a7:86:83:f7:31:45:dc:ed:20:a5:26:f7:51:db:c5:da:70:a0:
         36:73:95:60:6c:fb:7c:db:73:fe:ba:a1:a5:79:43:11:73:f7:
         a3:fb:84:8e:c3:4b:b9:68:bd:23:f7:aa:b0:7e:48:29:7e:f0:
         4c:90:f7:fb:30:37:03:b5:83:ff:7b:6e:3b:de:59:de:67:c5:
         f1:3a:c0:94:dc:15:b8:c1:b1:39:8e:ac:51:a5:b1:ad:2f:3f:
         4a:70:08:d2:05:88:64:61:2d:86:35:b7:16:03:4d:68:35:2a:
         84:97:ee:3e:85:6d:4f:cf:45:8e:1f:f8:e0:e5:57:58:d0:c0:
         2a:16:72:cd:12:a1:4c:48:73:da:f3:79:b1:33:04:7c:75:52:
         a6:e2:f8:a9:6c:7b:55:66:7d:f5:4c:0d:09:34:db:05:d9:a6:
         91:d5:a5:76:28:5b:40:ab:48:32:c7:bc:4d:81:f7:72:a0:27:
         c2:8e:48:85:b3:88:0b:75:3a:99:36:c8:31:04:16:70:d7:cf:
         72:32:c0:29:80:6d:94:40:99:a0:31:35:b0:ab:43:67:cd:93:
         4a:d6:44:7a:6f:71:11:20:d1:23:16:89:80:a8:bc:b4:dd:4d:
         29:b0:b8:1b:e4:45:36:ce:cc:61:d3:d7:cf:cb:3a:c8:16:5a:
         0e:be:3e:b2:19:97:0f:61:73:41:ac:4d:0b:70:60:e7:f4:28:
         1c:4c:72:3c:2c:c6:ef:d7:a0:1c:e2:c5:c3:9a:56:fe:f8:2b:
         14:45:0b:9a:b3:4c:b2:31:3a:08:3e:dd:4e:db:46:b0:9a:07:
         0e:99:b4:0f:c4:bb:8b:d8:b2:c3:81:35:98:2c:98:1a:ae:c6:
         2c:ee:62:01:54:3b:fa:9b:c7:d1:ea:2b:34:8c:34:2a:4a:48:
         a6:93:74:dd:b7:23:05:6e:0e:77:54:27:ca:46:56:9d:ca:d5:
         4a:71:ad:c4:12:77:93:6d:b8:5e:04:bb:18:2c:0b:af:17:6e:
         7c:51:84:16:14:3e:0a:4e:9f:b2:f9:e5:b7:69:5e:6b:24:1b:
         11:7c:23:72:0b:13:04:d6
-----BEGIN CERTIFICATE-----
MIIFvzCCA6egAwIBAgIUdq5+j+53Edd3SM0w0kfLZtqhYykwDQYJKoZIhvcNAQEL
BQAwfjELMAkGA1UEBhMCQ0gxEDAOBgNVBAgTB1RodXJnYXUxEDAOBgNVBAcTB0tl
Zmlrb24xEzARBgNVBAoTCmd1ZW5nZWwuY2gxEDAOBgNVBAMTB0NBIDIwMjIxJDAi
BgkqhkiG9w0BCQEWFXBvc3RtYXN0ZXJAZ3VlbmdlbC5jaDAeFw0yMzAyMjgwNjM3
MDZaFw0yNDA0MDMwNjM3MDZaMIGAMQswCQYDVQQGEwJDSDEQMA4GA1UECBMHVGh1
cmdhdTETMBEGA1UEChMKZ3VlbmdlbC5jaDEkMCIGA1UEAxMbYXVyb3JhLnZpcnR1
YWwua3J1ZW1lbC5ob21lMSQwIgYJKoZIhvcNAQkBFhVwb3N0bWFzdGVyQGd1ZW5n
ZWwuY2gwggEiMA0GCSqGSIb3DQEBAQUAA4IBDwAwggEKAoIBAQDW2xpmgqM5eHVS
kRD5UJTUPLO+Cje8M6gVswa6+9VaqA09Ieb/A0EHYpnaxNEGe9Zw2pemhQ9Axy2D
G8WtxeQ90W3XM0dIGDpk7KqB7VJLOJxw0H3eXmJfJivXsnMisA3lwdBtW5sKyBr+
gZ/Ap8IA3VchT3Z5RaC700TAW37jjX5hT9ks4DyJKRqCh26N+qaJNaCbB5hf14K0
jy6uyXxb/pirRl3d9f9C9WnogmyBDbxfWOBE3JWCnpzLCLWhz+cMAIJGjFls6Qkk
iRximkecAtjTZ2nlbrUeIPb6eU1Kaw6NjqkDpkRkc6uEIs5Ab1MNXyxtLQI7bgRH
B7GclmdZAgMBAAGjggEwMIIBLDAMBgNVHRMBAf8EAjAAMAsGA1UdDwQEAwIDqDAd
BgNVHQ4EFgQU8ZR8OB8j3mWcUxV8pFCoN487w6gwgb0GA1UdIwSBtTCBsoAUIiAN
UUBhQr7dutnJwXe2kyjDmeyhgYOkgYAwfjELMAkGA1UEBhMCQ0gxEDAOBgNVBAgT
B1RodXJnYXUxEDAOBgNVBAcTB0tlZmlrb24xEzARBgNVBAoTCmd1ZW5nZWwuY2gx
EDAOBgNVBAMTB0NBIDIwMjIxJDAiBgkqhkiG9w0BCQEWFXBvc3RtYXN0ZXJAZ3Vl
bmdlbC5jaIIUbSmQVOkX6cJq5lKthE4wjm5X+xwwEQYJYIZIAYb4QgEBBAQDAgbA
MB0GA1UdJQQWMBQGCCsGAQUFBwMBBggrBgEFBQcDAjANBgkqhkiG9w0BAQsFAAOC
AgEAYPBT6p2HZMvtPOJPO2GKC86+Jvehzn5wV7fUKl02PfBpRAKEp0mVZBXBYOwX
l/bbq4klSNYeo2ZIp/0yZfOFGULYwJytMmoVcHRFKubIpVqnR5rC1gOY8QUhZ2yB
xqswiRn5PrRZuOF/4q7np4aD9zFF3O0gpSb3UdvF2nCgNnOVYGz7fNtz/rqhpXlD
EXP3o/uEjsNLuWi9I/eqsH5IKX7wTJD3+zA3A7WD/3tuO95Z3mfF8TrAlNwVuMGx
OY6sUaWxrS8/SnAI0gWIZGEthjW3FgNNaDUqhJfuPoVtT89Fjh/44OVXWNDAKhZy
zRKhTEhz2vN5sTMEfHVSpuL4qWx7VWZ99UwNCTTbBdmmkdWldihbQKtIMse8TYH3
cqAnwo5IhbOIC3U6mTbIMQQWcNfPcjLAKYBtlECZoDE1sKtDZ82TStZEem9xESDR
IxaJgKi8tN1NKbC4G+RFNs7MYdPXz8s6yBZaDr4+shmXD2FzQaxNC3Bg5/QoHExy
PCzG79egHOLFw5pW/vgrFEULmrNMsjE6CD7dTttGsJoHDpm0D8S7i9iyw4E1mCyY
Gq7GLO5iAVQ7+pvH0eorNIw0KkpIppN03bcjBW4Od1QnykZWncrVSnGtxBJ3k224
XgS7GCwLrxdufFGEFhQ+Ck6fsvnlt2leayQbEXwjcgsTBNY=
-----END CERTIFICATE-----
