Certificate:
    Data:
        Version: 3 (0x2)
        Serial Number: 333 (0x14d)
    Signature Algorithm: sha256WithRSAEncryption
        Issuer: C=CH, ST=Thurgau, L=Kefikon, O=guengel.ch, CN=CA guengel.ch/emailAddress=postmaster@guengel.ch
        Validity
            Not Before: Dec 29 14:39:57 2018 GMT
            Not After : Feb  2 14:39:57 2020 GMT
        Subject: C=CH, ST=Thurgau, O=guengel.ch, CN=aurora.virtual.kruemel.home/emailAddress=postmaster@guengel.ch
        Subject Public Key Info:
            Public Key Algorithm: rsaEncryption
                Public-Key: (2048 bit)
                Modulus:
                    00:da:90:21:f0:b4:03:27:be:b0:dd:29:b5:aa:2d:
                    c7:28:79:4f:4e:7f:85:15:3d:a8:d9:7c:da:e5:10:
                    8d:bb:62:a8:d2:dc:b8:96:08:39:32:fb:51:a2:84:
                    28:89:c2:93:73:72:16:b9:f4:66:cd:dd:99:6c:48:
                    54:23:bf:3b:f3:47:c8:46:bf:e1:86:76:5f:4f:a8:
                    31:37:db:16:81:1c:60:8e:cf:13:ee:5e:4d:d5:98:
                    1b:3a:49:06:42:2b:71:34:0c:17:bb:c8:dc:97:db:
                    96:8a:a4:08:a3:cd:62:ce:90:2f:dd:11:ca:21:01:
                    f8:01:46:3b:ec:de:93:2a:9c:16:a9:5c:a9:66:93:
                    e5:9a:a4:9d:79:4b:e4:2c:83:ab:0b:9d:20:f0:ff:
                    e0:0f:3e:01:1b:0f:6d:f5:a1:7c:f5:2d:a9:e0:f7:
                    15:2e:ae:c0:d8:ac:f1:65:51:67:e1:69:3b:52:5a:
                    c5:91:9b:0b:ce:81:11:9d:de:13:06:d1:4e:39:5e:
                    4a:94:28:30:77:90:39:f2:3a:07:47:1a:80:73:77:
                    15:94:fb:cb:09:01:36:f4:b7:8d:6f:29:0e:a4:b6:
                    f1:b7:12:92:a1:d2:8e:44:e0:61:54:00:01:d6:11:
                    27:49:17:f1:71:05:8c:4d:6b:6e:80:48:9e:3e:fb:
                    5e:b5
                Exponent: 65537 (0x10001)
        X509v3 extensions:
            X509v3 Basic Constraints: 
                CA:FALSE
            Netscape Comment: 
                OpenSSL Generated Certificate
            X509v3 Subject Key Identifier: 
                FE:2D:FF:AC:5E:6A:9A:FA:96:A4:A0:B7:0B:7E:C7:26:6F:6A:42:A6
            X509v3 Authority Key Identifier: 
                keyid:D6:88:F1:AA:C1:2B:09:8C:B8:5C:9D:CE:DF:57:39:62:26:10:20:90
                DirName:/C=CH/ST=Thurgau/L=Kefikon/O=guengel.ch/CN=CA guengel.ch/emailAddress=postmaster@guengel.ch
                serial:E5:25:3B:A6:77:BD:CB:FF

    Signature Algorithm: sha256WithRSAEncryption
         39:1a:76:e3:aa:6c:e0:28:84:26:7e:86:5b:81:34:27:19:c4:
         d5:4a:29:b4:6d:b0:13:47:b2:29:33:7a:a1:1f:5d:5d:06:25:
         e5:b1:ef:10:09:ba:9d:12:ad:af:6b:77:69:ae:9b:fc:3a:f2:
         48:e8:c0:44:f4:14:bc:aa:73:cf:df:f1:db:f6:98:88:e5:2a:
         6c:b7:15:7a:ce:96:40:15:3f:55:c8:07:55:e8:40:76:58:c6:
         5d:b6:8a:11:b9:17:38:df:95:d5:74:82:8b:9e:cb:57:65:05:
         00:7b:cd:87:c7:21:a8:9e:eb:7f:cf:0a:93:c8:8d:a8:97:57:
         ad:4d:6b:4b:fe:31:df:79:bb:cd:91:10:28:52:42:79:95:96:
         12:9e:09:d6:cb:77:52:f7:1c:c8:96:60:f8:66:3c:65:66:9c:
         4c:eb:f4:e9:79:e9:dd:75:f9:7f:c1:45:a1:3e:e2:39:68:87:
         d8:18:e8:9b:fa:0b:c3:69:7f:95:68:72:ed:31:e5:72:1d:5d:
         71:11:30:9a:d8:83:a6:98:68:42:40:80:27:7c:b1:54:05:10:
         c4:03:54:17:c5:d8:b2:2e:d7:64:08:f4:b3:6f:4c:5b:87:6c:
         7c:65:0d:3e:7e:b8:15:36:b9:f1:f0:63:52:29:95:6e:1e:b4:
         a5:b4:6d:8d:38:06:44:33:ec:ee:e5:0a:33:15:33:f4:5e:07:
         e0:42:43:b9:0f:e5:89:d6:04:0d:90:aa:a2:dd:93:c2:0a:2c:
         25:92:9c:6a:a4:f8:64:28:e5:30:7c:bb:13:06:6d:b1:16:4a:
         25:97:4d:ce:f5:c3:17:4d:13:e8:d3:8d:b8:84:1f:0e:36:91:
         7f:3e:7a:68:82:d8:d2:a7:1c:ce:ea:e6:9e:6d:29:63:fe:58:
         26:c1:60:57:54:59:c9:c0:5f:e0:4a:e7:26:1d:b3:af:f8:d3:
         ae:5a:08:28:0b:8e:90:4e:14:9a:e0:d9:ba:c6:08:63:c2:1b:
         ab:7a:93:2f:8d:b5:6b:47:88:f3:f8:b9:db:96:b7:e0:81:2c:
         1c:13:eb:c2:44:9b:52:ba:80:18:8b:f7:3b:b4:e9:3c:63:eb:
         b0:c4:54:44:62:9d:97:74:be:2f:10:f7:78:a2:5a:d6:61:5c:
         ca:b3:01:ad:b3:2d:1a:32:1b:b3:19:8d:85:53:24:fb:d4:22:
         da:ef:83:90:72:47:e5:90:cd:bc:2a:ae:96:3d:d7:66:2f:00:
         b7:9f:39:3b:f9:20:46:93:ca:81:f2:01:c5:d1:d9:d6:ac:ba:
         f8:c7:36:fb:dd:b8:3f:88:3f:45:82:a4:ab:5d:d6:fb:cd:8b:
         2a:de:10:1b:68:f0:05:ea
-----BEGIN CERTIFICATE-----
MIIFnDCCA4SgAwIBAgICAU0wDQYJKoZIhvcNAQELBQAwgYQxCzAJBgNVBAYTAkNI
MRAwDgYDVQQIEwdUaHVyZ2F1MRAwDgYDVQQHEwdLZWZpa29uMRMwEQYDVQQKEwpn
dWVuZ2VsLmNoMRYwFAYDVQQDEw1DQSBndWVuZ2VsLmNoMSQwIgYJKoZIhvcNAQkB
FhVwb3N0bWFzdGVyQGd1ZW5nZWwuY2gwHhcNMTgxMjI5MTQzOTU3WhcNMjAwMjAy
MTQzOTU3WjCBgDELMAkGA1UEBhMCQ0gxEDAOBgNVBAgTB1RodXJnYXUxEzARBgNV
BAoTCmd1ZW5nZWwuY2gxJDAiBgNVBAMTG2F1cm9yYS52aXJ0dWFsLmtydWVtZWwu
aG9tZTEkMCIGCSqGSIb3DQEJARYVcG9zdG1hc3RlckBndWVuZ2VsLmNoMIIBIjAN
BgkqhkiG9w0BAQEFAAOCAQ8AMIIBCgKCAQEA2pAh8LQDJ76w3Sm1qi3HKHlPTn+F
FT2o2Xza5RCNu2Ko0ty4lgg5MvtRooQoicKTc3IWufRmzd2ZbEhUI78780fIRr/h
hnZfT6gxN9sWgRxgjs8T7l5N1ZgbOkkGQitxNAwXu8jcl9uWiqQIo81izpAv3RHK
IQH4AUY77N6TKpwWqVypZpPlmqSdeUvkLIOrC50g8P/gDz4BGw9t9aF89S2p4PcV
Lq7A2KzxZVFn4Wk7UlrFkZsLzoERnd4TBtFOOV5KlCgwd5A58joHRxqAc3cVlPvL
CQE29LeNbykOpLbxtxKSodKOROBhVAAB1hEnSRfxcQWMTWtugEiePvtetQIDAQAB
o4IBGDCCARQwCQYDVR0TBAIwADAsBglghkgBhvhCAQ0EHxYdT3BlblNTTCBHZW5l
cmF0ZWQgQ2VydGlmaWNhdGUwHQYDVR0OBBYEFP4t/6xeapr6lqSgtwt+xyZvakKm
MIG5BgNVHSMEgbEwga6AFNaI8arBKwmMuFydzt9XOWImECCQoYGKpIGHMIGEMQsw
CQYDVQQGEwJDSDEQMA4GA1UECBMHVGh1cmdhdTEQMA4GA1UEBxMHS2VmaWtvbjET
MBEGA1UEChMKZ3VlbmdlbC5jaDEWMBQGA1UEAxMNQ0EgZ3VlbmdlbC5jaDEkMCIG
CSqGSIb3DQEJARYVcG9zdG1hc3RlckBndWVuZ2VsLmNoggkA5SU7pne9y/8wDQYJ
KoZIhvcNAQELBQADggIBADkaduOqbOAohCZ+hluBNCcZxNVKKbRtsBNHsikzeqEf
XV0GJeWx7xAJup0Sra9rd2mum/w68kjowET0FLyqc8/f8dv2mIjlKmy3FXrOlkAV
P1XIB1XoQHZYxl22ihG5FzjfldV0gouey1dlBQB7zYfHIaie63/PCpPIjaiXV61N
a0v+Md95u82REChSQnmVlhKeCdbLd1L3HMiWYPhmPGVmnEzr9Ol56d11+X/BRaE+
4jloh9gY6Jv6C8Npf5Vocu0x5XIdXXERMJrYg6aYaEJAgCd8sVQFEMQDVBfF2LIu
12QI9LNvTFuHbHxlDT5+uBU2ufHwY1IplW4etKW0bY04BkQz7O7lCjMVM/ReB+BC
Q7kP5YnWBA2QqqLdk8IKLCWSnGqk+GQo5TB8uxMGbbEWSiWXTc71wxdNE+jTjbiE
Hw42kX8+emiC2NKnHM7q5p5tKWP+WCbBYFdUWcnAX+BK5yYds6/4065aCCgLjpBO
FJrg2brGCGPCG6t6ky+NtWtHiPP4uduWt+CBLBwT68JEm1K6gBiL9zu06Txj67DE
VERinZd0vi8Q93iiWtZhXMqzAa2zLRoyG7MZjYVTJPvUItrvg5ByR+WQzbwqrpY9
12YvALefOTv5IEaTyoHyAcXR2dasuvjHNvvduD+IP0WCpKtd1vvNiyreEBto8AXq
-----END CERTIFICATE-----
