Certificate:
    Data:
        Version: 3 (0x2)
        Serial Number: 456 (0x1c8)
        Signature Algorithm: sha256WithRSAEncryption
        Issuer: C=CH, ST=Thurgau, L=Kefikon, O=guengel.ch, CN=CA guengel.ch/emailAddress=postmaster@guengel.ch
        Validity
            Not Before: Feb 11 07:06:59 2022 GMT
            Not After : Mar 18 07:06:59 2023 GMT
        Subject: C=CH, ST=Thurgau, O=guengel.ch, CN=aurora.virtual.kruemel.home/emailAddress=postmaster@guengel.ch
        Subject Public Key Info:
            Public Key Algorithm: rsaEncryption
                RSA Public-Key: (2048 bit)
                Modulus:
                    00:da:90:21:f0:b4:03:27:be:b0:dd:29:b5:aa:2d:
                    c7:28:79:4f:4e:7f:85:15:3d:a8:d9:7c:da:e5:10:
                    8d:bb:62:a8:d2:dc:b8:96:08:39:32:fb:51:a2:84:
                    28:89:c2:93:73:72:16:b9:f4:66:cd:dd:99:6c:48:
                    54:23:bf:3b:f3:47:c8:46:bf:e1:86:76:5f:4f:a8:
                    31:37:db:16:81:1c:60:8e:cf:13:ee:5e:4d:d5:98:
                    1b:3a:49:06:42:2b:71:34:0c:17:bb:c8:dc:97:db:
                    96:8a:a4:08:a3:cd:62:ce:90:2f:dd:11:ca:21:01:
                    f8:01:46:3b:ec:de:93:2a:9c:16:a9:5c:a9:66:93:
                    e5:9a:a4:9d:79:4b:e4:2c:83:ab:0b:9d:20:f0:ff:
                    e0:0f:3e:01:1b:0f:6d:f5:a1:7c:f5:2d:a9:e0:f7:
                    15:2e:ae:c0:d8:ac:f1:65:51:67:e1:69:3b:52:5a:
                    c5:91:9b:0b:ce:81:11:9d:de:13:06:d1:4e:39:5e:
                    4a:94:28:30:77:90:39:f2:3a:07:47:1a:80:73:77:
                    15:94:fb:cb:09:01:36:f4:b7:8d:6f:29:0e:a4:b6:
                    f1:b7:12:92:a1:d2:8e:44:e0:61:54:00:01:d6:11:
                    27:49:17:f1:71:05:8c:4d:6b:6e:80:48:9e:3e:fb:
                    5e:b5
                Exponent: 65537 (0x10001)
        X509v3 extensions:
            X509v3 Key Usage: 
                Digital Signature, Key Encipherment, Key Agreement
            X509v3 Basic Constraints: critical
                CA:FALSE
            Netscape Cert Type: 
                SSL Client, SSL Server
            X509v3 Extended Key Usage: 
                TLS Web Server Authentication, TLS Web Client Authentication
            X509v3 Subject Alternative Name: 
                DNS:aurora.virtual.kruemel.home
            X509v3 Subject Key Identifier: 
                FE:2D:FF:AC:5E:6A:9A:FA:96:A4:A0:B7:0B:7E:C7:26:6F:6A:42:A6
            X509v3 Authority Key Identifier: 
                keyid:D6:88:F1:AA:C1:2B:09:8C:B8:5C:9D:CE:DF:57:39:62:26:10:20:90
                DirName:/C=CH/ST=Thurgau/L=Kefikon/O=guengel.ch/CN=CA guengel.ch/emailAddress=postmaster@guengel.ch
                serial:E5:25:3B:A6:77:BD:CB:FF

    Signature Algorithm: sha256WithRSAEncryption
         13:ff:d9:f2:b1:6c:06:2d:a5:fa:0e:0f:cd:a0:91:89:dc:c0:
         9b:f3:05:e1:a2:c1:6e:96:ac:5e:80:d0:de:a4:e9:4c:f3:d2:
         8c:3f:e2:ba:9e:31:91:4b:24:c7:4b:cd:83:0c:bb:81:20:aa:
         4c:38:a2:08:fa:ab:24:6f:73:0a:db:24:7f:ac:00:44:c9:4e:
         e7:e3:41:e1:89:7a:be:ff:89:7b:86:19:c3:b4:12:31:81:02:
         bd:8f:54:52:61:e1:cc:75:8c:c3:62:4e:7e:84:fe:0d:e4:e7:
         a1:89:09:a4:66:42:16:1b:4c:cc:c7:66:6a:39:b7:1f:e5:73:
         44:eb:81:d3:24:d5:4e:ea:2d:9d:b6:88:0f:01:a4:20:b5:a2:
         db:95:87:c1:b3:b2:9f:de:ed:72:c1:e5:5d:8e:bb:fd:be:76:
         2b:a1:44:20:a7:d1:d5:60:50:a3:a2:4b:7c:0d:ef:06:23:14:
         a3:d5:8d:94:f9:99:81:9a:6f:7f:7f:d2:da:85:05:fc:0f:bc:
         51:78:2a:eb:12:57:57:0a:71:ed:85:2e:84:2f:bd:79:f7:3f:
         1b:0b:61:7d:20:99:5e:3c:ac:ab:f9:4d:a2:17:f2:c9:a5:ee:
         8f:e3:95:08:8c:00:26:58:fb:4b:d5:d2:2b:50:65:58:50:a8:
         b8:c0:2f:2f:e5:9c:74:5c:b2:ed:2e:bb:59:e2:02:ae:28:40:
         24:91:0e:5c:a6:70:e6:d7:46:2c:f4:c6:13:e5:51:8a:1f:58:
         c9:49:40:1c:e8:52:62:11:d6:54:88:d3:31:be:6e:77:3d:8a:
         0c:34:ac:9a:1b:8f:e4:ce:a3:17:3e:e1:a2:81:62:37:64:8d:
         50:fd:ef:68:00:75:6f:c6:fe:f1:8f:d7:06:a0:e2:df:41:2a:
         b1:29:c6:77:4a:4b:0d:07:7f:9e:af:69:47:bc:5e:26:12:54:
         d6:80:e4:21:97:6f:78:27:b1:66:47:cf:46:8d:3d:ce:77:ed:
         1c:72:3e:fa:51:37:c6:b3:e8:54:ef:3c:0f:bd:43:8f:e4:1a:
         35:25:c5:37:7f:38:63:45:9c:e3:86:9e:64:83:04:2f:28:bf:
         42:74:a5:40:15:23:8f:34:d0:50:3a:c7:f6:bb:f3:00:46:b6:
         7c:04:34:d0:58:44:8d:3a:9d:c3:85:81:42:7f:1f:21:d8:9e:
         49:cb:43:89:81:d3:db:e6:cb:4d:65:08:fd:1c:b1:40:9c:d2:
         b7:2e:11:7d:5a:d5:90:85:a8:82:5a:87:c6:f5:54:e0:db:fb:
         f0:2a:d4:c5:26:53:c0:f1:8d:43:78:58:5e:2e:f4:b5:60:f9:
         f2:58:e7:23:54:cc:56:15
-----BEGIN CERTIFICATE-----
MIIF2DCCA8CgAwIBAgICAcgwDQYJKoZIhvcNAQELBQAwgYQxCzAJBgNVBAYTAkNI
MRAwDgYDVQQIEwdUaHVyZ2F1MRAwDgYDVQQHEwdLZWZpa29uMRMwEQYDVQQKEwpn
dWVuZ2VsLmNoMRYwFAYDVQQDEw1DQSBndWVuZ2VsLmNoMSQwIgYJKoZIhvcNAQkB
FhVwb3N0bWFzdGVyQGd1ZW5nZWwuY2gwHhcNMjIwMjExMDcwNjU5WhcNMjMwMzE4
MDcwNjU5WjCBgDELMAkGA1UEBhMCQ0gxEDAOBgNVBAgTB1RodXJnYXUxEzARBgNV
BAoTCmd1ZW5nZWwuY2gxJDAiBgNVBAMTG2F1cm9yYS52aXJ0dWFsLmtydWVtZWwu
aG9tZTEkMCIGCSqGSIb3DQEJARYVcG9zdG1hc3RlckBndWVuZ2VsLmNoMIIBIjAN
BgkqhkiG9w0BAQEFAAOCAQ8AMIIBCgKCAQEA2pAh8LQDJ76w3Sm1qi3HKHlPTn+F
FT2o2Xza5RCNu2Ko0ty4lgg5MvtRooQoicKTc3IWufRmzd2ZbEhUI78780fIRr/h
hnZfT6gxN9sWgRxgjs8T7l5N1ZgbOkkGQitxNAwXu8jcl9uWiqQIo81izpAv3RHK
IQH4AUY77N6TKpwWqVypZpPlmqSdeUvkLIOrC50g8P/gDz4BGw9t9aF89S2p4PcV
Lq7A2KzxZVFn4Wk7UlrFkZsLzoERnd4TBtFOOV5KlCgwd5A58joHRxqAc3cVlPvL
CQE29LeNbykOpLbxtxKSodKOROBhVAAB1hEnSRfxcQWMTWtugEiePvtetQIDAQAB
o4IBVDCCAVAwCwYDVR0PBAQDAgOoMAwGA1UdEwEB/wQCMAAwEQYJYIZIAYb4QgEB
BAQDAgbAMB0GA1UdJQQWMBQGCCsGAQUFBwMBBggrBgEFBQcDAjAmBgNVHREEHzAd
ghthdXJvcmEudmlydHVhbC5rcnVlbWVsLmhvbWUwHQYDVR0OBBYEFP4t/6xeapr6
lqSgtwt+xyZvakKmMIG5BgNVHSMEgbEwga6AFNaI8arBKwmMuFydzt9XOWImECCQ
oYGKpIGHMIGEMQswCQYDVQQGEwJDSDEQMA4GA1UECBMHVGh1cmdhdTEQMA4GA1UE
BxMHS2VmaWtvbjETMBEGA1UEChMKZ3VlbmdlbC5jaDEWMBQGA1UEAxMNQ0EgZ3Vl
bmdlbC5jaDEkMCIGCSqGSIb3DQEJARYVcG9zdG1hc3RlckBndWVuZ2VsLmNoggkA
5SU7pne9y/8wDQYJKoZIhvcNAQELBQADggIBABP/2fKxbAYtpfoOD82gkYncwJvz
BeGiwW6WrF6A0N6k6Uzz0ow/4rqeMZFLJMdLzYMMu4Egqkw4ogj6qyRvcwrbJH+s
AETJTufjQeGJer7/iXuGGcO0EjGBAr2PVFJh4cx1jMNiTn6E/g3k56GJCaRmQhYb
TMzHZmo5tx/lc0TrgdMk1U7qLZ22iA8BpCC1otuVh8Gzsp/e7XLB5V2Ou/2+diuh
RCCn0dVgUKOiS3wN7wYjFKPVjZT5mYGab39/0tqFBfwPvFF4KusSV1cKce2FLoQv
vXn3PxsLYX0gmV48rKv5TaIX8sml7o/jlQiMACZY+0vV0itQZVhQqLjALy/lnHRc
su0uu1niAq4oQCSRDlymcObXRiz0xhPlUYofWMlJQBzoUmIR1lSI0zG+bnc9igw0
rJobj+TOoxc+4aKBYjdkjVD972gAdW/G/vGP1wag4t9BKrEpxndKSw0Hf56vaUe8
XiYSVNaA5CGXb3gnsWZHz0aNPc537RxyPvpRN8az6FTvPA+9Q4/kGjUlxTd/OGNF
nOOGnmSDBC8ov0J0pUAVI4800FA6x/a78wBGtnwENNBYRI06ncOFgUJ/HyHYnknL
Q4mB09vmy01lCP0csUCc0rcuEX1a1ZCFqIJah8b1VODb+/Aq1MUmU8DxjUN4WF4u
9LVg+fJY5yNUzFYV
-----END CERTIFICATE-----
