Certificate:
    Data:
        Version: 3 (0x2)
        Serial Number:
            3c:cf:b4:bc:cf:43:9c:73:32:d3:b3:a3:9a:25:8f:72:6b:17:2a:f0
        Signature Algorithm: sha256WithRSAEncryption
        Issuer: C=CH, ST=Thurgau, L=Kefikon, O=guengel.ch, CN=CA 2022/emailAddress=postmaster@guengel.ch
        Validity
            Not Before: Dec 30 08:44:22 2023 GMT
            Not After : Feb  2 08:44:22 2025 GMT
        Subject: C=CH, ST=Thurgau, O=guengel.ch, CN=aurora.virtual.kruemel.home/emailAddress=postmaster@guengel.ch
        Subject Public Key Info:
            Public Key Algorithm: rsaEncryption
                RSA Public-Key: (2048 bit)
                Modulus:
                    00:d6:db:1a:66:82:a3:39:78:75:52:91:10:f9:50:
                    94:d4:3c:b3:be:0a:37:bc:33:a8:15:b3:06:ba:fb:
                    d5:5a:a8:0d:3d:21:e6:ff:03:41:07:62:99:da:c4:
                    d1:06:7b:d6:70:da:97:a6:85:0f:40:c7:2d:83:1b:
                    c5:ad:c5:e4:3d:d1:6d:d7:33:47:48:18:3a:64:ec:
                    aa:81:ed:52:4b:38:9c:70:d0:7d:de:5e:62:5f:26:
                    2b:d7:b2:73:22:b0:0d:e5:c1:d0:6d:5b:9b:0a:c8:
                    1a:fe:81:9f:c0:a7:c2:00:dd:57:21:4f:76:79:45:
                    a0:bb:d3:44:c0:5b:7e:e3:8d:7e:61:4f:d9:2c:e0:
                    3c:89:29:1a:82:87:6e:8d:fa:a6:89:35:a0:9b:07:
                    98:5f:d7:82:b4:8f:2e:ae:c9:7c:5b:fe:98:ab:46:
                    5d:dd:f5:ff:42:f5:69:e8:82:6c:81:0d:bc:5f:58:
                    e0:44:dc:95:82:9e:9c:cb:08:b5:a1:cf:e7:0c:00:
                    82:46:8c:59:6c:e9:09:24:89:1c:62:9a:47:9c:02:
                    d8:d3:67:69:e5:6e:b5:1e:20:f6:fa:79:4d:4a:6b:
                    0e:8d:8e:a9:03:a6:44:64:73:ab:84:22:ce:40:6f:
                    53:0d:5f:2c:6d:2d:02:3b:6e:04:47:07:b1:9c:96:
                    67:59
                Exponent: 65537 (0x10001)
        X509v3 extensions:
            X509v3 Basic Constraints: critical
                CA:FALSE
            X509v3 Key Usage: 
                Digital Signature, Key Encipherment, Key Agreement
            X509v3 Subject Key Identifier: 
                F1:94:7C:38:1F:23:DE:65:9C:53:15:7C:A4:50:A8:37:8F:3B:C3:A8
            X509v3 Authority Key Identifier: 
                keyid:22:20:0D:51:40:61:42:BE:DD:BA:D9:C9:C1:77:B6:93:28:C3:99:EC
                DirName:/C=CH/ST=Thurgau/L=Kefikon/O=guengel.ch/CN=CA 2022/emailAddress=postmaster@guengel.ch
                serial:6D:29:90:54:E9:17:E9:C2:6A:E6:52:AD:84:4E:30:8E:6E:57:FB:1C

            Netscape Cert Type: 
                SSL Client, SSL Server
            X509v3 Extended Key Usage: 
                TLS Web Server Authentication, TLS Web Client Authentication
    Signature Algorithm: sha256WithRSAEncryption
         86:ce:97:ce:58:84:1e:2f:0b:bd:bf:80:36:c9:15:d1:9d:ba:
         75:19:ec:33:7e:9f:46:00:c5:48:16:af:0f:be:7d:9b:0c:b3:
         fc:51:61:ed:2d:1c:58:f5:e5:0c:3a:ed:ef:a9:c8:9b:a7:bf:
         27:c3:34:ab:6c:d5:d6:cc:24:f1:b2:25:8b:5b:49:06:b2:0d:
         84:b6:ca:6a:62:49:30:f6:50:18:19:09:54:1a:3f:4e:9c:db:
         1a:0c:29:b7:e0:78:cf:ac:8d:e6:6b:a5:0a:ae:70:70:4d:1c:
         b3:a0:ef:14:2d:41:a7:9a:f7:f9:00:ee:91:65:89:f5:8e:2f:
         f6:a5:fe:4d:3a:c9:72:af:a0:aa:fd:ab:e3:fa:92:77:86:a9:
         cf:7f:ef:8c:28:fc:bf:13:b0:65:f9:6b:36:37:d4:74:59:6a:
         48:e2:25:bb:ee:71:09:44:e0:fd:61:91:dc:53:ed:07:fb:6e:
         bd:a2:e9:53:25:57:7a:db:3f:d3:d0:41:d6:c1:a3:79:8a:9d:
         b0:b2:11:11:a7:1e:3f:cd:0e:0d:89:99:67:c2:1c:6b:87:de:
         2c:a3:f5:cc:34:f8:a0:cb:3b:68:59:97:5a:b7:c1:4e:0e:a0:
         a5:db:c8:08:1b:94:5f:0e:56:67:b5:a9:80:8b:f9:84:2b:0b:
         2a:8d:81:61:df:72:d2:d6:12:22:0d:f3:56:23:9b:25:d9:e9:
         df:0d:2b:bf:cb:e9:c3:64:b1:ef:f5:91:fc:a1:db:5a:49:40:
         b7:86:4f:1a:e7:5d:bf:4a:e6:f0:a5:1c:6a:bd:b3:1a:de:ad:
         aa:f9:54:a4:e0:30:d2:bd:4a:59:6c:23:7b:dc:5c:08:14:72:
         5a:b4:fe:7e:91:9d:2d:78:e3:f2:59:c8:c3:f9:71:b8:08:06:
         73:35:74:2a:58:7b:63:51:ec:59:e9:de:82:c8:e2:49:d5:4a:
         e2:c7:72:37:84:7e:f6:cf:71:e7:6f:04:42:a3:14:9d:f9:93:
         a4:a5:93:28:4d:47:6a:7f:4e:f3:8b:c7:5f:a5:56:07:01:eb:
         71:ce:89:ae:2d:e9:7f:fc:b4:3d:98:ea:20:45:aa:ad:0b:ab:
         c9:4f:c3:55:3d:84:68:24:2f:27:37:13:c2:5c:19:60:00:e4:
         57:2f:98:3c:ab:87:fb:08:bb:12:76:19:a5:32:a8:ef:c0:94:
         18:9e:b2:f4:af:67:8f:d5:b7:3f:30:7e:22:60:d1:0b:9f:d8:
         7f:99:7f:6d:01:5f:6b:91:9f:10:99:18:46:1d:9e:3b:43:76:
         64:40:05:4e:6b:ec:ca:e6:40:7a:5b:37:b9:97:5f:91:ab:7d:
         46:fd:1f:5d:8f:10:40:1c
-----BEGIN CERTIFICATE-----
MIIFvzCCA6egAwIBAgIUPM+0vM9DnHMy07OjmiWPcmsXKvAwDQYJKoZIhvcNAQEL
BQAwfjELMAkGA1UEBhMCQ0gxEDAOBgNVBAgTB1RodXJnYXUxEDAOBgNVBAcTB0tl
Zmlrb24xEzARBgNVBAoTCmd1ZW5nZWwuY2gxEDAOBgNVBAMTB0NBIDIwMjIxJDAi
BgkqhkiG9w0BCQEWFXBvc3RtYXN0ZXJAZ3VlbmdlbC5jaDAeFw0yMzEyMzAwODQ0
MjJaFw0yNTAyMDIwODQ0MjJaMIGAMQswCQYDVQQGEwJDSDEQMA4GA1UECBMHVGh1
cmdhdTETMBEGA1UEChMKZ3VlbmdlbC5jaDEkMCIGA1UEAxMbYXVyb3JhLnZpcnR1
YWwua3J1ZW1lbC5ob21lMSQwIgYJKoZIhvcNAQkBFhVwb3N0bWFzdGVyQGd1ZW5n
ZWwuY2gwggEiMA0GCSqGSIb3DQEBAQUAA4IBDwAwggEKAoIBAQDW2xpmgqM5eHVS
kRD5UJTUPLO+Cje8M6gVswa6+9VaqA09Ieb/A0EHYpnaxNEGe9Zw2pemhQ9Axy2D
G8WtxeQ90W3XM0dIGDpk7KqB7VJLOJxw0H3eXmJfJivXsnMisA3lwdBtW5sKyBr+
gZ/Ap8IA3VchT3Z5RaC700TAW37jjX5hT9ks4DyJKRqCh26N+qaJNaCbB5hf14K0
jy6uyXxb/pirRl3d9f9C9WnogmyBDbxfWOBE3JWCnpzLCLWhz+cMAIJGjFls6Qkk
iRximkecAtjTZ2nlbrUeIPb6eU1Kaw6NjqkDpkRkc6uEIs5Ab1MNXyxtLQI7bgRH
B7GclmdZAgMBAAGjggEwMIIBLDAMBgNVHRMBAf8EAjAAMAsGA1UdDwQEAwIDqDAd
BgNVHQ4EFgQU8ZR8OB8j3mWcUxV8pFCoN487w6gwgb0GA1UdIwSBtTCBsoAUIiAN
UUBhQr7dutnJwXe2kyjDmeyhgYOkgYAwfjELMAkGA1UEBhMCQ0gxEDAOBgNVBAgT
B1RodXJnYXUxEDAOBgNVBAcTB0tlZmlrb24xEzARBgNVBAoTCmd1ZW5nZWwuY2gx
EDAOBgNVBAMTB0NBIDIwMjIxJDAiBgkqhkiG9w0BCQEWFXBvc3RtYXN0ZXJAZ3Vl
bmdlbC5jaIIUbSmQVOkX6cJq5lKthE4wjm5X+xwwEQYJYIZIAYb4QgEBBAQDAgbA
MB0GA1UdJQQWMBQGCCsGAQUFBwMBBggrBgEFBQcDAjANBgkqhkiG9w0BAQsFAAOC
AgEAhs6XzliEHi8Lvb+ANskV0Z26dRnsM36fRgDFSBavD759mwyz/FFh7S0cWPXl
DDrt76nIm6e/J8M0q2zV1swk8bIli1tJBrINhLbKamJJMPZQGBkJVBo/TpzbGgwp
t+B4z6yN5mulCq5wcE0cs6DvFC1Bp5r3+QDukWWJ9Y4v9qX+TTrJcq+gqv2r4/qS
d4apz3/vjCj8vxOwZflrNjfUdFlqSOIlu+5xCUTg/WGR3FPtB/tuvaLpUyVXets/
09BB1sGjeYqdsLIREaceP80ODYmZZ8Ica4feLKP1zDT4oMs7aFmXWrfBTg6gpdvI
CBuUXw5WZ7WpgIv5hCsLKo2BYd9y0tYSIg3zViObJdnp3w0rv8vpw2Sx7/WR/KHb
WklAt4ZPGuddv0rm8KUcar2zGt6tqvlUpOAw0r1KWWwje9xcCBRyWrT+fpGdLXjj
8lnIw/lxuAgGczV0Klh7Y1HsWenegsjiSdVK4sdyN4R+9s9x528EQqMUnfmTpKWT
KE1Han9O84vHX6VWBwHrcc6Jri3pf/y0PZjqIEWqrQuryU/DVT2EaCQvJzcTwlwZ
YADkVy+YPKuH+wi7EnYZpTKo78CUGJ6y9K9nj9W3PzB+ImDRC5/Yf5l/bQFfa5Gf
EJkYRh2eO0N2ZEAFTmvsyuZAels3uZdfkat9Rv0fXY8QQBw=
-----END CERTIFICATE-----
