Certificate:
    Data:
        Version: 3 (0x2)
        Serial Number:
            7a:cc:cb:57:5d:40:de:74:24:e5:5a:fd:93:94:d8:95:3d:63:89:52
        Signature Algorithm: sha256WithRSAEncryption
        Issuer: C=CH, ST=Thurgau, L=Kefikon, O=guengel.ch, CN=CA 2022/emailAddress=postmaster@guengel.ch
        Validity
            Not Before: Jan  3 14:04:18 2025 GMT
            Not After : Feb  7 14:04:18 2026 GMT
        Subject: C=CH, ST=Thurgau, O=guengel.ch, CN=aurora.virtual.kruemel.home/emailAddress=postmaster@guengel.ch
        Subject Public Key Info:
            Public Key Algorithm: rsaEncryption
                Public-Key: (2048 bit)
                Modulus:
                    00:d6:db:1a:66:82:a3:39:78:75:52:91:10:f9:50:
                    94:d4:3c:b3:be:0a:37:bc:33:a8:15:b3:06:ba:fb:
                    d5:5a:a8:0d:3d:21:e6:ff:03:41:07:62:99:da:c4:
                    d1:06:7b:d6:70:da:97:a6:85:0f:40:c7:2d:83:1b:
                    c5:ad:c5:e4:3d:d1:6d:d7:33:47:48:18:3a:64:ec:
                    aa:81:ed:52:4b:38:9c:70:d0:7d:de:5e:62:5f:26:
                    2b:d7:b2:73:22:b0:0d:e5:c1:d0:6d:5b:9b:0a:c8:
                    1a:fe:81:9f:c0:a7:c2:00:dd:57:21:4f:76:79:45:
                    a0:bb:d3:44:c0:5b:7e:e3:8d:7e:61:4f:d9:2c:e0:
                    3c:89:29:1a:82:87:6e:8d:fa:a6:89:35:a0:9b:07:
                    98:5f:d7:82:b4:8f:2e:ae:c9:7c:5b:fe:98:ab:46:
                    5d:dd:f5:ff:42:f5:69:e8:82:6c:81:0d:bc:5f:58:
                    e0:44:dc:95:82:9e:9c:cb:08:b5:a1:cf:e7:0c:00:
                    82:46:8c:59:6c:e9:09:24:89:1c:62:9a:47:9c:02:
                    d8:d3:67:69:e5:6e:b5:1e:20:f6:fa:79:4d:4a:6b:
                    0e:8d:8e:a9:03:a6:44:64:73:ab:84:22:ce:40:6f:
                    53:0d:5f:2c:6d:2d:02:3b:6e:04:47:07:b1:9c:96:
                    67:59
                Exponent: 65537 (0x10001)
        X509v3 extensions:
            X509v3 Basic Constraints: critical
                CA:FALSE
            X509v3 Key Usage: 
                Digital Signature, Key Encipherment, Key Agreement
            X509v3 Subject Key Identifier: 
                F1:94:7C:38:1F:23:DE:65:9C:53:15:7C:A4:50:A8:37:8F:3B:C3:A8
            X509v3 Authority Key Identifier: 
                keyid:22:20:0D:51:40:61:42:BE:DD:BA:D9:C9:C1:77:B6:93:28:C3:99:EC
                DirName:/C=CH/ST=Thurgau/L=Kefikon/O=guengel.ch/CN=CA 2022/emailAddress=postmaster@guengel.ch
                serial:6D:29:90:54:E9:17:E9:C2:6A:E6:52:AD:84:4E:30:8E:6E:57:FB:1C
            Netscape Cert Type: 
                SSL Client, SSL Server
            X509v3 Extended Key Usage: 
                TLS Web Server Authentication, TLS Web Client Authentication
    Signature Algorithm: sha256WithRSAEncryption
    Signature Value:
        b9:aa:46:b7:49:60:d8:d1:7d:d9:3a:1f:f9:3a:8f:9f:78:78:
        44:4e:21:d0:5d:5a:df:16:6e:b6:4b:15:3e:c5:5a:d2:a5:ad:
        3a:84:04:dd:c2:e1:76:0d:4c:f7:60:01:17:f3:76:67:db:f5:
        cb:78:43:a8:42:91:21:ce:ac:f1:2f:74:5e:43:7f:b3:1d:16:
        a3:9a:d5:e7:bc:cd:b6:89:16:d1:f8:2f:ad:5f:10:36:4e:88:
        4d:8f:36:36:8f:c0:28:b5:6b:d2:cd:13:0c:80:9a:40:86:0e:
        07:a2:85:ff:35:31:c4:31:fe:2f:d4:f6:1d:00:6a:b0:4b:14:
        b9:95:27:90:74:c0:2f:30:00:41:11:d0:a7:b0:e8:60:9c:7e:
        40:1a:69:ad:c9:64:86:3c:c7:de:53:6c:c5:fa:8c:bd:85:21:
        5d:3a:f2:72:ea:24:be:2f:c1:97:2e:3f:d9:83:35:d9:68:24:
        19:5a:a2:5b:9c:53:9f:4b:4e:c8:02:93:4d:cc:10:1a:33:4a:
        8a:98:f7:7f:f2:7c:fd:c8:94:9d:69:94:42:cc:3e:84:31:b0:
        a2:4c:a3:30:b0:9b:1a:5e:fa:4c:ec:de:57:77:ac:91:c7:95:
        2c:af:3b:b9:0f:d0:fd:d7:b6:fb:10:79:83:8f:71:53:65:31:
        d7:f2:38:a0:4b:96:bb:90:79:60:e7:44:fb:ba:f8:f5:ca:22:
        a6:30:64:a6:78:3e:03:7d:03:98:99:9a:cb:07:3f:79:37:7a:
        30:c7:3b:be:d8:9f:5d:fe:2c:4e:6c:82:80:eb:0b:e2:33:3a:
        63:fd:84:25:86:3a:18:56:02:a7:df:bc:fe:21:ce:6a:a2:16:
        41:4e:d5:f4:aa:91:62:86:23:d8:95:00:57:e5:8a:7e:19:e8:
        51:bd:e6:b5:75:5a:b9:7e:32:51:c0:ed:58:a9:56:6b:67:1f:
        ac:72:7f:4b:51:c4:6d:d2:94:b5:1c:52:11:ca:d7:39:4a:5b:
        0a:9d:5e:d8:77:11:73:e5:f3:d1:e8:0d:c9:40:42:c8:64:01:
        47:9e:88:9c:f5:f0:9c:8f:c6:fa:62:7a:35:14:e9:e6:b4:07:
        6a:5d:a6:1f:f3:2a:54:4b:54:f8:cd:4a:3e:45:0d:69:48:94:
        ea:59:ad:79:c0:21:82:24:be:76:3d:f3:46:dd:42:d2:d4:95:
        16:84:cf:c6:6f:68:26:12:3e:fb:67:d5:5a:df:9e:01:10:5b:
        8d:1f:28:0e:c3:77:44:cf:bd:5b:23:f4:2a:ef:f7:7e:a0:17:
        11:cb:96:8c:17:64:68:64:e1:51:4f:4c:1a:6f:84:36:99:61:
        8c:90:a8:3c:c3:1c:c8:eb
-----BEGIN CERTIFICATE-----
MIIFvzCCA6egAwIBAgIUeszLV11A3nQk5Vr9k5TYlT1jiVIwDQYJKoZIhvcNAQEL
BQAwfjELMAkGA1UEBhMCQ0gxEDAOBgNVBAgTB1RodXJnYXUxEDAOBgNVBAcTB0tl
Zmlrb24xEzARBgNVBAoTCmd1ZW5nZWwuY2gxEDAOBgNVBAMTB0NBIDIwMjIxJDAi
BgkqhkiG9w0BCQEWFXBvc3RtYXN0ZXJAZ3VlbmdlbC5jaDAeFw0yNTAxMDMxNDA0
MThaFw0yNjAyMDcxNDA0MThaMIGAMQswCQYDVQQGEwJDSDEQMA4GA1UECBMHVGh1
cmdhdTETMBEGA1UEChMKZ3VlbmdlbC5jaDEkMCIGA1UEAxMbYXVyb3JhLnZpcnR1
YWwua3J1ZW1lbC5ob21lMSQwIgYJKoZIhvcNAQkBFhVwb3N0bWFzdGVyQGd1ZW5n
ZWwuY2gwggEiMA0GCSqGSIb3DQEBAQUAA4IBDwAwggEKAoIBAQDW2xpmgqM5eHVS
kRD5UJTUPLO+Cje8M6gVswa6+9VaqA09Ieb/A0EHYpnaxNEGe9Zw2pemhQ9Axy2D
G8WtxeQ90W3XM0dIGDpk7KqB7VJLOJxw0H3eXmJfJivXsnMisA3lwdBtW5sKyBr+
gZ/Ap8IA3VchT3Z5RaC700TAW37jjX5hT9ks4DyJKRqCh26N+qaJNaCbB5hf14K0
jy6uyXxb/pirRl3d9f9C9WnogmyBDbxfWOBE3JWCnpzLCLWhz+cMAIJGjFls6Qkk
iRximkecAtjTZ2nlbrUeIPb6eU1Kaw6NjqkDpkRkc6uEIs5Ab1MNXyxtLQI7bgRH
B7GclmdZAgMBAAGjggEwMIIBLDAMBgNVHRMBAf8EAjAAMAsGA1UdDwQEAwIDqDAd
BgNVHQ4EFgQU8ZR8OB8j3mWcUxV8pFCoN487w6gwgb0GA1UdIwSBtTCBsoAUIiAN
UUBhQr7dutnJwXe2kyjDmeyhgYOkgYAwfjELMAkGA1UEBhMCQ0gxEDAOBgNVBAgT
B1RodXJnYXUxEDAOBgNVBAcTB0tlZmlrb24xEzARBgNVBAoTCmd1ZW5nZWwuY2gx
EDAOBgNVBAMTB0NBIDIwMjIxJDAiBgkqhkiG9w0BCQEWFXBvc3RtYXN0ZXJAZ3Vl
bmdlbC5jaIIUbSmQVOkX6cJq5lKthE4wjm5X+xwwEQYJYIZIAYb4QgEBBAQDAgbA
MB0GA1UdJQQWMBQGCCsGAQUFBwMBBggrBgEFBQcDAjANBgkqhkiG9w0BAQsFAAOC
AgEAuapGt0lg2NF92Tof+TqPn3h4RE4h0F1a3xZutksVPsVa0qWtOoQE3cLhdg1M
92ABF/N2Z9v1y3hDqEKRIc6s8S90XkN/sx0Wo5rV57zNtokW0fgvrV8QNk6ITY82
No/AKLVr0s0TDICaQIYOB6KF/zUxxDH+L9T2HQBqsEsUuZUnkHTALzAAQRHQp7Do
YJx+QBpprclkhjzH3lNsxfqMvYUhXTrycuokvi/Bly4/2YM12WgkGVqiW5xTn0tO
yAKTTcwQGjNKipj3f/J8/ciUnWmUQsw+hDGwokyjMLCbGl76TOzeV3eskceVLK87
uQ/Q/de2+xB5g49xU2Ux1/I4oEuWu5B5YOdE+7r49coipjBkpng+A30DmJmaywc/
eTd6MMc7vtifXf4sTmyCgOsL4jM6Y/2EJYY6GFYCp9+8/iHOaqIWQU7V9KqRYoYj
2JUAV+WKfhnoUb3mtXVauX4yUcDtWKlWa2cfrHJ/S1HEbdKUtRxSEcrXOUpbCp1e
2HcRc+Xz0egNyUBCyGQBR56InPXwnI/G+mJ6NRTp5rQHal2mH/MqVEtU+M1KPkUN
aUiU6lmtecAhgiS+dj3zRt1C0tSVFoTPxm9oJhI++2fVWt+eARBbjR8oDsN3RM+9
WyP0Ku/3fqAXEcuWjBdkaGThUU9MGm+ENplhjJCoPMMcyOs=
-----END CERTIFICATE-----
