Certificate:
    Data:
        Version: 3 (0x2)
        Serial Number: 293 (0x125)
    Signature Algorithm: sha256WithRSAEncryption
        Issuer: C=CH, ST=Thurgau, L=Kefikon, O=guengel.ch, CN=CA guengel.ch/emailAddress=postmaster@guengel.ch
        Validity
            Not Before: Jan  6 18:02:54 2018 GMT
            Not After : Feb 10 18:02:54 2019 GMT
        Subject: C=CH, ST=Thurgau, O=guengel.ch, CN=beastie.kruemel.home/emailAddress=postmaster@guengel.ch
        Subject Public Key Info:
            Public Key Algorithm: rsaEncryption
                Public-Key: (2048 bit)
                Modulus:
                    00:dd:b4:67:ff:bb:12:1f:c7:7c:3d:13:6b:3a:52:
                    21:b9:5c:09:fa:dc:5c:45:65:74:19:d7:dc:35:45:
                    f7:07:6c:6b:5f:96:20:9a:bf:e3:82:b0:6b:ec:b9:
                    14:77:a2:9e:55:c5:fd:c0:21:9a:20:58:89:8e:d9:
                    a9:78:8f:43:a2:ad:35:a7:3c:a9:a1:b7:8a:dc:c8:
                    e7:a0:72:c3:c7:a0:25:6d:48:f7:a0:35:bf:71:15:
                    af:91:8e:0c:35:6e:28:82:85:0c:36:0c:45:4e:9d:
                    25:df:8a:c7:d1:17:c3:0f:aa:08:5e:06:fe:dd:89:
                    11:0b:0e:8d:1e:93:65:1e:fa:f5:7e:ab:7b:0c:3c:
                    a3:e7:f1:d5:2e:6c:83:7d:11:7f:c2:eb:28:58:d1:
                    8f:fd:e9:6a:1f:0d:ff:55:89:ae:95:92:78:ae:54:
                    98:68:e5:5d:b0:2d:79:57:d7:96:d7:1f:c7:33:5a:
                    8b:4a:0a:b6:39:56:08:87:cc:a7:12:7a:82:52:08:
                    22:c4:34:db:26:16:ac:be:74:35:e8:5f:ac:3c:d6:
                    86:de:c6:64:e7:ee:41:58:2d:f9:2c:53:86:65:e1:
                    15:1e:67:b3:c6:d0:87:04:d4:0a:33:58:7d:a1:01:
                    82:05:c9:46:94:35:00:93:2d:7d:ab:13:29:7a:a7:
                    92:f3
                Exponent: 65537 (0x10001)
        X509v3 extensions:
            X509v3 Basic Constraints: 
                CA:FALSE
            Netscape Comment: 
                OpenSSL Generated Certificate
            X509v3 Subject Key Identifier: 
                D7:82:47:47:0A:74:69:29:88:75:91:E6:CE:97:8F:3D:9E:96:2F:7D
            X509v3 Authority Key Identifier: 
                keyid:D6:88:F1:AA:C1:2B:09:8C:B8:5C:9D:CE:DF:57:39:62:26:10:20:90
                DirName:/C=CH/ST=Thurgau/L=Kefikon/O=guengel.ch/CN=CA guengel.ch/emailAddress=postmaster@guengel.ch
                serial:E5:25:3B:A6:77:BD:CB:FF

    Signature Algorithm: sha256WithRSAEncryption
         21:31:8c:ca:96:6f:62:a9:76:1d:38:97:cf:16:c5:77:86:c7:
         7a:47:1d:57:1d:53:26:9d:a6:a3:d8:0f:49:cb:3a:8b:10:69:
         98:64:54:14:3a:a7:99:7b:05:30:02:f7:f8:1d:d4:c1:8b:b7:
         ef:26:f1:62:0e:21:2b:d8:13:35:c3:2c:ea:f5:ac:d1:93:d8:
         fd:9c:22:98:88:00:84:16:b7:5e:1b:a8:22:98:4c:8b:9d:9c:
         5f:ca:fa:c6:39:2e:7b:a6:8d:14:b1:0b:7a:8e:73:48:88:fc:
         08:c3:bb:9f:24:6a:82:45:02:0d:7f:5a:2f:31:71:ab:cb:3f:
         7e:7c:d0:d6:8a:1d:95:bb:bd:87:59:60:9c:44:63:37:32:ea:
         bf:0e:a9:dc:4f:a5:e5:5d:ad:f7:11:44:66:68:f1:08:26:87:
         07:92:1b:08:0c:4a:eb:4f:fd:f2:f3:82:1e:90:7a:16:e0:71:
         5f:43:82:3e:87:6c:d3:94:ad:d6:d7:b9:a4:ea:25:89:67:47:
         de:96:75:58:87:87:e9:65:1b:a0:a6:36:0e:ea:72:4e:e9:99:
         76:2b:86:41:05:9a:e8:a3:b0:bb:4e:ae:47:ac:c2:a4:53:28:
         e3:da:76:20:03:82:06:55:35:aa:32:fe:82:07:74:81:1c:44:
         8d:c2:08:d0:01:3e:9a:b4:3e:b0:28:9f:71:65:b4:a4:2d:db:
         21:05:77:74:70:3b:27:53:9c:9e:5f:24:5a:06:c3:21:27:c7:
         9a:e6:df:ac:60:0d:48:23:44:9c:76:2f:eb:f6:25:28:6f:f9:
         7c:c8:21:7e:22:17:95:51:62:76:0c:42:55:cd:b2:7c:93:53:
         c5:36:8d:a9:99:0d:36:c4:12:ac:f7:a6:89:07:01:c5:66:84:
         e4:4a:1b:d7:50:80:6c:29:d1:71:a3:b8:00:31:f3:9c:10:53:
         57:0e:0f:15:9a:49:87:88:f9:0f:d6:c8:9a:1d:7a:81:6c:6f:
         9a:48:59:89:f1:b8:43:3b:8e:a7:73:fc:c7:3d:14:37:82:1a:
         3a:98:2f:ca:b9:d0:28:37:e8:73:38:14:0b:65:a9:e3:39:64:
         83:2b:14:88:4b:c7:4e:55:a2:d3:31:5b:98:42:3e:c2:d0:a0:
         7e:66:c7:31:bb:94:c9:e8:d2:a7:41:6c:f6:a3:60:4c:0b:df:
         f2:55:97:5f:2a:56:f2:dc:cf:89:29:30:9a:01:8b:b9:37:50:
         15:4a:8a:9b:a5:29:0d:39:91:40:5e:d5:7f:43:66:dd:34:03:
         a2:da:ce:c8:db:1e:e6:01:01:14:1e:c0:6d:fe:bd:51:0e:de:
         36:47:ba:1a:6f:fe:46:0e
-----BEGIN CERTIFICATE-----
MIIFlDCCA3ygAwIBAgICASUwDQYJKoZIhvcNAQELBQAwgYQxCzAJBgNVBAYTAkNI
MRAwDgYDVQQIEwdUaHVyZ2F1MRAwDgYDVQQHEwdLZWZpa29uMRMwEQYDVQQKEwpn
dWVuZ2VsLmNoMRYwFAYDVQQDEw1DQSBndWVuZ2VsLmNoMSQwIgYJKoZIhvcNAQkB
FhVwb3N0bWFzdGVyQGd1ZW5nZWwuY2gwHhcNMTgwMTA2MTgwMjU0WhcNMTkwMjEw
MTgwMjU0WjB5MQswCQYDVQQGEwJDSDEQMA4GA1UECBMHVGh1cmdhdTETMBEGA1UE
ChMKZ3VlbmdlbC5jaDEdMBsGA1UEAxMUYmVhc3RpZS5rcnVlbWVsLmhvbWUxJDAi
BgkqhkiG9w0BCQEWFXBvc3RtYXN0ZXJAZ3VlbmdlbC5jaDCCASIwDQYJKoZIhvcN
AQEBBQADggEPADCCAQoCggEBAN20Z/+7Eh/HfD0TazpSIblcCfrcXEVldBnX3DVF
9wdsa1+WIJq/44Kwa+y5FHeinlXF/cAhmiBYiY7ZqXiPQ6KtNac8qaG3itzI56By
w8egJW1I96A1v3EVr5GODDVuKIKFDDYMRU6dJd+Kx9EXww+qCF4G/t2JEQsOjR6T
ZR769X6reww8o+fx1S5sg30Rf8LrKFjRj/3pah8N/1WJrpWSeK5UmGjlXbAteVfX
ltcfxzNai0oKtjlWCIfMpxJ6glIIIsQ02yYWrL50NehfrDzWht7GZOfuQVgt+SxT
hmXhFR5ns8bQhwTUCjNYfaEBggXJRpQ1AJMtfasTKXqnkvMCAwEAAaOCARgwggEU
MAkGA1UdEwQCMAAwLAYJYIZIAYb4QgENBB8WHU9wZW5TU0wgR2VuZXJhdGVkIENl
cnRpZmljYXRlMB0GA1UdDgQWBBTXgkdHCnRpKYh1kebOl489npYvfTCBuQYDVR0j
BIGxMIGugBTWiPGqwSsJjLhcnc7fVzliJhAgkKGBiqSBhzCBhDELMAkGA1UEBhMC
Q0gxEDAOBgNVBAgTB1RodXJnYXUxEDAOBgNVBAcTB0tlZmlrb24xEzARBgNVBAoT
Cmd1ZW5nZWwuY2gxFjAUBgNVBAMTDUNBIGd1ZW5nZWwuY2gxJDAiBgkqhkiG9w0B
CQEWFXBvc3RtYXN0ZXJAZ3VlbmdlbC5jaIIJAOUlO6Z3vcv/MA0GCSqGSIb3DQEB
CwUAA4ICAQAhMYzKlm9iqXYdOJfPFsV3hsd6Rx1XHVMmnaaj2A9JyzqLEGmYZFQU
OqeZewUwAvf4HdTBi7fvJvFiDiEr2BM1wyzq9azRk9j9nCKYiACEFrdeG6gimEyL
nZxfyvrGOS57po0UsQt6jnNIiPwIw7ufJGqCRQINf1ovMXGryz9+fNDWih2Vu72H
WWCcRGM3Muq/DqncT6XlXa33EURmaPEIJocHkhsIDErrT/3y84IekHoW4HFfQ4I+
h2zTlK3W17mk6iWJZ0felnVYh4fpZRugpjYO6nJO6Zl2K4ZBBZroo7C7Tq5HrMKk
Uyjj2nYgA4IGVTWqMv6CB3SBHESNwgjQAT6atD6wKJ9xZbSkLdshBXd0cDsnU5ye
XyRaBsMhJ8ea5t+sYA1II0Scdi/r9iUob/l8yCF+IheVUWJ2DEJVzbJ8k1PFNo2p
mQ02xBKs96aJBwHFZoTkShvXUIBsKdFxo7gAMfOcEFNXDg8VmkmHiPkP1siaHXqB
bG+aSFmJ8bhDO46nc/zHPRQ3gho6mC/KudAoN+hzOBQLZanjOWSDKxSIS8dOVaLT
MVuYQj7C0KB+Zscxu5TJ6NKnQWz2o2BMC9/yVZdfKlby3M+JKTCaAYu5N1AVSoqb
pSkNOZFAXtV/Q2bdNAOi2s7I2x7mAQEUHsBt/r1RDt42R7oab/5GDg==
-----END CERTIFICATE-----
