Certificate:
    Data:
        Version: 3 (0x2)
        Serial Number: 334 (0x14e)
    Signature Algorithm: sha256WithRSAEncryption
        Issuer: C=CH, ST=Thurgau, L=Kefikon, O=guengel.ch, CN=CA guengel.ch/emailAddress=postmaster@guengel.ch
        Validity
            Not Before: Dec 29 14:39:57 2018 GMT
            Not After : Feb  2 14:39:57 2020 GMT
        Subject: C=CH, ST=Thurgau, O=guengel.ch, CN=beastie.kruemel.home/emailAddress=postmaster@guengel.ch
        Subject Public Key Info:
            Public Key Algorithm: rsaEncryption
                Public-Key: (2048 bit)
                Modulus:
                    00:dd:b4:67:ff:bb:12:1f:c7:7c:3d:13:6b:3a:52:
                    21:b9:5c:09:fa:dc:5c:45:65:74:19:d7:dc:35:45:
                    f7:07:6c:6b:5f:96:20:9a:bf:e3:82:b0:6b:ec:b9:
                    14:77:a2:9e:55:c5:fd:c0:21:9a:20:58:89:8e:d9:
                    a9:78:8f:43:a2:ad:35:a7:3c:a9:a1:b7:8a:dc:c8:
                    e7:a0:72:c3:c7:a0:25:6d:48:f7:a0:35:bf:71:15:
                    af:91:8e:0c:35:6e:28:82:85:0c:36:0c:45:4e:9d:
                    25:df:8a:c7:d1:17:c3:0f:aa:08:5e:06:fe:dd:89:
                    11:0b:0e:8d:1e:93:65:1e:fa:f5:7e:ab:7b:0c:3c:
                    a3:e7:f1:d5:2e:6c:83:7d:11:7f:c2:eb:28:58:d1:
                    8f:fd:e9:6a:1f:0d:ff:55:89:ae:95:92:78:ae:54:
                    98:68:e5:5d:b0:2d:79:57:d7:96:d7:1f:c7:33:5a:
                    8b:4a:0a:b6:39:56:08:87:cc:a7:12:7a:82:52:08:
                    22:c4:34:db:26:16:ac:be:74:35:e8:5f:ac:3c:d6:
                    86:de:c6:64:e7:ee:41:58:2d:f9:2c:53:86:65:e1:
                    15:1e:67:b3:c6:d0:87:04:d4:0a:33:58:7d:a1:01:
                    82:05:c9:46:94:35:00:93:2d:7d:ab:13:29:7a:a7:
                    92:f3
                Exponent: 65537 (0x10001)
        X509v3 extensions:
            X509v3 Basic Constraints: 
                CA:FALSE
            Netscape Comment: 
                OpenSSL Generated Certificate
            X509v3 Subject Key Identifier: 
                D7:82:47:47:0A:74:69:29:88:75:91:E6:CE:97:8F:3D:9E:96:2F:7D
            X509v3 Authority Key Identifier: 
                keyid:D6:88:F1:AA:C1:2B:09:8C:B8:5C:9D:CE:DF:57:39:62:26:10:20:90
                DirName:/C=CH/ST=Thurgau/L=Kefikon/O=guengel.ch/CN=CA guengel.ch/emailAddress=postmaster@guengel.ch
                serial:E5:25:3B:A6:77:BD:CB:FF

    Signature Algorithm: sha256WithRSAEncryption
         cf:7e:ac:da:c9:dd:b6:6c:4b:0e:ee:5d:9a:9a:f1:c8:f9:49:
         7b:91:97:b8:4d:cc:d8:d8:6b:3b:3c:bb:5f:a0:d6:e1:a0:fd:
         b5:a8:05:2a:8c:eb:fd:d8:45:aa:27:33:c7:ed:be:86:c1:b1:
         1f:2f:48:32:cb:9f:72:ae:d7:2e:5e:3c:60:88:50:43:3a:b8:
         75:46:b5:7e:f7:91:a1:13:70:8a:1a:13:89:1a:96:3b:49:00:
         96:b8:60:78:0f:71:8f:bb:19:cd:15:f1:38:44:8f:78:f0:e5:
         81:64:57:99:a3:6b:d4:3b:ee:74:9f:d0:9a:ca:1b:12:fb:eb:
         5b:2e:96:5b:44:59:27:ba:66:f7:45:04:04:07:ca:24:81:f8:
         6a:02:a1:78:dd:cc:51:14:ef:e9:ef:5e:4e:97:5a:b2:1a:a5:
         e5:12:dc:4b:73:a7:e3:d5:8e:c6:cb:d7:a4:e7:5b:3b:0e:0d:
         e6:10:08:4a:d5:10:e7:b3:e3:81:dd:c7:85:42:b8:cb:eb:61:
         8a:5e:05:fb:a6:95:58:04:b6:2f:d1:33:8d:5b:01:49:d6:fb:
         e3:be:4c:0c:c5:52:e5:6b:78:70:9b:b3:b0:29:b0:6d:01:c0:
         04:8e:73:0a:c7:01:9b:02:d3:9b:91:67:a3:8b:f4:cb:8f:7e:
         77:e8:93:b6:ca:99:1e:2b:98:95:1f:ba:45:9c:51:30:91:7f:
         e0:6d:42:fd:ff:06:35:0e:23:b7:af:03:f4:27:b5:6f:03:d1:
         5d:7a:0e:f9:8d:ef:ba:47:bd:9a:4a:8f:fe:b5:56:3b:29:73:
         2e:0c:19:9f:ca:5e:dc:bf:6b:c5:97:9f:d8:a5:13:a0:6e:bc:
         e9:52:9c:17:8b:a7:29:14:50:04:35:33:4c:5f:55:4d:54:8d:
         61:fa:8d:1e:26:04:a5:ef:82:a6:1c:ad:19:ea:8c:d7:38:3d:
         f6:7e:63:40:bf:96:7a:7a:62:c7:25:29:a1:58:ed:6d:39:cb:
         96:a6:77:dd:e4:1b:76:ca:c2:f9:fd:c9:0b:da:ac:ee:ec:05:
         58:88:0b:62:5a:f1:4c:02:df:b8:48:eb:65:d7:f5:4f:d5:4c:
         25:4a:13:e3:8f:cf:8e:37:e1:3e:d8:57:c4:3a:50:6b:e8:a5:
         91:0d:9c:06:3e:71:fd:af:df:c1:0d:c8:44:4a:89:66:61:ad:
         57:06:14:94:ec:68:69:bf:6d:b0:e5:e2:ff:43:76:1b:93:ef:
         bb:ac:c7:b1:90:05:6b:31:13:70:87:0d:3a:e0:27:cd:60:40:
         ce:fb:e3:3d:3c:ce:ec:46:9a:82:8e:dd:a5:3e:34:7d:24:a6:
         5d:27:85:95:c6:50:99:cc
-----BEGIN CERTIFICATE-----
MIIFlDCCA3ygAwIBAgICAU4wDQYJKoZIhvcNAQELBQAwgYQxCzAJBgNVBAYTAkNI
MRAwDgYDVQQIEwdUaHVyZ2F1MRAwDgYDVQQHEwdLZWZpa29uMRMwEQYDVQQKEwpn
dWVuZ2VsLmNoMRYwFAYDVQQDEw1DQSBndWVuZ2VsLmNoMSQwIgYJKoZIhvcNAQkB
FhVwb3N0bWFzdGVyQGd1ZW5nZWwuY2gwHhcNMTgxMjI5MTQzOTU3WhcNMjAwMjAy
MTQzOTU3WjB5MQswCQYDVQQGEwJDSDEQMA4GA1UECBMHVGh1cmdhdTETMBEGA1UE
ChMKZ3VlbmdlbC5jaDEdMBsGA1UEAxMUYmVhc3RpZS5rcnVlbWVsLmhvbWUxJDAi
BgkqhkiG9w0BCQEWFXBvc3RtYXN0ZXJAZ3VlbmdlbC5jaDCCASIwDQYJKoZIhvcN
AQEBBQADggEPADCCAQoCggEBAN20Z/+7Eh/HfD0TazpSIblcCfrcXEVldBnX3DVF
9wdsa1+WIJq/44Kwa+y5FHeinlXF/cAhmiBYiY7ZqXiPQ6KtNac8qaG3itzI56By
w8egJW1I96A1v3EVr5GODDVuKIKFDDYMRU6dJd+Kx9EXww+qCF4G/t2JEQsOjR6T
ZR769X6reww8o+fx1S5sg30Rf8LrKFjRj/3pah8N/1WJrpWSeK5UmGjlXbAteVfX
ltcfxzNai0oKtjlWCIfMpxJ6glIIIsQ02yYWrL50NehfrDzWht7GZOfuQVgt+SxT
hmXhFR5ns8bQhwTUCjNYfaEBggXJRpQ1AJMtfasTKXqnkvMCAwEAAaOCARgwggEU
MAkGA1UdEwQCMAAwLAYJYIZIAYb4QgENBB8WHU9wZW5TU0wgR2VuZXJhdGVkIENl
cnRpZmljYXRlMB0GA1UdDgQWBBTXgkdHCnRpKYh1kebOl489npYvfTCBuQYDVR0j
BIGxMIGugBTWiPGqwSsJjLhcnc7fVzliJhAgkKGBiqSBhzCBhDELMAkGA1UEBhMC
Q0gxEDAOBgNVBAgTB1RodXJnYXUxEDAOBgNVBAcTB0tlZmlrb24xEzARBgNVBAoT
Cmd1ZW5nZWwuY2gxFjAUBgNVBAMTDUNBIGd1ZW5nZWwuY2gxJDAiBgkqhkiG9w0B
CQEWFXBvc3RtYXN0ZXJAZ3VlbmdlbC5jaIIJAOUlO6Z3vcv/MA0GCSqGSIb3DQEB
CwUAA4ICAQDPfqzayd22bEsO7l2amvHI+Ul7kZe4TczY2Gs7PLtfoNbhoP21qAUq
jOv92EWqJzPH7b6GwbEfL0gyy59yrtcuXjxgiFBDOrh1RrV+95GhE3CKGhOJGpY7
SQCWuGB4D3GPuxnNFfE4RI948OWBZFeZo2vUO+50n9CayhsS++tbLpZbRFknumb3
RQQEB8okgfhqAqF43cxRFO/p715Ol1qyGqXlEtxLc6fj1Y7Gy9ek51s7Dg3mEAhK
1RDns+OB3ceFQrjL62GKXgX7ppVYBLYv0TONWwFJ1vvjvkwMxVLla3hwm7OwKbBt
AcAEjnMKxwGbAtObkWeji/TLj3536JO2ypkeK5iVH7pFnFEwkX/gbUL9/wY1DiO3
rwP0J7VvA9Fdeg75je+6R72aSo/+tVY7KXMuDBmfyl7cv2vFl5/YpROgbrzpUpwX
i6cpFFAENTNMX1VNVI1h+o0eJgSl74KmHK0Z6ozXOD32fmNAv5Z6emLHJSmhWO1t
OcuWpnfd5Bt2ysL5/ckL2qzu7AVYiAtiWvFMAt+4SOtl1/VP1UwlShPjj8+ON+E+
2FfEOlBr6KWRDZwGPnH9r9/BDchESolmYa1XBhSU7Ghpv22w5eL/Q3Ybk++7rMex
kAVrMRNwhw064CfNYEDO++M9PM7sRpqCjt2lPjR9JKZdJ4WVxlCZzA==
-----END CERTIFICATE-----
