Certificate:
    Data:
        Version: 3 (0x2)
        Serial Number: 232 (0xe8)
    Signature Algorithm: sha256WithRSAEncryption
        Issuer: C=CH, ST=Thurgau, L=Kefikon, O=guengel.ch, CN=CA guengel.ch/emailAddress=postmaster@guengel.ch
        Validity
            Not Before: Nov 20 09:17:10 2016 GMT
            Not After : Apr  4 09:17:10 2018 GMT
        Subject: C=CH, ST=Thurgau, O=guengel.ch, CN=beastie.kruemel.home/emailAddress=postmaster@guengel.ch
        Subject Public Key Info:
            Public Key Algorithm: rsaEncryption
                Public-Key: (2048 bit)
                Modulus:
                    00:dd:b4:67:ff:bb:12:1f:c7:7c:3d:13:6b:3a:52:
                    21:b9:5c:09:fa:dc:5c:45:65:74:19:d7:dc:35:45:
                    f7:07:6c:6b:5f:96:20:9a:bf:e3:82:b0:6b:ec:b9:
                    14:77:a2:9e:55:c5:fd:c0:21:9a:20:58:89:8e:d9:
                    a9:78:8f:43:a2:ad:35:a7:3c:a9:a1:b7:8a:dc:c8:
                    e7:a0:72:c3:c7:a0:25:6d:48:f7:a0:35:bf:71:15:
                    af:91:8e:0c:35:6e:28:82:85:0c:36:0c:45:4e:9d:
                    25:df:8a:c7:d1:17:c3:0f:aa:08:5e:06:fe:dd:89:
                    11:0b:0e:8d:1e:93:65:1e:fa:f5:7e:ab:7b:0c:3c:
                    a3:e7:f1:d5:2e:6c:83:7d:11:7f:c2:eb:28:58:d1:
                    8f:fd:e9:6a:1f:0d:ff:55:89:ae:95:92:78:ae:54:
                    98:68:e5:5d:b0:2d:79:57:d7:96:d7:1f:c7:33:5a:
                    8b:4a:0a:b6:39:56:08:87:cc:a7:12:7a:82:52:08:
                    22:c4:34:db:26:16:ac:be:74:35:e8:5f:ac:3c:d6:
                    86:de:c6:64:e7:ee:41:58:2d:f9:2c:53:86:65:e1:
                    15:1e:67:b3:c6:d0:87:04:d4:0a:33:58:7d:a1:01:
                    82:05:c9:46:94:35:00:93:2d:7d:ab:13:29:7a:a7:
                    92:f3
                Exponent: 65537 (0x10001)
        X509v3 extensions:
            X509v3 Basic Constraints: 
                CA:FALSE
            Netscape Comment: 
                OpenSSL Generated Certificate
            X509v3 Subject Key Identifier: 
                D7:82:47:47:0A:74:69:29:88:75:91:E6:CE:97:8F:3D:9E:96:2F:7D
            X509v3 Authority Key Identifier: 
                keyid:D6:88:F1:AA:C1:2B:09:8C:B8:5C:9D:CE:DF:57:39:62:26:10:20:90
                DirName:/C=CH/ST=Thurgau/L=Kefikon/O=guengel.ch/CN=CA guengel.ch/emailAddress=postmaster@guengel.ch
                serial:E5:25:3B:A6:77:BD:CB:FF

    Signature Algorithm: sha256WithRSAEncryption
         98:78:bf:aa:db:2b:76:0c:8c:5a:38:32:04:ea:da:66:2c:d0:
         cb:2b:b2:be:b0:3e:cf:e6:e8:06:fd:1e:ab:2e:de:06:49:cc:
         97:5e:c3:bb:61:dd:d2:a8:e0:af:8e:d4:51:cb:ab:3e:5b:7b:
         32:46:ba:73:06:f2:21:03:0e:06:6e:a8:39:02:82:c7:e3:c9:
         60:ef:0a:7e:5e:cf:8f:10:6e:25:93:5e:53:ac:02:aa:9a:ee:
         17:e2:07:c6:d6:3b:56:fa:d5:49:00:66:b7:0d:e7:3c:59:11:
         a9:cd:43:fd:fc:15:a7:2d:ef:64:84:88:b2:01:7c:7d:e5:3f:
         35:c4:10:0e:81:4b:cc:29:44:0c:ba:b7:93:ad:8d:1a:ff:32:
         c9:24:e8:8f:f3:41:7e:66:86:55:7e:09:1a:60:a4:e7:bd:65:
         90:29:ae:63:76:f6:aa:fc:e4:ad:aa:25:95:d4:58:ad:47:55:
         2c:d6:7a:7e:3f:22:f1:96:55:42:c2:39:15:3a:c7:38:32:56:
         22:ee:72:cd:bb:4d:ab:be:85:27:fc:ef:48:01:2d:0d:9d:ed:
         15:5c:09:e3:89:b8:50:1b:76:ed:cf:59:33:6a:d9:91:0a:84:
         78:75:b2:5c:19:58:3a:fc:a4:ed:f8:c2:f2:86:f9:ab:7c:39:
         d8:75:4f:82:4b:97:ea:56:67:22:97:f5:d6:b5:05:b9:f4:38:
         94:bc:e9:59:33:42:ea:b8:e9:3f:f6:2d:a3:7f:e6:29:4a:7e:
         e2:5c:18:27:ac:88:86:5d:e5:86:22:a9:37:02:9f:46:19:62:
         8d:d8:35:cd:03:9b:8c:c9:22:99:38:38:59:f4:86:94:ac:db:
         6f:b6:9e:83:d5:b8:b8:50:6e:1a:64:3f:3b:1a:63:cf:30:6b:
         d2:9f:e1:d4:06:fe:d5:2f:1e:51:37:f1:fb:24:8d:ee:c6:86:
         89:3e:54:58:5f:6b:b3:48:9c:c6:e1:0a:d2:15:b3:9a:c3:32:
         31:5a:48:c3:79:93:86:58:16:46:58:30:46:51:8d:2d:c0:33:
         42:37:10:ce:90:b8:f1:00:81:6a:b6:91:66:40:cb:5d:ee:91:
         93:b6:e2:d2:5e:f1:e4:89:2c:02:d8:16:19:d2:e4:d0:2d:e1:
         45:90:1a:12:f7:26:d5:a4:09:3a:1e:ad:94:96:5c:d0:89:18:
         bc:7a:68:ea:8e:40:cd:7d:f5:bd:7e:03:07:cc:2c:9f:fc:71:
         ac:79:bf:63:fb:55:14:e6:0f:ed:62:41:a0:9f:44:8d:67:0c:
         e5:97:b8:78:fc:50:d4:a5:02:e6:15:22:f1:ac:5b:14:8e:e3:
         ac:79:f7:84:d1:7f:8b:6c
-----BEGIN CERTIFICATE-----
MIIFlDCCA3ygAwIBAgICAOgwDQYJKoZIhvcNAQELBQAwgYQxCzAJBgNVBAYTAkNI
MRAwDgYDVQQIEwdUaHVyZ2F1MRAwDgYDVQQHEwdLZWZpa29uMRMwEQYDVQQKEwpn
dWVuZ2VsLmNoMRYwFAYDVQQDEw1DQSBndWVuZ2VsLmNoMSQwIgYJKoZIhvcNAQkB
FhVwb3N0bWFzdGVyQGd1ZW5nZWwuY2gwHhcNMTYxMTIwMDkxNzEwWhcNMTgwNDA0
MDkxNzEwWjB5MQswCQYDVQQGEwJDSDEQMA4GA1UECBMHVGh1cmdhdTETMBEGA1UE
ChMKZ3VlbmdlbC5jaDEdMBsGA1UEAxMUYmVhc3RpZS5rcnVlbWVsLmhvbWUxJDAi
BgkqhkiG9w0BCQEWFXBvc3RtYXN0ZXJAZ3VlbmdlbC5jaDCCASIwDQYJKoZIhvcN
AQEBBQADggEPADCCAQoCggEBAN20Z/+7Eh/HfD0TazpSIblcCfrcXEVldBnX3DVF
9wdsa1+WIJq/44Kwa+y5FHeinlXF/cAhmiBYiY7ZqXiPQ6KtNac8qaG3itzI56By
w8egJW1I96A1v3EVr5GODDVuKIKFDDYMRU6dJd+Kx9EXww+qCF4G/t2JEQsOjR6T
ZR769X6reww8o+fx1S5sg30Rf8LrKFjRj/3pah8N/1WJrpWSeK5UmGjlXbAteVfX
ltcfxzNai0oKtjlWCIfMpxJ6glIIIsQ02yYWrL50NehfrDzWht7GZOfuQVgt+SxT
hmXhFR5ns8bQhwTUCjNYfaEBggXJRpQ1AJMtfasTKXqnkvMCAwEAAaOCARgwggEU
MAkGA1UdEwQCMAAwLAYJYIZIAYb4QgENBB8WHU9wZW5TU0wgR2VuZXJhdGVkIENl
cnRpZmljYXRlMB0GA1UdDgQWBBTXgkdHCnRpKYh1kebOl489npYvfTCBuQYDVR0j
BIGxMIGugBTWiPGqwSsJjLhcnc7fVzliJhAgkKGBiqSBhzCBhDELMAkGA1UEBhMC
Q0gxEDAOBgNVBAgTB1RodXJnYXUxEDAOBgNVBAcTB0tlZmlrb24xEzARBgNVBAoT
Cmd1ZW5nZWwuY2gxFjAUBgNVBAMTDUNBIGd1ZW5nZWwuY2gxJDAiBgkqhkiG9w0B
CQEWFXBvc3RtYXN0ZXJAZ3VlbmdlbC5jaIIJAOUlO6Z3vcv/MA0GCSqGSIb3DQEB
CwUAA4ICAQCYeL+q2yt2DIxaODIE6tpmLNDLK7K+sD7P5ugG/R6rLt4GScyXXsO7
Yd3SqOCvjtRRy6s+W3syRrpzBvIhAw4Gbqg5AoLH48lg7wp+Xs+PEG4lk15TrAKq
mu4X4gfG1jtW+tVJAGa3Dec8WRGpzUP9/BWnLe9khIiyAXx95T81xBAOgUvMKUQM
ureTrY0a/zLJJOiP80F+ZoZVfgkaYKTnvWWQKa5jdvaq/OStqiWV1FitR1Us1np+
PyLxllVCwjkVOsc4MlYi7nLNu02rvoUn/O9IAS0Nne0VXAnjibhQG3btz1kzatmR
CoR4dbJcGVg6/KTt+MLyhvmrfDnYdU+CS5fqVmcil/XWtQW59DiUvOlZM0LquOk/
9i2jf+YpSn7iXBgnrIiGXeWGIqk3Ap9GGWKN2DXNA5uMySKZODhZ9IaUrNtvtp6D
1bi4UG4aZD87GmPPMGvSn+HUBv7VLx5RN/H7JI3uxoaJPlRYX2uzSJzG4QrSFbOa
wzIxWkjDeZOGWBZGWDBGUY0twDNCNxDOkLjxAIFqtpFmQMtd7pGTtuLSXvHkiSwC
2BYZ0uTQLeFFkBoS9ybVpAk6Hq2UllzQiRi8emjqjkDNffW9fgMHzCyf/HGseb9j
+1UU5g/tYkGgn0SNZwzll7h4/FDUpQLmFSLxrFsUjuOsefeE0X+LbA==
-----END CERTIFICATE-----
