Certificate:
    Data:
        Version: 3 (0x2)
        Serial Number: 233 (0xe9)
    Signature Algorithm: sha256WithRSAEncryption
        Issuer: C=CH, ST=Thurgau, L=Kefikon, O=guengel.ch, CN=CA guengel.ch/emailAddress=postmaster@guengel.ch
        Validity
            Not Before: Nov 20 09:17:11 2016 GMT
            Not After : Apr  4 09:17:11 2018 GMT
        Subject: C=CH, ST=Thurgau, O=guengel.ch, CN=borg.virtual.kruemel.home/emailAddress=postmaster@guengel.ch
        Subject Public Key Info:
            Public Key Algorithm: rsaEncryption
                Public-Key: (2048 bit)
                Modulus:
                    00:e5:5d:8f:34:c4:4f:6d:40:85:b6:44:96:e4:f2:
                    10:94:51:6d:f7:5e:1d:9e:84:81:50:ca:b2:81:d3:
                    bf:2a:df:21:62:3b:58:0d:8b:c4:17:08:6b:ef:61:
                    03:25:b3:96:35:04:f4:e0:32:16:dc:30:86:48:d9:
                    6c:ba:e8:fb:43:33:1e:75:91:3d:86:d3:9d:87:43:
                    0b:55:d9:06:ab:c7:bb:d6:47:2c:b6:26:9e:ee:bb:
                    26:59:c9:2c:ab:e8:26:30:7a:36:da:20:cd:23:6e:
                    96:21:18:0b:3f:9e:9d:c2:aa:70:7a:bc:55:be:a0:
                    fb:8c:46:8f:19:27:be:4e:49:fe:52:c1:72:a1:42:
                    1a:36:7d:85:76:b2:42:12:e3:35:a2:b5:ec:34:57:
                    3f:78:df:46:0a:f4:07:e1:72:ee:60:25:e2:d9:89:
                    ae:7f:80:fd:35:97:02:a5:e8:01:02:e5:40:e3:6e:
                    de:4d:ec:04:fc:c0:86:b1:c8:14:fd:f7:12:85:37:
                    e7:dd:3f:c1:d6:69:e0:dc:8a:e1:2a:62:2a:86:fe:
                    ed:f1:7f:78:d9:43:ed:65:dd:64:6e:d1:84:b5:17:
                    1d:ea:bc:42:b8:b0:98:fb:05:91:55:c1:cb:e9:5f:
                    b3:c0:ce:fc:81:c3:0b:81:c0:39:0e:c8:65:77:08:
                    d5:f5
                Exponent: 65537 (0x10001)
        X509v3 extensions:
            X509v3 Basic Constraints: 
                CA:FALSE
            Netscape Comment: 
                OpenSSL Generated Certificate
            X509v3 Subject Key Identifier: 
                6F:DC:20:7B:5E:D3:02:25:1D:CC:92:80:72:75:7E:2C:E7:A8:63:D0
            X509v3 Authority Key Identifier: 
                keyid:D6:88:F1:AA:C1:2B:09:8C:B8:5C:9D:CE:DF:57:39:62:26:10:20:90
                DirName:/C=CH/ST=Thurgau/L=Kefikon/O=guengel.ch/CN=CA guengel.ch/emailAddress=postmaster@guengel.ch
                serial:E5:25:3B:A6:77:BD:CB:FF

    Signature Algorithm: sha256WithRSAEncryption
         88:d7:66:67:3d:25:23:ff:b7:ee:59:e4:d0:74:fa:a1:2f:8d:
         8f:8b:ac:87:8d:cc:43:e9:1f:89:d4:15:6b:54:c1:fe:94:fa:
         64:7e:01:db:68:9b:72:97:7a:0b:0e:11:ad:12:af:bd:06:f8:
         d9:3b:49:b8:9d:f0:1b:5e:e2:ac:3b:4f:c9:67:d8:1a:d9:c8:
         96:17:2e:f3:0e:f6:5a:e4:0a:6a:3c:2e:a6:63:5f:90:17:7a:
         6b:2c:e5:70:ab:cb:4c:62:31:b6:b7:e2:ed:8d:ce:d3:da:f6:
         06:4b:d0:37:54:4e:96:71:8e:c2:26:ad:75:59:d3:6e:fd:d9:
         9d:48:db:54:54:b0:1d:a3:7f:32:31:97:5d:69:e3:45:37:61:
         19:74:ac:51:db:b1:28:fb:5e:48:6e:c3:74:96:55:92:38:6f:
         e9:2d:46:a1:e4:73:e9:a7:c4:a1:ca:57:4a:8b:06:53:2f:e2:
         bb:51:f2:8f:e7:31:d3:63:28:9e:a7:4f:03:f0:4e:48:06:4c:
         c7:1e:c1:ea:3a:fb:a2:87:64:ae:f8:54:93:65:80:21:00:7c:
         5f:8e:b0:75:d8:2a:d5:05:e3:de:71:de:4c:c0:94:8d:7c:b3:
         14:34:4f:8b:87:52:9f:dd:6f:db:9c:54:81:43:51:b3:53:71:
         9e:91:0d:57:ec:ce:3f:5e:44:ab:0f:61:28:e4:97:d1:c4:53:
         eb:fa:f2:93:4f:5e:2a:eb:7a:76:55:e8:b1:8d:fd:f2:74:40:
         8f:2a:71:fe:ab:12:94:25:ed:eb:6b:5e:04:54:69:4d:7c:45:
         f4:20:28:73:64:98:6e:99:7c:70:c9:32:66:cc:ce:40:ad:90:
         38:1f:be:13:4a:0e:56:8c:51:a2:24:37:0f:1e:93:c2:71:7d:
         6d:08:ba:aa:04:cf:68:22:70:ce:17:4f:8a:f3:dd:7b:ba:31:
         00:37:07:7b:2a:dc:1f:65:9c:b3:37:cd:a0:7b:38:f2:74:5c:
         db:5f:b8:6a:b6:d1:d7:9c:e9:a3:95:60:ed:61:aa:e9:12:b8:
         06:02:d2:86:be:4f:fa:d2:56:e4:dd:43:b8:01:24:b6:90:b0:
         35:10:51:14:5a:57:47:b1:8c:eb:53:e1:7f:f1:cb:80:bf:e5:
         bc:2d:0a:ab:7c:a0:db:87:d6:46:0f:b2:ee:3b:d3:9c:f5:9e:
         33:ae:98:50:18:27:56:64:4a:57:d8:a7:d7:fb:13:c6:64:4e:
         17:27:15:66:05:6e:15:00:79:84:7a:83:0d:c1:94:54:ce:37:
         5e:e3:92:90:b2:74:cc:80:60:d1:e2:6a:14:c8:df:dc:4a:0e:
         e1:4a:c9:3e:7e:22:03:0c
-----BEGIN CERTIFICATE-----
MIIFmTCCA4GgAwIBAgICAOkwDQYJKoZIhvcNAQELBQAwgYQxCzAJBgNVBAYTAkNI
MRAwDgYDVQQIEwdUaHVyZ2F1MRAwDgYDVQQHEwdLZWZpa29uMRMwEQYDVQQKEwpn
dWVuZ2VsLmNoMRYwFAYDVQQDEw1DQSBndWVuZ2VsLmNoMSQwIgYJKoZIhvcNAQkB
FhVwb3N0bWFzdGVyQGd1ZW5nZWwuY2gwHhcNMTYxMTIwMDkxNzExWhcNMTgwNDA0
MDkxNzExWjB+MQswCQYDVQQGEwJDSDEQMA4GA1UECBMHVGh1cmdhdTETMBEGA1UE
ChMKZ3VlbmdlbC5jaDEiMCAGA1UEAxMZYm9yZy52aXJ0dWFsLmtydWVtZWwuaG9t
ZTEkMCIGCSqGSIb3DQEJARYVcG9zdG1hc3RlckBndWVuZ2VsLmNoMIIBIjANBgkq
hkiG9w0BAQEFAAOCAQ8AMIIBCgKCAQEA5V2PNMRPbUCFtkSW5PIQlFFt914dnoSB
UMqygdO/Kt8hYjtYDYvEFwhr72EDJbOWNQT04DIW3DCGSNlsuuj7QzMedZE9htOd
h0MLVdkGq8e71kcstiae7rsmWcksq+gmMHo22iDNI26WIRgLP56dwqpwerxVvqD7
jEaPGSe+Tkn+UsFyoUIaNn2FdrJCEuM1orXsNFc/eN9GCvQH4XLuYCXi2Ymuf4D9
NZcCpegBAuVA427eTewE/MCGscgU/fcShTfn3T/B1mng3IrhKmIqhv7t8X942UPt
Zd1kbtGEtRcd6rxCuLCY+wWRVcHL6V+zwM78gcMLgcA5DshldwjV9QIDAQABo4IB
GDCCARQwCQYDVR0TBAIwADAsBglghkgBhvhCAQ0EHxYdT3BlblNTTCBHZW5lcmF0
ZWQgQ2VydGlmaWNhdGUwHQYDVR0OBBYEFG/cIHte0wIlHcySgHJ1fiznqGPQMIG5
BgNVHSMEgbEwga6AFNaI8arBKwmMuFydzt9XOWImECCQoYGKpIGHMIGEMQswCQYD
VQQGEwJDSDEQMA4GA1UECBMHVGh1cmdhdTEQMA4GA1UEBxMHS2VmaWtvbjETMBEG
A1UEChMKZ3VlbmdlbC5jaDEWMBQGA1UEAxMNQ0EgZ3VlbmdlbC5jaDEkMCIGCSqG
SIb3DQEJARYVcG9zdG1hc3RlckBndWVuZ2VsLmNoggkA5SU7pne9y/8wDQYJKoZI
hvcNAQELBQADggIBAIjXZmc9JSP/t+5Z5NB0+qEvjY+LrIeNzEPpH4nUFWtUwf6U
+mR+Adtom3KXegsOEa0Sr70G+Nk7Sbid8Bte4qw7T8ln2BrZyJYXLvMO9lrkCmo8
LqZjX5AXemss5XCry0xiMba34u2NztPa9gZL0DdUTpZxjsImrXVZ02792Z1I21RU
sB2jfzIxl11p40U3YRl0rFHbsSj7Xkhuw3SWVZI4b+ktRqHkc+mnxKHKV0qLBlMv
4rtR8o/nMdNjKJ6nTwPwTkgGTMceweo6+6KHZK74VJNlgCEAfF+OsHXYKtUF495x
3kzAlI18sxQ0T4uHUp/db9ucVIFDUbNTcZ6RDVfszj9eRKsPYSjkl9HEU+v68pNP
XirrenZV6LGN/fJ0QI8qcf6rEpQl7etrXgRUaU18RfQgKHNkmG6ZfHDJMmbMzkCt
kDgfvhNKDlaMUaIkNw8ek8JxfW0IuqoEz2gicM4XT4rz3Xu6MQA3B3sq3B9lnLM3
zaB7OPJ0XNtfuGq20dec6aOVYO1hqukSuAYC0oa+T/rSVuTdQ7gBJLaQsDUQURRa
V0exjOtT4X/xy4C/5bwtCqt8oNuH1kYPsu4705z1njOumFAYJ1ZkSlfYp9f7E8Zk
ThcnFWYFbhUAeYR6gw3BlFTON17jkpCydMyAYNHiahTI39xKDuFKyT5+IgMM
-----END CERTIFICATE-----
