Certificate:
    Data:
        Version: 3 (0x2)
        Serial Number: 234 (0xea)
    Signature Algorithm: sha256WithRSAEncryption
        Issuer: C=CH, ST=Thurgau, L=Kefikon, O=guengel.ch, CN=CA guengel.ch/emailAddress=postmaster@guengel.ch
        Validity
            Not Before: Nov 20 09:17:11 2016 GMT
            Not After : Apr  4 09:17:11 2018 GMT
        Subject: C=CH, ST=Thurgau, O=guengel.ch, CN=brutus.kruemel.home/emailAddress=postmaster@guengel.ch
        Subject Public Key Info:
            Public Key Algorithm: rsaEncryption
                Public-Key: (2048 bit)
                Modulus:
                    00:cd:2e:19:f6:78:75:70:ce:07:4b:5b:fc:61:2c:
                    84:92:19:72:ea:7c:d7:86:86:59:41:1e:fb:f1:da:
                    41:6d:7a:f1:aa:38:c4:c1:bc:84:cb:6b:6c:b7:16:
                    0d:a8:ae:0c:e1:ab:f9:87:09:36:e5:07:12:cb:ee:
                    80:e8:2f:5a:41:7b:95:45:dd:17:40:14:6a:a7:02:
                    65:3f:c2:51:b5:4e:cc:1b:7b:df:da:2f:16:74:8c:
                    a0:2b:58:07:1a:d6:fa:47:aa:78:c4:a1:a3:37:e1:
                    bf:d0:02:ac:d6:3f:91:cf:36:23:a4:09:7c:fe:07:
                    55:65:4f:47:47:d5:3b:d8:8b:e8:65:86:4a:b8:1b:
                    38:3c:35:de:a1:04:94:63:76:0b:04:20:c8:29:b8:
                    7c:55:e9:9a:14:46:be:9f:f3:f2:b3:5b:0e:f7:e6:
                    8f:6f:f8:75:8b:4f:8a:db:99:1f:db:76:5c:eb:8a:
                    f7:cc:df:11:b1:ec:a6:0f:87:3d:81:f7:aa:a6:79:
                    1a:37:4c:71:dd:50:f0:58:9b:59:22:88:4f:6e:79:
                    03:11:81:99:ac:81:b0:b1:79:ad:7c:d1:11:d3:e8:
                    40:20:c9:1a:9e:3a:3d:5e:06:7a:33:dc:c6:33:39:
                    cf:c2:d3:88:10:b1:61:cc:7c:9c:7f:77:fc:00:4f:
                    70:4d
                Exponent: 65537 (0x10001)
        X509v3 extensions:
            X509v3 Basic Constraints: 
                CA:FALSE
            Netscape Comment: 
                OpenSSL Generated Certificate
            X509v3 Subject Key Identifier: 
                E6:F1:42:4F:DD:55:3E:45:EC:CB:05:13:7C:73:57:1A:B4:E7:66:EB
            X509v3 Authority Key Identifier: 
                keyid:D6:88:F1:AA:C1:2B:09:8C:B8:5C:9D:CE:DF:57:39:62:26:10:20:90
                DirName:/C=CH/ST=Thurgau/L=Kefikon/O=guengel.ch/CN=CA guengel.ch/emailAddress=postmaster@guengel.ch
                serial:E5:25:3B:A6:77:BD:CB:FF

    Signature Algorithm: sha256WithRSAEncryption
         0f:c1:b8:66:76:10:7c:a0:b1:74:ad:a3:cd:38:79:33:fd:48:
         38:49:68:18:06:b0:33:96:6d:67:b0:21:59:1f:ba:be:37:02:
         54:b2:18:93:31:2c:58:a7:50:cd:f8:a0:4a:a7:7f:3f:d5:f0:
         94:f1:c9:eb:94:3a:b7:1c:e4:cf:e2:48:f2:c0:bd:eb:4d:db:
         a2:18:1f:8e:bd:b9:61:34:74:16:53:5f:04:18:1b:ec:5f:69:
         37:83:18:53:d0:d5:59:0d:4b:0b:ba:d2:fa:85:a3:3d:6d:8f:
         ee:ae:18:11:81:78:d7:04:f7:7e:46:68:c5:61:4f:f6:0a:56:
         b8:8a:e1:a8:ee:a6:3d:d3:6c:df:19:26:1f:93:ac:4b:bb:2d:
         15:e1:29:b8:5e:1a:75:64:fa:8d:a6:59:d9:43:82:93:13:ea:
         30:d3:7e:21:da:b1:c0:c5:86:0d:85:2a:3f:4b:fa:c3:06:28:
         48:7f:de:89:3b:68:83:bb:82:ac:c3:de:6d:42:c0:ec:a7:1c:
         1e:e0:47:d8:aa:0f:27:fb:4f:e7:cc:04:3e:11:6d:41:17:3b:
         36:12:99:06:d4:be:5a:de:fc:3c:2f:65:03:86:e6:a2:25:eb:
         02:e8:8e:c8:9f:a4:2d:f0:3c:1b:c5:44:cc:4e:ea:8d:1d:04:
         09:e1:5c:69:7c:ff:1a:bc:27:15:05:18:54:15:a5:68:81:6d:
         13:53:16:85:8f:09:4a:87:d7:b6:bf:6d:8d:4c:0c:26:8d:dc:
         00:21:ac:09:4c:99:df:bc:c3:b7:e3:21:f1:00:49:20:3e:04:
         43:9b:bc:27:f2:9b:fe:be:83:76:9a:8a:02:95:3a:b3:55:56:
         24:e6:7b:1c:a0:9b:f9:83:37:32:f2:76:09:3e:b8:a3:eb:0d:
         46:5b:86:17:9c:15:a5:ed:24:e5:2d:cf:2e:7c:44:ef:74:4b:
         db:76:95:87:5f:8d:b4:14:51:51:01:15:92:41:54:e9:f0:af:
         47:f1:7e:e4:ac:e5:ae:80:d8:b7:34:cd:ff:04:3d:fa:ac:e6:
         f5:78:7f:ef:77:ad:a9:98:ab:45:a7:2e:1c:ae:f9:71:5e:62:
         f6:7a:17:71:f0:fe:4d:51:ba:6b:1e:fc:29:ca:53:60:97:5e:
         1d:b8:37:97:3f:e5:ec:c6:26:39:2e:0c:a4:bb:98:04:be:fb:
         ee:e1:c3:01:a2:3f:d7:e5:56:1b:e0:8e:78:6b:46:af:55:f3:
         98:96:84:90:62:33:bf:e3:bd:b4:d2:36:77:38:61:bd:cc:7c:
         7d:6c:c5:53:d9:be:8a:27:84:e0:b6:fb:0a:8d:50:6b:1c:bc:
         19:c8:99:00:72:a3:83:90
-----BEGIN CERTIFICATE-----
MIIFkzCCA3ugAwIBAgICAOowDQYJKoZIhvcNAQELBQAwgYQxCzAJBgNVBAYTAkNI
MRAwDgYDVQQIEwdUaHVyZ2F1MRAwDgYDVQQHEwdLZWZpa29uMRMwEQYDVQQKEwpn
dWVuZ2VsLmNoMRYwFAYDVQQDEw1DQSBndWVuZ2VsLmNoMSQwIgYJKoZIhvcNAQkB
FhVwb3N0bWFzdGVyQGd1ZW5nZWwuY2gwHhcNMTYxMTIwMDkxNzExWhcNMTgwNDA0
MDkxNzExWjB4MQswCQYDVQQGEwJDSDEQMA4GA1UECBMHVGh1cmdhdTETMBEGA1UE
ChMKZ3VlbmdlbC5jaDEcMBoGA1UEAxMTYnJ1dHVzLmtydWVtZWwuaG9tZTEkMCIG
CSqGSIb3DQEJARYVcG9zdG1hc3RlckBndWVuZ2VsLmNoMIIBIjANBgkqhkiG9w0B
AQEFAAOCAQ8AMIIBCgKCAQEAzS4Z9nh1cM4HS1v8YSyEkhly6nzXhoZZQR778dpB
bXrxqjjEwbyEy2tstxYNqK4M4av5hwk25QcSy+6A6C9aQXuVRd0XQBRqpwJlP8JR
tU7MG3vf2i8WdIygK1gHGtb6R6p4xKGjN+G/0AKs1j+RzzYjpAl8/gdVZU9HR9U7
2IvoZYZKuBs4PDXeoQSUY3YLBCDIKbh8VemaFEa+n/Pys1sO9+aPb/h1i0+K25kf
23Zc64r3zN8RseymD4c9gfeqpnkaN0xx3VDwWJtZIohPbnkDEYGZrIGwsXmtfNER
0+hAIMkanjo9XgZ6M9zGMznPwtOIELFhzHycf3f8AE9wTQIDAQABo4IBGDCCARQw
CQYDVR0TBAIwADAsBglghkgBhvhCAQ0EHxYdT3BlblNTTCBHZW5lcmF0ZWQgQ2Vy
dGlmaWNhdGUwHQYDVR0OBBYEFObxQk/dVT5F7MsFE3xzVxq052brMIG5BgNVHSME
gbEwga6AFNaI8arBKwmMuFydzt9XOWImECCQoYGKpIGHMIGEMQswCQYDVQQGEwJD
SDEQMA4GA1UECBMHVGh1cmdhdTEQMA4GA1UEBxMHS2VmaWtvbjETMBEGA1UEChMK
Z3VlbmdlbC5jaDEWMBQGA1UEAxMNQ0EgZ3VlbmdlbC5jaDEkMCIGCSqGSIb3DQEJ
ARYVcG9zdG1hc3RlckBndWVuZ2VsLmNoggkA5SU7pne9y/8wDQYJKoZIhvcNAQEL
BQADggIBAA/BuGZ2EHygsXSto804eTP9SDhJaBgGsDOWbWewIVkfur43AlSyGJMx
LFinUM34oEqnfz/V8JTxyeuUOrcc5M/iSPLAvetN26IYH469uWE0dBZTXwQYG+xf
aTeDGFPQ1VkNSwu60vqFoz1tj+6uGBGBeNcE935GaMVhT/YKVriK4ajupj3TbN8Z
Jh+TrEu7LRXhKbheGnVk+o2mWdlDgpMT6jDTfiHascDFhg2FKj9L+sMGKEh/3ok7
aIO7gqzD3m1CwOynHB7gR9iqDyf7T+fMBD4RbUEXOzYSmQbUvlre/DwvZQOG5qIl
6wLojsifpC3wPBvFRMxO6o0dBAnhXGl8/xq8JxUFGFQVpWiBbRNTFoWPCUqH17a/
bY1MDCaN3AAhrAlMmd+8w7fjIfEASSA+BEObvCfym/6+g3aaigKVOrNVViTmexyg
m/mDNzLydgk+uKPrDUZbhhecFaXtJOUtzy58RO90S9t2lYdfjbQUUVEBFZJBVOnw
r0fxfuSs5a6A2Lc0zf8EPfqs5vV4f+93ramYq0WnLhyu+XFeYvZ6F3Hw/k1Rumse
/CnKU2CXXh24N5c/5ezGJjkuDKS7mAS+++7hwwGiP9flVhvgjnhrRq9V85iWhJBi
M7/jvbTSNnc4Yb3MfH1sxVPZvoonhOC2+wqNUGscvBnImQByo4OQ
-----END CERTIFICATE-----
