Certificate:
    Data:
        Version: 3 (0x2)
        Serial Number: 335 (0x14f)
    Signature Algorithm: sha256WithRSAEncryption
        Issuer: C=CH, ST=Thurgau, L=Kefikon, O=guengel.ch, CN=CA guengel.ch/emailAddress=postmaster@guengel.ch
        Validity
            Not Before: Dec 29 14:39:57 2018 GMT
            Not After : Feb  2 14:39:57 2020 GMT
        Subject: C=CH, ST=Thurgau, O=guengel.ch, CN=bugzilla.web.kruemel.home/emailAddress=postmaster@guengel.ch
        Subject Public Key Info:
            Public Key Algorithm: rsaEncryption
                Public-Key: (2048 bit)
                Modulus:
                    00:c3:71:0b:49:22:72:c4:c8:83:2c:a0:01:54:92:
                    02:89:9d:c8:17:96:fa:2f:ff:75:ce:6b:e2:64:69:
                    05:91:b3:86:a3:c8:04:2a:99:5b:fd:b9:0b:37:91:
                    92:8c:c4:17:6e:b5:99:28:81:6c:e1:e6:19:a9:f6:
                    bf:7a:ce:95:44:ba:a1:a2:c5:5d:7a:b3:3a:86:50:
                    d4:2f:4d:ba:8d:a7:d3:1f:7d:4a:d8:f8:b0:b7:cb:
                    ea:c1:b9:be:02:53:68:44:90:9b:b2:09:6d:d5:54:
                    a1:4c:33:3f:1b:94:38:6a:37:b0:32:34:fe:27:a2:
                    a0:a4:05:e0:f7:51:6f:c7:4f:fc:eb:37:c9:13:2b:
                    09:df:ed:af:ed:fa:52:63:f6:de:ec:96:4f:81:e1:
                    df:fe:0c:e3:18:ca:13:b6:7a:74:c8:4c:d5:f4:9c:
                    1d:94:4c:7b:7d:64:eb:06:05:43:5d:d2:d9:11:88:
                    e5:8b:00:1f:ca:bb:25:4c:ac:9a:11:0d:f1:90:12:
                    99:57:43:b0:0d:27:4e:ce:78:52:61:eb:86:d0:92:
                    aa:c9:43:b4:7c:80:bd:22:f5:43:9e:84:98:26:44:
                    83:5f:39:80:09:10:df:dd:33:99:a4:90:e1:a0:3c:
                    bd:37:32:8d:4f:51:73:6a:0f:b3:86:87:ee:66:99:
                    61:8f
                Exponent: 65537 (0x10001)
        X509v3 extensions:
            X509v3 Basic Constraints: 
                CA:FALSE
            Netscape Comment: 
                OpenSSL Generated Certificate
            X509v3 Subject Key Identifier: 
                17:16:EB:98:CF:43:39:BD:BC:F7:AC:36:53:CA:F1:E0:56:E3:FE:F7
            X509v3 Authority Key Identifier: 
                keyid:D6:88:F1:AA:C1:2B:09:8C:B8:5C:9D:CE:DF:57:39:62:26:10:20:90
                DirName:/C=CH/ST=Thurgau/L=Kefikon/O=guengel.ch/CN=CA guengel.ch/emailAddress=postmaster@guengel.ch
                serial:E5:25:3B:A6:77:BD:CB:FF

    Signature Algorithm: sha256WithRSAEncryption
         06:0b:9f:68:10:7c:1d:36:90:45:93:a9:cc:ff:58:0e:28:1d:
         0f:1a:c5:d3:a5:c7:d6:ef:2e:7e:f9:8e:67:35:4c:75:6c:1b:
         4c:77:54:2b:58:3d:71:c4:b4:94:cd:40:dd:1c:cf:8d:af:11:
         aa:66:73:92:74:59:5e:b1:15:fe:d8:5f:b2:2f:55:68:ef:01:
         b0:ee:be:ec:b1:32:a1:6e:e9:6a:fa:21:27:c1:6e:b9:65:68:
         c5:36:1a:55:18:2e:de:6e:33:32:19:6f:00:92:64:75:79:9e:
         b1:bc:6c:a0:37:81:9e:17:fe:d8:53:77:8d:c8:69:20:bc:5b:
         a6:3c:8b:64:ed:e3:ee:4a:24:19:b6:60:65:fc:fc:ae:84:c4:
         98:8a:b6:40:90:cd:2a:96:02:90:b6:fd:31:46:1d:51:5b:b4:
         fd:68:cf:7c:1e:c6:de:f8:1c:e0:39:04:5a:f7:b4:e5:66:23:
         4f:6d:4c:a2:42:df:3e:dc:64:1d:9d:1e:29:1a:71:d6:6b:67:
         e9:92:ef:be:0a:43:85:89:8f:ad:51:ab:fe:0e:f4:93:21:38:
         20:63:02:b2:fc:6e:d9:8c:e2:bc:56:5c:2e:5b:f8:8e:71:16:
         96:e3:8c:71:f6:14:e3:e2:26:36:86:0e:e8:32:b0:09:58:ec:
         fb:33:fe:6c:d1:4a:92:d5:99:3a:d5:c8:32:33:5f:84:fc:11:
         1b:41:db:dd:d5:76:18:ac:32:3a:cd:68:02:dc:2c:15:03:8d:
         0a:31:c3:dd:55:ab:0c:35:6a:f0:03:c5:ab:8f:f0:74:eb:ff:
         71:a1:3b:e0:45:a1:62:37:5a:cf:ab:9f:38:15:d0:a9:80:df:
         5a:35:67:68:53:e4:75:de:67:48:10:f5:a9:5f:cf:10:be:7f:
         74:fe:93:ca:c0:ca:ff:76:8b:95:d1:75:17:68:a3:f6:fb:42:
         6b:c0:ad:82:40:94:4e:00:f9:01:ef:7f:7a:58:e4:1a:8e:7f:
         38:b8:e9:38:5d:b5:c4:ca:bb:09:7b:29:09:59:37:a0:7d:03:
         86:84:e0:b6:55:d8:2d:7f:5d:d0:0c:34:e8:bf:c4:64:d0:ab:
         d6:cc:f9:e3:2b:05:b2:a2:ca:ff:77:85:1c:10:08:3f:d4:b5:
         f0:ca:92:98:10:ab:08:a2:d4:00:6f:8b:1c:a4:e8:fa:c2:13:
         a2:e2:19:2c:72:46:06:36:6c:94:0d:59:c9:4a:ad:22:62:d2:
         48:a2:ab:27:cb:98:27:6b:b8:c0:c7:ee:13:60:31:8d:5d:60:
         f0:bd:ee:59:68:8e:5a:ed:9c:a5:92:c5:a5:ce:a7:f1:83:d9:
         b4:e8:a2:17:f0:76:34:d1
-----BEGIN CERTIFICATE-----
MIIFmTCCA4GgAwIBAgICAU8wDQYJKoZIhvcNAQELBQAwgYQxCzAJBgNVBAYTAkNI
MRAwDgYDVQQIEwdUaHVyZ2F1MRAwDgYDVQQHEwdLZWZpa29uMRMwEQYDVQQKEwpn
dWVuZ2VsLmNoMRYwFAYDVQQDEw1DQSBndWVuZ2VsLmNoMSQwIgYJKoZIhvcNAQkB
FhVwb3N0bWFzdGVyQGd1ZW5nZWwuY2gwHhcNMTgxMjI5MTQzOTU3WhcNMjAwMjAy
MTQzOTU3WjB+MQswCQYDVQQGEwJDSDEQMA4GA1UECBMHVGh1cmdhdTETMBEGA1UE
ChMKZ3VlbmdlbC5jaDEiMCAGA1UEAxMZYnVnemlsbGEud2ViLmtydWVtZWwuaG9t
ZTEkMCIGCSqGSIb3DQEJARYVcG9zdG1hc3RlckBndWVuZ2VsLmNoMIIBIjANBgkq
hkiG9w0BAQEFAAOCAQ8AMIIBCgKCAQEAw3ELSSJyxMiDLKABVJICiZ3IF5b6L/91
zmviZGkFkbOGo8gEKplb/bkLN5GSjMQXbrWZKIFs4eYZqfa/es6VRLqhosVderM6
hlDUL026jafTH31K2Piwt8vqwbm+AlNoRJCbsglt1VShTDM/G5Q4ajewMjT+J6Kg
pAXg91Fvx0/86zfJEysJ3+2v7fpSY/be7JZPgeHf/gzjGMoTtnp0yEzV9JwdlEx7
fWTrBgVDXdLZEYjliwAfyrslTKyaEQ3xkBKZV0OwDSdOznhSYeuG0JKqyUO0fIC9
IvVDnoSYJkSDXzmACRDf3TOZpJDhoDy9NzKNT1Fzag+zhofuZplhjwIDAQABo4IB
GDCCARQwCQYDVR0TBAIwADAsBglghkgBhvhCAQ0EHxYdT3BlblNTTCBHZW5lcmF0
ZWQgQ2VydGlmaWNhdGUwHQYDVR0OBBYEFBcW65jPQzm9vPesNlPK8eBW4/73MIG5
BgNVHSMEgbEwga6AFNaI8arBKwmMuFydzt9XOWImECCQoYGKpIGHMIGEMQswCQYD
VQQGEwJDSDEQMA4GA1UECBMHVGh1cmdhdTEQMA4GA1UEBxMHS2VmaWtvbjETMBEG
A1UEChMKZ3VlbmdlbC5jaDEWMBQGA1UEAxMNQ0EgZ3VlbmdlbC5jaDEkMCIGCSqG
SIb3DQEJARYVcG9zdG1hc3RlckBndWVuZ2VsLmNoggkA5SU7pne9y/8wDQYJKoZI
hvcNAQELBQADggIBAAYLn2gQfB02kEWTqcz/WA4oHQ8axdOlx9bvLn75jmc1THVs
G0x3VCtYPXHEtJTNQN0cz42vEapmc5J0WV6xFf7YX7IvVWjvAbDuvuyxMqFu6Wr6
ISfBbrllaMU2GlUYLt5uMzIZbwCSZHV5nrG8bKA3gZ4X/thTd43IaSC8W6Y8i2Tt
4+5KJBm2YGX8/K6ExJiKtkCQzSqWApC2/TFGHVFbtP1oz3wext74HOA5BFr3tOVm
I09tTKJC3z7cZB2dHikacdZrZ+mS774KQ4WJj61Rq/4O9JMhOCBjArL8btmM4rxW
XC5b+I5xFpbjjHH2FOPiJjaGDugysAlY7Psz/mzRSpLVmTrVyDIzX4T8ERtB293V
dhisMjrNaALcLBUDjQoxw91Vqww1avADxauP8HTr/3GhO+BFoWI3Ws+rnzgV0KmA
31o1Z2hT5HXeZ0gQ9alfzxC+f3T+k8rAyv92i5XRdRdoo/b7QmvArYJAlE4A+QHv
f3pY5BqOfzi46ThdtcTKuwl7KQlZN6B9A4aE4LZV2C1/XdAMNOi/xGTQq9bM+eMr
BbKiyv93hRwQCD/UtfDKkpgQqwii1ABvixyk6PrCE6LiGSxyRgY2bJQNWclKrSJi
0kiiqyfLmCdruMDH7hNgMY1dYPC97llojlrtnKWSxaXOp/GD2bToohfwdjTR
-----END CERTIFICATE-----
