Certificate:
    Data:
        Version: 3 (0x2)
        Serial Number: 294 (0x126)
    Signature Algorithm: sha256WithRSAEncryption
        Issuer: C=CH, ST=Thurgau, L=Kefikon, O=guengel.ch, CN=CA guengel.ch/emailAddress=postmaster@guengel.ch
        Validity
            Not Before: Jan  6 18:02:54 2018 GMT
            Not After : Feb 10 18:02:54 2019 GMT
        Subject: C=CH, ST=Thurgau, O=guengel.ch, CN=bugzilla.web.kruemel.home/emailAddress=postmaster@guengel.ch
        Subject Public Key Info:
            Public Key Algorithm: rsaEncryption
                Public-Key: (2048 bit)
                Modulus:
                    00:c3:71:0b:49:22:72:c4:c8:83:2c:a0:01:54:92:
                    02:89:9d:c8:17:96:fa:2f:ff:75:ce:6b:e2:64:69:
                    05:91:b3:86:a3:c8:04:2a:99:5b:fd:b9:0b:37:91:
                    92:8c:c4:17:6e:b5:99:28:81:6c:e1:e6:19:a9:f6:
                    bf:7a:ce:95:44:ba:a1:a2:c5:5d:7a:b3:3a:86:50:
                    d4:2f:4d:ba:8d:a7:d3:1f:7d:4a:d8:f8:b0:b7:cb:
                    ea:c1:b9:be:02:53:68:44:90:9b:b2:09:6d:d5:54:
                    a1:4c:33:3f:1b:94:38:6a:37:b0:32:34:fe:27:a2:
                    a0:a4:05:e0:f7:51:6f:c7:4f:fc:eb:37:c9:13:2b:
                    09:df:ed:af:ed:fa:52:63:f6:de:ec:96:4f:81:e1:
                    df:fe:0c:e3:18:ca:13:b6:7a:74:c8:4c:d5:f4:9c:
                    1d:94:4c:7b:7d:64:eb:06:05:43:5d:d2:d9:11:88:
                    e5:8b:00:1f:ca:bb:25:4c:ac:9a:11:0d:f1:90:12:
                    99:57:43:b0:0d:27:4e:ce:78:52:61:eb:86:d0:92:
                    aa:c9:43:b4:7c:80:bd:22:f5:43:9e:84:98:26:44:
                    83:5f:39:80:09:10:df:dd:33:99:a4:90:e1:a0:3c:
                    bd:37:32:8d:4f:51:73:6a:0f:b3:86:87:ee:66:99:
                    61:8f
                Exponent: 65537 (0x10001)
        X509v3 extensions:
            X509v3 Basic Constraints: 
                CA:FALSE
            Netscape Comment: 
                OpenSSL Generated Certificate
            X509v3 Subject Key Identifier: 
                17:16:EB:98:CF:43:39:BD:BC:F7:AC:36:53:CA:F1:E0:56:E3:FE:F7
            X509v3 Authority Key Identifier: 
                keyid:D6:88:F1:AA:C1:2B:09:8C:B8:5C:9D:CE:DF:57:39:62:26:10:20:90
                DirName:/C=CH/ST=Thurgau/L=Kefikon/O=guengel.ch/CN=CA guengel.ch/emailAddress=postmaster@guengel.ch
                serial:E5:25:3B:A6:77:BD:CB:FF

    Signature Algorithm: sha256WithRSAEncryption
         75:7d:0f:86:e6:f8:ba:b4:bd:49:d7:01:dc:dc:47:05:bc:a4:
         df:10:73:39:ce:9e:c8:f8:34:e5:b2:80:a8:9f:c7:3b:db:69:
         28:26:11:e2:06:36:52:d6:78:40:58:f2:e9:74:90:a2:e0:61:
         da:33:e3:b6:7c:5f:1f:25:dc:8a:42:f5:7b:88:07:c0:92:9a:
         3f:fd:f7:2d:1f:b9:9b:ca:ee:08:f2:e1:e4:1e:73:27:1b:5a:
         4c:7c:c9:bb:90:03:32:4b:49:98:a0:86:c7:60:ef:66:60:b1:
         02:06:d1:7e:7b:4b:a4:5b:97:eb:be:1c:e0:8d:5c:7f:d9:e7:
         bb:00:b3:e7:92:56:35:3e:b2:72:e2:2d:0d:55:c1:85:e7:e8:
         e7:8b:52:5f:aa:74:fd:2b:b5:f7:48:1f:39:9a:4f:0c:c8:1c:
         3d:0a:67:3e:d2:ea:c7:60:09:09:64:f0:3d:82:85:f0:22:89:
         d5:b4:f4:d0:7a:f3:b8:fc:d8:72:02:a7:d0:f7:1d:31:bc:34:
         ad:24:ef:26:49:18:fe:37:fc:e0:1d:4b:6f:f0:59:94:db:37:
         a1:b8:ff:d8:ce:fa:c1:cd:1e:b4:b4:8e:bb:b8:de:e7:63:7e:
         1b:8f:ee:a9:fd:f7:0b:ec:d0:67:c0:77:ce:00:17:bf:60:f6:
         ea:a5:1e:ea:56:fe:59:2a:98:1b:db:26:7e:15:bf:2b:42:8c:
         ae:be:6a:2f:16:8f:c5:fe:7a:d2:e3:e5:b7:3a:04:53:04:c3:
         b2:1c:78:af:c1:fe:c6:ad:78:da:a5:56:ad:50:8b:2b:ef:73:
         16:05:c4:4c:3f:f8:b5:dc:74:1c:04:e2:cb:da:c0:e5:c5:80:
         51:43:89:90:0d:23:dc:ef:a6:a5:f3:69:59:40:54:ce:31:a5:
         f7:ad:5c:28:87:67:e7:85:3e:a5:e5:5b:a2:ab:0d:09:8d:a1:
         96:dc:0e:05:16:1d:8e:b2:b3:b0:07:a5:fa:93:17:82:22:d1:
         8e:cc:22:1b:c2:52:27:c1:06:59:de:16:aa:2e:04:f7:41:ba:
         1e:45:64:91:d0:c7:f9:ac:72:e1:cf:d4:6f:ff:37:97:2e:4d:
         d8:5b:9d:04:3d:6e:f6:d3:86:ec:bc:b9:34:e4:b7:66:ea:8d:
         e4:cb:d2:97:d9:13:03:96:56:d9:1f:09:ce:c0:25:52:54:08:
         95:ac:f6:ac:81:16:9e:87:10:90:9d:0c:8c:27:2a:67:b2:ab:
         e1:30:7b:41:1e:42:3e:ae:67:59:6f:1a:32:fc:f5:fc:9c:e5:
         a8:aa:77:ae:45:8a:c2:ce:8e:6a:cf:ac:a6:e0:07:b4:2a:2d:
         41:f4:d5:b7:4b:db:13:fd
-----BEGIN CERTIFICATE-----
MIIFmTCCA4GgAwIBAgICASYwDQYJKoZIhvcNAQELBQAwgYQxCzAJBgNVBAYTAkNI
MRAwDgYDVQQIEwdUaHVyZ2F1MRAwDgYDVQQHEwdLZWZpa29uMRMwEQYDVQQKEwpn
dWVuZ2VsLmNoMRYwFAYDVQQDEw1DQSBndWVuZ2VsLmNoMSQwIgYJKoZIhvcNAQkB
FhVwb3N0bWFzdGVyQGd1ZW5nZWwuY2gwHhcNMTgwMTA2MTgwMjU0WhcNMTkwMjEw
MTgwMjU0WjB+MQswCQYDVQQGEwJDSDEQMA4GA1UECBMHVGh1cmdhdTETMBEGA1UE
ChMKZ3VlbmdlbC5jaDEiMCAGA1UEAxMZYnVnemlsbGEud2ViLmtydWVtZWwuaG9t
ZTEkMCIGCSqGSIb3DQEJARYVcG9zdG1hc3RlckBndWVuZ2VsLmNoMIIBIjANBgkq
hkiG9w0BAQEFAAOCAQ8AMIIBCgKCAQEAw3ELSSJyxMiDLKABVJICiZ3IF5b6L/91
zmviZGkFkbOGo8gEKplb/bkLN5GSjMQXbrWZKIFs4eYZqfa/es6VRLqhosVderM6
hlDUL026jafTH31K2Piwt8vqwbm+AlNoRJCbsglt1VShTDM/G5Q4ajewMjT+J6Kg
pAXg91Fvx0/86zfJEysJ3+2v7fpSY/be7JZPgeHf/gzjGMoTtnp0yEzV9JwdlEx7
fWTrBgVDXdLZEYjliwAfyrslTKyaEQ3xkBKZV0OwDSdOznhSYeuG0JKqyUO0fIC9
IvVDnoSYJkSDXzmACRDf3TOZpJDhoDy9NzKNT1Fzag+zhofuZplhjwIDAQABo4IB
GDCCARQwCQYDVR0TBAIwADAsBglghkgBhvhCAQ0EHxYdT3BlblNTTCBHZW5lcmF0
ZWQgQ2VydGlmaWNhdGUwHQYDVR0OBBYEFBcW65jPQzm9vPesNlPK8eBW4/73MIG5
BgNVHSMEgbEwga6AFNaI8arBKwmMuFydzt9XOWImECCQoYGKpIGHMIGEMQswCQYD
VQQGEwJDSDEQMA4GA1UECBMHVGh1cmdhdTEQMA4GA1UEBxMHS2VmaWtvbjETMBEG
A1UEChMKZ3VlbmdlbC5jaDEWMBQGA1UEAxMNQ0EgZ3VlbmdlbC5jaDEkMCIGCSqG
SIb3DQEJARYVcG9zdG1hc3RlckBndWVuZ2VsLmNoggkA5SU7pne9y/8wDQYJKoZI
hvcNAQELBQADggIBAHV9D4bm+Lq0vUnXAdzcRwW8pN8QcznOnsj4NOWygKifxzvb
aSgmEeIGNlLWeEBY8ul0kKLgYdoz47Z8Xx8l3IpC9XuIB8CSmj/99y0fuZvK7gjy
4eQecycbWkx8ybuQAzJLSZighsdg72ZgsQIG0X57S6Rbl+u+HOCNXH/Z57sAs+eS
VjU+snLiLQ1VwYXn6OeLUl+qdP0rtfdIHzmaTwzIHD0KZz7S6sdgCQlk8D2ChfAi
idW09NB687j82HICp9D3HTG8NK0k7yZJGP43/OAdS2/wWZTbN6G4/9jO+sHNHrS0
jru43udjfhuP7qn99wvs0GfAd84AF79g9uqlHupW/lkqmBvbJn4VvytCjK6+ai8W
j8X+etLj5bc6BFMEw7IceK/B/sateNqlVq1QiyvvcxYFxEw/+LXcdBwE4svawOXF
gFFDiZANI9zvpqXzaVlAVM4xpfetXCiHZ+eFPqXlW6KrDQmNoZbcDgUWHY6ys7AH
pfqTF4Ii0Y7MIhvCUifBBlneFqouBPdBuh5FZJHQx/mscuHP1G//N5cuTdhbnQQ9
bvbThuy8uTTkt2bqjeTL0pfZEwOWVtkfCc7AJVJUCJWs9qyBFp6HEJCdDIwnKmey
q+Ewe0EeQj6uZ1lvGjL89fyc5aiqd65FisLOjmrPrKbgB7QqLUH01bdL2xP9
-----END CERTIFICATE-----
