Certificate:
    Data:
        Version: 3 (0x2)
        Serial Number:
            3c:8b:8a:99:17:35:cc:59:a5:d2:48:0e:e5:10:e2:f6:2a:11:9c:0e
        Signature Algorithm: sha256WithRSAEncryption
        Issuer: C=CH, ST=Thurgau, L=Kefikon, O=guengel.ch, CN=CA 2022/emailAddress=postmaster@guengel.ch
        Validity
            Not Before: Dec 30 08:44:24 2023 GMT
            Not After : Feb  2 08:44:24 2025 GMT
        Subject: C=CH, ST=Thurgau, O=guengel.ch, CN=colossus.kruemel.home/emailAddress=postmaster@guengel.ch
        Subject Public Key Info:
            Public Key Algorithm: rsaEncryption
                RSA Public-Key: (2048 bit)
                Modulus:
                    00:d2:8d:90:40:c3:a9:e5:ce:cf:0a:7f:19:e2:e8:
                    96:82:74:aa:bd:92:46:16:47:df:4a:9c:46:89:24:
                    98:74:9d:1a:4f:98:b8:c1:5a:53:db:47:e4:f3:2a:
                    88:e8:1a:38:41:3f:e4:b1:d5:d8:87:26:55:37:84:
                    26:67:fa:1d:37:9b:d9:7b:84:1d:f2:16:26:88:46:
                    fc:5c:ae:cb:8f:e2:0f:cc:84:78:ab:53:11:62:63:
                    d6:28:13:2e:34:68:da:ed:ed:bc:72:29:d3:4c:2e:
                    5c:0b:f5:e0:6c:69:2f:f1:6b:87:ee:da:8b:14:33:
                    a7:8a:33:0c:ed:7b:45:b7:c3:60:12:a4:f5:d7:ad:
                    c5:b0:b8:fb:e5:d7:84:6c:e1:27:31:6f:bb:0f:38:
                    ee:02:1b:13:6f:4b:7f:51:02:ce:dc:a3:f5:28:c5:
                    24:27:e6:db:8c:a8:29:d9:20:f0:91:7a:89:96:57:
                    bd:48:70:a3:66:87:03:c3:2c:ae:ee:10:8f:ca:53:
                    20:90:f5:f2:24:1a:cf:95:33:ce:b0:6a:67:75:32:
                    57:3e:32:c1:fc:71:d2:f4:1f:16:48:04:49:bb:2d:
                    d4:05:ad:31:e2:34:d3:f8:af:12:0e:7f:f2:98:88:
                    a2:b5:8a:cd:25:68:0d:1b:69:2e:ed:91:0e:2f:1e:
                    da:45
                Exponent: 65537 (0x10001)
        X509v3 extensions:
            X509v3 Basic Constraints: critical
                CA:FALSE
            X509v3 Key Usage: 
                Digital Signature, Key Encipherment, Key Agreement
            X509v3 Subject Key Identifier: 
                B7:81:0D:B3:CE:D4:70:50:41:76:C3:A0:AF:8F:FB:EA:90:06:92:B1
            X509v3 Authority Key Identifier: 
                keyid:22:20:0D:51:40:61:42:BE:DD:BA:D9:C9:C1:77:B6:93:28:C3:99:EC
                DirName:/C=CH/ST=Thurgau/L=Kefikon/O=guengel.ch/CN=CA 2022/emailAddress=postmaster@guengel.ch
                serial:6D:29:90:54:E9:17:E9:C2:6A:E6:52:AD:84:4E:30:8E:6E:57:FB:1C

            Netscape Cert Type: 
                SSL Client, SSL Server
            X509v3 Extended Key Usage: 
                TLS Web Server Authentication, TLS Web Client Authentication
            X509v3 Subject Alternative Name: 
                DNS:colossus.kruemel.home, DNS:imap.guengel.ch, DNS:imap.kruemel.home, DNS:smtp.kruemel.home, DNS:git.kruemel.home
    Signature Algorithm: sha256WithRSAEncryption
         62:d5:1f:0e:37:da:4a:2d:71:9c:8a:58:5f:d3:79:10:66:1f:
         0f:d3:82:ca:a5:7e:59:b4:22:11:b6:fd:54:cb:ed:13:3f:62:
         a0:c8:ea:ec:aa:9e:ca:2c:cf:e4:91:fb:ed:60:04:68:09:79:
         3a:57:f6:e2:cb:34:d3:b4:f1:22:3a:50:a1:c3:1e:42:d7:a9:
         a1:71:a7:a5:cd:06:df:d3:e0:7f:6d:01:89:10:c8:fc:cb:1c:
         43:f5:cc:f0:3f:ee:a0:5b:81:ec:9f:3b:e1:8f:04:c8:63:93:
         e2:2e:02:8a:b0:ec:02:b3:eb:ae:18:99:59:61:ab:cf:6a:0e:
         ad:14:62:fb:34:3d:c1:90:0e:26:0e:92:90:49:7c:7b:da:62:
         f4:fb:d9:cf:d9:4d:e3:52:dc:2f:f4:31:2b:4a:de:46:f9:41:
         33:6a:42:4e:75:f7:1d:d7:31:da:bf:54:3f:45:9d:c0:fe:f9:
         97:1d:cb:2c:1b:99:8c:50:88:db:a4:bd:f8:8c:02:21:7e:c4:
         96:79:41:86:33:6a:d6:31:a4:47:2e:19:9e:30:1c:4f:f9:40:
         c4:87:8f:d5:ec:cf:d5:71:64:6f:dc:de:f1:3b:bb:d4:0d:84:
         bd:ee:d9:19:c8:a7:2b:bc:fb:2a:59:12:78:05:e5:9f:c9:2d:
         2c:5f:5e:3a:f9:77:d1:6f:15:cd:f3:ad:69:f7:0c:ac:02:4a:
         39:a1:d2:79:c6:76:1a:26:3a:2c:a9:8e:83:51:dc:3f:ea:17:
         c4:66:b5:3d:ec:d3:fe:da:8a:d4:a7:5f:1f:a0:a9:29:f5:e9:
         ac:31:e2:6f:1f:e1:2a:aa:a5:eb:31:f8:76:99:14:b1:80:d5:
         5a:36:bd:35:15:bc:0c:58:bc:73:cb:46:d1:8f:e9:61:82:c5:
         b8:c1:b2:10:27:5c:18:13:c5:af:3f:8f:d3:70:23:31:56:d9:
         c3:ff:0e:1e:79:71:d8:3a:ba:42:fa:b2:8a:c4:e1:ed:e9:64:
         e7:81:08:db:10:14:65:f0:d2:e9:7a:6e:60:82:66:e9:e6:52:
         fe:2f:92:a2:3a:a4:b6:9c:78:20:83:b8:71:b8:71:30:67:e0:
         41:23:14:22:94:cd:4f:01:48:ec:98:fb:9c:c6:9e:69:7c:4a:
         e2:ac:c1:9a:c7:2e:c5:b1:b3:f6:51:34:c0:80:8e:6e:7d:88:
         65:27:f6:30:7c:cd:ec:ee:95:f8:b2:5f:60:dd:69:4d:c1:27:
         b0:21:2e:9f:2f:d3:36:65:a9:e7:b4:2e:be:a1:50:4b:4d:0a:
         3d:5b:b6:65:34:60:38:0d:f2:d4:17:c7:55:33:27:86:b7:b4:
         80:b4:ad:93:cf:9e:ab:67
-----BEGIN CERTIFICATE-----
MIIGIzCCBAugAwIBAgIUPIuKmRc1zFml0kgO5RDi9ioRnA4wDQYJKoZIhvcNAQEL
BQAwfjELMAkGA1UEBhMCQ0gxEDAOBgNVBAgTB1RodXJnYXUxEDAOBgNVBAcTB0tl
Zmlrb24xEzARBgNVBAoTCmd1ZW5nZWwuY2gxEDAOBgNVBAMTB0NBIDIwMjIxJDAi
BgkqhkiG9w0BCQEWFXBvc3RtYXN0ZXJAZ3VlbmdlbC5jaDAeFw0yMzEyMzAwODQ0
MjRaFw0yNTAyMDIwODQ0MjRaMHoxCzAJBgNVBAYTAkNIMRAwDgYDVQQIEwdUaHVy
Z2F1MRMwEQYDVQQKEwpndWVuZ2VsLmNoMR4wHAYDVQQDExVjb2xvc3N1cy5rcnVl
bWVsLmhvbWUxJDAiBgkqhkiG9w0BCQEWFXBvc3RtYXN0ZXJAZ3VlbmdlbC5jaDCC
ASIwDQYJKoZIhvcNAQEBBQADggEPADCCAQoCggEBANKNkEDDqeXOzwp/GeLoloJ0
qr2SRhZH30qcRokkmHSdGk+YuMFaU9tH5PMqiOgaOEE/5LHV2IcmVTeEJmf6HTeb
2XuEHfIWJohG/Fyuy4/iD8yEeKtTEWJj1igTLjRo2u3tvHIp00wuXAv14GxpL/Fr
h+7aixQzp4ozDO17RbfDYBKk9detxbC4++XXhGzhJzFvuw847gIbE29Lf1ECztyj
9SjFJCfm24yoKdkg8JF6iZZXvUhwo2aHA8Msru4Qj8pTIJD18iQaz5UzzrBqZ3Uy
Vz4ywfxx0vQfFkgESbst1AWtMeI00/ivEg5/8piIorWKzSVoDRtpLu2RDi8e2kUC
AwEAAaOCAZswggGXMAwGA1UdEwEB/wQCMAAwCwYDVR0PBAQDAgOoMB0GA1UdDgQW
BBS3gQ2zztRwUEF2w6Cvj/vqkAaSsTCBvQYDVR0jBIG1MIGygBQiIA1RQGFCvt26
2cnBd7aTKMOZ7KGBg6SBgDB+MQswCQYDVQQGEwJDSDEQMA4GA1UECBMHVGh1cmdh
dTEQMA4GA1UEBxMHS2VmaWtvbjETMBEGA1UEChMKZ3VlbmdlbC5jaDEQMA4GA1UE
AxMHQ0EgMjAyMjEkMCIGCSqGSIb3DQEJARYVcG9zdG1hc3RlckBndWVuZ2VsLmNo
ghRtKZBU6RfpwmrmUq2ETjCOblf7HDARBglghkgBhvhCAQEEBAMCBsAwHQYDVR0l
BBYwFAYIKwYBBQUHAwEGCCsGAQUFBwMCMGkGA1UdEQRiMGCCFWNvbG9zc3VzLmty
dWVtZWwuaG9tZYIPaW1hcC5ndWVuZ2VsLmNoghFpbWFwLmtydWVtZWwuaG9tZYIR
c210cC5rcnVlbWVsLmhvbWWCEGdpdC5rcnVlbWVsLmhvbWUwDQYJKoZIhvcNAQEL
BQADggIBAGLVHw432kotcZyKWF/TeRBmHw/Tgsqlflm0IhG2/VTL7RM/YqDI6uyq
nsosz+SR++1gBGgJeTpX9uLLNNO08SI6UKHDHkLXqaFxp6XNBt/T4H9tAYkQyPzL
HEP1zPA/7qBbgeyfO+GPBMhjk+IuAoqw7AKz664YmVlhq89qDq0UYvs0PcGQDiYO
kpBJfHvaYvT72c/ZTeNS3C/0MStK3kb5QTNqQk519x3XMdq/VD9FncD++Zcdyywb
mYxQiNukvfiMAiF+xJZ5QYYzatYxpEcuGZ4wHE/5QMSHj9Xsz9VxZG/c3vE7u9QN
hL3u2RnIpyu8+ypZEngF5Z/JLSxfXjr5d9FvFc3zrWn3DKwCSjmh0nnGdhomOiyp
joNR3D/qF8RmtT3s0/7aitSnXx+gqSn16awx4m8f4Sqqpesx+HaZFLGA1Vo2vTUV
vAxYvHPLRtGP6WGCxbjBshAnXBgTxa8/j9NwIzFW2cP/Dh55cdg6ukL6sorE4e3p
ZOeBCNsQFGXw0ul6bmCCZunmUv4vkqI6pLaceCCDuHG4cTBn4EEjFCKUzU8BSOyY
+5zGnml8SuKswZrHLsWxs/ZRNMCAjm59iGUn9jB8zezulfiyX2DdaU3BJ7AhLp8v
0zZlqee0Lr6hUEtNCj1btmU0YDgN8tQXx1UzJ4a3tIC0rZPPnqtn
-----END CERTIFICATE-----
