Certificate:
    Data:
        Version: 3 (0x2)
        Serial Number: 368 (0x170)
        Signature Algorithm: sha256WithRSAEncryption
        Issuer: C=CH, ST=Thurgau, L=Kefikon, O=guengel.ch, CN=CA guengel.ch/emailAddress=postmaster@guengel.ch
        Validity
            Not Before: Sep  9 05:04:25 2019 GMT
            Not After : Sep 23 05:04:25 2020 GMT
        Subject: C=CH, ST=Thurgau, O=guengel.ch, CN=colossus.kruemel.home/emailAddress=postmaster@guengel.ch
        Subject Public Key Info:
            Public Key Algorithm: rsaEncryption
                RSA Public-Key: (2048 bit)
                Modulus:
                    00:ad:b1:32:4e:d2:a0:9a:2c:14:71:de:07:d6:ef:
                    97:9c:70:7f:b6:73:31:fe:bf:b6:88:89:10:34:5b:
                    b2:9d:b5:2c:c9:a2:75:25:f7:6b:60:27:5f:63:b6:
                    42:50:b7:93:4f:fd:7f:d7:ba:84:29:77:e1:0c:32:
                    fc:92:93:ba:a9:29:e8:13:ab:0b:82:11:7e:26:c4:
                    93:7e:40:c2:d3:8c:94:e2:ea:6e:27:d2:19:23:5b:
                    b6:87:23:60:6f:0b:7e:6b:05:3f:24:ce:78:45:5d:
                    a6:fd:b3:9b:55:fd:ab:df:db:b9:e2:f6:9b:84:19:
                    3b:43:31:f5:84:67:a1:f9:d6:08:00:14:8a:3c:84:
                    d6:d3:81:fd:87:e9:bf:b5:6a:8a:ea:a0:d7:dc:c4:
                    06:a6:37:33:fc:60:75:d5:2d:71:5b:0a:e6:de:ec:
                    e3:f7:1e:c2:bd:f6:18:41:8a:a7:df:50:82:c1:9d:
                    cc:0a:a5:f5:ff:25:13:a1:e9:6c:f1:9a:96:75:cf:
                    63:02:42:74:b0:25:19:38:ff:b0:8f:ac:1b:66:45:
                    2c:db:f0:5f:7c:15:3a:f0:a9:6b:b9:d1:6d:eb:a3:
                    ad:72:5a:49:a3:31:13:ba:e3:e2:8a:fa:f8:2b:9c:
                    c1:7a:04:fd:5f:1e:99:09:a5:df:c9:6f:33:e4:ef:
                    e4:f9
                Exponent: 65537 (0x10001)
        X509v3 extensions:
            X509v3 Basic Constraints: 
                CA:FALSE
            Netscape Comment: 
                OpenSSL Generated Certificate
            X509v3 Subject Key Identifier: 
                B6:4C:D3:C7:31:49:19:3C:D1:E7:77:4F:60:15:49:93:51:89:E4:E3
            X509v3 Authority Key Identifier: 
                keyid:D6:88:F1:AA:C1:2B:09:8C:B8:5C:9D:CE:DF:57:39:62:26:10:20:90
                DirName:/C=CH/ST=Thurgau/L=Kefikon/O=guengel.ch/CN=CA guengel.ch/emailAddress=postmaster@guengel.ch
                serial:E5:25:3B:A6:77:BD:CB:FF

    Signature Algorithm: sha256WithRSAEncryption
         c7:e2:d4:53:75:ec:b8:3e:21:a3:b9:5d:9c:46:98:cc:3b:b0:
         48:0c:4e:87:68:7d:23:6c:0a:98:fd:fc:ca:4c:e7:54:8f:a1:
         3e:4f:47:c6:1c:5e:5b:43:c1:1d:dc:98:59:b3:b5:0a:32:60:
         6d:4e:1e:c6:06:50:b8:d9:f4:b0:7e:dd:2a:9f:a4:d8:c9:e6:
         76:6e:29:d0:40:90:2f:e1:6c:e6:d4:d4:03:69:3b:30:f1:6f:
         a3:80:24:73:7f:4c:66:bc:f9:cd:38:e4:e0:f8:42:1d:bb:d4:
         4a:8b:ce:59:dd:4b:fc:fb:45:7f:dc:ac:4b:a1:6c:01:4d:49:
         93:d4:fd:aa:46:f5:fa:a6:59:e9:54:4b:ab:33:98:95:5e:61:
         ae:cd:ce:3e:77:ea:9c:98:aa:25:61:20:3e:1f:0f:d0:18:3d:
         22:7b:28:a2:f4:d0:89:fe:16:83:0f:43:17:1d:3d:cb:53:a6:
         98:9e:cd:1d:ff:d8:78:a6:61:af:bd:00:8c:72:bb:25:ec:95:
         0f:04:2e:62:44:63:d7:6a:37:b8:0e:bc:a9:2d:ff:65:23:58:
         0e:94:ca:6a:25:ce:f6:9b:a5:1f:29:0e:1b:c9:9b:f9:64:c3:
         eb:4b:03:d0:59:c2:9a:89:41:cd:e3:73:ef:fa:5e:02:24:d8:
         f7:86:86:45:0a:2f:4e:b7:96:27:e4:5d:04:3b:c1:28:63:00:
         80:82:75:b1:e6:44:40:70:18:8f:e6:cb:62:d8:d4:14:69:5b:
         c9:e1:7b:a0:4a:b5:f1:d8:f4:1d:88:6a:10:2f:cf:eb:2e:d4:
         a1:5c:03:6f:8c:03:f6:54:ff:e2:ce:34:e4:ff:e1:e8:f8:c0:
         ce:a0:71:53:52:0e:8b:d0:22:8c:73:4a:10:98:f5:0a:43:28:
         91:f7:69:a6:d4:78:42:ec:ed:2c:98:87:03:81:85:b3:85:13:
         4e:47:03:bd:4e:70:98:b3:36:ba:7d:d1:78:b2:45:ca:80:2a:
         e0:11:ca:4a:4d:4e:24:a9:94:d8:8c:4a:03:ac:f4:7e:9e:2f:
         9c:cf:f6:91:3c:6c:bc:ec:bd:a4:99:bb:42:40:19:35:a3:cd:
         83:69:92:b7:e3:01:40:4a:ad:5c:00:5e:30:54:18:fb:75:b2:
         5f:2b:53:f7:0d:92:c8:eb:d3:5a:32:47:ae:b1:e8:9b:2f:8d:
         8f:b1:bb:6f:ff:5f:93:0b:92:59:4b:48:66:82:5d:0b:d8:c7:
         75:05:da:f1:bb:fd:5f:fc:d3:4c:fd:dd:f0:ba:f6:ce:2a:d4:
         54:15:67:22:78:4b:7d:b1:a7:62:43:e3:ad:37:0e:60:05:6e:
         6d:38:37:87:08:34:fc:78
-----BEGIN CERTIFICATE-----
MIIFlTCCA32gAwIBAgICAXAwDQYJKoZIhvcNAQELBQAwgYQxCzAJBgNVBAYTAkNI
MRAwDgYDVQQIEwdUaHVyZ2F1MRAwDgYDVQQHEwdLZWZpa29uMRMwEQYDVQQKEwpn
dWVuZ2VsLmNoMRYwFAYDVQQDEw1DQSBndWVuZ2VsLmNoMSQwIgYJKoZIhvcNAQkB
FhVwb3N0bWFzdGVyQGd1ZW5nZWwuY2gwHhcNMTkwOTA5MDUwNDI1WhcNMjAwOTIz
MDUwNDI1WjB6MQswCQYDVQQGEwJDSDEQMA4GA1UECBMHVGh1cmdhdTETMBEGA1UE
ChMKZ3VlbmdlbC5jaDEeMBwGA1UEAxMVY29sb3NzdXMua3J1ZW1lbC5ob21lMSQw
IgYJKoZIhvcNAQkBFhVwb3N0bWFzdGVyQGd1ZW5nZWwuY2gwggEiMA0GCSqGSIb3
DQEBAQUAA4IBDwAwggEKAoIBAQCtsTJO0qCaLBRx3gfW75eccH+2czH+v7aIiRA0
W7KdtSzJonUl92tgJ19jtkJQt5NP/X/XuoQpd+EMMvySk7qpKegTqwuCEX4mxJN+
QMLTjJTi6m4n0hkjW7aHI2BvC35rBT8kznhFXab9s5tV/avf27ni9puEGTtDMfWE
Z6H51ggAFIo8hNbTgf2H6b+1aorqoNfcxAamNzP8YHXVLXFbCube7OP3HsK99hhB
iqffUILBncwKpfX/JROh6WzxmpZ1z2MCQnSwJRk4/7CPrBtmRSzb8F98FTrwqWu5
0W3ro61yWkmjMRO64+KK+vgrnMF6BP1fHpkJpd/JbzPk7+T5AgMBAAGjggEYMIIB
FDAJBgNVHRMEAjAAMCwGCWCGSAGG+EIBDQQfFh1PcGVuU1NMIEdlbmVyYXRlZCBD
ZXJ0aWZpY2F0ZTAdBgNVHQ4EFgQUtkzTxzFJGTzR53dPYBVJk1GJ5OMwgbkGA1Ud
IwSBsTCBroAU1ojxqsErCYy4XJ3O31c5YiYQIJChgYqkgYcwgYQxCzAJBgNVBAYT
AkNIMRAwDgYDVQQIEwdUaHVyZ2F1MRAwDgYDVQQHEwdLZWZpa29uMRMwEQYDVQQK
EwpndWVuZ2VsLmNoMRYwFAYDVQQDEw1DQSBndWVuZ2VsLmNoMSQwIgYJKoZIhvcN
AQkBFhVwb3N0bWFzdGVyQGd1ZW5nZWwuY2iCCQDlJTumd73L/zANBgkqhkiG9w0B
AQsFAAOCAgEAx+LUU3XsuD4ho7ldnEaYzDuwSAxOh2h9I2wKmP38ykznVI+hPk9H
xhxeW0PBHdyYWbO1CjJgbU4exgZQuNn0sH7dKp+k2Mnmdm4p0ECQL+Fs5tTUA2k7
MPFvo4Akc39MZrz5zTjk4PhCHbvUSovOWd1L/PtFf9ysS6FsAU1Jk9T9qkb1+qZZ
6VRLqzOYlV5hrs3OPnfqnJiqJWEgPh8P0Bg9InsoovTQif4Wgw9DFx09y1OmmJ7N
Hf/YeKZhr70AjHK7JeyVDwQuYkRj12o3uA68qS3/ZSNYDpTKaiXO9pulHykOG8mb
+WTD60sD0FnCmolBzeNz7/peAiTY94aGRQovTreWJ+RdBDvBKGMAgIJ1seZEQHAY
j+bLYtjUFGlbyeF7oEq18dj0HYhqEC/P6y7UoVwDb4wD9lT/4s405P/h6PjAzqBx
U1IOi9AijHNKEJj1CkMokfdpptR4QuztLJiHA4GFs4UTTkcDvU5wmLM2un3ReLJF
yoAq4BHKSk1OJKmU2IxKA6z0fp4vnM/2kTxsvOy9pJm7QkAZNaPNg2mSt+MBQEqt
XABeMFQY+3WyXytT9w2SyOvTWjJHrrHomy+Nj7G7b/9fkwuSWUtIZoJdC9jHdQXa
8bv9X/zTTP3d8Lr2zirUVBVnInhLfbGnYkPjrTcOYAVubTg3hwg0/Hg=
-----END CERTIFICATE-----
