Certificate:
    Data:
        Version: 3 (0x2)
        Serial Number: 429 (0x1ad)
        Signature Algorithm: sha256WithRSAEncryption
        Issuer: C=CH, ST=Thurgau, L=Kefikon, O=guengel.ch, CN=CA guengel.ch/emailAddress=postmaster@guengel.ch
        Validity
            Not Before: Feb  6 15:16:46 2021 GMT
            Not After : Mar 13 15:16:46 2022 GMT
        Subject: C=CH, ST=Thurgau, O=guengel.ch, CN=colossus.kruemel.home/emailAddress=postmaster@guengel.ch
        Subject Public Key Info:
            Public Key Algorithm: rsaEncryption
                RSA Public-Key: (2048 bit)
                Modulus:
                    00:ad:b1:32:4e:d2:a0:9a:2c:14:71:de:07:d6:ef:
                    97:9c:70:7f:b6:73:31:fe:bf:b6:88:89:10:34:5b:
                    b2:9d:b5:2c:c9:a2:75:25:f7:6b:60:27:5f:63:b6:
                    42:50:b7:93:4f:fd:7f:d7:ba:84:29:77:e1:0c:32:
                    fc:92:93:ba:a9:29:e8:13:ab:0b:82:11:7e:26:c4:
                    93:7e:40:c2:d3:8c:94:e2:ea:6e:27:d2:19:23:5b:
                    b6:87:23:60:6f:0b:7e:6b:05:3f:24:ce:78:45:5d:
                    a6:fd:b3:9b:55:fd:ab:df:db:b9:e2:f6:9b:84:19:
                    3b:43:31:f5:84:67:a1:f9:d6:08:00:14:8a:3c:84:
                    d6:d3:81:fd:87:e9:bf:b5:6a:8a:ea:a0:d7:dc:c4:
                    06:a6:37:33:fc:60:75:d5:2d:71:5b:0a:e6:de:ec:
                    e3:f7:1e:c2:bd:f6:18:41:8a:a7:df:50:82:c1:9d:
                    cc:0a:a5:f5:ff:25:13:a1:e9:6c:f1:9a:96:75:cf:
                    63:02:42:74:b0:25:19:38:ff:b0:8f:ac:1b:66:45:
                    2c:db:f0:5f:7c:15:3a:f0:a9:6b:b9:d1:6d:eb:a3:
                    ad:72:5a:49:a3:31:13:ba:e3:e2:8a:fa:f8:2b:9c:
                    c1:7a:04:fd:5f:1e:99:09:a5:df:c9:6f:33:e4:ef:
                    e4:f9
                Exponent: 65537 (0x10001)
        X509v3 extensions:
            X509v3 Key Usage: 
                Digital Signature, Key Encipherment, Key Agreement
            X509v3 Basic Constraints: critical
                CA:FALSE
            Netscape Cert Type: 
                SSL Client, SSL Server
            X509v3 Extended Key Usage: 
                TLS Web Server Authentication, TLS Web Client Authentication
            X509v3 Subject Alternative Name: 
                DNS:colossus.kruemel.home
            X509v3 Subject Key Identifier: 
                B6:4C:D3:C7:31:49:19:3C:D1:E7:77:4F:60:15:49:93:51:89:E4:E3
            X509v3 Authority Key Identifier: 
                keyid:D6:88:F1:AA:C1:2B:09:8C:B8:5C:9D:CE:DF:57:39:62:26:10:20:90
                DirName:/C=CH/ST=Thurgau/L=Kefikon/O=guengel.ch/CN=CA guengel.ch/emailAddress=postmaster@guengel.ch
                serial:E5:25:3B:A6:77:BD:CB:FF

    Signature Algorithm: sha256WithRSAEncryption
         9d:1d:b4:79:6c:b4:f4:15:5c:28:fa:92:57:6b:f4:e6:39:5d:
         0b:65:0a:4a:97:14:78:6d:52:28:ca:f6:cd:35:75:c0:2f:fc:
         87:7a:fd:ce:a9:7c:23:00:a0:59:16:a7:39:b8:21:62:ce:08:
         e5:dc:42:51:3a:65:c6:2a:03:c6:80:74:62:98:2f:dc:2b:2e:
         6c:9d:bc:9d:a9:6b:a9:34:c3:a9:c7:4f:1b:76:13:19:89:ff:
         b0:0a:f4:a4:32:6b:8c:ca:0e:93:fd:1b:26:51:8c:3d:9a:f2:
         4f:ca:98:15:92:24:53:23:4d:85:6d:ea:40:99:af:e4:ce:56:
         d4:d0:f6:6f:08:35:a2:24:95:f8:9f:5b:7d:f1:64:fb:82:78:
         7b:1f:f0:07:2d:1f:03:8e:97:24:98:3d:87:e2:89:dd:21:d1:
         df:a7:29:a6:33:4d:2c:4f:36:b4:5d:1a:eb:9e:57:1c:50:19:
         fd:0b:b1:4d:50:bd:c5:5d:77:5b:73:7e:30:df:55:0b:6c:f2:
         e6:e4:75:e1:28:b7:ca:5b:18:bf:5f:b9:3e:59:32:f9:29:c6:
         4c:58:df:5b:1d:74:89:e9:3e:d7:13:86:a1:c6:d5:84:00:57:
         8e:ef:ed:f7:2d:5e:84:be:48:cf:aa:1c:13:2b:12:00:61:9c:
         20:a9:e0:a2:0d:ae:48:95:e7:bd:a5:af:5c:6d:86:b8:f6:31:
         73:05:cd:28:b8:af:94:4c:60:63:64:f5:fe:50:b0:9e:3d:eb:
         79:3f:0a:64:9b:37:98:b3:fa:09:12:d9:91:2d:e3:76:eb:8f:
         2a:01:a2:ec:11:3b:22:73:b7:ee:8f:e1:ac:9b:2e:bd:96:e6:
         8e:4f:2e:3d:9e:16:84:86:50:a0:36:7d:96:08:7c:e6:36:71:
         58:7e:d8:85:3e:6e:79:a0:ee:fa:1a:50:46:0e:2a:35:87:ad:
         1c:ae:93:08:21:36:77:b0:d4:e4:c7:28:dc:04:36:ee:92:96:
         22:bb:36:a3:92:51:ca:0a:ed:19:66:91:54:25:8c:9f:9e:37:
         dc:8c:f3:d2:a0:2e:71:99:d2:2f:67:59:04:4e:9b:18:30:92:
         83:00:54:55:6b:06:06:0c:14:cd:30:38:13:9b:3e:dc:d0:a2:
         28:76:b7:65:46:29:03:c8:29:24:a3:66:5e:ef:10:f0:12:5c:
         da:a4:cf:85:b4:4e:bc:3b:cc:81:2d:37:42:9c:53:59:14:43:
         0c:fc:ac:65:98:cd:b6:11:8a:c4:ac:67:48:4c:f3:41:99:88:
         3d:9f:c2:7f:61:25:93:89:36:2a:0c:ad:06:fb:f6:cb:62:ff:
         f0:b3:c3:c2:7e:10:48:f5
-----BEGIN CERTIFICATE-----
MIIFyzCCA7OgAwIBAgICAa0wDQYJKoZIhvcNAQELBQAwgYQxCzAJBgNVBAYTAkNI
MRAwDgYDVQQIEwdUaHVyZ2F1MRAwDgYDVQQHEwdLZWZpa29uMRMwEQYDVQQKEwpn
dWVuZ2VsLmNoMRYwFAYDVQQDEw1DQSBndWVuZ2VsLmNoMSQwIgYJKoZIhvcNAQkB
FhVwb3N0bWFzdGVyQGd1ZW5nZWwuY2gwHhcNMjEwMjA2MTUxNjQ2WhcNMjIwMzEz
MTUxNjQ2WjB6MQswCQYDVQQGEwJDSDEQMA4GA1UECBMHVGh1cmdhdTETMBEGA1UE
ChMKZ3VlbmdlbC5jaDEeMBwGA1UEAxMVY29sb3NzdXMua3J1ZW1lbC5ob21lMSQw
IgYJKoZIhvcNAQkBFhVwb3N0bWFzdGVyQGd1ZW5nZWwuY2gwggEiMA0GCSqGSIb3
DQEBAQUAA4IBDwAwggEKAoIBAQCtsTJO0qCaLBRx3gfW75eccH+2czH+v7aIiRA0
W7KdtSzJonUl92tgJ19jtkJQt5NP/X/XuoQpd+EMMvySk7qpKegTqwuCEX4mxJN+
QMLTjJTi6m4n0hkjW7aHI2BvC35rBT8kznhFXab9s5tV/avf27ni9puEGTtDMfWE
Z6H51ggAFIo8hNbTgf2H6b+1aorqoNfcxAamNzP8YHXVLXFbCube7OP3HsK99hhB
iqffUILBncwKpfX/JROh6WzxmpZ1z2MCQnSwJRk4/7CPrBtmRSzb8F98FTrwqWu5
0W3ro61yWkmjMRO64+KK+vgrnMF6BP1fHpkJpd/JbzPk7+T5AgMBAAGjggFOMIIB
SjALBgNVHQ8EBAMCA6gwDAYDVR0TAQH/BAIwADARBglghkgBhvhCAQEEBAMCBsAw
HQYDVR0lBBYwFAYIKwYBBQUHAwEGCCsGAQUFBwMCMCAGA1UdEQQZMBeCFWNvbG9z
c3VzLmtydWVtZWwuaG9tZTAdBgNVHQ4EFgQUtkzTxzFJGTzR53dPYBVJk1GJ5OMw
gbkGA1UdIwSBsTCBroAU1ojxqsErCYy4XJ3O31c5YiYQIJChgYqkgYcwgYQxCzAJ
BgNVBAYTAkNIMRAwDgYDVQQIEwdUaHVyZ2F1MRAwDgYDVQQHEwdLZWZpa29uMRMw
EQYDVQQKEwpndWVuZ2VsLmNoMRYwFAYDVQQDEw1DQSBndWVuZ2VsLmNoMSQwIgYJ
KoZIhvcNAQkBFhVwb3N0bWFzdGVyQGd1ZW5nZWwuY2iCCQDlJTumd73L/zANBgkq
hkiG9w0BAQsFAAOCAgEAnR20eWy09BVcKPqSV2v05jldC2UKSpcUeG1SKMr2zTV1
wC/8h3r9zql8IwCgWRanObghYs4I5dxCUTplxioDxoB0Ypgv3CsubJ28nalrqTTD
qcdPG3YTGYn/sAr0pDJrjMoOk/0bJlGMPZryT8qYFZIkUyNNhW3qQJmv5M5W1ND2
bwg1oiSV+J9bffFk+4J4ex/wBy0fA46XJJg9h+KJ3SHR36cppjNNLE82tF0a655X
HFAZ/QuxTVC9xV13W3N+MN9VC2zy5uR14Si3ylsYv1+5Plky+SnGTFjfWx10iek+
1xOGocbVhABXju/t9y1ehL5Iz6ocEysSAGGcIKngog2uSJXnvaWvXG2GuPYxcwXN
KLivlExgY2T1/lCwnj3reT8KZJs3mLP6CRLZkS3jduuPKgGi7BE7InO37o/hrJsu
vZbmjk8uPZ4WhIZQoDZ9lgh85jZxWH7YhT5ueaDu+hpQRg4qNYetHK6TCCE2d7DU
5Mco3AQ27pKWIrs2o5JRygrtGWaRVCWMn5433Izz0qAucZnSL2dZBE6bGDCSgwBU
VWsGBgwUzTA4E5s+3NCiKHa3ZUYpA8gpJKNmXu8Q8BJc2qTPhbROvDvMgS03QpxT
WRRDDPysZZjNthGKxKxnSEzzQZmIPZ/Cf2Elk4k2KgytBvv2y2L/8LPDwn4QSPU=
-----END CERTIFICATE-----
