Certificate:
    Data:
        Version: 3 (0x2)
        Serial Number:
            2a:9f:d8:e9:16:bf:0d:79:6a:f0:e8:bf:e1:79:48:75:0b:26:40:4d
        Signature Algorithm: sha256WithRSAEncryption
        Issuer: C=CH, ST=Thurgau, L=Kefikon, O=guengel.ch, CN=CA 2022/emailAddress=postmaster@guengel.ch
        Validity
            Not Before: Feb 28 06:37:18 2023 GMT
            Not After : Apr  3 06:37:18 2024 GMT
        Subject: C=CH, ST=Thurgau, O=guengel.ch, CN=colossus.kruemel.home/emailAddress=postmaster@guengel.ch
        Subject Public Key Info:
            Public Key Algorithm: rsaEncryption
                RSA Public-Key: (2048 bit)
                Modulus:
                    00:d2:8d:90:40:c3:a9:e5:ce:cf:0a:7f:19:e2:e8:
                    96:82:74:aa:bd:92:46:16:47:df:4a:9c:46:89:24:
                    98:74:9d:1a:4f:98:b8:c1:5a:53:db:47:e4:f3:2a:
                    88:e8:1a:38:41:3f:e4:b1:d5:d8:87:26:55:37:84:
                    26:67:fa:1d:37:9b:d9:7b:84:1d:f2:16:26:88:46:
                    fc:5c:ae:cb:8f:e2:0f:cc:84:78:ab:53:11:62:63:
                    d6:28:13:2e:34:68:da:ed:ed:bc:72:29:d3:4c:2e:
                    5c:0b:f5:e0:6c:69:2f:f1:6b:87:ee:da:8b:14:33:
                    a7:8a:33:0c:ed:7b:45:b7:c3:60:12:a4:f5:d7:ad:
                    c5:b0:b8:fb:e5:d7:84:6c:e1:27:31:6f:bb:0f:38:
                    ee:02:1b:13:6f:4b:7f:51:02:ce:dc:a3:f5:28:c5:
                    24:27:e6:db:8c:a8:29:d9:20:f0:91:7a:89:96:57:
                    bd:48:70:a3:66:87:03:c3:2c:ae:ee:10:8f:ca:53:
                    20:90:f5:f2:24:1a:cf:95:33:ce:b0:6a:67:75:32:
                    57:3e:32:c1:fc:71:d2:f4:1f:16:48:04:49:bb:2d:
                    d4:05:ad:31:e2:34:d3:f8:af:12:0e:7f:f2:98:88:
                    a2:b5:8a:cd:25:68:0d:1b:69:2e:ed:91:0e:2f:1e:
                    da:45
                Exponent: 65537 (0x10001)
        X509v3 extensions:
            X509v3 Basic Constraints: critical
                CA:FALSE
            X509v3 Key Usage: 
                Digital Signature, Key Encipherment, Key Agreement
            X509v3 Subject Key Identifier: 
                B7:81:0D:B3:CE:D4:70:50:41:76:C3:A0:AF:8F:FB:EA:90:06:92:B1
            X509v3 Authority Key Identifier: 
                keyid:22:20:0D:51:40:61:42:BE:DD:BA:D9:C9:C1:77:B6:93:28:C3:99:EC
                DirName:/C=CH/ST=Thurgau/L=Kefikon/O=guengel.ch/CN=CA 2022/emailAddress=postmaster@guengel.ch
                serial:6D:29:90:54:E9:17:E9:C2:6A:E6:52:AD:84:4E:30:8E:6E:57:FB:1C

            Netscape Cert Type: 
                SSL Client, SSL Server
            X509v3 Extended Key Usage: 
                TLS Web Server Authentication, TLS Web Client Authentication
            X509v3 Subject Alternative Name: 
                DNS:colossus.kruemel.home, DNS:imap.guengel.ch, DNS:imap.kruemel.home, DNS:smtp.kruemel.home, DNS:git.kruemel.home
    Signature Algorithm: sha256WithRSAEncryption
         8f:b1:78:e1:64:c1:d8:9a:98:c4:94:f2:8c:5c:e6:99:f0:66:
         50:b0:34:b8:56:85:4b:f7:9d:cd:48:45:8a:72:7a:0a:2f:4b:
         78:a6:ce:61:b7:4f:ad:1c:c5:5b:e0:47:a5:e7:d8:7e:4c:c6:
         25:ef:88:6f:c9:54:d0:31:51:bc:22:73:26:59:1a:64:9a:15:
         d2:64:ce:02:0b:74:85:d6:56:c9:ea:ee:3a:f8:da:62:97:65:
         42:50:cd:60:0d:61:ca:84:49:94:0a:b0:9e:3f:55:bb:17:82:
         43:69:03:ea:81:02:90:15:8b:79:af:6f:fd:6a:0d:ea:fc:cb:
         c7:f9:97:a0:f6:9f:48:f3:fa:39:03:e9:bc:7c:b5:e1:da:71:
         93:64:7e:3c:08:38:59:d0:74:8c:4d:19:75:a6:06:60:19:5f:
         1f:de:3a:34:66:fd:62:3d:94:03:5a:19:e2:e6:29:cc:54:54:
         24:1b:f6:66:d6:b7:40:65:44:88:e9:9b:02:79:b6:82:80:08:
         5c:0c:a3:2f:19:8d:cd:1e:c7:f0:58:bc:c8:72:6e:fc:81:fc:
         a2:3a:55:a6:c7:a4:f6:36:c7:56:bf:12:27:7f:df:fe:49:cb:
         df:ae:2d:58:00:0d:cc:0e:8d:dc:4a:e9:42:dd:e8:08:fc:bc:
         14:73:cc:b0:b0:a7:7f:79:9b:6b:d3:10:85:f3:28:a0:75:eb:
         b3:aa:55:ff:77:c2:c0:16:5b:7b:ee:41:24:dc:0e:df:c0:60:
         22:56:8b:d8:f4:28:5a:52:9e:61:41:c0:26:a2:26:07:ac:e4:
         5a:af:a2:2c:ce:e1:5b:1f:ed:36:e9:92:49:7f:b3:b9:6b:b7:
         3d:29:93:4d:f5:2f:5b:5a:5c:71:e0:23:e8:57:7d:ee:4f:c1:
         84:50:b1:d3:03:0e:cd:78:41:fd:6d:7b:e2:aa:fc:2a:5c:bc:
         63:5f:65:67:50:6b:23:03:61:06:1d:e2:08:62:32:86:12:7e:
         2e:f2:73:50:85:dc:f5:ed:15:e9:9c:39:5f:9f:d7:a5:b7:f1:
         20:0e:e4:d1:7f:3f:44:e7:d4:db:13:f7:ee:18:de:57:94:5e:
         33:d7:b7:41:bb:5f:5b:f2:4e:50:a8:e1:ca:3f:10:48:39:94:
         a8:ed:69:13:d2:9c:36:c8:a4:f1:f0:9d:b9:48:66:59:2a:69:
         5a:aa:4c:a1:f9:d2:63:0b:a1:7e:f3:9e:a0:25:fd:3f:5b:8f:
         d9:60:72:91:81:07:7d:a8:10:56:57:32:c2:f6:f4:7c:5c:46:
         59:e8:64:e9:95:3b:0a:a4:94:90:67:cb:5b:d2:a2:bb:3a:50:
         66:db:0f:e7:01:d4:9f:42
-----BEGIN CERTIFICATE-----
MIIGIzCCBAugAwIBAgIUKp/Y6Ra/DXlq8Oi/4XlIdQsmQE0wDQYJKoZIhvcNAQEL
BQAwfjELMAkGA1UEBhMCQ0gxEDAOBgNVBAgTB1RodXJnYXUxEDAOBgNVBAcTB0tl
Zmlrb24xEzARBgNVBAoTCmd1ZW5nZWwuY2gxEDAOBgNVBAMTB0NBIDIwMjIxJDAi
BgkqhkiG9w0BCQEWFXBvc3RtYXN0ZXJAZ3VlbmdlbC5jaDAeFw0yMzAyMjgwNjM3
MThaFw0yNDA0MDMwNjM3MThaMHoxCzAJBgNVBAYTAkNIMRAwDgYDVQQIEwdUaHVy
Z2F1MRMwEQYDVQQKEwpndWVuZ2VsLmNoMR4wHAYDVQQDExVjb2xvc3N1cy5rcnVl
bWVsLmhvbWUxJDAiBgkqhkiG9w0BCQEWFXBvc3RtYXN0ZXJAZ3VlbmdlbC5jaDCC
ASIwDQYJKoZIhvcNAQEBBQADggEPADCCAQoCggEBANKNkEDDqeXOzwp/GeLoloJ0
qr2SRhZH30qcRokkmHSdGk+YuMFaU9tH5PMqiOgaOEE/5LHV2IcmVTeEJmf6HTeb
2XuEHfIWJohG/Fyuy4/iD8yEeKtTEWJj1igTLjRo2u3tvHIp00wuXAv14GxpL/Fr
h+7aixQzp4ozDO17RbfDYBKk9detxbC4++XXhGzhJzFvuw847gIbE29Lf1ECztyj
9SjFJCfm24yoKdkg8JF6iZZXvUhwo2aHA8Msru4Qj8pTIJD18iQaz5UzzrBqZ3Uy
Vz4ywfxx0vQfFkgESbst1AWtMeI00/ivEg5/8piIorWKzSVoDRtpLu2RDi8e2kUC
AwEAAaOCAZswggGXMAwGA1UdEwEB/wQCMAAwCwYDVR0PBAQDAgOoMB0GA1UdDgQW
BBS3gQ2zztRwUEF2w6Cvj/vqkAaSsTCBvQYDVR0jBIG1MIGygBQiIA1RQGFCvt26
2cnBd7aTKMOZ7KGBg6SBgDB+MQswCQYDVQQGEwJDSDEQMA4GA1UECBMHVGh1cmdh
dTEQMA4GA1UEBxMHS2VmaWtvbjETMBEGA1UEChMKZ3VlbmdlbC5jaDEQMA4GA1UE
AxMHQ0EgMjAyMjEkMCIGCSqGSIb3DQEJARYVcG9zdG1hc3RlckBndWVuZ2VsLmNo
ghRtKZBU6RfpwmrmUq2ETjCOblf7HDARBglghkgBhvhCAQEEBAMCBsAwHQYDVR0l
BBYwFAYIKwYBBQUHAwEGCCsGAQUFBwMCMGkGA1UdEQRiMGCCFWNvbG9zc3VzLmty
dWVtZWwuaG9tZYIPaW1hcC5ndWVuZ2VsLmNoghFpbWFwLmtydWVtZWwuaG9tZYIR
c210cC5rcnVlbWVsLmhvbWWCEGdpdC5rcnVlbWVsLmhvbWUwDQYJKoZIhvcNAQEL
BQADggIBAI+xeOFkwdiamMSU8oxc5pnwZlCwNLhWhUv3nc1IRYpyegovS3imzmG3
T60cxVvgR6Xn2H5MxiXviG/JVNAxUbwicyZZGmSaFdJkzgILdIXWVsnq7jr42mKX
ZUJQzWANYcqESZQKsJ4/VbsXgkNpA+qBApAVi3mvb/1qDer8y8f5l6D2n0jz+jkD
6bx8teHacZNkfjwIOFnQdIxNGXWmBmAZXx/eOjRm/WI9lANaGeLmKcxUVCQb9mbW
t0BlRIjpmwJ5toKACFwMoy8Zjc0ex/BYvMhybvyB/KI6VabHpPY2x1a/Eid/3/5J
y9+uLVgADcwOjdxK6ULd6Aj8vBRzzLCwp395m2vTEIXzKKB167OqVf93wsAWW3vu
QSTcDt/AYCJWi9j0KFpSnmFBwCaiJges5FqvoizO4Vsf7Tbpkkl/s7lrtz0pk031
L1taXHHgI+hXfe5PwYRQsdMDDs14Qf1te+Kq/CpcvGNfZWdQayMDYQYd4ghiMoYS
fi7yc1CF3PXtFemcOV+f16W38SAO5NF/P0Tn1NsT9+4Y3leUXjPXt0G7X1vyTlCo
4co/EEg5lKjtaRPSnDbIpPHwnblIZlkqaVqqTKH50mMLoX7znqAl/T9bj9lgcpGB
B32oEFZXMsL29HxcRlnoZOmVOwqklJBny1vSors6UGbbD+cB1J9C
-----END CERTIFICATE-----
