Certificate:
    Data:
        Version: 3 (0x2)
        Serial Number: 367 (0x16f)
        Signature Algorithm: sha256WithRSAEncryption
        Issuer: C=CH, ST=Thurgau, L=Kefikon, O=guengel.ch, CN=CA guengel.ch/emailAddress=postmaster@guengel.ch
        Validity
            Not Before: Sep  8 15:19:43 2019 GMT
            Not After : Sep 22 15:19:43 2020 GMT
        Subject: C=CH, ST=Thurgau, O=guengel.ch, CN=colossus.kruemel.home/emailAddress=postmaster@guengel.ch
        Subject Public Key Info:
            Public Key Algorithm: rsaEncryption
                RSA Public-Key: (2048 bit)
                Modulus:
                    00:d9:41:c7:ff:33:74:ad:79:29:03:ab:eb:71:72:
                    c4:f5:55:59:26:14:50:27:54:46:8d:f2:f4:4c:a6:
                    8a:d2:90:5b:af:73:0e:22:07:17:5e:02:77:e1:6e:
                    ee:a8:3e:33:f8:b7:ff:31:8e:74:3e:2f:bc:91:07:
                    7a:02:d6:e9:1f:24:f7:31:04:dc:55:fe:be:93:15:
                    a0:45:42:c2:cc:3e:bf:61:5f:75:74:31:f8:6f:62:
                    33:ac:0a:97:0f:62:ea:6f:e2:22:f4:e1:ad:de:15:
                    c1:8f:83:85:5f:27:d6:01:e8:b0:72:18:f1:7b:99:
                    a6:26:bc:f5:51:93:87:17:62:51:3e:30:30:71:24:
                    47:a9:4e:64:84:a3:54:d5:64:4a:03:12:7a:75:f4:
                    db:00:35:dc:87:bb:42:65:4b:72:fa:2d:62:57:71:
                    b9:3f:97:c0:f2:a3:68:47:8c:8c:5a:47:38:e4:95:
                    d6:c7:4e:64:8a:fd:ed:2d:1e:bc:81:33:82:07:2b:
                    16:35:b8:34:cb:b6:66:e2:c6:69:1e:45:f8:86:dc:
                    0a:0a:be:f2:f3:04:e1:a4:31:56:9f:06:2b:d7:78:
                    e4:70:93:ee:a3:e8:b9:0d:75:dc:79:55:c7:11:09:
                    2b:41:d3:30:ea:66:9e:66:ca:9c:62:58:4c:b8:7f:
                    81:37
                Exponent: 65537 (0x10001)
        X509v3 extensions:
            X509v3 Basic Constraints: 
                CA:FALSE
            Netscape Comment: 
                OpenSSL Generated Certificate
            X509v3 Subject Key Identifier: 
                ED:F4:5B:36:6A:46:4D:B6:F8:AC:DF:71:39:74:24:AE:33:AA:8B:88
            X509v3 Authority Key Identifier: 
                keyid:D6:88:F1:AA:C1:2B:09:8C:B8:5C:9D:CE:DF:57:39:62:26:10:20:90
                DirName:/C=CH/ST=Thurgau/L=Kefikon/O=guengel.ch/CN=CA guengel.ch/emailAddress=postmaster@guengel.ch
                serial:E5:25:3B:A6:77:BD:CB:FF

    Signature Algorithm: sha256WithRSAEncryption
         d0:91:44:69:00:51:4a:ed:62:6e:ce:33:a1:e4:60:8f:d6:ab:
         05:c3:32:5a:e4:40:b2:ef:74:a4:d8:ec:4e:91:68:7d:da:0e:
         9d:1b:6c:f5:fe:6a:5f:49:ce:60:8a:1c:d8:07:35:ea:7d:82:
         cb:f2:b5:35:e6:94:39:b8:fa:45:07:e3:29:29:b3:7c:89:eb:
         48:87:28:85:be:89:51:41:26:b7:75:ec:c1:fa:69:05:c1:f3:
         48:fa:fc:57:d6:cb:17:f3:ea:79:40:ca:8e:97:99:9a:7f:d6:
         bb:6f:d0:00:87:f5:a9:7f:be:62:39:f2:de:6c:0e:7a:54:e5:
         39:4a:df:c2:3d:51:c1:8c:0a:fa:8c:b8:43:b6:40:d7:37:3d:
         df:18:34:fa:1d:21:58:1a:63:af:d4:4f:3a:aa:81:87:f5:77:
         e7:c7:24:e9:f7:58:77:52:9b:ed:b5:2f:0e:a8:be:66:f0:17:
         a4:e4:bd:78:ab:81:de:3a:98:14:b7:fe:d2:69:12:63:80:3f:
         af:dd:de:f8:78:c6:51:66:47:2b:03:38:c9:51:69:f5:96:5c:
         7a:0f:41:43:4a:b0:23:52:0d:5e:9c:c6:a4:bd:59:38:82:14:
         03:82:33:e8:0f:87:d9:5f:81:21:dc:fe:db:71:32:6a:9a:89:
         1f:c8:a7:e9:5b:ac:b1:dc:32:d8:c2:06:67:d9:37:24:56:86:
         c1:95:7e:cc:d2:29:cb:8f:b6:45:a7:e1:bb:50:5e:54:26:04:
         bd:59:20:c9:6d:9c:56:cf:6f:1b:f3:28:fe:d0:23:c6:df:2c:
         92:32:5c:da:be:f5:1e:35:cd:37:09:b9:e6:a6:c8:35:71:b3:
         9c:ee:08:c4:8d:d1:c0:93:60:de:c3:25:a3:db:38:6b:0a:13:
         f9:0f:57:c7:f0:18:f7:ae:60:72:18:fd:73:ed:7e:09:c9:cd:
         dd:45:b4:02:fe:3b:ec:88:5b:82:55:b8:86:35:9c:d9:bb:71:
         10:89:ee:66:47:98:cb:71:0e:32:81:e3:68:e4:03:ef:48:a6:
         cf:93:61:0f:cc:70:2a:c0:cd:4c:fa:3f:f3:03:f5:8d:fa:62:
         5d:a2:6c:fd:a3:a3:b8:83:ef:e3:a4:bb:fa:2f:ae:77:96:d1:
         00:b4:5a:f6:d5:f0:e4:e3:9c:ff:c0:ac:74:fd:d0:4c:db:a4:
         6e:6d:11:41:ba:69:26:d9:b6:58:86:17:e9:7a:cc:18:2f:24:
         bb:7d:14:95:9a:76:e7:8d:6e:4e:9f:d1:81:89:2e:45:66:10:
         68:8a:ee:f3:16:2a:b8:9b:59:ef:ee:d6:d8:f4:6e:cc:13:84:
         42:48:c0:d3:1b:00:23:5f
-----BEGIN CERTIFICATE-----
MIIFlTCCA32gAwIBAgICAW8wDQYJKoZIhvcNAQELBQAwgYQxCzAJBgNVBAYTAkNI
MRAwDgYDVQQIEwdUaHVyZ2F1MRAwDgYDVQQHEwdLZWZpa29uMRMwEQYDVQQKEwpn
dWVuZ2VsLmNoMRYwFAYDVQQDEw1DQSBndWVuZ2VsLmNoMSQwIgYJKoZIhvcNAQkB
FhVwb3N0bWFzdGVyQGd1ZW5nZWwuY2gwHhcNMTkwOTA4MTUxOTQzWhcNMjAwOTIy
MTUxOTQzWjB6MQswCQYDVQQGEwJDSDEQMA4GA1UECBMHVGh1cmdhdTETMBEGA1UE
ChMKZ3VlbmdlbC5jaDEeMBwGA1UEAxMVY29sb3NzdXMua3J1ZW1lbC5ob21lMSQw
IgYJKoZIhvcNAQkBFhVwb3N0bWFzdGVyQGd1ZW5nZWwuY2gwggEiMA0GCSqGSIb3
DQEBAQUAA4IBDwAwggEKAoIBAQDZQcf/M3SteSkDq+txcsT1VVkmFFAnVEaN8vRM
porSkFuvcw4iBxdeAnfhbu6oPjP4t/8xjnQ+L7yRB3oC1ukfJPcxBNxV/r6TFaBF
QsLMPr9hX3V0MfhvYjOsCpcPYupv4iL04a3eFcGPg4VfJ9YB6LByGPF7maYmvPVR
k4cXYlE+MDBxJEepTmSEo1TVZEoDEnp19NsANdyHu0JlS3L6LWJXcbk/l8Dyo2hH
jIxaRzjkldbHTmSK/e0tHryBM4IHKxY1uDTLtmbixmkeRfiG3AoKvvLzBOGkMVaf
BivXeORwk+6j6LkNddx5VccRCStB0zDqZp5mypxiWEy4f4E3AgMBAAGjggEYMIIB
FDAJBgNVHRMEAjAAMCwGCWCGSAGG+EIBDQQfFh1PcGVuU1NMIEdlbmVyYXRlZCBD
ZXJ0aWZpY2F0ZTAdBgNVHQ4EFgQU7fRbNmpGTbb4rN9xOXQkrjOqi4gwgbkGA1Ud
IwSBsTCBroAU1ojxqsErCYy4XJ3O31c5YiYQIJChgYqkgYcwgYQxCzAJBgNVBAYT
AkNIMRAwDgYDVQQIEwdUaHVyZ2F1MRAwDgYDVQQHEwdLZWZpa29uMRMwEQYDVQQK
EwpndWVuZ2VsLmNoMRYwFAYDVQQDEw1DQSBndWVuZ2VsLmNoMSQwIgYJKoZIhvcN
AQkBFhVwb3N0bWFzdGVyQGd1ZW5nZWwuY2iCCQDlJTumd73L/zANBgkqhkiG9w0B
AQsFAAOCAgEA0JFEaQBRSu1ibs4zoeRgj9arBcMyWuRAsu90pNjsTpFofdoOnRts
9f5qX0nOYIoc2Ac16n2Cy/K1NeaUObj6RQfjKSmzfInrSIcohb6JUUEmt3Xswfpp
BcHzSPr8V9bLF/PqeUDKjpeZmn/Wu2/QAIf1qX++Yjny3mwOelTlOUrfwj1RwYwK
+oy4Q7ZA1zc93xg0+h0hWBpjr9RPOqqBh/V358ck6fdYd1Kb7bUvDqi+ZvAXpOS9
eKuB3jqYFLf+0mkSY4A/r93e+HjGUWZHKwM4yVFp9ZZceg9BQ0qwI1INXpzGpL1Z
OIIUA4Iz6A+H2V+BIdz+23EyapqJH8in6Vussdwy2MIGZ9k3JFaGwZV+zNIpy4+2
Rafhu1BeVCYEvVkgyW2cVs9vG/Mo/tAjxt8skjJc2r71HjXNNwm55qbINXGznO4I
xI3RwJNg3sMlo9s4awoT+Q9Xx/AY965gchj9c+1+CcnN3UW0Av477IhbglW4hjWc
2btxEInuZkeYy3EOMoHjaOQD70imz5NhD8xwKsDNTPo/8wP1jfpiXaJs/aOjuIPv
46S7+i+ud5bRALRa9tXw5OOc/8CsdP3QTNukbm0RQbppJtm2WIYX6XrMGC8ku30U
lZp2541uTp/RgYkuRWYQaIru8xYquJtZ7+7W2PRuzBOEQkjA0xsAI18=
-----END CERTIFICATE-----
