Certificate:
    Data:
        Version: 3 (0x2)
        Serial Number: 418 (0x1a2)
        Signature Algorithm: sha256WithRSAEncryption
        Issuer: C=CH, ST=Thurgau, L=Kefikon, O=guengel.ch, CN=CA guengel.ch/emailAddress=postmaster@guengel.ch
        Validity
            Not Before: Jan  7 05:27:26 2021 GMT
            Not After : Feb 11 05:27:26 2022 GMT
        Subject: C=CH, ST=Thurgau, O=guengel.ch, CN=colossus.kruemel.home/emailAddress=postmaster@guengel.ch
        Subject Public Key Info:
            Public Key Algorithm: rsaEncryption
                RSA Public-Key: (2048 bit)
                Modulus:
                    00:ad:b1:32:4e:d2:a0:9a:2c:14:71:de:07:d6:ef:
                    97:9c:70:7f:b6:73:31:fe:bf:b6:88:89:10:34:5b:
                    b2:9d:b5:2c:c9:a2:75:25:f7:6b:60:27:5f:63:b6:
                    42:50:b7:93:4f:fd:7f:d7:ba:84:29:77:e1:0c:32:
                    fc:92:93:ba:a9:29:e8:13:ab:0b:82:11:7e:26:c4:
                    93:7e:40:c2:d3:8c:94:e2:ea:6e:27:d2:19:23:5b:
                    b6:87:23:60:6f:0b:7e:6b:05:3f:24:ce:78:45:5d:
                    a6:fd:b3:9b:55:fd:ab:df:db:b9:e2:f6:9b:84:19:
                    3b:43:31:f5:84:67:a1:f9:d6:08:00:14:8a:3c:84:
                    d6:d3:81:fd:87:e9:bf:b5:6a:8a:ea:a0:d7:dc:c4:
                    06:a6:37:33:fc:60:75:d5:2d:71:5b:0a:e6:de:ec:
                    e3:f7:1e:c2:bd:f6:18:41:8a:a7:df:50:82:c1:9d:
                    cc:0a:a5:f5:ff:25:13:a1:e9:6c:f1:9a:96:75:cf:
                    63:02:42:74:b0:25:19:38:ff:b0:8f:ac:1b:66:45:
                    2c:db:f0:5f:7c:15:3a:f0:a9:6b:b9:d1:6d:eb:a3:
                    ad:72:5a:49:a3:31:13:ba:e3:e2:8a:fa:f8:2b:9c:
                    c1:7a:04:fd:5f:1e:99:09:a5:df:c9:6f:33:e4:ef:
                    e4:f9
                Exponent: 65537 (0x10001)
        X509v3 extensions:
            X509v3 Key Usage: 
                Digital Signature, Key Encipherment, Key Agreement
            X509v3 Basic Constraints: critical
                CA:FALSE
            Netscape Cert Type: 
                SSL Client, SSL Server
            X509v3 Extended Key Usage: 
                TLS Web Server Authentication, TLS Web Client Authentication
            X509v3 Subject Alternative Name: 
                DNS:colossus.kruemel.home
            X509v3 Subject Key Identifier: 
                B6:4C:D3:C7:31:49:19:3C:D1:E7:77:4F:60:15:49:93:51:89:E4:E3
            X509v3 Authority Key Identifier: 
                keyid:D6:88:F1:AA:C1:2B:09:8C:B8:5C:9D:CE:DF:57:39:62:26:10:20:90
                DirName:/C=CH/ST=Thurgau/L=Kefikon/O=guengel.ch/CN=CA guengel.ch/emailAddress=postmaster@guengel.ch
                serial:E5:25:3B:A6:77:BD:CB:FF

    Signature Algorithm: sha256WithRSAEncryption
         56:82:4e:4c:8e:22:0e:80:75:8a:ef:31:62:e8:a9:dd:2c:0f:
         c1:42:68:18:6f:bd:f4:9e:68:36:b7:13:0b:ec:3c:4c:bf:77:
         be:aa:be:b1:82:83:c3:69:65:5d:48:c9:06:e0:14:1c:ee:0d:
         49:b7:d0:56:01:02:f4:b0:7e:8f:b3:22:70:10:27:d0:e1:2e:
         31:4f:a9:4e:59:f9:b9:f6:4b:6c:e2:22:40:0e:49:f2:00:de:
         a2:7b:8f:68:b5:f9:bb:75:3f:11:1a:c5:3d:75:6e:59:6a:72:
         df:b8:2e:d1:5c:46:f7:e9:ba:c9:ac:3c:a3:6b:44:36:27:ea:
         e6:aa:86:75:e7:13:3c:85:bc:e5:70:01:d9:ef:09:fe:c5:0e:
         6c:3f:5d:b5:1c:61:a9:94:a0:85:14:3d:f2:0d:38:eb:d7:e6:
         1f:d7:26:1b:ea:5b:f8:1f:35:6e:5a:60:53:74:18:bb:1c:6e:
         0a:ae:cb:b5:5b:57:8d:ba:16:96:be:05:28:35:72:e1:29:f7:
         a2:fe:04:07:96:27:15:2c:06:52:7a:6a:0d:8b:5d:75:21:9e:
         62:33:b9:d8:52:9b:d3:61:d4:ac:4a:4f:70:b8:c2:a7:6c:de:
         f2:aa:14:dc:0e:d4:b3:82:33:cf:f1:51:c0:4f:0b:da:6e:01:
         51:8b:b9:87:ae:90:aa:c9:91:75:e1:7f:7b:a8:b0:61:84:07:
         23:fb:e1:94:13:d1:78:6a:a9:af:6c:d3:03:30:ee:af:9a:35:
         8d:32:45:72:39:16:2a:ec:2a:48:d5:53:62:68:bf:c9:03:6c:
         be:48:df:d2:bf:5a:54:c0:3e:23:da:b9:87:3a:94:d9:4d:e4:
         9e:8d:af:ce:5a:cf:a5:f6:17:cb:e5:49:9c:28:c7:b9:c7:14:
         c9:8d:47:e6:77:b0:9d:98:f8:6d:ed:e7:89:55:c3:44:49:74:
         42:74:1d:0c:df:47:ea:d5:f0:38:85:60:97:5b:c0:9b:c4:be:
         fc:ff:be:fe:f7:89:b0:30:64:3f:6e:df:f1:9a:cf:a8:07:7b:
         3e:f5:15:61:49:17:2f:f3:fd:f0:c7:d2:e5:3a:bf:7b:35:22:
         f7:e2:7c:15:19:5c:3a:f7:5e:f4:7c:67:60:3d:c9:10:ac:88:
         56:a3:6c:1d:0e:62:f2:57:27:47:0c:c5:93:f5:4a:ca:2c:35:
         aa:22:9e:fe:a4:af:fc:58:d3:67:27:5b:ba:be:4c:32:0e:23:
         85:72:7e:b9:b8:36:ba:b9:c5:09:fc:fe:ab:22:d3:6b:83:b4:
         58:10:63:17:7f:34:c4:82:5a:77:1b:78:34:6e:df:9f:44:00:
         92:2d:e5:f6:87:e7:f0:23
-----BEGIN CERTIFICATE-----
MIIFyzCCA7OgAwIBAgICAaIwDQYJKoZIhvcNAQELBQAwgYQxCzAJBgNVBAYTAkNI
MRAwDgYDVQQIEwdUaHVyZ2F1MRAwDgYDVQQHEwdLZWZpa29uMRMwEQYDVQQKEwpn
dWVuZ2VsLmNoMRYwFAYDVQQDEw1DQSBndWVuZ2VsLmNoMSQwIgYJKoZIhvcNAQkB
FhVwb3N0bWFzdGVyQGd1ZW5nZWwuY2gwHhcNMjEwMTA3MDUyNzI2WhcNMjIwMjEx
MDUyNzI2WjB6MQswCQYDVQQGEwJDSDEQMA4GA1UECBMHVGh1cmdhdTETMBEGA1UE
ChMKZ3VlbmdlbC5jaDEeMBwGA1UEAxMVY29sb3NzdXMua3J1ZW1lbC5ob21lMSQw
IgYJKoZIhvcNAQkBFhVwb3N0bWFzdGVyQGd1ZW5nZWwuY2gwggEiMA0GCSqGSIb3
DQEBAQUAA4IBDwAwggEKAoIBAQCtsTJO0qCaLBRx3gfW75eccH+2czH+v7aIiRA0
W7KdtSzJonUl92tgJ19jtkJQt5NP/X/XuoQpd+EMMvySk7qpKegTqwuCEX4mxJN+
QMLTjJTi6m4n0hkjW7aHI2BvC35rBT8kznhFXab9s5tV/avf27ni9puEGTtDMfWE
Z6H51ggAFIo8hNbTgf2H6b+1aorqoNfcxAamNzP8YHXVLXFbCube7OP3HsK99hhB
iqffUILBncwKpfX/JROh6WzxmpZ1z2MCQnSwJRk4/7CPrBtmRSzb8F98FTrwqWu5
0W3ro61yWkmjMRO64+KK+vgrnMF6BP1fHpkJpd/JbzPk7+T5AgMBAAGjggFOMIIB
SjALBgNVHQ8EBAMCA6gwDAYDVR0TAQH/BAIwADARBglghkgBhvhCAQEEBAMCBsAw
HQYDVR0lBBYwFAYIKwYBBQUHAwEGCCsGAQUFBwMCMCAGA1UdEQQZMBeCFWNvbG9z
c3VzLmtydWVtZWwuaG9tZTAdBgNVHQ4EFgQUtkzTxzFJGTzR53dPYBVJk1GJ5OMw
gbkGA1UdIwSBsTCBroAU1ojxqsErCYy4XJ3O31c5YiYQIJChgYqkgYcwgYQxCzAJ
BgNVBAYTAkNIMRAwDgYDVQQIEwdUaHVyZ2F1MRAwDgYDVQQHEwdLZWZpa29uMRMw
EQYDVQQKEwpndWVuZ2VsLmNoMRYwFAYDVQQDEw1DQSBndWVuZ2VsLmNoMSQwIgYJ
KoZIhvcNAQkBFhVwb3N0bWFzdGVyQGd1ZW5nZWwuY2iCCQDlJTumd73L/zANBgkq
hkiG9w0BAQsFAAOCAgEAVoJOTI4iDoB1iu8xYuip3SwPwUJoGG+99J5oNrcTC+w8
TL93vqq+sYKDw2llXUjJBuAUHO4NSbfQVgEC9LB+j7MicBAn0OEuMU+pTln5ufZL
bOIiQA5J8gDeonuPaLX5u3U/ERrFPXVuWWpy37gu0VxG9+m6yaw8o2tENifq5qqG
decTPIW85XAB2e8J/sUObD9dtRxhqZSghRQ98g0469fmH9cmG+pb+B81blpgU3QY
uxxuCq7LtVtXjboWlr4FKDVy4Sn3ov4EB5YnFSwGUnpqDYtddSGeYjO52FKb02HU
rEpPcLjCp2ze8qoU3A7Us4Izz/FRwE8L2m4BUYu5h66QqsmRdeF/e6iwYYQHI/vh
lBPReGqpr2zTAzDur5o1jTJFcjkWKuwqSNVTYmi/yQNsvkjf0r9aVMA+I9q5hzqU
2U3kno2vzlrPpfYXy+VJnCjHuccUyY1H5newnZj4be3niVXDREl0QnQdDN9H6tXw
OIVgl1vAm8S+/P++/veJsDBkP27f8ZrPqAd7PvUVYUkXL/P98MfS5Tq/ezUi9+J8
FRlcOvde9HxnYD3JEKyIVqNsHQ5i8lcnRwzFk/VKyiw1qiKe/qSv/FjTZydbur5M
Mg4jhXJ+ubg2urnFCfz+qyLTa4O0WBBjF380xIJadxt4NG7fn0QAki3l9ofn8CM=
-----END CERTIFICATE-----
