Certificate:
    Data:
        Version: 3 (0x2)
        Serial Number:
            5c:8f:95:2d:e8:48:c2:12:7e:ec:af:ff:b9:85:19:19:00:63:24:7f
        Signature Algorithm: sha256WithRSAEncryption
        Issuer: C=CH, ST=Thurgau, L=Kefikon, O=guengel.ch, CN=CA 2022/emailAddress=postmaster@guengel.ch
        Validity
            Not Before: Jan  3 14:04:19 2025 GMT
            Not After : Feb  7 14:04:19 2026 GMT
        Subject: C=CH, ST=Thurgau, O=guengel.ch, CN=colossus.kruemel.home/emailAddress=postmaster@guengel.ch
        Subject Public Key Info:
            Public Key Algorithm: rsaEncryption
                Public-Key: (2048 bit)
                Modulus:
                    00:d2:8d:90:40:c3:a9:e5:ce:cf:0a:7f:19:e2:e8:
                    96:82:74:aa:bd:92:46:16:47:df:4a:9c:46:89:24:
                    98:74:9d:1a:4f:98:b8:c1:5a:53:db:47:e4:f3:2a:
                    88:e8:1a:38:41:3f:e4:b1:d5:d8:87:26:55:37:84:
                    26:67:fa:1d:37:9b:d9:7b:84:1d:f2:16:26:88:46:
                    fc:5c:ae:cb:8f:e2:0f:cc:84:78:ab:53:11:62:63:
                    d6:28:13:2e:34:68:da:ed:ed:bc:72:29:d3:4c:2e:
                    5c:0b:f5:e0:6c:69:2f:f1:6b:87:ee:da:8b:14:33:
                    a7:8a:33:0c:ed:7b:45:b7:c3:60:12:a4:f5:d7:ad:
                    c5:b0:b8:fb:e5:d7:84:6c:e1:27:31:6f:bb:0f:38:
                    ee:02:1b:13:6f:4b:7f:51:02:ce:dc:a3:f5:28:c5:
                    24:27:e6:db:8c:a8:29:d9:20:f0:91:7a:89:96:57:
                    bd:48:70:a3:66:87:03:c3:2c:ae:ee:10:8f:ca:53:
                    20:90:f5:f2:24:1a:cf:95:33:ce:b0:6a:67:75:32:
                    57:3e:32:c1:fc:71:d2:f4:1f:16:48:04:49:bb:2d:
                    d4:05:ad:31:e2:34:d3:f8:af:12:0e:7f:f2:98:88:
                    a2:b5:8a:cd:25:68:0d:1b:69:2e:ed:91:0e:2f:1e:
                    da:45
                Exponent: 65537 (0x10001)
        X509v3 extensions:
            X509v3 Basic Constraints: critical
                CA:FALSE
            X509v3 Key Usage: 
                Digital Signature, Key Encipherment, Key Agreement
            X509v3 Subject Key Identifier: 
                B7:81:0D:B3:CE:D4:70:50:41:76:C3:A0:AF:8F:FB:EA:90:06:92:B1
            X509v3 Authority Key Identifier: 
                keyid:22:20:0D:51:40:61:42:BE:DD:BA:D9:C9:C1:77:B6:93:28:C3:99:EC
                DirName:/C=CH/ST=Thurgau/L=Kefikon/O=guengel.ch/CN=CA 2022/emailAddress=postmaster@guengel.ch
                serial:6D:29:90:54:E9:17:E9:C2:6A:E6:52:AD:84:4E:30:8E:6E:57:FB:1C
            Netscape Cert Type: 
                SSL Client, SSL Server
            X509v3 Extended Key Usage: 
                TLS Web Server Authentication, TLS Web Client Authentication
            X509v3 Subject Alternative Name: 
                DNS:colossus.kruemel.home, DNS:imap.guengel.ch, DNS:imap.kruemel.home, DNS:smtp.kruemel.home, DNS:git.kruemel.home
    Signature Algorithm: sha256WithRSAEncryption
    Signature Value:
        b4:f9:d1:fe:45:3e:aa:11:b1:cc:04:0f:ee:55:88:c9:aa:77:
        b3:49:8a:1d:5b:40:db:37:59:6f:a6:9c:76:28:50:43:47:01:
        2b:95:13:63:bd:32:59:29:0d:39:b8:fc:57:84:07:82:12:8e:
        27:f0:bf:e8:41:fe:e5:d2:a8:20:aa:17:d8:76:95:82:3a:1a:
        9d:24:e6:3e:c8:61:05:50:a9:dd:67:df:57:44:02:ac:e6:1b:
        cc:b8:0e:8e:53:67:d4:d0:87:ce:e3:1d:af:f6:2c:92:30:e1:
        e3:e9:70:5c:4e:74:03:a6:89:59:3e:e6:91:85:fd:b9:79:c8:
        a6:d2:21:80:cb:a1:6c:63:69:56:30:10:1c:89:1d:a5:c3:aa:
        b4:26:50:f9:03:ce:5c:ae:1b:33:64:a0:59:31:e8:b9:22:42:
        cb:3c:fd:b1:c3:7e:4c:0b:07:f8:c4:68:5b:b8:3d:74:b5:3d:
        8c:e9:6d:c2:51:e0:0f:f1:5b:90:90:88:07:cd:0a:8d:7a:ac:
        ad:c4:33:0c:46:00:58:a8:d1:87:93:10:d6:fd:1c:34:8e:32:
        d3:a9:26:9d:8f:73:d2:76:fe:22:a4:a5:80:09:45:59:08:5c:
        6c:84:cd:63:29:b9:e7:1f:f7:c6:6d:15:94:12:e4:4e:86:f1:
        6d:59:03:f0:91:a1:f0:4f:73:a9:11:bf:7f:9d:8e:6b:b9:2f:
        a2:8c:0a:55:92:44:61:d1:04:c2:3f:2d:ee:85:7e:89:18:02:
        91:d3:3a:28:ef:07:a8:87:54:a8:99:4b:59:97:fb:e7:20:77:
        e3:d2:39:01:95:fc:44:8a:35:78:cf:af:a8:9d:86:cb:d1:93:
        46:38:13:25:b8:ee:06:28:06:7e:2d:a9:18:01:9b:47:bf:80:
        eb:8a:e2:71:51:c1:a6:b1:ac:90:9a:2f:f9:2b:39:df:8b:97:
        9f:14:fb:ad:39:9f:71:9e:79:83:07:7f:76:4b:d4:d0:c5:49:
        44:73:39:e8:53:2e:25:c7:f6:35:18:04:c5:3b:1e:9b:97:f1:
        e9:36:46:14:00:1f:79:0b:30:51:ff:d4:73:b4:61:4c:a5:f5:
        40:56:fd:a7:0d:6c:59:a5:b7:09:fd:81:66:e0:2c:e2:88:8c:
        3a:ba:69:f2:ad:9e:88:07:d2:c3:5b:ef:0b:83:a3:cc:95:ca:
        c4:97:8a:19:44:ad:7c:cc:1f:1d:3c:47:38:a8:c8:81:80:bf:
        9e:0d:df:6e:c2:49:35:a9:bf:84:d9:fb:85:59:c2:49:a0:d4:
        4f:1e:6d:bc:88:03:82:7e:9f:4a:61:e4:bf:aa:f5:2b:92:42:
        7c:cb:c5:ec:35:7a:a6:4f
-----BEGIN CERTIFICATE-----
MIIGIzCCBAugAwIBAgIUXI+VLehIwhJ+7K//uYUZGQBjJH8wDQYJKoZIhvcNAQEL
BQAwfjELMAkGA1UEBhMCQ0gxEDAOBgNVBAgTB1RodXJnYXUxEDAOBgNVBAcTB0tl
Zmlrb24xEzARBgNVBAoTCmd1ZW5nZWwuY2gxEDAOBgNVBAMTB0NBIDIwMjIxJDAi
BgkqhkiG9w0BCQEWFXBvc3RtYXN0ZXJAZ3VlbmdlbC5jaDAeFw0yNTAxMDMxNDA0
MTlaFw0yNjAyMDcxNDA0MTlaMHoxCzAJBgNVBAYTAkNIMRAwDgYDVQQIEwdUaHVy
Z2F1MRMwEQYDVQQKEwpndWVuZ2VsLmNoMR4wHAYDVQQDExVjb2xvc3N1cy5rcnVl
bWVsLmhvbWUxJDAiBgkqhkiG9w0BCQEWFXBvc3RtYXN0ZXJAZ3VlbmdlbC5jaDCC
ASIwDQYJKoZIhvcNAQEBBQADggEPADCCAQoCggEBANKNkEDDqeXOzwp/GeLoloJ0
qr2SRhZH30qcRokkmHSdGk+YuMFaU9tH5PMqiOgaOEE/5LHV2IcmVTeEJmf6HTeb
2XuEHfIWJohG/Fyuy4/iD8yEeKtTEWJj1igTLjRo2u3tvHIp00wuXAv14GxpL/Fr
h+7aixQzp4ozDO17RbfDYBKk9detxbC4++XXhGzhJzFvuw847gIbE29Lf1ECztyj
9SjFJCfm24yoKdkg8JF6iZZXvUhwo2aHA8Msru4Qj8pTIJD18iQaz5UzzrBqZ3Uy
Vz4ywfxx0vQfFkgESbst1AWtMeI00/ivEg5/8piIorWKzSVoDRtpLu2RDi8e2kUC
AwEAAaOCAZswggGXMAwGA1UdEwEB/wQCMAAwCwYDVR0PBAQDAgOoMB0GA1UdDgQW
BBS3gQ2zztRwUEF2w6Cvj/vqkAaSsTCBvQYDVR0jBIG1MIGygBQiIA1RQGFCvt26
2cnBd7aTKMOZ7KGBg6SBgDB+MQswCQYDVQQGEwJDSDEQMA4GA1UECBMHVGh1cmdh
dTEQMA4GA1UEBxMHS2VmaWtvbjETMBEGA1UEChMKZ3VlbmdlbC5jaDEQMA4GA1UE
AxMHQ0EgMjAyMjEkMCIGCSqGSIb3DQEJARYVcG9zdG1hc3RlckBndWVuZ2VsLmNo
ghRtKZBU6RfpwmrmUq2ETjCOblf7HDARBglghkgBhvhCAQEEBAMCBsAwHQYDVR0l
BBYwFAYIKwYBBQUHAwEGCCsGAQUFBwMCMGkGA1UdEQRiMGCCFWNvbG9zc3VzLmty
dWVtZWwuaG9tZYIPaW1hcC5ndWVuZ2VsLmNoghFpbWFwLmtydWVtZWwuaG9tZYIR
c210cC5rcnVlbWVsLmhvbWWCEGdpdC5rcnVlbWVsLmhvbWUwDQYJKoZIhvcNAQEL
BQADggIBALT50f5FPqoRscwED+5ViMmqd7NJih1bQNs3WW+mnHYoUENHASuVE2O9
MlkpDTm4/FeEB4ISjifwv+hB/uXSqCCqF9h2lYI6Gp0k5j7IYQVQqd1n31dEAqzm
G8y4Do5TZ9TQh87jHa/2LJIw4ePpcFxOdAOmiVk+5pGF/bl5yKbSIYDLoWxjaVYw
EByJHaXDqrQmUPkDzlyuGzNkoFkx6LkiQss8/bHDfkwLB/jEaFu4PXS1PYzpbcJR
4A/xW5CQiAfNCo16rK3EMwxGAFio0YeTENb9HDSOMtOpJp2Pc9J2/iKkpYAJRVkI
XGyEzWMpuecf98ZtFZQS5E6G8W1ZA/CRofBPc6kRv3+djmu5L6KMClWSRGHRBMI/
Le6FfokYApHTOijvB6iHVKiZS1mX++cgd+PSOQGV/ESKNXjPr6idhsvRk0Y4EyW4
7gYoBn4tqRgBm0e/gOuK4nFRwaaxrJCaL/krOd+Ll58U+605n3GeeYMHf3ZL1NDF
SURzOehTLiXH9jUYBMU7HpuX8ek2RhQAH3kLMFH/1HO0YUyl9UBW/acNbFmltwn9
gWbgLOKIjDq6afKtnogH0sNb7wuDo8yVysSXihlErXzMHx08RzioyIGAv54N327C
STWpv4TZ+4VZwkmg1E8ebbyIA4J+n0ph5L+q9SuSQnzLxew1eqZP
-----END CERTIFICATE-----
