Certificate:
    Data:
        Version: 3 (0x2)
        Serial Number: 422 (0x1a6)
        Signature Algorithm: sha256WithRSAEncryption
        Issuer: C=CH, ST=Thurgau, L=Kefikon, O=guengel.ch, CN=CA guengel.ch/emailAddress=postmaster@guengel.ch
        Validity
            Not Before: Jan  7 06:07:37 2021 GMT
            Not After : Feb 11 06:07:37 2022 GMT
        Subject: C=CH, ST=Thurgau, O=guengel.ch, CN=colossus.kruemel.home/emailAddress=postmaster@guengel.ch
        Subject Public Key Info:
            Public Key Algorithm: rsaEncryption
                RSA Public-Key: (2048 bit)
                Modulus:
                    00:ad:b1:32:4e:d2:a0:9a:2c:14:71:de:07:d6:ef:
                    97:9c:70:7f:b6:73:31:fe:bf:b6:88:89:10:34:5b:
                    b2:9d:b5:2c:c9:a2:75:25:f7:6b:60:27:5f:63:b6:
                    42:50:b7:93:4f:fd:7f:d7:ba:84:29:77:e1:0c:32:
                    fc:92:93:ba:a9:29:e8:13:ab:0b:82:11:7e:26:c4:
                    93:7e:40:c2:d3:8c:94:e2:ea:6e:27:d2:19:23:5b:
                    b6:87:23:60:6f:0b:7e:6b:05:3f:24:ce:78:45:5d:
                    a6:fd:b3:9b:55:fd:ab:df:db:b9:e2:f6:9b:84:19:
                    3b:43:31:f5:84:67:a1:f9:d6:08:00:14:8a:3c:84:
                    d6:d3:81:fd:87:e9:bf:b5:6a:8a:ea:a0:d7:dc:c4:
                    06:a6:37:33:fc:60:75:d5:2d:71:5b:0a:e6:de:ec:
                    e3:f7:1e:c2:bd:f6:18:41:8a:a7:df:50:82:c1:9d:
                    cc:0a:a5:f5:ff:25:13:a1:e9:6c:f1:9a:96:75:cf:
                    63:02:42:74:b0:25:19:38:ff:b0:8f:ac:1b:66:45:
                    2c:db:f0:5f:7c:15:3a:f0:a9:6b:b9:d1:6d:eb:a3:
                    ad:72:5a:49:a3:31:13:ba:e3:e2:8a:fa:f8:2b:9c:
                    c1:7a:04:fd:5f:1e:99:09:a5:df:c9:6f:33:e4:ef:
                    e4:f9
                Exponent: 65537 (0x10001)
        X509v3 extensions:
            X509v3 Key Usage: 
                Digital Signature, Key Encipherment, Key Agreement
            X509v3 Basic Constraints: critical
                CA:FALSE
            Netscape Cert Type: 
                SSL Client, SSL Server
            X509v3 Extended Key Usage: 
                TLS Web Server Authentication, TLS Web Client Authentication
            X509v3 Subject Alternative Name: 
                DNS:colossus.kruemel.home, DNS:git.kruemel.home, DNS:smtp.kruemel.home, DNS:imap.kruemel.home
            X509v3 Subject Key Identifier: 
                B6:4C:D3:C7:31:49:19:3C:D1:E7:77:4F:60:15:49:93:51:89:E4:E3
            X509v3 Authority Key Identifier: 
                keyid:D6:88:F1:AA:C1:2B:09:8C:B8:5C:9D:CE:DF:57:39:62:26:10:20:90
                DirName:/C=CH/ST=Thurgau/L=Kefikon/O=guengel.ch/CN=CA guengel.ch/emailAddress=postmaster@guengel.ch
                serial:E5:25:3B:A6:77:BD:CB:FF

    Signature Algorithm: sha256WithRSAEncryption
         93:58:09:55:a7:cb:c1:3e:6d:e3:03:32:ff:28:07:1a:08:6d:
         76:89:da:91:d0:93:cb:16:29:75:76:29:cb:c1:bc:28:41:fe:
         84:3a:6c:56:0b:bc:75:4c:e9:74:06:60:93:24:fd:93:44:39:
         2a:41:0d:20:db:84:b2:a6:41:b1:a2:0c:9c:a9:7d:6c:7d:e5:
         b5:5d:e7:e5:07:7e:12:de:2c:93:fa:81:21:2f:29:16:0e:77:
         22:96:0f:f8:30:52:1d:83:93:a5:ac:43:81:45:74:d0:56:1f:
         9e:1e:ca:f3:e9:8e:54:2b:44:3f:8c:26:a3:ea:d0:49:d7:32:
         c1:c2:e6:8f:50:73:1a:15:4a:62:56:df:9c:e9:8a:64:0e:60:
         3c:7e:e3:f4:ba:6c:12:f7:ea:29:ce:50:88:f7:99:8e:b8:70:
         25:84:e9:2e:89:b4:65:8d:f2:5e:10:dc:eb:ef:6a:4d:f6:32:
         9e:1c:18:9a:22:e5:a3:be:18:c7:62:02:2c:60:9a:14:1a:46:
         88:f6:00:89:bb:65:cf:0b:5b:bb:b9:e1:88:f9:05:04:d7:d3:
         a8:2e:11:b5:44:98:f0:8b:c0:1d:60:e3:5b:9f:8e:b2:a3:8d:
         b7:7f:31:9b:1d:f7:90:50:9e:90:b1:46:50:25:8d:51:16:9d:
         76:61:18:d0:ad:46:68:83:97:92:a6:31:4b:20:d6:d4:dc:e1:
         ba:54:23:45:cb:88:16:7b:2f:74:9d:3d:8d:61:e4:f4:4a:12:
         ed:a9:b0:e9:16:3e:3f:e1:8f:51:d0:4f:d4:dc:3b:47:53:f3:
         8f:3d:ec:21:64:4b:49:14:60:24:07:b3:e5:96:cd:5e:30:d0:
         07:02:6d:1c:6c:a9:fd:46:03:6c:93:02:32:a9:5e:59:4a:fb:
         30:73:50:b3:73:f3:aa:50:e1:1a:19:83:27:f2:1f:7d:86:10:
         7b:67:b4:8d:c2:eb:4e:b7:d9:89:9b:c4:14:ca:1a:7d:14:40:
         26:c3:83:62:a5:c4:f6:8a:34:f4:c3:61:eb:93:ce:29:6e:91:
         46:22:26:b5:f6:c5:ec:f6:20:47:fc:a6:f7:9f:1c:62:5d:7d:
         19:bc:61:d3:8f:0e:d3:4b:80:eb:ae:13:4a:c6:d1:58:cf:d0:
         e5:b9:82:33:e1:b7:78:95:e4:db:44:26:58:22:26:1a:45:7e:
         3d:5b:05:97:34:d2:90:86:d5:a1:3f:9b:0b:59:d9:8d:20:d2:
         4f:db:ef:59:32:ab:44:f4:d9:b8:7f:09:42:22:74:bf:db:e3:
         57:d8:1b:95:0c:84:d3:e4:ff:0b:51:ce:e2:33:a2:45:4b:cd:
         b3:03:61:8c:1c:45:b8:00
-----BEGIN CERTIFICATE-----
MIIGAzCCA+ugAwIBAgICAaYwDQYJKoZIhvcNAQELBQAwgYQxCzAJBgNVBAYTAkNI
MRAwDgYDVQQIEwdUaHVyZ2F1MRAwDgYDVQQHEwdLZWZpa29uMRMwEQYDVQQKEwpn
dWVuZ2VsLmNoMRYwFAYDVQQDEw1DQSBndWVuZ2VsLmNoMSQwIgYJKoZIhvcNAQkB
FhVwb3N0bWFzdGVyQGd1ZW5nZWwuY2gwHhcNMjEwMTA3MDYwNzM3WhcNMjIwMjEx
MDYwNzM3WjB6MQswCQYDVQQGEwJDSDEQMA4GA1UECBMHVGh1cmdhdTETMBEGA1UE
ChMKZ3VlbmdlbC5jaDEeMBwGA1UEAxMVY29sb3NzdXMua3J1ZW1lbC5ob21lMSQw
IgYJKoZIhvcNAQkBFhVwb3N0bWFzdGVyQGd1ZW5nZWwuY2gwggEiMA0GCSqGSIb3
DQEBAQUAA4IBDwAwggEKAoIBAQCtsTJO0qCaLBRx3gfW75eccH+2czH+v7aIiRA0
W7KdtSzJonUl92tgJ19jtkJQt5NP/X/XuoQpd+EMMvySk7qpKegTqwuCEX4mxJN+
QMLTjJTi6m4n0hkjW7aHI2BvC35rBT8kznhFXab9s5tV/avf27ni9puEGTtDMfWE
Z6H51ggAFIo8hNbTgf2H6b+1aorqoNfcxAamNzP8YHXVLXFbCube7OP3HsK99hhB
iqffUILBncwKpfX/JROh6WzxmpZ1z2MCQnSwJRk4/7CPrBtmRSzb8F98FTrwqWu5
0W3ro61yWkmjMRO64+KK+vgrnMF6BP1fHpkJpd/JbzPk7+T5AgMBAAGjggGGMIIB
gjALBgNVHQ8EBAMCA6gwDAYDVR0TAQH/BAIwADARBglghkgBhvhCAQEEBAMCBsAw
HQYDVR0lBBYwFAYIKwYBBQUHAwEGCCsGAQUFBwMCMFgGA1UdEQRRME+CFWNvbG9z
c3VzLmtydWVtZWwuaG9tZYIQZ2l0LmtydWVtZWwuaG9tZYIRc210cC5rcnVlbWVs
LmhvbWWCEWltYXAua3J1ZW1lbC5ob21lMB0GA1UdDgQWBBS2TNPHMUkZPNHnd09g
FUmTUYnk4zCBuQYDVR0jBIGxMIGugBTWiPGqwSsJjLhcnc7fVzliJhAgkKGBiqSB
hzCBhDELMAkGA1UEBhMCQ0gxEDAOBgNVBAgTB1RodXJnYXUxEDAOBgNVBAcTB0tl
Zmlrb24xEzARBgNVBAoTCmd1ZW5nZWwuY2gxFjAUBgNVBAMTDUNBIGd1ZW5nZWwu
Y2gxJDAiBgkqhkiG9w0BCQEWFXBvc3RtYXN0ZXJAZ3VlbmdlbC5jaIIJAOUlO6Z3
vcv/MA0GCSqGSIb3DQEBCwUAA4ICAQCTWAlVp8vBPm3jAzL/KAcaCG12idqR0JPL
Fil1dinLwbwoQf6EOmxWC7x1TOl0BmCTJP2TRDkqQQ0g24SypkGxogycqX1sfeW1
XeflB34S3iyT+oEhLykWDncilg/4MFIdg5OlrEOBRXTQVh+eHsrz6Y5UK0Q/jCaj
6tBJ1zLBwuaPUHMaFUpiVt+c6YpkDmA8fuP0umwS9+opzlCI95mOuHAlhOkuibRl
jfJeENzr72pN9jKeHBiaIuWjvhjHYgIsYJoUGkaI9gCJu2XPC1u7ueGI+QUE19Oo
LhG1RJjwi8AdYONbn46yo423fzGbHfeQUJ6QsUZQJY1RFp12YRjQrUZog5eSpjFL
INbU3OG6VCNFy4gWey90nT2NYeT0ShLtqbDpFj4/4Y9R0E/U3DtHU/OPPewhZEtJ
FGAkB7Plls1eMNAHAm0cbKn9RgNskwIyqV5ZSvswc1Czc/OqUOEaGYMn8h99hhB7
Z7SNwutOt9mJm8QUyhp9FEAmw4NipcT2ijT0w2Hrk84pbpFGIia19sXs9iBH/Kb3
nxxiXX0ZvGHTjw7TS4DrrhNKxtFYz9DluYIz4bd4leTbRCZYIiYaRX49WwWXNNKQ
htWhP5sLWdmNINJP2+9ZMqtE9Nm4fwlCInS/2+NX2BuVDITT5P8LUc7iM6JFS82z
A2GMHEW4AA==
-----END CERTIFICATE-----
