Certificate:
    Data:
        Version: 3 (0x2)
        Serial Number: 372 (0x174)
        Signature Algorithm: sha256WithRSAEncryption
        Issuer: C=CH, ST=Thurgau, L=Kefikon, O=guengel.ch, CN=CA guengel.ch/emailAddress=postmaster@guengel.ch
        Validity
            Not Before: Jan  3 10:08:46 2020 GMT
            Not After : Feb  6 10:08:46 2021 GMT
        Subject: C=CH, ST=Thurgau, O=guengel.ch, CN=colossus.kruemel.home/emailAddress=postmaster@guengel.ch
        Subject Public Key Info:
            Public Key Algorithm: rsaEncryption
                RSA Public-Key: (2048 bit)
                Modulus:
                    00:ad:b1:32:4e:d2:a0:9a:2c:14:71:de:07:d6:ef:
                    97:9c:70:7f:b6:73:31:fe:bf:b6:88:89:10:34:5b:
                    b2:9d:b5:2c:c9:a2:75:25:f7:6b:60:27:5f:63:b6:
                    42:50:b7:93:4f:fd:7f:d7:ba:84:29:77:e1:0c:32:
                    fc:92:93:ba:a9:29:e8:13:ab:0b:82:11:7e:26:c4:
                    93:7e:40:c2:d3:8c:94:e2:ea:6e:27:d2:19:23:5b:
                    b6:87:23:60:6f:0b:7e:6b:05:3f:24:ce:78:45:5d:
                    a6:fd:b3:9b:55:fd:ab:df:db:b9:e2:f6:9b:84:19:
                    3b:43:31:f5:84:67:a1:f9:d6:08:00:14:8a:3c:84:
                    d6:d3:81:fd:87:e9:bf:b5:6a:8a:ea:a0:d7:dc:c4:
                    06:a6:37:33:fc:60:75:d5:2d:71:5b:0a:e6:de:ec:
                    e3:f7:1e:c2:bd:f6:18:41:8a:a7:df:50:82:c1:9d:
                    cc:0a:a5:f5:ff:25:13:a1:e9:6c:f1:9a:96:75:cf:
                    63:02:42:74:b0:25:19:38:ff:b0:8f:ac:1b:66:45:
                    2c:db:f0:5f:7c:15:3a:f0:a9:6b:b9:d1:6d:eb:a3:
                    ad:72:5a:49:a3:31:13:ba:e3:e2:8a:fa:f8:2b:9c:
                    c1:7a:04:fd:5f:1e:99:09:a5:df:c9:6f:33:e4:ef:
                    e4:f9
                Exponent: 65537 (0x10001)
        X509v3 extensions:
            X509v3 Basic Constraints: 
                CA:FALSE
            Netscape Comment: 
                OpenSSL Generated Certificate
            X509v3 Subject Key Identifier: 
                B6:4C:D3:C7:31:49:19:3C:D1:E7:77:4F:60:15:49:93:51:89:E4:E3
            X509v3 Authority Key Identifier: 
                keyid:D6:88:F1:AA:C1:2B:09:8C:B8:5C:9D:CE:DF:57:39:62:26:10:20:90
                DirName:/C=CH/ST=Thurgau/L=Kefikon/O=guengel.ch/CN=CA guengel.ch/emailAddress=postmaster@guengel.ch
                serial:E5:25:3B:A6:77:BD:CB:FF

    Signature Algorithm: sha256WithRSAEncryption
         06:29:bb:5a:55:fe:ce:02:45:45:ff:ac:4d:e6:24:02:4d:39:
         70:ba:5b:64:6d:1e:9b:53:2e:e2:13:75:04:ea:fa:89:08:36:
         7a:77:f9:68:bc:4a:42:ae:b7:10:a5:ea:aa:e8:a5:fa:4c:20:
         c9:63:06:01:fa:5f:d6:f5:71:2b:38:4c:7f:32:47:6f:eb:61:
         da:f2:d2:a1:d6:4b:4f:23:6d:3c:d1:78:b6:8b:f6:1e:97:2a:
         e4:01:0e:ce:df:53:3b:01:d6:37:c9:23:1b:4c:6b:49:eb:e1:
         9c:6f:05:d4:31:9e:a8:20:ce:22:e6:33:ca:19:cb:6d:21:7f:
         de:66:cf:b2:5f:73:df:ba:9d:b8:8b:cf:c6:03:4e:84:21:78:
         15:e2:30:8b:7e:6e:41:af:93:18:4d:dc:88:51:27:07:36:1f:
         08:a7:6e:87:8d:c7:07:df:bb:4c:a4:74:d6:8f:d1:b1:9a:d4:
         8c:73:93:3d:51:55:bf:4b:d8:3c:ee:b5:78:1f:6a:91:ef:2d:
         40:b8:72:37:4d:d3:42:ff:63:a0:ca:57:75:55:df:5c:aa:42:
         0f:d3:af:c5:c3:a0:5d:d1:7d:94:f6:43:4f:8d:73:a4:fd:7c:
         06:9b:59:06:32:38:80:47:62:96:18:e8:42:3e:ae:07:f2:28:
         66:1b:98:db:df:be:f3:84:05:78:a3:2e:66:7c:77:1d:fc:a3:
         fb:5f:97:3a:66:51:c2:0f:71:90:5c:e7:47:70:2c:88:5e:c0:
         9a:54:ea:6d:86:b4:ae:b0:ca:30:9e:99:a3:34:e5:cb:fd:a1:
         13:af:d7:fe:a5:43:b5:60:7a:9c:26:08:a7:69:90:ab:7e:ed:
         2c:9e:84:48:f2:d9:93:5f:bd:8a:49:51:e3:ae:3b:1a:60:58:
         9a:48:7d:5f:19:d8:56:d7:e8:d4:03:66:da:1e:c2:0b:8e:73:
         c1:ca:d2:c0:da:23:14:17:46:ff:59:7e:39:83:7d:60:f9:2b:
         dd:83:8c:f4:6a:d1:17:94:67:9a:14:c5:1b:06:bc:1a:ba:56:
         0e:c5:2c:d9:3e:f2:ed:f9:8b:b2:df:da:9a:1d:94:75:56:01:
         c8:a2:4e:83:b2:e8:36:8e:41:47:27:d3:8e:32:fe:cc:bd:88:
         c5:96:f5:ab:20:10:c3:25:6d:2f:68:39:41:6b:fe:7c:50:ff:
         9c:10:a6:40:91:f9:7a:dd:24:61:dd:53:bb:fc:68:a4:02:24:
         50:2d:67:9e:3a:a4:cf:a0:ef:4e:6d:35:ce:6a:5f:cb:43:17:
         be:03:50:bc:13:ad:36:80:fa:fa:2a:42:7a:a2:0f:58:ee:33:
         3c:ec:c4:0e:20:f6:53:99
-----BEGIN CERTIFICATE-----
MIIFlTCCA32gAwIBAgICAXQwDQYJKoZIhvcNAQELBQAwgYQxCzAJBgNVBAYTAkNI
MRAwDgYDVQQIEwdUaHVyZ2F1MRAwDgYDVQQHEwdLZWZpa29uMRMwEQYDVQQKEwpn
dWVuZ2VsLmNoMRYwFAYDVQQDEw1DQSBndWVuZ2VsLmNoMSQwIgYJKoZIhvcNAQkB
FhVwb3N0bWFzdGVyQGd1ZW5nZWwuY2gwHhcNMjAwMTAzMTAwODQ2WhcNMjEwMjA2
MTAwODQ2WjB6MQswCQYDVQQGEwJDSDEQMA4GA1UECBMHVGh1cmdhdTETMBEGA1UE
ChMKZ3VlbmdlbC5jaDEeMBwGA1UEAxMVY29sb3NzdXMua3J1ZW1lbC5ob21lMSQw
IgYJKoZIhvcNAQkBFhVwb3N0bWFzdGVyQGd1ZW5nZWwuY2gwggEiMA0GCSqGSIb3
DQEBAQUAA4IBDwAwggEKAoIBAQCtsTJO0qCaLBRx3gfW75eccH+2czH+v7aIiRA0
W7KdtSzJonUl92tgJ19jtkJQt5NP/X/XuoQpd+EMMvySk7qpKegTqwuCEX4mxJN+
QMLTjJTi6m4n0hkjW7aHI2BvC35rBT8kznhFXab9s5tV/avf27ni9puEGTtDMfWE
Z6H51ggAFIo8hNbTgf2H6b+1aorqoNfcxAamNzP8YHXVLXFbCube7OP3HsK99hhB
iqffUILBncwKpfX/JROh6WzxmpZ1z2MCQnSwJRk4/7CPrBtmRSzb8F98FTrwqWu5
0W3ro61yWkmjMRO64+KK+vgrnMF6BP1fHpkJpd/JbzPk7+T5AgMBAAGjggEYMIIB
FDAJBgNVHRMEAjAAMCwGCWCGSAGG+EIBDQQfFh1PcGVuU1NMIEdlbmVyYXRlZCBD
ZXJ0aWZpY2F0ZTAdBgNVHQ4EFgQUtkzTxzFJGTzR53dPYBVJk1GJ5OMwgbkGA1Ud
IwSBsTCBroAU1ojxqsErCYy4XJ3O31c5YiYQIJChgYqkgYcwgYQxCzAJBgNVBAYT
AkNIMRAwDgYDVQQIEwdUaHVyZ2F1MRAwDgYDVQQHEwdLZWZpa29uMRMwEQYDVQQK
EwpndWVuZ2VsLmNoMRYwFAYDVQQDEw1DQSBndWVuZ2VsLmNoMSQwIgYJKoZIhvcN
AQkBFhVwb3N0bWFzdGVyQGd1ZW5nZWwuY2iCCQDlJTumd73L/zANBgkqhkiG9w0B
AQsFAAOCAgEABim7WlX+zgJFRf+sTeYkAk05cLpbZG0em1Mu4hN1BOr6iQg2enf5
aLxKQq63EKXqquil+kwgyWMGAfpf1vVxKzhMfzJHb+th2vLSodZLTyNtPNF4tov2
Hpcq5AEOzt9TOwHWN8kjG0xrSevhnG8F1DGeqCDOIuYzyhnLbSF/3mbPsl9z37qd
uIvPxgNOhCF4FeIwi35uQa+TGE3ciFEnBzYfCKduh43HB9+7TKR01o/RsZrUjHOT
PVFVv0vYPO61eB9qke8tQLhyN03TQv9joMpXdVXfXKpCD9OvxcOgXdF9lPZDT41z
pP18BptZBjI4gEdilhjoQj6uB/IoZhuY29++84QFeKMuZnx3Hfyj+1+XOmZRwg9x
kFznR3AsiF7AmlTqbYa0rrDKMJ6ZozTly/2hE6/X/qVDtWB6nCYIp2mQq37tLJ6E
SPLZk1+9iklR4647GmBYmkh9XxnYVtfo1ANm2h7CC45zwcrSwNojFBdG/1l+OYN9
YPkr3YOM9GrRF5RnmhTFGwa8GrpWDsUs2T7y7fmLst/amh2UdVYByKJOg7LoNo5B
RyfTjjL+zL2IxZb1qyAQwyVtL2g5QWv+fFD/nBCmQJH5et0kYd1Tu/xopAIkUC1n
njqkz6DvTm01zmpfy0MXvgNQvBOtNoD6+ipCeqIPWO4zPOzEDiD2U5k=
-----END CERTIFICATE-----
