Certificate:
    Data:
        Version: 3 (0x2)
        Serial Number: 457 (0x1c9)
        Signature Algorithm: sha256WithRSAEncryption
        Issuer: C=CH, ST=Thurgau, L=Kefikon, O=guengel.ch, CN=CA guengel.ch/emailAddress=postmaster@guengel.ch
        Validity
            Not Before: Feb 11 07:07:01 2022 GMT
            Not After : Mar 18 07:07:01 2023 GMT
        Subject: C=CH, ST=Thurgau, O=guengel.ch, CN=colossus.kruemel.home/emailAddress=postmaster@guengel.ch
        Subject Public Key Info:
            Public Key Algorithm: rsaEncryption
                RSA Public-Key: (2048 bit)
                Modulus:
                    00:ad:b1:32:4e:d2:a0:9a:2c:14:71:de:07:d6:ef:
                    97:9c:70:7f:b6:73:31:fe:bf:b6:88:89:10:34:5b:
                    b2:9d:b5:2c:c9:a2:75:25:f7:6b:60:27:5f:63:b6:
                    42:50:b7:93:4f:fd:7f:d7:ba:84:29:77:e1:0c:32:
                    fc:92:93:ba:a9:29:e8:13:ab:0b:82:11:7e:26:c4:
                    93:7e:40:c2:d3:8c:94:e2:ea:6e:27:d2:19:23:5b:
                    b6:87:23:60:6f:0b:7e:6b:05:3f:24:ce:78:45:5d:
                    a6:fd:b3:9b:55:fd:ab:df:db:b9:e2:f6:9b:84:19:
                    3b:43:31:f5:84:67:a1:f9:d6:08:00:14:8a:3c:84:
                    d6:d3:81:fd:87:e9:bf:b5:6a:8a:ea:a0:d7:dc:c4:
                    06:a6:37:33:fc:60:75:d5:2d:71:5b:0a:e6:de:ec:
                    e3:f7:1e:c2:bd:f6:18:41:8a:a7:df:50:82:c1:9d:
                    cc:0a:a5:f5:ff:25:13:a1:e9:6c:f1:9a:96:75:cf:
                    63:02:42:74:b0:25:19:38:ff:b0:8f:ac:1b:66:45:
                    2c:db:f0:5f:7c:15:3a:f0:a9:6b:b9:d1:6d:eb:a3:
                    ad:72:5a:49:a3:31:13:ba:e3:e2:8a:fa:f8:2b:9c:
                    c1:7a:04:fd:5f:1e:99:09:a5:df:c9:6f:33:e4:ef:
                    e4:f9
                Exponent: 65537 (0x10001)
        X509v3 extensions:
            X509v3 Key Usage: 
                Digital Signature, Key Encipherment, Key Agreement
            X509v3 Basic Constraints: critical
                CA:FALSE
            Netscape Cert Type: 
                SSL Client, SSL Server
            X509v3 Extended Key Usage: 
                TLS Web Server Authentication, TLS Web Client Authentication
            X509v3 Subject Alternative Name: 
                DNS:colossus.kruemel.home
            X509v3 Subject Key Identifier: 
                B6:4C:D3:C7:31:49:19:3C:D1:E7:77:4F:60:15:49:93:51:89:E4:E3
            X509v3 Authority Key Identifier: 
                keyid:D6:88:F1:AA:C1:2B:09:8C:B8:5C:9D:CE:DF:57:39:62:26:10:20:90
                DirName:/C=CH/ST=Thurgau/L=Kefikon/O=guengel.ch/CN=CA guengel.ch/emailAddress=postmaster@guengel.ch
                serial:E5:25:3B:A6:77:BD:CB:FF

    Signature Algorithm: sha256WithRSAEncryption
         40:46:4f:15:84:d6:90:8f:ce:41:9a:26:7d:1e:6d:d5:c7:40:
         37:50:77:88:fb:29:7d:b0:bc:69:b3:29:7a:54:ce:29:55:e2:
         ee:62:93:bb:c9:28:1d:ab:09:b0:49:ec:3b:80:d5:99:d3:14:
         b9:58:1b:de:98:94:a0:45:4d:43:19:66:76:04:ba:6a:b4:25:
         32:da:14:a6:f3:53:3d:d3:a0:ba:8f:f1:6b:b3:4d:a6:50:d0:
         5f:64:36:e0:d9:34:0c:73:ed:02:36:8c:d9:18:21:a4:24:6f:
         11:5e:35:3d:46:db:8a:2d:6d:29:f6:3a:37:c2:79:d6:a4:87:
         a7:8b:87:fd:aa:20:bf:92:65:e8:1a:96:0b:8e:27:c8:d4:00:
         5d:4f:85:e2:ba:05:c9:c1:0b:ae:14:2d:18:e2:a9:1b:7b:9d:
         d5:57:fb:ea:12:94:47:c9:9d:21:3b:b9:d0:3c:fd:4b:fe:4f:
         dd:51:f5:6c:c6:69:75:d8:b0:7d:c4:6d:8b:5a:86:6a:72:b7:
         d2:06:82:11:f8:3a:52:7c:6a:0b:d4:b1:b4:41:57:eb:8e:47:
         15:ae:7c:a9:29:e3:1b:e8:48:78:45:37:de:46:a0:34:54:da:
         94:00:ed:f8:a1:47:74:55:45:53:10:5f:53:8c:12:66:5e:d1:
         79:c6:04:60:a5:64:5b:13:07:f8:95:f7:89:89:60:fc:d4:53:
         f5:d3:83:f4:48:ec:9d:1e:88:fe:52:c3:7e:e7:76:c9:49:07:
         87:5b:e0:bb:21:ba:ba:20:f0:3d:c6:89:8a:15:bc:78:26:62:
         0e:e9:03:99:bd:a2:e1:68:04:8b:65:a6:38:06:85:b0:9d:18:
         3a:67:f8:e6:49:3a:2e:11:9e:79:c5:0e:c2:b9:ec:c7:23:66:
         20:57:d3:97:07:45:1c:79:4a:44:e7:10:ae:6c:d3:bc:7c:91:
         7b:f4:e2:a3:59:0d:f7:3b:b5:3c:84:e6:df:5f:ea:2b:65:b4:
         bd:87:ae:55:6d:c6:ff:75:ad:e7:fd:63:11:87:19:f4:02:b4:
         11:00:2a:a8:02:37:58:d7:0f:ca:ff:7b:43:67:c8:d6:da:84:
         1a:e8:39:b2:08:1e:7c:4b:36:9e:17:14:62:78:f3:0e:90:2e:
         02:bc:f6:60:a2:59:b7:e8:df:eb:d5:b7:60:fc:75:02:11:7a:
         47:88:17:e7:3d:cc:f0:01:78:1d:56:56:6f:9f:42:2a:93:57:
         9d:e4:26:07:90:1a:f3:50:bf:1b:c6:de:b1:8f:07:73:cc:06:
         35:5f:53:74:7f:00:97:e1:c3:3f:0c:44:45:05:33:18:9e:e0:
         52:c1:7c:05:31:7d:19:be
-----BEGIN CERTIFICATE-----
MIIFyzCCA7OgAwIBAgICAckwDQYJKoZIhvcNAQELBQAwgYQxCzAJBgNVBAYTAkNI
MRAwDgYDVQQIEwdUaHVyZ2F1MRAwDgYDVQQHEwdLZWZpa29uMRMwEQYDVQQKEwpn
dWVuZ2VsLmNoMRYwFAYDVQQDEw1DQSBndWVuZ2VsLmNoMSQwIgYJKoZIhvcNAQkB
FhVwb3N0bWFzdGVyQGd1ZW5nZWwuY2gwHhcNMjIwMjExMDcwNzAxWhcNMjMwMzE4
MDcwNzAxWjB6MQswCQYDVQQGEwJDSDEQMA4GA1UECBMHVGh1cmdhdTETMBEGA1UE
ChMKZ3VlbmdlbC5jaDEeMBwGA1UEAxMVY29sb3NzdXMua3J1ZW1lbC5ob21lMSQw
IgYJKoZIhvcNAQkBFhVwb3N0bWFzdGVyQGd1ZW5nZWwuY2gwggEiMA0GCSqGSIb3
DQEBAQUAA4IBDwAwggEKAoIBAQCtsTJO0qCaLBRx3gfW75eccH+2czH+v7aIiRA0
W7KdtSzJonUl92tgJ19jtkJQt5NP/X/XuoQpd+EMMvySk7qpKegTqwuCEX4mxJN+
QMLTjJTi6m4n0hkjW7aHI2BvC35rBT8kznhFXab9s5tV/avf27ni9puEGTtDMfWE
Z6H51ggAFIo8hNbTgf2H6b+1aorqoNfcxAamNzP8YHXVLXFbCube7OP3HsK99hhB
iqffUILBncwKpfX/JROh6WzxmpZ1z2MCQnSwJRk4/7CPrBtmRSzb8F98FTrwqWu5
0W3ro61yWkmjMRO64+KK+vgrnMF6BP1fHpkJpd/JbzPk7+T5AgMBAAGjggFOMIIB
SjALBgNVHQ8EBAMCA6gwDAYDVR0TAQH/BAIwADARBglghkgBhvhCAQEEBAMCBsAw
HQYDVR0lBBYwFAYIKwYBBQUHAwEGCCsGAQUFBwMCMCAGA1UdEQQZMBeCFWNvbG9z
c3VzLmtydWVtZWwuaG9tZTAdBgNVHQ4EFgQUtkzTxzFJGTzR53dPYBVJk1GJ5OMw
gbkGA1UdIwSBsTCBroAU1ojxqsErCYy4XJ3O31c5YiYQIJChgYqkgYcwgYQxCzAJ
BgNVBAYTAkNIMRAwDgYDVQQIEwdUaHVyZ2F1MRAwDgYDVQQHEwdLZWZpa29uMRMw
EQYDVQQKEwpndWVuZ2VsLmNoMRYwFAYDVQQDEw1DQSBndWVuZ2VsLmNoMSQwIgYJ
KoZIhvcNAQkBFhVwb3N0bWFzdGVyQGd1ZW5nZWwuY2iCCQDlJTumd73L/zANBgkq
hkiG9w0BAQsFAAOCAgEAQEZPFYTWkI/OQZomfR5t1cdAN1B3iPspfbC8abMpelTO
KVXi7mKTu8koHasJsEnsO4DVmdMUuVgb3piUoEVNQxlmdgS6arQlMtoUpvNTPdOg
uo/xa7NNplDQX2Q24Nk0DHPtAjaM2RghpCRvEV41PUbbii1tKfY6N8J51qSHp4uH
/aogv5Jl6BqWC44nyNQAXU+F4roFycELrhQtGOKpG3ud1Vf76hKUR8mdITu50Dz9
S/5P3VH1bMZpddiwfcRti1qGanK30gaCEfg6UnxqC9SxtEFX645HFa58qSnjG+hI
eEU33kagNFTalADt+KFHdFVFUxBfU4wSZl7RecYEYKVkWxMH+JX3iYlg/NRT9dOD
9EjsnR6I/lLDfud2yUkHh1vguyG6uiDwPcaJihW8eCZiDukDmb2i4WgEi2WmOAaF
sJ0YOmf45kk6LhGeecUOwrnsxyNmIFfTlwdFHHlKROcQrmzTvHyRe/Tio1kN9zu1
PITm31/qK2W0vYeuVW3G/3Wt5/1jEYcZ9AK0EQAqqAI3WNcPyv97Q2fI1tqEGug5
sggefEs2nhcUYnjzDpAuArz2YKJZt+jf69W3YPx1AhF6R4gX5z3M8AF4HVZWb59C
KpNXneQmB5Aa81C/G8besY8Hc8wGNV9TdH8Al+HDPwxERQUzGJ7gUsF8BTF9Gb4=
-----END CERTIFICATE-----
