Certificate:
    Data:
        Version: 3 (0x2)
        Serial Number: 235 (0xeb)
    Signature Algorithm: sha256WithRSAEncryption
        Issuer: C=CH, ST=Thurgau, L=Kefikon, O=guengel.ch, CN=CA guengel.ch/emailAddress=postmaster@guengel.ch
        Validity
            Not Before: Nov 20 09:17:12 2016 GMT
            Not After : Apr  4 09:17:12 2018 GMT
        Subject: C=CH, ST=Thurgau, O=guengel.ch, CN=constellation.virtual.kruemel.home/emailAddress=postmaster@guengel.ch
        Subject Public Key Info:
            Public Key Algorithm: rsaEncryption
                Public-Key: (2048 bit)
                Modulus:
                    00:a8:60:2e:66:7d:ae:fd:c0:67:0e:41:b4:ab:ed:
                    87:af:4e:2f:18:56:20:71:bc:bb:8c:79:4f:10:a3:
                    34:1c:e8:ba:5f:57:d5:2e:e8:33:cf:5e:a4:72:51:
                    fd:b6:a2:86:e9:38:01:3e:8b:b0:95:be:2a:64:c9:
                    27:ed:7a:c3:08:08:81:99:26:2f:87:25:3f:41:e0:
                    76:3e:70:e4:62:34:6e:6f:5f:92:33:ea:97:70:87:
                    8a:37:a3:cb:69:f8:c4:dd:ae:64:81:f2:b0:5d:c1:
                    6f:4e:17:65:06:43:73:61:03:d0:d7:4b:b8:7e:da:
                    f2:4b:4d:2d:4e:6c:ff:64:0a:81:4e:e0:ac:92:ad:
                    24:84:15:b4:e3:1b:04:86:a5:bb:ac:59:3b:db:37:
                    cb:2b:68:43:98:b7:04:cc:6d:18:f3:0a:7e:b1:5f:
                    a3:63:a5:58:6d:39:08:22:36:a6:e6:a1:d6:6e:df:
                    08:7d:67:57:8f:a7:b1:42:7d:ad:9e:7f:65:83:75:
                    ce:4a:1a:32:4a:ae:f9:7c:b3:4c:87:f4:ec:6d:35:
                    07:2b:a8:cb:f7:a1:90:84:2b:73:31:80:7c:13:38:
                    cc:1e:aa:8a:17:98:f6:2c:6f:d9:69:ce:c0:3e:7d:
                    1f:2e:77:6b:12:c7:7d:1d:70:b9:75:a5:a1:d8:bd:
                    23:2d
                Exponent: 65537 (0x10001)
        X509v3 extensions:
            X509v3 Basic Constraints: 
                CA:FALSE
            Netscape Comment: 
                OpenSSL Generated Certificate
            X509v3 Subject Key Identifier: 
                F2:70:5E:58:E6:72:3C:F4:0B:01:07:E1:7D:FD:3F:48:5C:49:04:D7
            X509v3 Authority Key Identifier: 
                keyid:D6:88:F1:AA:C1:2B:09:8C:B8:5C:9D:CE:DF:57:39:62:26:10:20:90
                DirName:/C=CH/ST=Thurgau/L=Kefikon/O=guengel.ch/CN=CA guengel.ch/emailAddress=postmaster@guengel.ch
                serial:E5:25:3B:A6:77:BD:CB:FF

    Signature Algorithm: sha256WithRSAEncryption
         c6:8e:82:77:1c:d8:8c:ea:32:74:2c:99:73:3c:e3:55:a2:2d:
         cc:ea:6e:8c:f4:b2:5a:f7:69:98:24:32:79:c2:08:b8:d5:3e:
         15:d9:70:1b:52:b8:3d:3a:79:ea:17:8a:2f:e3:a2:96:44:c3:
         4b:5d:34:40:64:b8:a7:fe:bc:e0:ca:a3:5e:6d:b2:9b:ac:b3:
         de:33:cf:81:89:53:20:2a:7b:99:c1:6b:b9:fa:19:64:9c:ae:
         aa:d1:f1:97:1e:eb:a5:f6:bb:fc:41:a6:14:4e:77:6f:3a:5b:
         1b:89:5a:f4:53:e3:e7:59:e8:6f:92:5d:15:3a:15:f6:62:10:
         62:73:80:31:8e:b4:30:ec:24:f4:2e:9b:79:29:15:83:02:28:
         2a:d6:10:41:1e:be:11:20:1a:38:34:cd:4b:ff:8b:d3:c5:16:
         27:9d:f4:7a:96:70:f4:ac:66:c6:00:fd:13:ec:43:76:b4:6b:
         1e:f7:b6:97:44:f7:ee:71:33:51:ac:1b:87:85:ab:6f:02:60:
         03:e6:74:ef:c6:be:9e:18:f9:50:df:f8:87:da:3e:db:17:33:
         90:4d:34:ef:82:27:41:bd:84:25:08:ae:71:b9:39:ab:ce:cb:
         7d:da:55:a9:30:5b:3c:60:86:c2:2b:94:66:2a:32:0d:fb:57:
         38:b0:f3:10:a0:66:0f:95:c6:38:4f:81:b1:77:8b:d6:a7:cb:
         a0:a2:02:94:89:93:81:ee:c9:3c:88:78:62:c4:18:4c:98:5c:
         2f:5f:a8:a0:71:85:37:77:1f:39:78:31:eb:ec:ad:49:ed:99:
         89:db:25:0d:da:64:e4:09:1e:43:f2:d6:ed:64:5d:02:d0:3d:
         bf:1c:dd:12:d7:bd:37:a7:59:00:5d:24:51:e6:31:29:40:43:
         7a:19:3e:08:1b:ea:01:18:0a:69:2c:10:0b:e5:f9:47:30:12:
         bc:7a:db:53:79:02:3f:4f:05:77:8d:c2:b7:7f:3a:70:d7:da:
         39:dd:82:d6:84:e4:58:92:b5:ae:fe:95:19:44:e7:3f:d6:ff:
         c0:30:8d:99:bf:e0:e5:cd:70:c8:13:c0:55:27:ba:95:0f:ab:
         1f:65:10:6c:fa:46:5b:c7:84:72:f2:ed:24:09:c0:81:ac:5a:
         5a:75:bb:dc:b3:1b:08:a1:5b:68:17:fd:70:80:d0:35:ad:b7:
         b0:9f:6b:f7:c5:b4:11:77:b9:1c:9e:8c:5f:f0:79:75:f7:1e:
         4a:b3:f7:7e:5d:42:b0:d6:cb:55:58:5d:15:a6:3f:64:80:52:
         44:e0:be:de:55:47:39:33:f7:ed:78:0d:44:e3:d7:29:c3:5f:
         ff:f4:17:a8:26:85:62:5d
-----BEGIN CERTIFICATE-----
MIIFozCCA4ugAwIBAgICAOswDQYJKoZIhvcNAQELBQAwgYQxCzAJBgNVBAYTAkNI
MRAwDgYDVQQIEwdUaHVyZ2F1MRAwDgYDVQQHEwdLZWZpa29uMRMwEQYDVQQKEwpn
dWVuZ2VsLmNoMRYwFAYDVQQDEw1DQSBndWVuZ2VsLmNoMSQwIgYJKoZIhvcNAQkB
FhVwb3N0bWFzdGVyQGd1ZW5nZWwuY2gwHhcNMTYxMTIwMDkxNzEyWhcNMTgwNDA0
MDkxNzEyWjCBhzELMAkGA1UEBhMCQ0gxEDAOBgNVBAgTB1RodXJnYXUxEzARBgNV
BAoTCmd1ZW5nZWwuY2gxKzApBgNVBAMTImNvbnN0ZWxsYXRpb24udmlydHVhbC5r
cnVlbWVsLmhvbWUxJDAiBgkqhkiG9w0BCQEWFXBvc3RtYXN0ZXJAZ3VlbmdlbC5j
aDCCASIwDQYJKoZIhvcNAQEBBQADggEPADCCAQoCggEBAKhgLmZ9rv3AZw5BtKvt
h69OLxhWIHG8u4x5TxCjNBzoul9X1S7oM89epHJR/baihuk4AT6LsJW+KmTJJ+16
wwgIgZkmL4clP0Hgdj5w5GI0bm9fkjPql3CHijejy2n4xN2uZIHysF3Bb04XZQZD
c2ED0NdLuH7a8ktNLU5s/2QKgU7grJKtJIQVtOMbBIalu6xZO9s3yytoQ5i3BMxt
GPMKfrFfo2OlWG05CCI2puah1m7fCH1nV4+nsUJ9rZ5/ZYN1zkoaMkqu+XyzTIf0
7G01Byuoy/ehkIQrczGAfBM4zB6qiheY9ixv2WnOwD59Hy53axLHfR1wuXWlodi9
Iy0CAwEAAaOCARgwggEUMAkGA1UdEwQCMAAwLAYJYIZIAYb4QgENBB8WHU9wZW5T
U0wgR2VuZXJhdGVkIENlcnRpZmljYXRlMB0GA1UdDgQWBBTycF5Y5nI89AsBB+F9
/T9IXEkE1zCBuQYDVR0jBIGxMIGugBTWiPGqwSsJjLhcnc7fVzliJhAgkKGBiqSB
hzCBhDELMAkGA1UEBhMCQ0gxEDAOBgNVBAgTB1RodXJnYXUxEDAOBgNVBAcTB0tl
Zmlrb24xEzARBgNVBAoTCmd1ZW5nZWwuY2gxFjAUBgNVBAMTDUNBIGd1ZW5nZWwu
Y2gxJDAiBgkqhkiG9w0BCQEWFXBvc3RtYXN0ZXJAZ3VlbmdlbC5jaIIJAOUlO6Z3
vcv/MA0GCSqGSIb3DQEBCwUAA4ICAQDGjoJ3HNiM6jJ0LJlzPONVoi3M6m6M9LJa
92mYJDJ5wgi41T4V2XAbUrg9OnnqF4ov46KWRMNLXTRAZLin/rzgyqNebbKbrLPe
M8+BiVMgKnuZwWu5+hlknK6q0fGXHuul9rv8QaYUTndvOlsbiVr0U+PnWehvkl0V
OhX2YhBic4AxjrQw7CT0Lpt5KRWDAigq1hBBHr4RIBo4NM1L/4vTxRYnnfR6lnD0
rGbGAP0T7EN2tGse97aXRPfucTNRrBuHhatvAmAD5nTvxr6eGPlQ3/iH2j7bFzOQ
TTTvgidBvYQlCK5xuTmrzst92lWpMFs8YIbCK5RmKjIN+1c4sPMQoGYPlcY4T4Gx
d4vWp8ugogKUiZOB7sk8iHhixBhMmFwvX6igcYU3dx85eDHr7K1J7ZmJ2yUN2mTk
CR5D8tbtZF0C0D2/HN0S1703p1kAXSRR5jEpQEN6GT4IG+oBGAppLBAL5flHMBK8
ettTeQI/TwV3jcK3fzpw19o53YLWhORYkrWu/pUZROc/1v/AMI2Zv+DlzXDIE8BV
J7qVD6sfZRBs+kZbx4Ry8u0kCcCBrFpadbvcsxsIoVtoF/1wgNA1rbewn2v3xbQR
d7kcnoxf8Hl19x5Ks/d+XUKw1stVWF0Vpj9kgFJE4L7eVUc5M/fteA1E49cpw1//
9BeoJoViXQ==
-----END CERTIFICATE-----
