Certificate:
    Data:
        Version: 3 (0x2)
        Serial Number: 236 (0xec)
    Signature Algorithm: sha256WithRSAEncryption
        Issuer: C=CH, ST=Thurgau, L=Kefikon, O=guengel.ch, CN=CA guengel.ch/emailAddress=postmaster@guengel.ch
        Validity
            Not Before: Nov 20 09:17:13 2016 GMT
            Not After : Apr  4 09:17:13 2018 GMT
        Subject: C=CH, ST=Thurgau, O=guengel.ch, CN=cortana.virtual.kruemel.home/emailAddress=postmaster@guengel.ch
        Subject Public Key Info:
            Public Key Algorithm: rsaEncryption
                Public-Key: (2048 bit)
                Modulus:
                    00:a7:35:d4:79:d3:9a:db:31:c1:10:51:dd:cd:bd:
                    e5:ee:4d:6e:2e:f9:06:24:a5:88:d0:87:e7:1c:11:
                    bc:fb:5b:ae:96:32:de:6b:6b:af:c4:90:90:7a:25:
                    f6:c4:4c:df:30:68:19:98:f9:bd:a2:07:0c:0e:6b:
                    ad:18:76:06:55:91:2d:6e:61:5d:32:06:4f:69:68:
                    97:7b:19:93:db:1b:79:c2:80:42:5a:67:40:54:90:
                    b0:7e:05:86:09:f2:ff:58:65:30:1a:6b:0c:83:28:
                    02:fb:8e:c2:5d:49:e8:4c:2b:a4:5b:c7:59:67:33:
                    04:06:b5:5e:46:1b:e5:cc:bc:2f:f1:c8:62:75:70:
                    26:79:85:19:79:e7:45:ed:5c:56:d0:89:b8:41:d3:
                    2a:26:93:f8:d4:2e:41:d7:df:47:d1:fb:a3:2d:2d:
                    2a:ae:3e:29:63:09:82:e0:d8:19:54:e3:f7:82:de:
                    7d:f2:8a:d2:b8:9e:8d:12:46:be:0a:a1:50:f2:61:
                    b0:6b:75:bd:29:34:97:2d:8f:8a:cd:21:94:f8:28:
                    59:a0:1f:63:5d:60:aa:d4:05:d7:63:c3:59:93:cc:
                    84:4a:32:b6:18:52:5d:34:57:c4:82:b3:ee:ac:5f:
                    67:ca:ce:11:7a:89:54:54:d6:5c:1a:a4:f9:18:d8:
                    76:a7
                Exponent: 65537 (0x10001)
        X509v3 extensions:
            X509v3 Basic Constraints: 
                CA:FALSE
            Netscape Comment: 
                OpenSSL Generated Certificate
            X509v3 Subject Key Identifier: 
                FA:3D:F6:68:2A:84:8D:6F:F7:F0:1A:BB:19:3A:22:8E:8F:54:B3:45
            X509v3 Authority Key Identifier: 
                keyid:D6:88:F1:AA:C1:2B:09:8C:B8:5C:9D:CE:DF:57:39:62:26:10:20:90
                DirName:/C=CH/ST=Thurgau/L=Kefikon/O=guengel.ch/CN=CA guengel.ch/emailAddress=postmaster@guengel.ch
                serial:E5:25:3B:A6:77:BD:CB:FF

    Signature Algorithm: sha256WithRSAEncryption
         0d:71:8c:7c:6f:de:db:ed:b4:e9:f9:0a:3c:43:f1:62:e9:dc:
         17:90:d4:04:c1:d7:da:61:68:20:8c:c2:2a:65:30:95:52:1c:
         16:89:0c:42:39:8b:bb:bb:8d:41:55:93:84:96:fc:07:87:71:
         3b:0e:3d:d8:b0:d1:5a:17:05:0c:12:21:d2:75:0c:1d:3c:b3:
         39:b1:ed:e0:46:04:e7:a1:e1:e4:c0:da:6c:1a:05:be:44:9e:
         68:e3:c5:9f:67:f1:64:47:27:38:55:fb:7a:c4:23:a6:07:71:
         52:83:f0:83:f2:52:e8:2d:e7:9e:ec:31:79:53:aa:cf:25:90:
         2d:59:68:88:76:d4:a5:67:ce:de:49:37:ef:41:14:3e:d2:ce:
         d8:85:06:d8:14:e2:99:23:5d:9f:4c:c6:ff:b4:af:fd:fb:99:
         16:ec:f8:65:34:9c:53:b1:fd:1e:df:9c:ce:83:0b:1c:c1:c6:
         36:c2:06:55:c3:f9:13:01:fc:e8:1e:f0:c3:cc:aa:85:22:d6:
         6e:3f:36:47:8f:c3:d6:41:87:9c:b1:21:75:da:11:f6:de:f3:
         4b:93:ce:b6:bd:64:67:b9:16:40:37:87:29:e4:0e:ce:46:3d:
         f3:62:76:62:33:01:f6:2c:da:bc:95:4c:bd:95:d6:f1:75:c9:
         b1:fd:4e:66:1b:d4:0b:2a:8d:4e:70:ad:0e:71:a9:ff:33:2f:
         9a:f2:3a:95:e8:59:3d:0a:57:6e:8b:a4:ff:12:f7:94:76:b2:
         3a:f3:ca:f4:b6:6a:78:5c:d2:e1:89:7d:80:3f:dd:34:ef:ff:
         d0:f9:10:7d:85:e4:29:20:13:f3:5f:12:50:45:ac:cf:2c:64:
         b5:fc:d0:91:94:90:e5:5f:f3:9d:7c:cf:fb:9e:b7:6b:2d:67:
         ed:6b:27:31:db:b5:70:a9:7d:6d:ea:11:d2:d3:9f:09:eb:b3:
         65:dc:68:a3:30:f7:5b:c1:f0:a0:b8:cd:f3:4e:29:f6:e3:fb:
         23:99:77:94:dd:28:cc:03:7d:74:3a:b0:5a:e9:4f:36:f4:50:
         97:31:80:c2:fd:28:21:14:3b:0d:37:ca:19:55:b3:50:24:3d:
         e6:ea:4c:1d:c8:59:82:b8:d1:c8:f9:85:78:e5:f3:ee:50:49:
         d7:a9:ce:1d:48:e2:82:b9:57:04:69:90:06:07:bb:02:cb:7c:
         16:82:86:69:63:d0:cd:67:70:c6:74:30:a2:39:11:46:e1:a1:
         24:36:5e:cd:1b:72:7c:1a:d1:e2:c5:55:e2:65:e4:23:c7:23:
         cf:21:cf:df:d5:cd:6d:3e:5a:9e:fd:1f:99:a8:a6:51:df:6c:
         85:87:24:5d:d1:fe:54:1c
-----BEGIN CERTIFICATE-----
MIIFnTCCA4WgAwIBAgICAOwwDQYJKoZIhvcNAQELBQAwgYQxCzAJBgNVBAYTAkNI
MRAwDgYDVQQIEwdUaHVyZ2F1MRAwDgYDVQQHEwdLZWZpa29uMRMwEQYDVQQKEwpn
dWVuZ2VsLmNoMRYwFAYDVQQDEw1DQSBndWVuZ2VsLmNoMSQwIgYJKoZIhvcNAQkB
FhVwb3N0bWFzdGVyQGd1ZW5nZWwuY2gwHhcNMTYxMTIwMDkxNzEzWhcNMTgwNDA0
MDkxNzEzWjCBgTELMAkGA1UEBhMCQ0gxEDAOBgNVBAgTB1RodXJnYXUxEzARBgNV
BAoTCmd1ZW5nZWwuY2gxJTAjBgNVBAMTHGNvcnRhbmEudmlydHVhbC5rcnVlbWVs
LmhvbWUxJDAiBgkqhkiG9w0BCQEWFXBvc3RtYXN0ZXJAZ3VlbmdlbC5jaDCCASIw
DQYJKoZIhvcNAQEBBQADggEPADCCAQoCggEBAKc11HnTmtsxwRBR3c295e5Nbi75
BiSliNCH5xwRvPtbrpYy3mtrr8SQkHol9sRM3zBoGZj5vaIHDA5rrRh2BlWRLW5h
XTIGT2lol3sZk9sbecKAQlpnQFSQsH4Fhgny/1hlMBprDIMoAvuOwl1J6EwrpFvH
WWczBAa1XkYb5cy8L/HIYnVwJnmFGXnnRe1cVtCJuEHTKiaT+NQuQdffR9H7oy0t
Kq4+KWMJguDYGVTj94LeffKK0riejRJGvgqhUPJhsGt1vSk0ly2Pis0hlPgoWaAf
Y11gqtQF12PDWZPMhEoythhSXTRXxIKz7qxfZ8rOEXqJVFTWXBqk+RjYdqcCAwEA
AaOCARgwggEUMAkGA1UdEwQCMAAwLAYJYIZIAYb4QgENBB8WHU9wZW5TU0wgR2Vu
ZXJhdGVkIENlcnRpZmljYXRlMB0GA1UdDgQWBBT6PfZoKoSNb/fwGrsZOiKOj1Sz
RTCBuQYDVR0jBIGxMIGugBTWiPGqwSsJjLhcnc7fVzliJhAgkKGBiqSBhzCBhDEL
MAkGA1UEBhMCQ0gxEDAOBgNVBAgTB1RodXJnYXUxEDAOBgNVBAcTB0tlZmlrb24x
EzARBgNVBAoTCmd1ZW5nZWwuY2gxFjAUBgNVBAMTDUNBIGd1ZW5nZWwuY2gxJDAi
BgkqhkiG9w0BCQEWFXBvc3RtYXN0ZXJAZ3VlbmdlbC5jaIIJAOUlO6Z3vcv/MA0G
CSqGSIb3DQEBCwUAA4ICAQANcYx8b97b7bTp+Qo8Q/Fi6dwXkNQEwdfaYWggjMIq
ZTCVUhwWiQxCOYu7u41BVZOElvwHh3E7Dj3YsNFaFwUMEiHSdQwdPLM5se3gRgTn
oeHkwNpsGgW+RJ5o48WfZ/FkRyc4Vft6xCOmB3FSg/CD8lLoLeee7DF5U6rPJZAt
WWiIdtSlZ87eSTfvQRQ+0s7YhQbYFOKZI12fTMb/tK/9+5kW7PhlNJxTsf0e35zO
gwscwcY2wgZVw/kTAfzoHvDDzKqFItZuPzZHj8PWQYecsSF12hH23vNLk862vWRn
uRZAN4cp5A7ORj3zYnZiMwH2LNq8lUy9ldbxdcmx/U5mG9QLKo1OcK0Ocan/My+a
8jqV6Fk9Cldui6T/EveUdrI688r0tmp4XNLhiX2AP9007//Q+RB9heQpIBPzXxJQ
RazPLGS1/NCRlJDlX/OdfM/7nrdrLWftaycx27VwqX1t6hHS058J67Nl3GijMPdb
wfCguM3zTin24/sjmXeU3SjMA310OrBa6U829FCXMYDC/SghFDsNN8oZVbNQJD3m
6kwdyFmCuNHI+YV45fPuUEnXqc4dSOKCuVcEaZAGB7sCy3wWgoZpY9DNZ3DGdDCi
ORFG4aEkNl7NG3J8GtHixVXiZeQjxyPPIc/f1c1tPlqe/R+ZqKZR32yFhyRd0f5U
HA==
-----END CERTIFICATE-----
