Certificate:
    Data:
        Version: 3 (0x2)
        Serial Number: 430 (0x1ae)
        Signature Algorithm: sha256WithRSAEncryption
        Issuer: C=CH, ST=Thurgau, L=Kefikon, O=guengel.ch, CN=CA guengel.ch/emailAddress=postmaster@guengel.ch
        Validity
            Not Before: Feb  6 15:16:58 2021 GMT
            Not After : Mar 13 15:16:58 2022 GMT
        Subject: C=CH, ST=Thurgau, O=guengel.ch, CN=dash.virtual.kruemel.home/emailAddress=postmaster@guengel.ch
        Subject Public Key Info:
            Public Key Algorithm: rsaEncryption
                RSA Public-Key: (2048 bit)
                Modulus:
                    00:b6:77:48:50:4f:77:ff:d2:46:54:b6:0d:4b:9e:
                    fb:f0:ef:02:51:08:4d:fa:95:97:3f:19:21:fe:a3:
                    c9:3a:1b:bb:fa:87:b7:63:70:25:bb:e2:59:0a:5d:
                    ee:bd:30:1a:2c:e8:d7:5f:95:43:31:7e:28:e4:33:
                    a1:60:c8:0b:1a:cc:b7:b8:36:4c:20:8c:aa:3a:62:
                    f7:c0:de:a5:1a:80:2c:3a:6b:63:8f:07:24:bd:c7:
                    e0:ca:08:f6:97:dc:b1:37:0f:e9:31:36:07:02:37:
                    64:5b:a0:bd:18:49:21:b0:a5:a4:f8:b9:d3:ab:78:
                    2d:1f:11:94:ea:cb:28:57:64:40:66:8d:ce:b6:a9:
                    b0:f3:91:5e:37:ff:e7:7e:f3:76:82:d4:31:1b:c3:
                    91:b6:06:a0:ae:b1:1e:f1:50:75:70:6b:29:78:09:
                    ff:6f:cf:34:c8:f3:62:b2:52:5c:e2:7f:23:d4:69:
                    5f:97:06:fd:6d:6d:41:26:7a:38:4d:3b:08:a0:94:
                    49:6c:d6:9f:8a:c7:15:86:2c:07:88:a8:17:55:30:
                    52:bc:0c:19:bd:8c:cd:14:93:0f:6e:28:91:df:e5:
                    97:5c:40:a3:fa:fb:13:20:7a:3b:84:8e:ad:a1:53:
                    fb:c9:21:b3:73:8e:15:e8:9a:ee:cb:53:21:9d:d4:
                    89:99
                Exponent: 65537 (0x10001)
        X509v3 extensions:
            X509v3 Key Usage: 
                Digital Signature, Key Encipherment, Key Agreement
            X509v3 Basic Constraints: critical
                CA:FALSE
            Netscape Cert Type: 
                SSL Client, SSL Server
            X509v3 Extended Key Usage: 
                TLS Web Server Authentication, TLS Web Client Authentication
            X509v3 Subject Alternative Name: 
                DNS:dash.virtual.kruemel.home
            X509v3 Subject Key Identifier: 
                CE:BB:43:A2:EE:EC:EC:42:16:B1:E0:B6:B2:E0:D6:33:A4:8B:EF:F6
            X509v3 Authority Key Identifier: 
                keyid:D6:88:F1:AA:C1:2B:09:8C:B8:5C:9D:CE:DF:57:39:62:26:10:20:90
                DirName:/C=CH/ST=Thurgau/L=Kefikon/O=guengel.ch/CN=CA guengel.ch/emailAddress=postmaster@guengel.ch
                serial:E5:25:3B:A6:77:BD:CB:FF

    Signature Algorithm: sha256WithRSAEncryption
         b8:ec:f6:28:05:4a:6c:0b:df:37:c4:84:78:f3:ac:aa:de:d8:
         53:66:dc:cd:be:a5:86:41:73:5a:cf:d9:5e:f8:4c:1c:72:12:
         3e:26:ce:57:ad:ef:be:1e:a1:c2:ab:47:5e:0f:18:f0:8e:9c:
         a6:88:dd:13:4d:af:4f:54:95:1e:32:36:d5:c3:fb:3e:b4:ec:
         c6:ed:6f:51:d3:77:15:62:eb:4d:cb:8a:8e:64:a0:b2:e4:f1:
         5a:0a:24:d8:7a:c3:ad:ee:f0:1a:56:27:51:9e:ce:60:e9:88:
         a1:bd:ce:04:3b:d7:9c:ed:31:8e:f4:a5:7e:a2:a8:28:d1:af:
         d8:8f:47:81:d7:9e:41:ac:0e:31:d1:c0:b3:3f:8f:f0:8b:d4:
         74:92:58:5f:7a:0e:a2:44:9f:73:39:b0:af:fa:18:52:d2:bf:
         29:80:3c:7c:36:35:69:69:59:35:38:c4:8d:4d:6c:51:fc:5e:
         e1:01:5b:47:27:cf:3e:9e:2d:52:85:eb:49:e9:93:d9:c4:db:
         b7:a8:0a:76:c1:db:b0:07:11:0d:39:43:91:00:9e:dd:a6:b5:
         fd:a0:52:30:84:6b:b7:2c:74:5e:5f:fb:36:b4:13:e8:d9:7c:
         91:58:ac:97:aa:f0:28:f7:45:f0:32:3b:3d:d6:f2:33:8b:4c:
         04:dc:67:43:ed:aa:49:7f:de:13:86:8a:c2:72:c2:ea:03:fb:
         ee:62:b7:af:99:c1:a8:95:58:3e:9c:93:a5:fb:6e:59:52:79:
         c5:2f:c7:b9:d3:bf:a4:d5:0a:f6:4a:22:78:00:0f:58:69:b5:
         19:d7:99:c5:76:fa:14:06:0d:c7:e9:e2:4d:01:2d:d6:d1:8c:
         c4:ca:50:78:cc:50:df:f1:bd:ee:85:ea:1a:1b:af:40:75:b1:
         96:5c:ee:5f:89:27:a9:31:e4:69:5c:1c:36:3b:c4:0f:67:5b:
         89:23:41:63:ab:08:2c:6d:ed:7e:4e:9e:b1:1f:f0:02:ce:c4:
         a0:27:52:a2:f3:65:e7:55:46:e1:31:92:7f:0a:6e:0a:23:08:
         97:1e:38:69:0a:28:87:5e:a0:b0:31:a9:ec:df:34:47:05:53:
         47:3f:f5:1b:88:e5:92:30:54:40:d1:35:71:88:6b:aa:d3:cb:
         d7:18:49:4a:83:28:ce:64:48:e8:ff:51:89:fa:18:f8:95:18:
         0b:ed:00:5b:ee:19:c3:dc:bd:74:87:2b:18:10:60:ae:d5:18:
         e0:6d:3b:41:7d:64:d3:0a:fa:ce:89:b8:f3:67:ff:09:f1:ab:
         6e:10:69:88:84:b0:30:15:91:81:d6:17:5d:9a:56:f1:51:a8:
         c2:95:55:6b:fe:53:98:85
-----BEGIN CERTIFICATE-----
MIIF0zCCA7ugAwIBAgICAa4wDQYJKoZIhvcNAQELBQAwgYQxCzAJBgNVBAYTAkNI
MRAwDgYDVQQIEwdUaHVyZ2F1MRAwDgYDVQQHEwdLZWZpa29uMRMwEQYDVQQKEwpn
dWVuZ2VsLmNoMRYwFAYDVQQDEw1DQSBndWVuZ2VsLmNoMSQwIgYJKoZIhvcNAQkB
FhVwb3N0bWFzdGVyQGd1ZW5nZWwuY2gwHhcNMjEwMjA2MTUxNjU4WhcNMjIwMzEz
MTUxNjU4WjB+MQswCQYDVQQGEwJDSDEQMA4GA1UECBMHVGh1cmdhdTETMBEGA1UE
ChMKZ3VlbmdlbC5jaDEiMCAGA1UEAxMZZGFzaC52aXJ0dWFsLmtydWVtZWwuaG9t
ZTEkMCIGCSqGSIb3DQEJARYVcG9zdG1hc3RlckBndWVuZ2VsLmNoMIIBIjANBgkq
hkiG9w0BAQEFAAOCAQ8AMIIBCgKCAQEAtndIUE93/9JGVLYNS5778O8CUQhN+pWX
Pxkh/qPJOhu7+oe3Y3Alu+JZCl3uvTAaLOjXX5VDMX4o5DOhYMgLGsy3uDZMIIyq
OmL3wN6lGoAsOmtjjwckvcfgygj2l9yxNw/pMTYHAjdkW6C9GEkhsKWk+LnTq3gt
HxGU6ssoV2RAZo3Otqmw85FeN//nfvN2gtQxG8ORtgagrrEe8VB1cGspeAn/b880
yPNislJc4n8j1Glflwb9bW1BJno4TTsIoJRJbNafiscVhiwHiKgXVTBSvAwZvYzN
FJMPbiiR3+WXXECj+vsTIHo7hI6toVP7ySGzc44V6Jruy1MhndSJmQIDAQABo4IB
UjCCAU4wCwYDVR0PBAQDAgOoMAwGA1UdEwEB/wQCMAAwEQYJYIZIAYb4QgEBBAQD
AgbAMB0GA1UdJQQWMBQGCCsGAQUFBwMBBggrBgEFBQcDAjAkBgNVHREEHTAbghlk
YXNoLnZpcnR1YWwua3J1ZW1lbC5ob21lMB0GA1UdDgQWBBTOu0Oi7uzsQhax4Lay
4NYzpIvv9jCBuQYDVR0jBIGxMIGugBTWiPGqwSsJjLhcnc7fVzliJhAgkKGBiqSB
hzCBhDELMAkGA1UEBhMCQ0gxEDAOBgNVBAgTB1RodXJnYXUxEDAOBgNVBAcTB0tl
Zmlrb24xEzARBgNVBAoTCmd1ZW5nZWwuY2gxFjAUBgNVBAMTDUNBIGd1ZW5nZWwu
Y2gxJDAiBgkqhkiG9w0BCQEWFXBvc3RtYXN0ZXJAZ3VlbmdlbC5jaIIJAOUlO6Z3
vcv/MA0GCSqGSIb3DQEBCwUAA4ICAQC47PYoBUpsC983xIR486yq3thTZtzNvqWG
QXNaz9le+EwcchI+Js5Xre++HqHCq0deDxjwjpymiN0TTa9PVJUeMjbVw/s+tOzG
7W9R03cVYutNy4qOZKCy5PFaCiTYesOt7vAaVidRns5g6Yihvc4EO9ec7TGO9KV+
oqgo0a/Yj0eB155BrA4x0cCzP4/wi9R0klhfeg6iRJ9zObCv+hhS0r8pgDx8NjVp
aVk1OMSNTWxR/F7hAVtHJ88+ni1ShetJ6ZPZxNu3qAp2wduwBxENOUORAJ7dprX9
oFIwhGu3LHReX/s2tBPo2XyRWKyXqvAo90XwMjs91vIzi0wE3GdD7apJf94ThorC
csLqA/vuYrevmcGolVg+nJOl+25ZUnnFL8e507+k1Qr2SiJ4AA9YabUZ15nFdvoU
Bg3H6eJNAS3W0YzEylB4zFDf8b3uheoaG69AdbGWXO5fiSepMeRpXBw2O8QPZ1uJ
I0Fjqwgsbe1+Tp6xH/ACzsSgJ1Ki82XnVUbhMZJ/Cm4KIwiXHjhpCiiHXqCwMans
3zRHBVNHP/UbiOWSMFRA0TVxiGuq08vXGElKgyjOZEjo/1GJ+hj4lRgL7QBb7hnD
3L10hysYEGCu1RjgbTtBfWTTCvrOibjzZ/8J8atuEGmIhLAwFZGB1hddmlbxUajC
lVVr/lOYhQ==
-----END CERTIFICATE-----
