Certificate:
    Data:
        Version: 3 (0x2)
        Serial Number: 373 (0x175)
        Signature Algorithm: sha256WithRSAEncryption
        Issuer: C=CH, ST=Thurgau, L=Kefikon, O=guengel.ch, CN=CA guengel.ch/emailAddress=postmaster@guengel.ch
        Validity
            Not Before: Jan  3 10:08:47 2020 GMT
            Not After : Feb  6 10:08:47 2021 GMT
        Subject: C=CH, ST=Thurgau, O=guengel.ch, CN=dash.virtual.kruemel.home/emailAddress=postmaster@guengel.ch
        Subject Public Key Info:
            Public Key Algorithm: rsaEncryption
                RSA Public-Key: (2048 bit)
                Modulus:
                    00:b6:77:48:50:4f:77:ff:d2:46:54:b6:0d:4b:9e:
                    fb:f0:ef:02:51:08:4d:fa:95:97:3f:19:21:fe:a3:
                    c9:3a:1b:bb:fa:87:b7:63:70:25:bb:e2:59:0a:5d:
                    ee:bd:30:1a:2c:e8:d7:5f:95:43:31:7e:28:e4:33:
                    a1:60:c8:0b:1a:cc:b7:b8:36:4c:20:8c:aa:3a:62:
                    f7:c0:de:a5:1a:80:2c:3a:6b:63:8f:07:24:bd:c7:
                    e0:ca:08:f6:97:dc:b1:37:0f:e9:31:36:07:02:37:
                    64:5b:a0:bd:18:49:21:b0:a5:a4:f8:b9:d3:ab:78:
                    2d:1f:11:94:ea:cb:28:57:64:40:66:8d:ce:b6:a9:
                    b0:f3:91:5e:37:ff:e7:7e:f3:76:82:d4:31:1b:c3:
                    91:b6:06:a0:ae:b1:1e:f1:50:75:70:6b:29:78:09:
                    ff:6f:cf:34:c8:f3:62:b2:52:5c:e2:7f:23:d4:69:
                    5f:97:06:fd:6d:6d:41:26:7a:38:4d:3b:08:a0:94:
                    49:6c:d6:9f:8a:c7:15:86:2c:07:88:a8:17:55:30:
                    52:bc:0c:19:bd:8c:cd:14:93:0f:6e:28:91:df:e5:
                    97:5c:40:a3:fa:fb:13:20:7a:3b:84:8e:ad:a1:53:
                    fb:c9:21:b3:73:8e:15:e8:9a:ee:cb:53:21:9d:d4:
                    89:99
                Exponent: 65537 (0x10001)
        X509v3 extensions:
            X509v3 Basic Constraints: 
                CA:FALSE
            Netscape Comment: 
                OpenSSL Generated Certificate
            X509v3 Subject Key Identifier: 
                CE:BB:43:A2:EE:EC:EC:42:16:B1:E0:B6:B2:E0:D6:33:A4:8B:EF:F6
            X509v3 Authority Key Identifier: 
                keyid:D6:88:F1:AA:C1:2B:09:8C:B8:5C:9D:CE:DF:57:39:62:26:10:20:90
                DirName:/C=CH/ST=Thurgau/L=Kefikon/O=guengel.ch/CN=CA guengel.ch/emailAddress=postmaster@guengel.ch
                serial:E5:25:3B:A6:77:BD:CB:FF

    Signature Algorithm: sha256WithRSAEncryption
         96:d0:73:03:31:8c:52:d2:03:bb:d1:df:2e:8f:27:47:a4:81:
         d1:66:e6:e7:3d:1f:e0:03:31:3c:d7:b4:91:d9:71:5e:52:cc:
         b0:bc:f3:79:b0:9a:d7:d8:9c:c5:d7:26:c9:94:17:1f:55:a3:
         80:81:f9:cb:f2:d4:d4:a8:47:74:be:a0:69:fd:5c:e9:f9:b0:
         9d:53:8f:c1:f9:bd:0f:13:87:b1:51:74:ac:5d:0c:0a:64:a0:
         e1:00:85:42:33:32:d6:55:26:b3:8d:b8:8a:0d:18:e2:a3:74:
         c0:48:94:3d:3b:c4:99:ed:20:6d:21:ab:8a:80:40:b1:6e:18:
         d8:b2:89:72:11:02:0a:30:27:5b:ad:9f:75:e9:79:21:e6:72:
         b6:26:ce:4e:ae:34:00:c4:f8:5a:91:45:5b:87:b8:2e:06:42:
         37:f8:64:76:5b:03:27:84:8b:2c:a2:11:e4:38:3b:43:b2:76:
         99:b7:16:86:b3:98:bc:4f:ca:b1:9e:a2:96:ae:64:c4:47:64:
         36:75:d0:89:07:c6:64:37:fd:20:f2:9c:4f:fb:82:0b:33:7d:
         a6:6c:ae:1d:0f:ab:8b:7d:aa:79:14:f0:0d:2d:02:45:24:67:
         e5:3c:ee:88:df:56:b4:d5:ed:5e:b6:44:40:da:48:aa:32:74:
         81:ce:33:ae:ce:2e:d5:c7:ca:00:e8:d6:91:19:c5:85:d9:b5:
         3e:c7:db:28:51:e8:32:33:89:9f:90:83:7b:22:e0:98:4f:a8:
         75:37:ae:5a:ca:e1:17:bf:58:4e:45:7d:e6:0e:cf:f8:92:e2:
         c3:68:f9:d2:c0:8a:42:b1:77:19:03:5e:7d:7d:17:9a:4e:1e:
         9e:d6:9c:0b:fc:8a:3c:fc:32:56:e5:92:7e:d7:0b:c5:b6:f8:
         ee:dc:26:5b:b2:52:0b:2d:5e:5d:3d:94:3f:de:6f:17:ac:5e:
         47:d2:96:65:e4:c3:7c:5a:26:1c:38:32:ab:f3:e2:7e:4d:3a:
         c6:7b:de:8f:cd:48:20:0e:cc:ca:ce:cc:03:1f:0f:6c:4d:12:
         56:07:84:d0:81:d8:3c:a2:9e:90:30:df:0b:ba:db:10:54:8d:
         2f:cc:6b:6e:7c:8f:87:87:c5:06:3a:c2:1c:11:6e:49:90:c5:
         74:d8:15:d2:be:c5:56:b1:b4:71:5f:39:74:7c:1c:7b:e4:a5:
         dd:53:86:0d:d4:ec:24:9d:24:87:c6:f9:8e:ad:eb:7d:c7:b8:
         2e:58:c3:cd:b4:2e:f2:e6:5a:d1:7d:ca:f2:05:ba:30:36:e4:
         0d:83:25:f8:75:54:3a:ff:a7:09:c4:89:65:f4:13:3b:0e:3f:
         28:06:13:98:d7:0b:06:23
-----BEGIN CERTIFICATE-----
MIIFmTCCA4GgAwIBAgICAXUwDQYJKoZIhvcNAQELBQAwgYQxCzAJBgNVBAYTAkNI
MRAwDgYDVQQIEwdUaHVyZ2F1MRAwDgYDVQQHEwdLZWZpa29uMRMwEQYDVQQKEwpn
dWVuZ2VsLmNoMRYwFAYDVQQDEw1DQSBndWVuZ2VsLmNoMSQwIgYJKoZIhvcNAQkB
FhVwb3N0bWFzdGVyQGd1ZW5nZWwuY2gwHhcNMjAwMTAzMTAwODQ3WhcNMjEwMjA2
MTAwODQ3WjB+MQswCQYDVQQGEwJDSDEQMA4GA1UECBMHVGh1cmdhdTETMBEGA1UE
ChMKZ3VlbmdlbC5jaDEiMCAGA1UEAxMZZGFzaC52aXJ0dWFsLmtydWVtZWwuaG9t
ZTEkMCIGCSqGSIb3DQEJARYVcG9zdG1hc3RlckBndWVuZ2VsLmNoMIIBIjANBgkq
hkiG9w0BAQEFAAOCAQ8AMIIBCgKCAQEAtndIUE93/9JGVLYNS5778O8CUQhN+pWX
Pxkh/qPJOhu7+oe3Y3Alu+JZCl3uvTAaLOjXX5VDMX4o5DOhYMgLGsy3uDZMIIyq
OmL3wN6lGoAsOmtjjwckvcfgygj2l9yxNw/pMTYHAjdkW6C9GEkhsKWk+LnTq3gt
HxGU6ssoV2RAZo3Otqmw85FeN//nfvN2gtQxG8ORtgagrrEe8VB1cGspeAn/b880
yPNislJc4n8j1Glflwb9bW1BJno4TTsIoJRJbNafiscVhiwHiKgXVTBSvAwZvYzN
FJMPbiiR3+WXXECj+vsTIHo7hI6toVP7ySGzc44V6Jruy1MhndSJmQIDAQABo4IB
GDCCARQwCQYDVR0TBAIwADAsBglghkgBhvhCAQ0EHxYdT3BlblNTTCBHZW5lcmF0
ZWQgQ2VydGlmaWNhdGUwHQYDVR0OBBYEFM67Q6Lu7OxCFrHgtrLg1jOki+/2MIG5
BgNVHSMEgbEwga6AFNaI8arBKwmMuFydzt9XOWImECCQoYGKpIGHMIGEMQswCQYD
VQQGEwJDSDEQMA4GA1UECBMHVGh1cmdhdTEQMA4GA1UEBxMHS2VmaWtvbjETMBEG
A1UEChMKZ3VlbmdlbC5jaDEWMBQGA1UEAxMNQ0EgZ3VlbmdlbC5jaDEkMCIGCSqG
SIb3DQEJARYVcG9zdG1hc3RlckBndWVuZ2VsLmNoggkA5SU7pne9y/8wDQYJKoZI
hvcNAQELBQADggIBAJbQcwMxjFLSA7vR3y6PJ0ekgdFm5uc9H+ADMTzXtJHZcV5S
zLC883mwmtfYnMXXJsmUFx9Vo4CB+cvy1NSoR3S+oGn9XOn5sJ1Tj8H5vQ8Th7FR
dKxdDApkoOEAhUIzMtZVJrONuIoNGOKjdMBIlD07xJntIG0hq4qAQLFuGNiyiXIR
AgowJ1utn3XpeSHmcrYmzk6uNADE+FqRRVuHuC4GQjf4ZHZbAyeEiyyiEeQ4O0Oy
dpm3FoazmLxPyrGeopauZMRHZDZ10IkHxmQ3/SDynE/7ggszfaZsrh0Pq4t9qnkU
8A0tAkUkZ+U87ojfVrTV7V62REDaSKoydIHOM67OLtXHygDo1pEZxYXZtT7H2yhR
6DIziZ+Qg3si4JhPqHU3rlrK4Re/WE5FfeYOz/iS4sNo+dLAikKxdxkDXn19F5pO
Hp7WnAv8ijz8Mlblkn7XC8W2+O7cJluyUgstXl09lD/ebxesXkfSlmXkw3xaJhw4
Mqvz4n5NOsZ73o/NSCAOzMrOzAMfD2xNElYHhNCB2DyinpAw3wu62xBUjS/Ma258
j4eHxQY6whwRbkmQxXTYFdK+xVaxtHFfOXR8HHvkpd1Thg3U7CSdJIfG+Y6t633H
uC5Yw820LvLmWtF9yvIFujA25A2DJfh1VDr/pwnEiWX0EzsOPygGE5jXCwYj
-----END CERTIFICATE-----
