Certificate:
    Data:
        Version: 3 (0x2)
        Serial Number:
            36:1b:4b:f9:3f:1a:36:2a:bc:16:af:00:74:45:a1:49:f8:ad:6e:c1
        Signature Algorithm: sha256WithRSAEncryption
        Issuer: C=CH, ST=Thurgau, L=Kefikon, O=guengel.ch, CN=CA 2022/emailAddress=postmaster@guengel.ch
        Validity
            Not Before: Feb 11 13:53:53 2022 GMT
            Not After : Mar 18 13:53:53 2023 GMT
        Subject: C=CH, ST=Thurgau, O=guengel.ch, CN=dash.virtual.kruemel.home/emailAddress=postmaster@guengel.ch
        Subject Public Key Info:
            Public Key Algorithm: rsaEncryption
                RSA Public-Key: (2048 bit)
                Modulus:
                    00:de:28:1b:8b:8b:d0:2a:ac:ca:9f:b9:35:5a:76:
                    af:70:02:df:e5:21:b2:b2:a9:dd:dc:c7:53:bc:dd:
                    25:c6:74:87:32:23:75:1c:73:50:cd:ce:8e:07:1c:
                    21:18:1f:63:03:30:8e:bf:68:19:d8:71:6e:21:8e:
                    a8:60:2a:c8:cf:0c:45:9e:a0:b2:d4:02:4b:39:7e:
                    9f:ed:3a:a5:95:40:a7:2f:a0:31:18:97:d8:d7:99:
                    4d:3f:f6:ee:22:71:ce:6d:dd:9c:a2:99:fe:67:d1:
                    81:62:2d:91:88:82:f5:d9:06:aa:2d:7e:00:21:a9:
                    dc:d4:45:9b:b5:88:9f:79:66:02:c0:97:d2:31:7c:
                    1d:c0:7d:58:07:c7:da:5e:32:0f:a2:16:59:4e:69:
                    30:38:5a:5a:07:33:0d:66:b7:e4:95:90:c3:cd:b7:
                    ca:7c:a3:0b:4d:09:02:ad:2d:b0:67:d3:94:41:c7:
                    2d:98:1b:f3:e4:05:ce:c5:29:e7:75:3b:60:b4:4c:
                    69:18:b1:57:b6:54:f1:b1:14:48:e1:c8:ac:29:71:
                    06:87:5d:50:eb:10:d7:ef:d0:e6:cf:01:29:33:18:
                    09:db:04:74:56:87:92:6d:f4:eb:fb:14:35:c0:58:
                    0a:21:02:d0:29:ba:61:00:51:36:7e:09:81:ca:04:
                    3a:85
                Exponent: 65537 (0x10001)
        X509v3 extensions:
            X509v3 Basic Constraints: critical
                CA:FALSE
            X509v3 Key Usage: 
                Digital Signature, Key Encipherment, Key Agreement
            X509v3 Subject Key Identifier: 
                0F:7C:88:9E:67:74:1A:33:84:C2:DB:00:7A:47:DF:41:E5:F0:CA:EE
            X509v3 Authority Key Identifier: 
                keyid:22:20:0D:51:40:61:42:BE:DD:BA:D9:C9:C1:77:B6:93:28:C3:99:EC
                DirName:/C=CH/ST=Thurgau/L=Kefikon/O=guengel.ch/CN=CA 2022/emailAddress=postmaster@guengel.ch
                serial:6D:29:90:54:E9:17:E9:C2:6A:E6:52:AD:84:4E:30:8E:6E:57:FB:1C

            Netscape Cert Type: 
                SSL Client, SSL Server
            X509v3 Extended Key Usage: 
                TLS Web Server Authentication, TLS Web Client Authentication
    Signature Algorithm: sha256WithRSAEncryption
         54:3c:b0:19:d0:22:74:20:bc:7b:ec:af:ee:48:ef:9c:7d:aa:
         34:d4:1c:4a:5a:96:e9:4e:dc:44:63:6d:f1:0f:1e:f9:7f:e1:
         bd:c1:e9:a2:f6:21:75:29:4c:58:99:49:5e:4d:ac:44:12:61:
         f6:69:a5:72:11:a5:b3:85:05:4f:bc:86:65:66:d7:e8:ec:cc:
         5f:7f:0b:24:6a:1e:66:a9:88:cd:99:1b:dc:17:20:e3:2c:15:
         32:29:52:2b:29:8b:e2:47:f0:0a:f9:ea:de:05:d4:71:09:f8:
         2a:9e:43:0b:df:eb:ca:c4:c8:c9:85:70:82:65:05:fb:97:0c:
         85:bd:2f:ca:b8:44:6f:d6:17:3f:ba:52:5a:08:56:ea:33:f6:
         4f:c0:1f:e3:fb:d8:e3:ad:09:d3:ee:b5:1c:59:09:1f:41:f2:
         b8:e4:12:46:2f:25:ca:c2:86:d2:26:08:aa:32:06:dd:27:8f:
         8f:d1:de:c7:67:2b:db:24:b1:3f:68:f5:83:12:16:2c:8d:7e:
         b2:b6:1f:5c:54:e9:97:d9:29:c7:25:af:0f:44:88:17:d2:d6:
         ac:d0:7e:75:91:0c:a5:7b:ea:8e:9e:b0:ec:9c:15:c3:ca:d4:
         52:0b:e0:5b:81:17:03:1f:86:20:87:b2:70:6e:82:47:a1:36:
         55:39:8e:78:bc:d0:4a:b0:95:11:b1:c8:92:3c:59:2c:e6:da:
         ce:34:fe:52:29:da:3d:58:bc:ff:63:85:cd:62:d0:96:63:88:
         cb:e0:ec:70:26:00:c6:41:74:03:1c:d7:7b:21:51:dc:59:96:
         24:59:7b:95:3f:68:90:07:4e:94:af:65:5b:bc:16:63:1b:64:
         af:16:c2:c6:dc:01:64:b6:c5:fa:1a:a6:6f:08:16:11:06:bc:
         79:40:10:ce:7c:b6:91:7b:6c:f3:b2:de:6f:26:30:69:f5:e0:
         ab:0b:85:21:ce:a8:74:3d:36:a1:49:91:70:bb:e9:21:78:9d:
         c0:b0:5f:34:0d:e4:7c:fc:c1:04:23:b7:5a:62:2d:55:9d:d1:
         79:cb:81:49:35:d0:30:50:f2:e7:10:e6:b6:4a:37:11:da:29:
         59:aa:60:72:85:d3:26:cb:41:25:3a:d9:e2:f5:65:8d:1f:25:
         b9:e5:77:68:43:b5:34:51:1d:6a:0d:af:ed:ec:5d:a5:7c:51:
         e8:49:39:85:d2:ac:d4:19:c3:3a:3f:43:98:2f:d5:84:98:09:
         8c:85:3a:67:da:6c:8e:de:19:e5:1a:27:64:21:7a:13:52:0b:
         aa:ba:35:50:f2:51:40:77:81:5f:90:13:af:28:89:a9:d7:4a:
         69:8c:a5:a9:ee:3e:9a:64
-----BEGIN CERTIFICATE-----
MIIFvDCCA6SgAwIBAgIUNhtL+T8aNiq8Fq8AdEWhSfitbsEwDQYJKoZIhvcNAQEL
BQAwfjELMAkGA1UEBhMCQ0gxEDAOBgNVBAgTB1RodXJnYXUxEDAOBgNVBAcTB0tl
Zmlrb24xEzARBgNVBAoTCmd1ZW5nZWwuY2gxEDAOBgNVBAMTB0NBIDIwMjIxJDAi
BgkqhkiG9w0BCQEWFXBvc3RtYXN0ZXJAZ3VlbmdlbC5jaDAeFw0yMjAyMTExMzUz
NTNaFw0yMzAzMTgxMzUzNTNaMH4xCzAJBgNVBAYTAkNIMRAwDgYDVQQIEwdUaHVy
Z2F1MRMwEQYDVQQKEwpndWVuZ2VsLmNoMSIwIAYDVQQDExlkYXNoLnZpcnR1YWwu
a3J1ZW1lbC5ob21lMSQwIgYJKoZIhvcNAQkBFhVwb3N0bWFzdGVyQGd1ZW5nZWwu
Y2gwggEiMA0GCSqGSIb3DQEBAQUAA4IBDwAwggEKAoIBAQDeKBuLi9AqrMqfuTVa
dq9wAt/lIbKyqd3cx1O83SXGdIcyI3Ucc1DNzo4HHCEYH2MDMI6/aBnYcW4hjqhg
KsjPDEWeoLLUAks5fp/tOqWVQKcvoDEYl9jXmU0/9u4icc5t3Zyimf5n0YFiLZGI
gvXZBqotfgAhqdzURZu1iJ95ZgLAl9IxfB3AfVgHx9peMg+iFllOaTA4WloHMw1m
t+SVkMPNt8p8owtNCQKtLbBn05RBxy2YG/PkBc7FKed1O2C0TGkYsVe2VPGxFEjh
yKwpcQaHXVDrENfv0ObPASkzGAnbBHRWh5Jt9Ov7FDXAWAohAtApumEAUTZ+CYHK
BDqFAgMBAAGjggEwMIIBLDAMBgNVHRMBAf8EAjAAMAsGA1UdDwQEAwIDqDAdBgNV
HQ4EFgQUD3yInmd0GjOEwtsAekffQeXwyu4wgb0GA1UdIwSBtTCBsoAUIiANUUBh
Qr7dutnJwXe2kyjDmeyhgYOkgYAwfjELMAkGA1UEBhMCQ0gxEDAOBgNVBAgTB1Ro
dXJnYXUxEDAOBgNVBAcTB0tlZmlrb24xEzARBgNVBAoTCmd1ZW5nZWwuY2gxEDAO
BgNVBAMTB0NBIDIwMjIxJDAiBgkqhkiG9w0BCQEWFXBvc3RtYXN0ZXJAZ3Vlbmdl
bC5jaIIUbSmQVOkX6cJq5lKthE4wjm5X+xwwEQYJYIZIAYb4QgEBBAQDAgbAMB0G
A1UdJQQWMBQGCCsGAQUFBwMBBggrBgEFBQcDAjANBgkqhkiG9w0BAQsFAAOCAgEA
VDywGdAidCC8e+yv7kjvnH2qNNQcSlqW6U7cRGNt8Q8e+X/hvcHpovYhdSlMWJlJ
Xk2sRBJh9mmlchGls4UFT7yGZWbX6OzMX38LJGoeZqmIzZkb3Bcg4ywVMilSKymL
4kfwCvnq3gXUcQn4Kp5DC9/rysTIyYVwgmUF+5cMhb0vyrhEb9YXP7pSWghW6jP2
T8Af4/vY460J0+61HFkJH0HyuOQSRi8lysKG0iYIqjIG3SePj9Hex2cr2ySxP2j1
gxIWLI1+srYfXFTpl9kpxyWvD0SIF9LWrNB+dZEMpXvqjp6w7JwVw8rUUgvgW4EX
Ax+GIIeycG6CR6E2VTmOeLzQSrCVEbHIkjxZLObazjT+UinaPVi8/2OFzWLQlmOI
y+DscCYAxkF0AxzXeyFR3FmWJFl7lT9okAdOlK9lW7wWYxtkrxbCxtwBZLbF+hqm
bwgWEQa8eUAQzny2kXts87LebyYwafXgqwuFIc6odD02oUmRcLvpIXidwLBfNA3k
fPzBBCO3WmItVZ3RecuBSTXQMFDy5xDmtko3EdopWapgcoXTJstBJTrZ4vVljR8l
ueV3aEO1NFEdag2v7exdpXxR6Ek5hdKs1BnDOj9DmC/VhJgJjIU6Z9psjt4Z5Ron
ZCF6E1ILqro1UPJRQHeBX5ATryiJqddKaYylqe4+mmQ=
-----END CERTIFICATE-----
