Certificate:
    Data:
        Version: 3 (0x2)
        Serial Number: 295 (0x127)
    Signature Algorithm: sha256WithRSAEncryption
        Issuer: C=CH, ST=Thurgau, L=Kefikon, O=guengel.ch, CN=CA guengel.ch/emailAddress=postmaster@guengel.ch
        Validity
            Not Before: Jan  6 18:02:54 2018 GMT
            Not After : Feb 10 18:02:54 2019 GMT
        Subject: C=CH, ST=Thurgau, O=guengel.ch, CN=dash.virtual.kruemel.home/emailAddress=postmaster@guengel.ch
        Subject Public Key Info:
            Public Key Algorithm: rsaEncryption
                Public-Key: (2048 bit)
                Modulus:
                    00:b6:77:48:50:4f:77:ff:d2:46:54:b6:0d:4b:9e:
                    fb:f0:ef:02:51:08:4d:fa:95:97:3f:19:21:fe:a3:
                    c9:3a:1b:bb:fa:87:b7:63:70:25:bb:e2:59:0a:5d:
                    ee:bd:30:1a:2c:e8:d7:5f:95:43:31:7e:28:e4:33:
                    a1:60:c8:0b:1a:cc:b7:b8:36:4c:20:8c:aa:3a:62:
                    f7:c0:de:a5:1a:80:2c:3a:6b:63:8f:07:24:bd:c7:
                    e0:ca:08:f6:97:dc:b1:37:0f:e9:31:36:07:02:37:
                    64:5b:a0:bd:18:49:21:b0:a5:a4:f8:b9:d3:ab:78:
                    2d:1f:11:94:ea:cb:28:57:64:40:66:8d:ce:b6:a9:
                    b0:f3:91:5e:37:ff:e7:7e:f3:76:82:d4:31:1b:c3:
                    91:b6:06:a0:ae:b1:1e:f1:50:75:70:6b:29:78:09:
                    ff:6f:cf:34:c8:f3:62:b2:52:5c:e2:7f:23:d4:69:
                    5f:97:06:fd:6d:6d:41:26:7a:38:4d:3b:08:a0:94:
                    49:6c:d6:9f:8a:c7:15:86:2c:07:88:a8:17:55:30:
                    52:bc:0c:19:bd:8c:cd:14:93:0f:6e:28:91:df:e5:
                    97:5c:40:a3:fa:fb:13:20:7a:3b:84:8e:ad:a1:53:
                    fb:c9:21:b3:73:8e:15:e8:9a:ee:cb:53:21:9d:d4:
                    89:99
                Exponent: 65537 (0x10001)
        X509v3 extensions:
            X509v3 Basic Constraints: 
                CA:FALSE
            Netscape Comment: 
                OpenSSL Generated Certificate
            X509v3 Subject Key Identifier: 
                CE:BB:43:A2:EE:EC:EC:42:16:B1:E0:B6:B2:E0:D6:33:A4:8B:EF:F6
            X509v3 Authority Key Identifier: 
                keyid:D6:88:F1:AA:C1:2B:09:8C:B8:5C:9D:CE:DF:57:39:62:26:10:20:90
                DirName:/C=CH/ST=Thurgau/L=Kefikon/O=guengel.ch/CN=CA guengel.ch/emailAddress=postmaster@guengel.ch
                serial:E5:25:3B:A6:77:BD:CB:FF

    Signature Algorithm: sha256WithRSAEncryption
         a9:f3:21:9d:d6:27:e5:5b:2e:71:60:06:d2:9f:d2:28:1e:cd:
         c6:ac:d5:2c:b9:1c:f7:84:1f:87:4f:50:34:c1:93:de:0b:30:
         e5:97:cd:0c:08:35:87:a2:78:13:98:1c:b5:33:00:4a:65:83:
         bc:cc:ee:86:dc:a3:da:93:8c:3f:ca:fb:26:67:59:f8:01:17:
         d2:24:5f:a3:bb:f8:8e:cf:81:ba:53:b4:ad:cd:35:e8:c4:12:
         52:47:9c:af:12:6d:99:2c:50:e0:c4:a2:ba:28:4e:76:2d:d1:
         a5:4e:24:d8:51:5d:67:53:a2:21:ff:66:d5:6a:95:94:15:df:
         e1:c9:19:f2:8f:cd:1a:db:ad:79:fa:b0:50:f6:ec:d3:7d:c2:
         4f:54:84:a0:c1:04:c7:ca:75:3e:23:0d:01:22:6a:c8:c3:0c:
         55:5e:3a:c8:e9:ac:0c:b1:21:1c:74:97:fa:de:00:07:74:34:
         b3:18:94:68:88:94:60:60:70:f8:68:47:63:2d:bf:bf:df:cf:
         51:ce:b1:08:b7:b4:f7:23:a3:05:00:39:21:98:5e:83:06:83:
         37:fd:93:00:ba:c3:01:31:15:68:51:40:41:8a:e2:bd:74:61:
         eb:68:fb:aa:84:b9:8f:d4:0e:c7:e4:f3:24:c5:8f:9c:14:f7:
         7f:67:af:62:92:b1:63:07:74:de:fa:98:59:75:af:a4:ac:7c:
         d7:34:73:d9:05:9d:db:4e:14:12:2d:43:86:17:51:ff:36:6b:
         34:06:b2:cd:6f:82:ae:58:36:cc:53:75:4a:6e:79:50:08:26:
         6f:0d:4f:79:1a:f1:25:ea:bd:39:0b:20:ff:e3:c4:8d:9a:12:
         8c:9d:44:53:10:d5:dc:c7:74:94:c3:b2:7e:31:80:a6:01:fa:
         df:5f:3f:0f:45:cf:ac:89:dd:d8:13:6a:c7:d0:59:25:bd:d5:
         d3:82:8c:3c:2a:a2:4d:0d:ce:50:ef:13:5d:29:cc:35:33:4d:
         c4:df:d6:da:8a:7b:2e:1b:f4:7a:90:8d:d9:90:76:9d:69:46:
         fe:4e:bb:b7:c6:6b:f6:46:f6:f0:28:77:98:a5:34:d5:ce:a1:
         c0:e9:b2:11:0f:19:0b:8f:67:27:cb:0a:e3:83:a1:c3:26:20:
         85:c1:b2:9b:60:5d:22:de:dc:12:ab:24:2c:52:08:77:8a:0c:
         f5:42:27:ef:61:92:a0:f6:23:10:f3:b3:74:87:48:12:1d:d6:
         cc:66:eb:24:bc:0a:74:89:40:28:e0:09:e6:83:12:1c:1f:5a:
         cf:fe:ec:a4:c6:bc:c4:98:b9:f7:03:f9:4f:d4:20:4f:48:45:
         26:4c:6f:0b:dd:45:ea:d0
-----BEGIN CERTIFICATE-----
MIIFmTCCA4GgAwIBAgICAScwDQYJKoZIhvcNAQELBQAwgYQxCzAJBgNVBAYTAkNI
MRAwDgYDVQQIEwdUaHVyZ2F1MRAwDgYDVQQHEwdLZWZpa29uMRMwEQYDVQQKEwpn
dWVuZ2VsLmNoMRYwFAYDVQQDEw1DQSBndWVuZ2VsLmNoMSQwIgYJKoZIhvcNAQkB
FhVwb3N0bWFzdGVyQGd1ZW5nZWwuY2gwHhcNMTgwMTA2MTgwMjU0WhcNMTkwMjEw
MTgwMjU0WjB+MQswCQYDVQQGEwJDSDEQMA4GA1UECBMHVGh1cmdhdTETMBEGA1UE
ChMKZ3VlbmdlbC5jaDEiMCAGA1UEAxMZZGFzaC52aXJ0dWFsLmtydWVtZWwuaG9t
ZTEkMCIGCSqGSIb3DQEJARYVcG9zdG1hc3RlckBndWVuZ2VsLmNoMIIBIjANBgkq
hkiG9w0BAQEFAAOCAQ8AMIIBCgKCAQEAtndIUE93/9JGVLYNS5778O8CUQhN+pWX
Pxkh/qPJOhu7+oe3Y3Alu+JZCl3uvTAaLOjXX5VDMX4o5DOhYMgLGsy3uDZMIIyq
OmL3wN6lGoAsOmtjjwckvcfgygj2l9yxNw/pMTYHAjdkW6C9GEkhsKWk+LnTq3gt
HxGU6ssoV2RAZo3Otqmw85FeN//nfvN2gtQxG8ORtgagrrEe8VB1cGspeAn/b880
yPNislJc4n8j1Glflwb9bW1BJno4TTsIoJRJbNafiscVhiwHiKgXVTBSvAwZvYzN
FJMPbiiR3+WXXECj+vsTIHo7hI6toVP7ySGzc44V6Jruy1MhndSJmQIDAQABo4IB
GDCCARQwCQYDVR0TBAIwADAsBglghkgBhvhCAQ0EHxYdT3BlblNTTCBHZW5lcmF0
ZWQgQ2VydGlmaWNhdGUwHQYDVR0OBBYEFM67Q6Lu7OxCFrHgtrLg1jOki+/2MIG5
BgNVHSMEgbEwga6AFNaI8arBKwmMuFydzt9XOWImECCQoYGKpIGHMIGEMQswCQYD
VQQGEwJDSDEQMA4GA1UECBMHVGh1cmdhdTEQMA4GA1UEBxMHS2VmaWtvbjETMBEG
A1UEChMKZ3VlbmdlbC5jaDEWMBQGA1UEAxMNQ0EgZ3VlbmdlbC5jaDEkMCIGCSqG
SIb3DQEJARYVcG9zdG1hc3RlckBndWVuZ2VsLmNoggkA5SU7pne9y/8wDQYJKoZI
hvcNAQELBQADggIBAKnzIZ3WJ+VbLnFgBtKf0igezcas1Sy5HPeEH4dPUDTBk94L
MOWXzQwINYeieBOYHLUzAEplg7zM7obco9qTjD/K+yZnWfgBF9IkX6O7+I7PgbpT
tK3NNejEElJHnK8SbZksUODEorooTnYt0aVOJNhRXWdToiH/ZtVqlZQV3+HJGfKP
zRrbrXn6sFD27NN9wk9UhKDBBMfKdT4jDQEiasjDDFVeOsjprAyxIRx0l/reAAd0
NLMYlGiIlGBgcPhoR2Mtv7/fz1HOsQi3tPcjowUAOSGYXoMGgzf9kwC6wwExFWhR
QEGK4r10Yeto+6qEuY/UDsfk8yTFj5wU939nr2KSsWMHdN76mFl1r6SsfNc0c9kF
ndtOFBItQ4YXUf82azQGss1vgq5YNsxTdUpueVAIJm8NT3ka8SXqvTkLIP/jxI2a
EoydRFMQ1dzHdJTDsn4xgKYB+t9fPw9Fz6yJ3dgTasfQWSW91dOCjDwqok0NzlDv
E10pzDUzTcTf1tqKey4b9HqQjdmQdp1pRv5Ou7fGa/ZG9vAod5ilNNXOocDpshEP
GQuPZyfLCuODocMmIIXBsptgXSLe3BKrJCxSCHeKDPVCJ+9hkqD2IxDzs3SHSBId
1sxm6yS8CnSJQCjgCeaDEhwfWs/+7KTGvMSYufcD+U/UIE9IRSZMbwvdRerQ
-----END CERTIFICATE-----
