Certificate:
    Data:
        Version: 3 (0x2)
        Serial Number:
            09:a9:ea:82:2b:56:36:26:16:87:a2:19:1d:d2:01:48:ea:29:2c:a7
        Signature Algorithm: sha256WithRSAEncryption
        Issuer: C=CH, ST=Thurgau, L=Kefikon, O=guengel.ch, CN=CA 2022/emailAddress=postmaster@guengel.ch
        Validity
            Not Before: Dec 30 08:44:26 2023 GMT
            Not After : Feb  2 08:44:26 2025 GMT
        Subject: C=CH, ST=Thurgau, O=guengel.ch, CN=dash.virtual.kruemel.home/emailAddress=postmaster@guengel.ch
        Subject Public Key Info:
            Public Key Algorithm: rsaEncryption
                RSA Public-Key: (2048 bit)
                Modulus:
                    00:de:28:1b:8b:8b:d0:2a:ac:ca:9f:b9:35:5a:76:
                    af:70:02:df:e5:21:b2:b2:a9:dd:dc:c7:53:bc:dd:
                    25:c6:74:87:32:23:75:1c:73:50:cd:ce:8e:07:1c:
                    21:18:1f:63:03:30:8e:bf:68:19:d8:71:6e:21:8e:
                    a8:60:2a:c8:cf:0c:45:9e:a0:b2:d4:02:4b:39:7e:
                    9f:ed:3a:a5:95:40:a7:2f:a0:31:18:97:d8:d7:99:
                    4d:3f:f6:ee:22:71:ce:6d:dd:9c:a2:99:fe:67:d1:
                    81:62:2d:91:88:82:f5:d9:06:aa:2d:7e:00:21:a9:
                    dc:d4:45:9b:b5:88:9f:79:66:02:c0:97:d2:31:7c:
                    1d:c0:7d:58:07:c7:da:5e:32:0f:a2:16:59:4e:69:
                    30:38:5a:5a:07:33:0d:66:b7:e4:95:90:c3:cd:b7:
                    ca:7c:a3:0b:4d:09:02:ad:2d:b0:67:d3:94:41:c7:
                    2d:98:1b:f3:e4:05:ce:c5:29:e7:75:3b:60:b4:4c:
                    69:18:b1:57:b6:54:f1:b1:14:48:e1:c8:ac:29:71:
                    06:87:5d:50:eb:10:d7:ef:d0:e6:cf:01:29:33:18:
                    09:db:04:74:56:87:92:6d:f4:eb:fb:14:35:c0:58:
                    0a:21:02:d0:29:ba:61:00:51:36:7e:09:81:ca:04:
                    3a:85
                Exponent: 65537 (0x10001)
        X509v3 extensions:
            X509v3 Basic Constraints: critical
                CA:FALSE
            X509v3 Key Usage: 
                Digital Signature, Key Encipherment, Key Agreement
            X509v3 Subject Key Identifier: 
                0F:7C:88:9E:67:74:1A:33:84:C2:DB:00:7A:47:DF:41:E5:F0:CA:EE
            X509v3 Authority Key Identifier: 
                keyid:22:20:0D:51:40:61:42:BE:DD:BA:D9:C9:C1:77:B6:93:28:C3:99:EC
                DirName:/C=CH/ST=Thurgau/L=Kefikon/O=guengel.ch/CN=CA 2022/emailAddress=postmaster@guengel.ch
                serial:6D:29:90:54:E9:17:E9:C2:6A:E6:52:AD:84:4E:30:8E:6E:57:FB:1C

            Netscape Cert Type: 
                SSL Client, SSL Server
            X509v3 Extended Key Usage: 
                TLS Web Server Authentication, TLS Web Client Authentication
    Signature Algorithm: sha256WithRSAEncryption
         4a:4b:3d:f9:20:8a:1a:78:a9:c4:df:8f:88:2c:88:6a:b3:49:
         79:2d:38:6c:4a:e5:82:ca:8d:c4:83:79:09:e7:07:bf:1a:e0:
         c1:88:04:a8:b6:34:ba:d3:ef:37:3f:a1:21:1f:2f:22:c4:31:
         3d:e2:3a:21:f0:06:eb:09:07:6a:b6:2c:51:ea:a7:66:11:ff:
         45:77:4b:f9:4c:11:36:2c:2d:a4:4e:b1:38:39:b8:88:cd:8e:
         ed:2d:16:1b:c3:70:a0:9f:5f:b7:53:c7:bf:a7:fc:8e:f7:eb:
         89:50:a6:b6:50:f5:09:b6:bc:5f:93:85:c9:8a:e0:68:e1:7c:
         b4:94:5c:0e:d5:b9:5d:36:23:9b:33:20:48:a1:07:25:1b:4b:
         35:14:1c:9a:05:73:59:63:c2:93:20:06:67:53:89:76:49:e7:
         d3:0b:75:9e:fc:95:1b:b9:7d:64:c0:8c:c9:3e:22:22:92:86:
         59:d5:18:4a:f6:05:29:6e:9f:bc:33:b7:6d:d2:a7:4d:06:5b:
         18:23:c4:ec:a0:4a:61:a9:04:52:17:dc:30:82:b4:de:35:8f:
         0f:35:2e:3c:4e:9c:7e:69:5c:32:26:08:a5:59:16:3e:26:a7:
         f0:24:eb:53:f1:e7:5c:ec:78:51:d4:79:8c:72:ec:a6:62:50:
         27:ba:70:ac:77:f2:9b:e3:ca:1e:18:7c:99:04:17:15:12:d0:
         11:3c:23:fd:c8:c6:b0:a0:75:46:4f:fd:0b:40:0b:08:a8:77:
         ec:a4:3b:b9:9a:fd:ef:69:28:48:9b:99:b8:d7:ba:01:25:31:
         02:cd:61:7a:02:54:66:c0:41:56:a6:af:ab:58:77:03:5d:ee:
         1a:9e:2c:e9:57:7e:f0:05:2b:88:19:bc:94:2b:59:a1:14:0a:
         e3:f4:c0:66:88:78:9d:7b:9c:6f:2a:2f:91:30:9f:4c:ce:8b:
         70:2e:0c:72:c0:82:f8:9e:e5:de:4d:be:36:53:dc:d5:47:91:
         ae:d0:6a:1c:4f:54:e2:4d:0c:ed:cd:e6:af:a6:ce:12:7d:09:
         84:19:14:8c:2d:ca:18:f9:89:e4:6e:3c:39:4a:dd:dc:6d:2f:
         64:c7:a3:bb:89:e2:6c:a8:3a:7b:63:84:ca:04:96:92:fb:72:
         37:ec:51:78:a0:c9:00:4c:96:84:b6:20:8a:a5:fd:1f:4d:e9:
         7d:af:34:f3:76:01:c8:aa:85:ca:26:b1:b9:e1:1e:4e:b5:69:
         a1:92:0c:c5:88:b3:98:c1:ce:ec:cc:33:5f:54:10:91:2b:5f:
         64:cd:31:b7:3a:9d:2b:11:dd:4f:6b:86:ca:ce:73:fc:ad:3f:
         a3:da:b1:85:27:4d:45:ff
-----BEGIN CERTIFICATE-----
MIIFvDCCA6SgAwIBAgIUCanqgitWNiYWh6IZHdIBSOopLKcwDQYJKoZIhvcNAQEL
BQAwfjELMAkGA1UEBhMCQ0gxEDAOBgNVBAgTB1RodXJnYXUxEDAOBgNVBAcTB0tl
Zmlrb24xEzARBgNVBAoTCmd1ZW5nZWwuY2gxEDAOBgNVBAMTB0NBIDIwMjIxJDAi
BgkqhkiG9w0BCQEWFXBvc3RtYXN0ZXJAZ3VlbmdlbC5jaDAeFw0yMzEyMzAwODQ0
MjZaFw0yNTAyMDIwODQ0MjZaMH4xCzAJBgNVBAYTAkNIMRAwDgYDVQQIEwdUaHVy
Z2F1MRMwEQYDVQQKEwpndWVuZ2VsLmNoMSIwIAYDVQQDExlkYXNoLnZpcnR1YWwu
a3J1ZW1lbC5ob21lMSQwIgYJKoZIhvcNAQkBFhVwb3N0bWFzdGVyQGd1ZW5nZWwu
Y2gwggEiMA0GCSqGSIb3DQEBAQUAA4IBDwAwggEKAoIBAQDeKBuLi9AqrMqfuTVa
dq9wAt/lIbKyqd3cx1O83SXGdIcyI3Ucc1DNzo4HHCEYH2MDMI6/aBnYcW4hjqhg
KsjPDEWeoLLUAks5fp/tOqWVQKcvoDEYl9jXmU0/9u4icc5t3Zyimf5n0YFiLZGI
gvXZBqotfgAhqdzURZu1iJ95ZgLAl9IxfB3AfVgHx9peMg+iFllOaTA4WloHMw1m
t+SVkMPNt8p8owtNCQKtLbBn05RBxy2YG/PkBc7FKed1O2C0TGkYsVe2VPGxFEjh
yKwpcQaHXVDrENfv0ObPASkzGAnbBHRWh5Jt9Ov7FDXAWAohAtApumEAUTZ+CYHK
BDqFAgMBAAGjggEwMIIBLDAMBgNVHRMBAf8EAjAAMAsGA1UdDwQEAwIDqDAdBgNV
HQ4EFgQUD3yInmd0GjOEwtsAekffQeXwyu4wgb0GA1UdIwSBtTCBsoAUIiANUUBh
Qr7dutnJwXe2kyjDmeyhgYOkgYAwfjELMAkGA1UEBhMCQ0gxEDAOBgNVBAgTB1Ro
dXJnYXUxEDAOBgNVBAcTB0tlZmlrb24xEzARBgNVBAoTCmd1ZW5nZWwuY2gxEDAO
BgNVBAMTB0NBIDIwMjIxJDAiBgkqhkiG9w0BCQEWFXBvc3RtYXN0ZXJAZ3Vlbmdl
bC5jaIIUbSmQVOkX6cJq5lKthE4wjm5X+xwwEQYJYIZIAYb4QgEBBAQDAgbAMB0G
A1UdJQQWMBQGCCsGAQUFBwMBBggrBgEFBQcDAjANBgkqhkiG9w0BAQsFAAOCAgEA
Sks9+SCKGnipxN+PiCyIarNJeS04bErlgsqNxIN5CecHvxrgwYgEqLY0utPvNz+h
IR8vIsQxPeI6IfAG6wkHarYsUeqnZhH/RXdL+UwRNiwtpE6xODm4iM2O7S0WG8Nw
oJ9ft1PHv6f8jvfriVCmtlD1Cba8X5OFyYrgaOF8tJRcDtW5XTYjmzMgSKEHJRtL
NRQcmgVzWWPCkyAGZ1OJdknn0wt1nvyVG7l9ZMCMyT4iIpKGWdUYSvYFKW6fvDO3
bdKnTQZbGCPE7KBKYakEUhfcMIK03jWPDzUuPE6cfmlcMiYIpVkWPian8CTrU/Hn
XOx4UdR5jHLspmJQJ7pwrHfym+PKHhh8mQQXFRLQETwj/cjGsKB1Rk/9C0ALCKh3
7KQ7uZr972koSJuZuNe6ASUxAs1hegJUZsBBVqavq1h3A13uGp4s6Vd+8AUriBm8
lCtZoRQK4/TAZoh4nXucbyovkTCfTM6LcC4McsCC+J7l3k2+NlPc1UeRrtBqHE9U
4k0M7c3mr6bOEn0JhBkUjC3KGPmJ5G48OUrd3G0vZMeju4nibKg6e2OEygSWkvty
N+xReKDJAEyWhLYgiqX9H03pfa8083YByKqFyiaxueEeTrVpoZIMxYizmMHO7Mwz
X1QQkStfZM0xtzqdKxHdT2uGys5z/K0/o9qxhSdNRf8=
-----END CERTIFICATE-----
