Certificate:
    Data:
        Version: 3 (0x2)
        Serial Number: 336 (0x150)
    Signature Algorithm: sha256WithRSAEncryption
        Issuer: C=CH, ST=Thurgau, L=Kefikon, O=guengel.ch, CN=CA guengel.ch/emailAddress=postmaster@guengel.ch
        Validity
            Not Before: Dec 29 14:39:58 2018 GMT
            Not After : Feb  2 14:39:58 2020 GMT
        Subject: C=CH, ST=Thurgau, O=guengel.ch, CN=dash.virtual.kruemel.home/emailAddress=postmaster@guengel.ch
        Subject Public Key Info:
            Public Key Algorithm: rsaEncryption
                Public-Key: (2048 bit)
                Modulus:
                    00:b6:77:48:50:4f:77:ff:d2:46:54:b6:0d:4b:9e:
                    fb:f0:ef:02:51:08:4d:fa:95:97:3f:19:21:fe:a3:
                    c9:3a:1b:bb:fa:87:b7:63:70:25:bb:e2:59:0a:5d:
                    ee:bd:30:1a:2c:e8:d7:5f:95:43:31:7e:28:e4:33:
                    a1:60:c8:0b:1a:cc:b7:b8:36:4c:20:8c:aa:3a:62:
                    f7:c0:de:a5:1a:80:2c:3a:6b:63:8f:07:24:bd:c7:
                    e0:ca:08:f6:97:dc:b1:37:0f:e9:31:36:07:02:37:
                    64:5b:a0:bd:18:49:21:b0:a5:a4:f8:b9:d3:ab:78:
                    2d:1f:11:94:ea:cb:28:57:64:40:66:8d:ce:b6:a9:
                    b0:f3:91:5e:37:ff:e7:7e:f3:76:82:d4:31:1b:c3:
                    91:b6:06:a0:ae:b1:1e:f1:50:75:70:6b:29:78:09:
                    ff:6f:cf:34:c8:f3:62:b2:52:5c:e2:7f:23:d4:69:
                    5f:97:06:fd:6d:6d:41:26:7a:38:4d:3b:08:a0:94:
                    49:6c:d6:9f:8a:c7:15:86:2c:07:88:a8:17:55:30:
                    52:bc:0c:19:bd:8c:cd:14:93:0f:6e:28:91:df:e5:
                    97:5c:40:a3:fa:fb:13:20:7a:3b:84:8e:ad:a1:53:
                    fb:c9:21:b3:73:8e:15:e8:9a:ee:cb:53:21:9d:d4:
                    89:99
                Exponent: 65537 (0x10001)
        X509v3 extensions:
            X509v3 Basic Constraints: 
                CA:FALSE
            Netscape Comment: 
                OpenSSL Generated Certificate
            X509v3 Subject Key Identifier: 
                CE:BB:43:A2:EE:EC:EC:42:16:B1:E0:B6:B2:E0:D6:33:A4:8B:EF:F6
            X509v3 Authority Key Identifier: 
                keyid:D6:88:F1:AA:C1:2B:09:8C:B8:5C:9D:CE:DF:57:39:62:26:10:20:90
                DirName:/C=CH/ST=Thurgau/L=Kefikon/O=guengel.ch/CN=CA guengel.ch/emailAddress=postmaster@guengel.ch
                serial:E5:25:3B:A6:77:BD:CB:FF

    Signature Algorithm: sha256WithRSAEncryption
         15:fb:58:0a:d0:bb:8e:a2:e8:b8:d8:d8:54:24:0f:76:8f:8a:
         b2:b4:57:5d:5a:58:52:78:e1:62:fa:cf:ab:86:99:11:97:45:
         95:bb:e3:7f:aa:73:9f:20:00:ae:1f:a0:c5:15:34:fd:7b:61:
         06:6f:7b:7c:b7:ae:95:19:8c:91:f5:a7:39:bb:72:8f:5c:eb:
         01:6b:f9:97:78:a0:f6:d4:c3:ac:b1:a9:8b:df:78:2c:45:21:
         74:40:b2:c4:28:4c:87:2d:f0:87:83:e4:2d:f5:75:18:31:11:
         fd:ac:f1:a7:91:98:ff:1f:8b:42:b6:53:77:31:80:22:cf:1e:
         0b:db:2f:d6:79:3a:2f:b0:3a:d4:8a:aa:df:75:08:0d:6e:44:
         d6:79:97:71:37:26:05:97:ce:af:4d:53:c7:9a:51:aa:56:1e:
         ad:ee:e9:fe:73:de:93:b2:7a:cd:be:a3:a8:8b:a0:37:e3:23:
         a1:f6:f8:0e:1a:5c:f6:d8:8a:11:5f:ae:9e:fe:21:8a:df:82:
         6c:4c:99:83:93:c2:d2:6d:ec:40:15:78:0c:d5:54:49:d8:10:
         0f:c2:75:77:9b:e8:b7:2f:e4:da:86:73:88:88:40:6f:bf:8d:
         48:13:f5:38:14:68:ff:61:99:a1:95:79:04:6f:5e:0c:79:53:
         46:ae:00:d0:da:48:ba:3c:77:da:ab:e4:4e:15:a9:5b:51:c1:
         cb:fc:dc:3d:d2:6e:65:c5:3b:7f:02:64:a5:a4:9a:46:7b:cd:
         28:6d:8f:7c:33:2d:b8:e4:27:26:9f:02:b6:94:bc:74:fa:65:
         3d:6d:74:35:bc:6c:d6:7c:08:48:ec:6e:23:ed:7b:e3:59:d7:
         7f:e5:0c:ce:da:e4:e3:93:26:88:21:80:12:66:6c:42:59:65:
         5c:54:e8:df:60:dd:29:a6:b7:e3:98:1f:29:9e:af:ed:82:2f:
         1b:f1:8f:ab:d2:53:89:0a:d2:77:6e:5d:d4:22:e0:9d:64:f0:
         db:82:e3:de:24:c9:27:7c:ae:91:31:09:4a:d8:2e:ab:ff:12:
         46:e9:1b:48:61:42:a0:f9:9c:70:92:ff:81:3f:4a:45:05:70:
         3d:02:b8:d8:f0:11:08:76:58:c3:73:75:e7:dc:be:19:9e:51:
         20:45:9e:ea:ed:9e:ea:df:f0:d8:9f:94:de:74:a5:a3:5c:bc:
         9c:5e:dd:a3:2f:f2:47:0a:8d:fa:5b:11:64:33:9b:3f:a2:c9:
         89:33:8f:38:02:fe:ed:f7:d4:17:8c:0c:20:fc:80:0a:0a:71:
         ef:00:df:54:91:cb:39:99:78:cb:e6:3e:e0:b4:b2:09:3f:d9:
         58:4f:ae:c4:43:84:a7:49
-----BEGIN CERTIFICATE-----
MIIFmTCCA4GgAwIBAgICAVAwDQYJKoZIhvcNAQELBQAwgYQxCzAJBgNVBAYTAkNI
MRAwDgYDVQQIEwdUaHVyZ2F1MRAwDgYDVQQHEwdLZWZpa29uMRMwEQYDVQQKEwpn
dWVuZ2VsLmNoMRYwFAYDVQQDEw1DQSBndWVuZ2VsLmNoMSQwIgYJKoZIhvcNAQkB
FhVwb3N0bWFzdGVyQGd1ZW5nZWwuY2gwHhcNMTgxMjI5MTQzOTU4WhcNMjAwMjAy
MTQzOTU4WjB+MQswCQYDVQQGEwJDSDEQMA4GA1UECBMHVGh1cmdhdTETMBEGA1UE
ChMKZ3VlbmdlbC5jaDEiMCAGA1UEAxMZZGFzaC52aXJ0dWFsLmtydWVtZWwuaG9t
ZTEkMCIGCSqGSIb3DQEJARYVcG9zdG1hc3RlckBndWVuZ2VsLmNoMIIBIjANBgkq
hkiG9w0BAQEFAAOCAQ8AMIIBCgKCAQEAtndIUE93/9JGVLYNS5778O8CUQhN+pWX
Pxkh/qPJOhu7+oe3Y3Alu+JZCl3uvTAaLOjXX5VDMX4o5DOhYMgLGsy3uDZMIIyq
OmL3wN6lGoAsOmtjjwckvcfgygj2l9yxNw/pMTYHAjdkW6C9GEkhsKWk+LnTq3gt
HxGU6ssoV2RAZo3Otqmw85FeN//nfvN2gtQxG8ORtgagrrEe8VB1cGspeAn/b880
yPNislJc4n8j1Glflwb9bW1BJno4TTsIoJRJbNafiscVhiwHiKgXVTBSvAwZvYzN
FJMPbiiR3+WXXECj+vsTIHo7hI6toVP7ySGzc44V6Jruy1MhndSJmQIDAQABo4IB
GDCCARQwCQYDVR0TBAIwADAsBglghkgBhvhCAQ0EHxYdT3BlblNTTCBHZW5lcmF0
ZWQgQ2VydGlmaWNhdGUwHQYDVR0OBBYEFM67Q6Lu7OxCFrHgtrLg1jOki+/2MIG5
BgNVHSMEgbEwga6AFNaI8arBKwmMuFydzt9XOWImECCQoYGKpIGHMIGEMQswCQYD
VQQGEwJDSDEQMA4GA1UECBMHVGh1cmdhdTEQMA4GA1UEBxMHS2VmaWtvbjETMBEG
A1UEChMKZ3VlbmdlbC5jaDEWMBQGA1UEAxMNQ0EgZ3VlbmdlbC5jaDEkMCIGCSqG
SIb3DQEJARYVcG9zdG1hc3RlckBndWVuZ2VsLmNoggkA5SU7pne9y/8wDQYJKoZI
hvcNAQELBQADggIBABX7WArQu46i6LjY2FQkD3aPirK0V11aWFJ44WL6z6uGmRGX
RZW743+qc58gAK4foMUVNP17YQZve3y3rpUZjJH1pzm7co9c6wFr+Zd4oPbUw6yx
qYvfeCxFIXRAssQoTIct8IeD5C31dRgxEf2s8aeRmP8fi0K2U3cxgCLPHgvbL9Z5
Oi+wOtSKqt91CA1uRNZ5l3E3JgWXzq9NU8eaUapWHq3u6f5z3pOyes2+o6iLoDfj
I6H2+A4aXPbYihFfrp7+IYrfgmxMmYOTwtJt7EAVeAzVVEnYEA/CdXeb6Lcv5NqG
c4iIQG+/jUgT9TgUaP9hmaGVeQRvXgx5U0auANDaSLo8d9qr5E4VqVtRwcv83D3S
bmXFO38CZKWkmkZ7zShtj3wzLbjkJyafAraUvHT6ZT1tdDW8bNZ8CEjsbiPte+NZ
13/lDM7a5OOTJoghgBJmbEJZZVxU6N9g3Smmt+OYHymer+2CLxvxj6vSU4kK0ndu
XdQi4J1k8NuC494kySd8rpExCUrYLqv/EkbpG0hhQqD5nHCS/4E/SkUFcD0CuNjw
EQh2WMNzdefcvhmeUSBFnurtnurf8NiflN50paNcvJxe3aMv8kcKjfpbEWQzmz+i
yYkzjzgC/u331BeMDCD8gAoKce8A31SRyzmZeMvmPuC0sgk/2VhPrsRDhKdJ
-----END CERTIFICATE-----
