Certificate:
    Data:
        Version: 3 (0x2)
        Serial Number:
            79:02:5c:8b:58:45:48:8e:ee:54:6d:04:c4:44:e0:c7:9c:76:6e:57
        Signature Algorithm: sha256WithRSAEncryption
        Issuer: C=CH, ST=Thurgau, L=Kefikon, O=guengel.ch, CN=CA 2022/emailAddress=postmaster@guengel.ch
        Validity
            Not Before: Jan  3 14:04:20 2025 GMT
            Not After : Feb  7 14:04:20 2026 GMT
        Subject: C=CH, ST=Thurgau, O=guengel.ch, CN=dash.virtual.kruemel.home/emailAddress=postmaster@guengel.ch
        Subject Public Key Info:
            Public Key Algorithm: rsaEncryption
                Public-Key: (2048 bit)
                Modulus:
                    00:de:28:1b:8b:8b:d0:2a:ac:ca:9f:b9:35:5a:76:
                    af:70:02:df:e5:21:b2:b2:a9:dd:dc:c7:53:bc:dd:
                    25:c6:74:87:32:23:75:1c:73:50:cd:ce:8e:07:1c:
                    21:18:1f:63:03:30:8e:bf:68:19:d8:71:6e:21:8e:
                    a8:60:2a:c8:cf:0c:45:9e:a0:b2:d4:02:4b:39:7e:
                    9f:ed:3a:a5:95:40:a7:2f:a0:31:18:97:d8:d7:99:
                    4d:3f:f6:ee:22:71:ce:6d:dd:9c:a2:99:fe:67:d1:
                    81:62:2d:91:88:82:f5:d9:06:aa:2d:7e:00:21:a9:
                    dc:d4:45:9b:b5:88:9f:79:66:02:c0:97:d2:31:7c:
                    1d:c0:7d:58:07:c7:da:5e:32:0f:a2:16:59:4e:69:
                    30:38:5a:5a:07:33:0d:66:b7:e4:95:90:c3:cd:b7:
                    ca:7c:a3:0b:4d:09:02:ad:2d:b0:67:d3:94:41:c7:
                    2d:98:1b:f3:e4:05:ce:c5:29:e7:75:3b:60:b4:4c:
                    69:18:b1:57:b6:54:f1:b1:14:48:e1:c8:ac:29:71:
                    06:87:5d:50:eb:10:d7:ef:d0:e6:cf:01:29:33:18:
                    09:db:04:74:56:87:92:6d:f4:eb:fb:14:35:c0:58:
                    0a:21:02:d0:29:ba:61:00:51:36:7e:09:81:ca:04:
                    3a:85
                Exponent: 65537 (0x10001)
        X509v3 extensions:
            X509v3 Basic Constraints: critical
                CA:FALSE
            X509v3 Key Usage: 
                Digital Signature, Key Encipherment, Key Agreement
            X509v3 Subject Key Identifier: 
                0F:7C:88:9E:67:74:1A:33:84:C2:DB:00:7A:47:DF:41:E5:F0:CA:EE
            X509v3 Authority Key Identifier: 
                keyid:22:20:0D:51:40:61:42:BE:DD:BA:D9:C9:C1:77:B6:93:28:C3:99:EC
                DirName:/C=CH/ST=Thurgau/L=Kefikon/O=guengel.ch/CN=CA 2022/emailAddress=postmaster@guengel.ch
                serial:6D:29:90:54:E9:17:E9:C2:6A:E6:52:AD:84:4E:30:8E:6E:57:FB:1C
            Netscape Cert Type: 
                SSL Client, SSL Server
            X509v3 Extended Key Usage: 
                TLS Web Server Authentication, TLS Web Client Authentication
    Signature Algorithm: sha256WithRSAEncryption
    Signature Value:
        4c:79:ab:2c:82:3c:5e:8b:9f:8e:9c:7a:55:21:7c:ce:fd:88:
        13:6c:5f:16:a2:96:50:8f:12:d2:07:d1:98:39:e5:e8:51:af:
        c1:71:38:b3:95:e8:bd:26:b4:18:f3:04:78:76:24:c0:6e:62:
        93:04:90:36:0a:84:ad:26:c5:06:91:5f:52:7e:ff:e9:60:28:
        a6:5a:88:d7:28:af:4d:8d:1b:09:93:b2:05:21:95:99:21:18:
        c7:56:65:0f:86:83:1c:9c:21:0e:f8:42:ae:19:ab:ff:6a:22:
        9b:ce:a5:ee:e0:17:0b:89:55:d0:ee:79:f1:08:50:3e:a8:d2:
        a4:f9:45:19:ca:12:00:7c:a3:a4:59:5e:09:2f:29:f7:d1:e8:
        40:e6:4c:aa:c3:a8:c8:1e:58:d1:f3:62:58:8b:92:75:28:02:
        f4:00:71:6e:0e:d9:77:4e:f2:21:6c:f8:12:e2:d7:1d:45:a1:
        9e:c8:7e:fa:9f:d3:f2:dd:17:b5:83:a4:e7:64:36:31:67:55:
        3e:58:f6:2f:a6:62:e3:c7:48:7d:16:73:4c:cd:6b:3b:5f:e0:
        13:64:8f:a0:80:67:33:5d:34:66:b0:44:25:47:b1:55:f1:ad:
        7c:a8:fd:c1:96:e0:e3:79:e6:b1:97:6b:d7:fd:9e:6a:71:0c:
        36:93:f2:24:9a:05:55:1c:1b:39:79:2e:ed:69:95:4d:80:dc:
        81:a1:43:42:6e:bc:4e:64:7d:a2:cd:c8:02:db:a2:96:cc:b7:
        39:76:28:89:7d:89:7c:e8:53:61:33:f1:d4:6b:59:ea:8f:52:
        51:88:3b:c0:47:49:c4:78:ea:f4:f1:0b:60:87:53:75:4b:c0:
        f9:bd:d2:8a:f5:2b:44:cd:5f:69:5f:af:e1:81:32:19:8f:0b:
        77:f2:39:b6:e4:b1:f4:24:b4:89:90:8a:bf:68:83:82:51:b1:
        bd:a5:c5:2b:ce:0e:13:95:27:87:36:41:97:dc:64:75:4e:82:
        60:0e:4e:b8:ec:d2:a7:d2:80:8e:ce:16:a9:79:09:d2:18:37:
        19:41:3b:00:8b:90:0c:cd:55:44:92:c3:8c:ff:8b:ce:60:ab:
        7e:ba:7a:87:e9:de:7b:98:3a:b5:ea:17:5b:46:cb:81:95:7a:
        a3:93:70:6c:25:5b:8e:d1:3d:4d:8c:57:59:e9:b4:96:4e:b2:
        4e:61:bf:02:c2:f1:1d:d2:84:2c:6c:2a:78:69:df:df:81:62:
        09:b0:8c:7e:e9:ad:ed:2a:68:e3:1f:49:27:97:c5:6a:b8:f8:
        31:b4:a5:1e:be:d2:99:22:e6:cf:51:de:45:29:6a:5c:26:f9:
        7f:bb:94:10:b4:d2:11:00
-----BEGIN CERTIFICATE-----
MIIFvDCCA6SgAwIBAgIUeQJci1hFSI7uVG0ExETgx5x2blcwDQYJKoZIhvcNAQEL
BQAwfjELMAkGA1UEBhMCQ0gxEDAOBgNVBAgTB1RodXJnYXUxEDAOBgNVBAcTB0tl
Zmlrb24xEzARBgNVBAoTCmd1ZW5nZWwuY2gxEDAOBgNVBAMTB0NBIDIwMjIxJDAi
BgkqhkiG9w0BCQEWFXBvc3RtYXN0ZXJAZ3VlbmdlbC5jaDAeFw0yNTAxMDMxNDA0
MjBaFw0yNjAyMDcxNDA0MjBaMH4xCzAJBgNVBAYTAkNIMRAwDgYDVQQIEwdUaHVy
Z2F1MRMwEQYDVQQKEwpndWVuZ2VsLmNoMSIwIAYDVQQDExlkYXNoLnZpcnR1YWwu
a3J1ZW1lbC5ob21lMSQwIgYJKoZIhvcNAQkBFhVwb3N0bWFzdGVyQGd1ZW5nZWwu
Y2gwggEiMA0GCSqGSIb3DQEBAQUAA4IBDwAwggEKAoIBAQDeKBuLi9AqrMqfuTVa
dq9wAt/lIbKyqd3cx1O83SXGdIcyI3Ucc1DNzo4HHCEYH2MDMI6/aBnYcW4hjqhg
KsjPDEWeoLLUAks5fp/tOqWVQKcvoDEYl9jXmU0/9u4icc5t3Zyimf5n0YFiLZGI
gvXZBqotfgAhqdzURZu1iJ95ZgLAl9IxfB3AfVgHx9peMg+iFllOaTA4WloHMw1m
t+SVkMPNt8p8owtNCQKtLbBn05RBxy2YG/PkBc7FKed1O2C0TGkYsVe2VPGxFEjh
yKwpcQaHXVDrENfv0ObPASkzGAnbBHRWh5Jt9Ov7FDXAWAohAtApumEAUTZ+CYHK
BDqFAgMBAAGjggEwMIIBLDAMBgNVHRMBAf8EAjAAMAsGA1UdDwQEAwIDqDAdBgNV
HQ4EFgQUD3yInmd0GjOEwtsAekffQeXwyu4wgb0GA1UdIwSBtTCBsoAUIiANUUBh
Qr7dutnJwXe2kyjDmeyhgYOkgYAwfjELMAkGA1UEBhMCQ0gxEDAOBgNVBAgTB1Ro
dXJnYXUxEDAOBgNVBAcTB0tlZmlrb24xEzARBgNVBAoTCmd1ZW5nZWwuY2gxEDAO
BgNVBAMTB0NBIDIwMjIxJDAiBgkqhkiG9w0BCQEWFXBvc3RtYXN0ZXJAZ3Vlbmdl
bC5jaIIUbSmQVOkX6cJq5lKthE4wjm5X+xwwEQYJYIZIAYb4QgEBBAQDAgbAMB0G
A1UdJQQWMBQGCCsGAQUFBwMBBggrBgEFBQcDAjANBgkqhkiG9w0BAQsFAAOCAgEA
THmrLII8Xoufjpx6VSF8zv2IE2xfFqKWUI8S0gfRmDnl6FGvwXE4s5XovSa0GPME
eHYkwG5ikwSQNgqErSbFBpFfUn7/6WAoplqI1yivTY0bCZOyBSGVmSEYx1ZlD4aD
HJwhDvhCrhmr/2oim86l7uAXC4lV0O558QhQPqjSpPlFGcoSAHyjpFleCS8p99Ho
QOZMqsOoyB5Y0fNiWIuSdSgC9ABxbg7Zd07yIWz4EuLXHUWhnsh++p/T8t0XtYOk
52Q2MWdVPlj2L6Zi48dIfRZzTM1rO1/gE2SPoIBnM100ZrBEJUexVfGtfKj9wZbg
43nmsZdr1/2eanEMNpPyJJoFVRwbOXku7WmVTYDcgaFDQm68TmR9os3IAtuilsy3
OXYoiX2JfOhTYTPx1GtZ6o9SUYg7wEdJxHjq9PELYIdTdUvA+b3SivUrRM1faV+v
4YEyGY8Ld/I5tuSx9CS0iZCKv2iDglGxvaXFK84OE5UnhzZBl9xkdU6CYA5OuOzS
p9KAjs4WqXkJ0hg3GUE7AIuQDM1VRJLDjP+LzmCrfrp6h+nee5g6teoXW0bLgZV6
o5NwbCVbjtE9TYxXWem0lk6yTmG/AsLxHdKELGwqeGnf34FiCbCMfumt7Spo4x9J
J5fFarj4MbSlHr7SmSLmz1HeRSlqXCb5f7uUELTSEQA=
-----END CERTIFICATE-----
