Certificate:
    Data:
        Version: 3 (0x2)
        Serial Number:
            7f:47:45:0e:f8:b5:ed:dd:79:66:10:60:db:89:a5:c7:81:af:90:a3
        Signature Algorithm: sha256WithRSAEncryption
        Issuer: C=CH, ST=Thurgau, L=Kefikon, O=guengel.ch, CN=CA 2022/emailAddress=postmaster@guengel.ch
        Validity
            Not Before: Feb 28 06:38:24 2023 GMT
            Not After : Apr  3 06:38:24 2024 GMT
        Subject: C=CH, ST=Thurgau, O=guengel.ch, CN=dash.virtual.kruemel.home/emailAddress=postmaster@guengel.ch
        Subject Public Key Info:
            Public Key Algorithm: rsaEncryption
                RSA Public-Key: (2048 bit)
                Modulus:
                    00:de:28:1b:8b:8b:d0:2a:ac:ca:9f:b9:35:5a:76:
                    af:70:02:df:e5:21:b2:b2:a9:dd:dc:c7:53:bc:dd:
                    25:c6:74:87:32:23:75:1c:73:50:cd:ce:8e:07:1c:
                    21:18:1f:63:03:30:8e:bf:68:19:d8:71:6e:21:8e:
                    a8:60:2a:c8:cf:0c:45:9e:a0:b2:d4:02:4b:39:7e:
                    9f:ed:3a:a5:95:40:a7:2f:a0:31:18:97:d8:d7:99:
                    4d:3f:f6:ee:22:71:ce:6d:dd:9c:a2:99:fe:67:d1:
                    81:62:2d:91:88:82:f5:d9:06:aa:2d:7e:00:21:a9:
                    dc:d4:45:9b:b5:88:9f:79:66:02:c0:97:d2:31:7c:
                    1d:c0:7d:58:07:c7:da:5e:32:0f:a2:16:59:4e:69:
                    30:38:5a:5a:07:33:0d:66:b7:e4:95:90:c3:cd:b7:
                    ca:7c:a3:0b:4d:09:02:ad:2d:b0:67:d3:94:41:c7:
                    2d:98:1b:f3:e4:05:ce:c5:29:e7:75:3b:60:b4:4c:
                    69:18:b1:57:b6:54:f1:b1:14:48:e1:c8:ac:29:71:
                    06:87:5d:50:eb:10:d7:ef:d0:e6:cf:01:29:33:18:
                    09:db:04:74:56:87:92:6d:f4:eb:fb:14:35:c0:58:
                    0a:21:02:d0:29:ba:61:00:51:36:7e:09:81:ca:04:
                    3a:85
                Exponent: 65537 (0x10001)
        X509v3 extensions:
            X509v3 Basic Constraints: critical
                CA:FALSE
            X509v3 Key Usage: 
                Digital Signature, Key Encipherment, Key Agreement
            X509v3 Subject Key Identifier: 
                0F:7C:88:9E:67:74:1A:33:84:C2:DB:00:7A:47:DF:41:E5:F0:CA:EE
            X509v3 Authority Key Identifier: 
                keyid:22:20:0D:51:40:61:42:BE:DD:BA:D9:C9:C1:77:B6:93:28:C3:99:EC
                DirName:/C=CH/ST=Thurgau/L=Kefikon/O=guengel.ch/CN=CA 2022/emailAddress=postmaster@guengel.ch
                serial:6D:29:90:54:E9:17:E9:C2:6A:E6:52:AD:84:4E:30:8E:6E:57:FB:1C

            Netscape Cert Type: 
                SSL Client, SSL Server
            X509v3 Extended Key Usage: 
                TLS Web Server Authentication, TLS Web Client Authentication
    Signature Algorithm: sha256WithRSAEncryption
         83:a6:16:16:95:2f:e9:12:f6:6f:0d:cb:54:07:82:06:cc:fe:
         18:9b:15:7b:3d:de:e7:83:10:ac:83:20:d5:f8:33:cf:58:b6:
         e1:5a:cf:19:06:84:ae:b4:0c:b2:f0:a3:03:d8:b1:ca:76:6d:
         28:7d:c3:12:8f:01:64:a0:a1:76:2e:9f:cd:f3:d8:e6:d7:9a:
         da:f0:64:88:70:79:55:29:6b:0e:cf:fe:8e:73:60:5b:f8:d5:
         f6:59:42:e6:d8:45:78:96:ad:fd:ec:b2:cd:27:97:e7:42:ca:
         8e:23:72:92:21:8a:32:65:16:1a:be:df:6b:ed:6e:3f:cc:6d:
         a8:16:82:c3:a9:7a:66:3c:16:71:22:a3:c5:95:65:28:04:f9:
         0d:49:f2:c8:9f:f1:a4:11:e8:ac:9f:c3:72:43:39:23:00:f1:
         89:af:3f:e1:56:55:49:bf:44:be:37:9d:ff:a5:1e:b7:04:d7:
         8a:49:95:c4:83:c7:b0:ac:87:b6:fa:a6:ba:e9:a6:f9:29:3e:
         75:bf:e0:69:ec:35:83:f2:78:74:e5:03:45:08:4f:b3:f4:d6:
         e5:dc:03:9c:8c:ee:44:5c:9d:1c:60:b3:24:f8:ce:0c:17:1b:
         63:b0:1e:12:00:f3:0d:d9:13:e0:3b:2b:97:08:2a:11:69:c9:
         6f:f1:ee:09:86:97:60:c2:4b:87:7f:77:7d:57:25:66:9c:89:
         2e:60:13:f0:58:be:04:88:17:51:ae:49:ff:da:47:52:1c:1b:
         40:2c:26:2b:47:62:93:e1:5e:59:d8:34:e0:4b:46:92:d6:75:
         99:61:8d:b7:a4:16:14:8d:e2:2a:74:84:07:25:c8:d2:0e:e2:
         cf:ed:fc:ca:6e:31:9f:13:8d:f6:d1:cf:70:cc:78:44:34:74:
         76:88:ba:b6:2a:c8:86:24:15:76:11:82:8e:a7:cd:0e:75:3d:
         b6:33:a4:5c:f6:30:89:04:1f:f1:6e:26:19:b8:a7:4c:0d:a9:
         43:8c:19:3d:97:7d:47:ca:61:46:33:30:51:33:fc:41:27:0c:
         2d:4b:82:c5:a1:a8:23:8d:52:34:49:bc:1b:8c:d8:01:af:11:
         13:3e:2d:9a:24:9e:e9:ef:ea:37:23:dc:8c:b3:c4:06:bf:c5:
         be:c0:69:ad:8b:d3:35:48:0b:36:a7:5e:c7:35:03:b3:ca:c8:
         60:85:6b:7f:fc:cd:78:12:ac:90:2e:31:66:2d:76:de:ce:b0:
         d0:32:2b:86:5d:97:0f:9d:d0:1f:73:48:ca:aa:0f:ba:e9:26:
         e6:23:eb:a4:ac:3e:a5:1e:91:44:2f:eb:52:2d:17:be:25:1c:
         c1:94:ef:ed:8d:e5:d4:56
-----BEGIN CERTIFICATE-----
MIIFvDCCA6SgAwIBAgIUf0dFDvi17d15ZhBg24mlx4GvkKMwDQYJKoZIhvcNAQEL
BQAwfjELMAkGA1UEBhMCQ0gxEDAOBgNVBAgTB1RodXJnYXUxEDAOBgNVBAcTB0tl
Zmlrb24xEzARBgNVBAoTCmd1ZW5nZWwuY2gxEDAOBgNVBAMTB0NBIDIwMjIxJDAi
BgkqhkiG9w0BCQEWFXBvc3RtYXN0ZXJAZ3VlbmdlbC5jaDAeFw0yMzAyMjgwNjM4
MjRaFw0yNDA0MDMwNjM4MjRaMH4xCzAJBgNVBAYTAkNIMRAwDgYDVQQIEwdUaHVy
Z2F1MRMwEQYDVQQKEwpndWVuZ2VsLmNoMSIwIAYDVQQDExlkYXNoLnZpcnR1YWwu
a3J1ZW1lbC5ob21lMSQwIgYJKoZIhvcNAQkBFhVwb3N0bWFzdGVyQGd1ZW5nZWwu
Y2gwggEiMA0GCSqGSIb3DQEBAQUAA4IBDwAwggEKAoIBAQDeKBuLi9AqrMqfuTVa
dq9wAt/lIbKyqd3cx1O83SXGdIcyI3Ucc1DNzo4HHCEYH2MDMI6/aBnYcW4hjqhg
KsjPDEWeoLLUAks5fp/tOqWVQKcvoDEYl9jXmU0/9u4icc5t3Zyimf5n0YFiLZGI
gvXZBqotfgAhqdzURZu1iJ95ZgLAl9IxfB3AfVgHx9peMg+iFllOaTA4WloHMw1m
t+SVkMPNt8p8owtNCQKtLbBn05RBxy2YG/PkBc7FKed1O2C0TGkYsVe2VPGxFEjh
yKwpcQaHXVDrENfv0ObPASkzGAnbBHRWh5Jt9Ov7FDXAWAohAtApumEAUTZ+CYHK
BDqFAgMBAAGjggEwMIIBLDAMBgNVHRMBAf8EAjAAMAsGA1UdDwQEAwIDqDAdBgNV
HQ4EFgQUD3yInmd0GjOEwtsAekffQeXwyu4wgb0GA1UdIwSBtTCBsoAUIiANUUBh
Qr7dutnJwXe2kyjDmeyhgYOkgYAwfjELMAkGA1UEBhMCQ0gxEDAOBgNVBAgTB1Ro
dXJnYXUxEDAOBgNVBAcTB0tlZmlrb24xEzARBgNVBAoTCmd1ZW5nZWwuY2gxEDAO
BgNVBAMTB0NBIDIwMjIxJDAiBgkqhkiG9w0BCQEWFXBvc3RtYXN0ZXJAZ3Vlbmdl
bC5jaIIUbSmQVOkX6cJq5lKthE4wjm5X+xwwEQYJYIZIAYb4QgEBBAQDAgbAMB0G
A1UdJQQWMBQGCCsGAQUFBwMBBggrBgEFBQcDAjANBgkqhkiG9w0BAQsFAAOCAgEA
g6YWFpUv6RL2bw3LVAeCBsz+GJsVez3e54MQrIMg1fgzz1i24VrPGQaErrQMsvCj
A9ixynZtKH3DEo8BZKChdi6fzfPY5tea2vBkiHB5VSlrDs/+jnNgW/jV9llC5thF
eJat/eyyzSeX50LKjiNykiGKMmUWGr7fa+1uP8xtqBaCw6l6ZjwWcSKjxZVlKAT5
DUnyyJ/xpBHorJ/DckM5IwDxia8/4VZVSb9Evjed/6UetwTXikmVxIPHsKyHtvqm
uumm+Sk+db/gaew1g/J4dOUDRQhPs/TW5dwDnIzuRFydHGCzJPjODBcbY7AeEgDz
DdkT4DsrlwgqEWnJb/HuCYaXYMJLh393fVclZpyJLmAT8Fi+BIgXUa5J/9pHUhwb
QCwmK0dik+FeWdg04EtGktZ1mWGNt6QWFI3iKnSEByXI0g7iz+38ym4xnxON9tHP
cMx4RDR0doi6tirIhiQVdhGCjqfNDnU9tjOkXPYwiQQf8W4mGbinTA2pQ4wZPZd9
R8phRjMwUTP8QScMLUuCxaGoI41SNEm8G4zYAa8REz4tmiSe6e/qNyPcjLPEBr/F
vsBprYvTNUgLNqdexzUDs8rIYIVrf/zNeBKskC4xZi123s6w0DIrhl2XD53QH3NI
yqoPuukm5iPrpKw+pR6RRC/rUi0XviUcwZTv7Y3l1FY=
-----END CERTIFICATE-----
