Certificate:
    Data:
        Version: 3 (0x2)
        Serial Number: 458 (0x1ca)
        Signature Algorithm: sha256WithRSAEncryption
        Issuer: C=CH, ST=Thurgau, L=Kefikon, O=guengel.ch, CN=CA guengel.ch/emailAddress=postmaster@guengel.ch
        Validity
            Not Before: Feb 11 07:07:03 2022 GMT
            Not After : Mar 18 07:07:03 2023 GMT
        Subject: C=CH, ST=Thurgau, O=guengel.ch, CN=dash.virtual.kruemel.home/emailAddress=postmaster@guengel.ch
        Subject Public Key Info:
            Public Key Algorithm: rsaEncryption
                RSA Public-Key: (2048 bit)
                Modulus:
                    00:b6:77:48:50:4f:77:ff:d2:46:54:b6:0d:4b:9e:
                    fb:f0:ef:02:51:08:4d:fa:95:97:3f:19:21:fe:a3:
                    c9:3a:1b:bb:fa:87:b7:63:70:25:bb:e2:59:0a:5d:
                    ee:bd:30:1a:2c:e8:d7:5f:95:43:31:7e:28:e4:33:
                    a1:60:c8:0b:1a:cc:b7:b8:36:4c:20:8c:aa:3a:62:
                    f7:c0:de:a5:1a:80:2c:3a:6b:63:8f:07:24:bd:c7:
                    e0:ca:08:f6:97:dc:b1:37:0f:e9:31:36:07:02:37:
                    64:5b:a0:bd:18:49:21:b0:a5:a4:f8:b9:d3:ab:78:
                    2d:1f:11:94:ea:cb:28:57:64:40:66:8d:ce:b6:a9:
                    b0:f3:91:5e:37:ff:e7:7e:f3:76:82:d4:31:1b:c3:
                    91:b6:06:a0:ae:b1:1e:f1:50:75:70:6b:29:78:09:
                    ff:6f:cf:34:c8:f3:62:b2:52:5c:e2:7f:23:d4:69:
                    5f:97:06:fd:6d:6d:41:26:7a:38:4d:3b:08:a0:94:
                    49:6c:d6:9f:8a:c7:15:86:2c:07:88:a8:17:55:30:
                    52:bc:0c:19:bd:8c:cd:14:93:0f:6e:28:91:df:e5:
                    97:5c:40:a3:fa:fb:13:20:7a:3b:84:8e:ad:a1:53:
                    fb:c9:21:b3:73:8e:15:e8:9a:ee:cb:53:21:9d:d4:
                    89:99
                Exponent: 65537 (0x10001)
        X509v3 extensions:
            X509v3 Key Usage: 
                Digital Signature, Key Encipherment, Key Agreement
            X509v3 Basic Constraints: critical
                CA:FALSE
            Netscape Cert Type: 
                SSL Client, SSL Server
            X509v3 Extended Key Usage: 
                TLS Web Server Authentication, TLS Web Client Authentication
            X509v3 Subject Alternative Name: 
                DNS:dash.virtual.kruemel.home
            X509v3 Subject Key Identifier: 
                CE:BB:43:A2:EE:EC:EC:42:16:B1:E0:B6:B2:E0:D6:33:A4:8B:EF:F6
            X509v3 Authority Key Identifier: 
                keyid:D6:88:F1:AA:C1:2B:09:8C:B8:5C:9D:CE:DF:57:39:62:26:10:20:90
                DirName:/C=CH/ST=Thurgau/L=Kefikon/O=guengel.ch/CN=CA guengel.ch/emailAddress=postmaster@guengel.ch
                serial:E5:25:3B:A6:77:BD:CB:FF

    Signature Algorithm: sha256WithRSAEncryption
         3f:71:46:3a:dd:9a:3c:c1:fc:58:74:b4:7c:42:72:b8:97:a8:
         85:7b:15:e6:ff:ce:36:63:da:f3:25:09:8f:e1:78:06:37:49:
         5f:bc:20:97:99:7f:84:ae:41:65:4d:01:92:9e:4c:e9:61:62:
         85:b5:8f:d6:f8:56:1d:e2:e1:3e:d1:cf:49:aa:1d:20:a8:74:
         6c:d0:43:30:4e:7b:4b:d0:2f:30:4b:b7:47:9c:8c:a7:50:83:
         02:82:45:6e:c8:ce:a1:a5:1f:8b:0e:6e:9b:30:13:7b:1f:d8:
         b9:21:53:78:ed:9f:c1:d8:79:c1:a9:1f:f8:0e:36:ee:92:01:
         d6:5c:7d:87:ed:14:7f:51:37:82:11:e0:7b:38:9f:21:01:d5:
         19:0c:6e:93:88:e4:c2:37:ac:5b:32:2e:87:3d:a5:15:24:04:
         12:66:44:be:d1:44:06:28:eb:56:49:a7:ca:09:6c:8e:54:df:
         6c:f2:90:28:4d:e6:6a:09:a5:25:22:c5:90:9f:89:8f:c0:5a:
         fd:5a:55:24:db:e6:6f:dc:e6:ff:09:f2:2a:8b:0a:a7:3d:21:
         8e:dc:52:b8:18:cc:2f:71:32:13:c3:2d:0d:ae:c4:6f:fd:95:
         1d:17:fe:de:bb:5b:2e:2c:3a:8d:66:f3:9e:bf:fa:1b:b4:31:
         66:81:4e:80:0c:f2:4d:cd:b7:d1:d2:c9:a5:77:1f:bf:9c:03:
         96:6e:0c:17:eb:32:71:90:f0:df:77:64:61:e3:1c:3e:5e:ca:
         25:8d:c9:aa:83:c8:d1:61:b8:34:72:78:cf:a5:52:02:dd:4b:
         18:5e:f6:e0:8a:e0:84:a7:1d:4b:8c:3e:b2:03:b3:0d:1f:b6:
         fc:95:53:8b:44:f4:b9:22:df:85:87:63:0b:67:0d:ac:fd:12:
         6c:de:59:ae:0a:cd:d2:8b:7e:46:a3:0f:fc:04:55:3c:89:cd:
         98:f6:b6:fe:81:a9:cc:3a:1d:ce:04:2d:50:b1:16:00:a1:85:
         5b:e1:4a:80:b9:ca:d2:ea:00:0d:ee:be:42:f8:e8:d3:82:20:
         05:0e:6b:e1:a0:8b:3a:58:59:bb:40:27:75:87:6f:98:e7:f3:
         ec:0a:d4:0a:9d:da:92:e9:7d:64:e2:37:ab:82:f9:83:a6:4c:
         d6:53:bd:3d:2f:e0:2d:bd:cf:98:33:76:c7:f1:ea:aa:32:6f:
         a0:3b:64:a1:51:f0:25:3d:aa:e3:38:cd:f9:85:8c:ec:fe:e4:
         50:62:ee:f4:a4:6a:04:a5:a9:0b:ec:29:b1:4a:0d:e1:a6:c8:
         7e:15:c6:c2:d0:67:b2:2e:5e:a3:54:cb:f1:a7:37:7f:4a:fd:
         08:cb:a1:80:1e:e4:3b:cd
-----BEGIN CERTIFICATE-----
MIIF0zCCA7ugAwIBAgICAcowDQYJKoZIhvcNAQELBQAwgYQxCzAJBgNVBAYTAkNI
MRAwDgYDVQQIEwdUaHVyZ2F1MRAwDgYDVQQHEwdLZWZpa29uMRMwEQYDVQQKEwpn
dWVuZ2VsLmNoMRYwFAYDVQQDEw1DQSBndWVuZ2VsLmNoMSQwIgYJKoZIhvcNAQkB
FhVwb3N0bWFzdGVyQGd1ZW5nZWwuY2gwHhcNMjIwMjExMDcwNzAzWhcNMjMwMzE4
MDcwNzAzWjB+MQswCQYDVQQGEwJDSDEQMA4GA1UECBMHVGh1cmdhdTETMBEGA1UE
ChMKZ3VlbmdlbC5jaDEiMCAGA1UEAxMZZGFzaC52aXJ0dWFsLmtydWVtZWwuaG9t
ZTEkMCIGCSqGSIb3DQEJARYVcG9zdG1hc3RlckBndWVuZ2VsLmNoMIIBIjANBgkq
hkiG9w0BAQEFAAOCAQ8AMIIBCgKCAQEAtndIUE93/9JGVLYNS5778O8CUQhN+pWX
Pxkh/qPJOhu7+oe3Y3Alu+JZCl3uvTAaLOjXX5VDMX4o5DOhYMgLGsy3uDZMIIyq
OmL3wN6lGoAsOmtjjwckvcfgygj2l9yxNw/pMTYHAjdkW6C9GEkhsKWk+LnTq3gt
HxGU6ssoV2RAZo3Otqmw85FeN//nfvN2gtQxG8ORtgagrrEe8VB1cGspeAn/b880
yPNislJc4n8j1Glflwb9bW1BJno4TTsIoJRJbNafiscVhiwHiKgXVTBSvAwZvYzN
FJMPbiiR3+WXXECj+vsTIHo7hI6toVP7ySGzc44V6Jruy1MhndSJmQIDAQABo4IB
UjCCAU4wCwYDVR0PBAQDAgOoMAwGA1UdEwEB/wQCMAAwEQYJYIZIAYb4QgEBBAQD
AgbAMB0GA1UdJQQWMBQGCCsGAQUFBwMBBggrBgEFBQcDAjAkBgNVHREEHTAbghlk
YXNoLnZpcnR1YWwua3J1ZW1lbC5ob21lMB0GA1UdDgQWBBTOu0Oi7uzsQhax4Lay
4NYzpIvv9jCBuQYDVR0jBIGxMIGugBTWiPGqwSsJjLhcnc7fVzliJhAgkKGBiqSB
hzCBhDELMAkGA1UEBhMCQ0gxEDAOBgNVBAgTB1RodXJnYXUxEDAOBgNVBAcTB0tl
Zmlrb24xEzARBgNVBAoTCmd1ZW5nZWwuY2gxFjAUBgNVBAMTDUNBIGd1ZW5nZWwu
Y2gxJDAiBgkqhkiG9w0BCQEWFXBvc3RtYXN0ZXJAZ3VlbmdlbC5jaIIJAOUlO6Z3
vcv/MA0GCSqGSIb3DQEBCwUAA4ICAQA/cUY63Zo8wfxYdLR8QnK4l6iFexXm/842
Y9rzJQmP4XgGN0lfvCCXmX+ErkFlTQGSnkzpYWKFtY/W+FYd4uE+0c9Jqh0gqHRs
0EMwTntL0C8wS7dHnIynUIMCgkVuyM6hpR+LDm6bMBN7H9i5IVN47Z/B2HnBqR/4
DjbukgHWXH2H7RR/UTeCEeB7OJ8hAdUZDG6TiOTCN6xbMi6HPaUVJAQSZkS+0UQG
KOtWSafKCWyOVN9s8pAoTeZqCaUlIsWQn4mPwFr9WlUk2+Zv3Ob/CfIqiwqnPSGO
3FK4GMwvcTITwy0NrsRv/ZUdF/7eu1suLDqNZvOev/obtDFmgU6ADPJNzbfR0sml
dx+/nAOWbgwX6zJxkPDfd2Rh4xw+Xsoljcmqg8jRYbg0cnjPpVIC3UsYXvbgiuCE
px1LjD6yA7MNH7b8lVOLRPS5It+Fh2MLZw2s/RJs3lmuCs3Si35Gow/8BFU8ic2Y
9rb+ganMOh3OBC1QsRYAoYVb4UqAucrS6gAN7r5C+OjTgiAFDmvhoIs6WFm7QCd1
h2+Y5/PsCtQKndqS6X1k4jergvmDpkzWU709L+Atvc+YM3bH8eqqMm+gO2ShUfAl
ParjOM35hYzs/uRQYu70pGoEpakL7CmxSg3hpsh+FcbC0GeyLl6jVMvxpzd/Sv0I
y6GAHuQ7zQ==
-----END CERTIFICATE-----
