Certificate:
    Data:
        Version: 3 (0x2)
        Serial Number: 425 (0x1a9)
        Signature Algorithm: sha256WithRSAEncryption
        Issuer: C=CH, ST=Thurgau, L=Kefikon, O=guengel.ch, CN=CA guengel.ch/emailAddress=postmaster@guengel.ch
        Validity
            Not Before: Feb  6 15:12:54 2021 GMT
            Not After : Mar 13 15:12:54 2022 GMT
        Subject: C=CH, ST=Thurgau, O=guengel.ch, CN=db-1/emailAddress=postmaster@guengel.ch
        Subject Public Key Info:
            Public Key Algorithm: rsaEncryption
                RSA Public-Key: (2048 bit)
                Modulus:
                    00:ad:2a:cf:53:bb:d1:e2:fd:41:47:a4:b0:67:1f:
                    9b:74:78:71:27:c6:80:c2:81:75:1a:68:2e:9e:54:
                    dd:3e:bf:3e:e5:42:4e:61:fa:5c:85:e1:a8:7f:e8:
                    fa:01:75:a0:8a:8d:10:47:43:1b:74:1a:12:5d:9e:
                    6b:0b:f5:94:f6:b3:e5:d1:d1:f2:ba:7d:18:f0:a0:
                    a0:2a:9a:cd:72:a3:02:9f:94:96:67:d0:84:e4:0f:
                    1d:c7:82:0f:30:e3:5d:b8:ba:1d:13:59:65:4b:93:
                    d8:fb:7a:d5:0b:16:69:80:d2:68:e1:74:54:e6:82:
                    87:ad:4a:e1:db:05:32:15:1c:a8:69:3d:98:ee:7d:
                    d3:d3:7f:78:ca:fe:38:63:a1:17:10:8a:11:94:d2:
                    b0:99:7a:52:76:4d:37:2b:20:58:54:b2:cf:85:9d:
                    cd:ba:a3:09:ad:39:d4:d0:ab:58:27:da:63:1e:67:
                    7b:6b:77:ab:68:11:ea:9b:30:dd:0f:ce:1f:ad:e5:
                    08:20:0e:cd:57:53:7c:4b:40:c3:2d:b4:e7:94:41:
                    f7:23:f6:56:69:86:ad:bc:6a:d2:ad:ba:9b:58:9b:
                    d3:fa:af:29:fa:53:f1:d9:a6:51:b7:81:71:a0:3b:
                    94:b9:2e:7f:a9:1f:a6:69:24:fd:aa:6a:a9:b7:69:
                    98:89
                Exponent: 65537 (0x10001)
        X509v3 extensions:
            X509v3 Key Usage: 
                Digital Signature, Key Encipherment, Key Agreement
            X509v3 Basic Constraints: critical
                CA:FALSE
            Netscape Cert Type: 
                SSL Client, SSL Server
            X509v3 Extended Key Usage: 
                TLS Web Server Authentication, TLS Web Client Authentication
            X509v3 Subject Alternative Name: 
                DNS:db-1
            X509v3 Subject Key Identifier: 
                72:28:7D:E1:46:AC:3F:5C:27:C7:DE:F7:78:D3:99:00:11:03:38:B9
            X509v3 Authority Key Identifier: 
                keyid:D6:88:F1:AA:C1:2B:09:8C:B8:5C:9D:CE:DF:57:39:62:26:10:20:90
                DirName:/C=CH/ST=Thurgau/L=Kefikon/O=guengel.ch/CN=CA guengel.ch/emailAddress=postmaster@guengel.ch
                serial:E5:25:3B:A6:77:BD:CB:FF

    Signature Algorithm: sha256WithRSAEncryption
         99:46:b2:cb:51:74:98:9a:1e:98:46:8c:af:73:93:27:8f:a6:
         42:7a:0d:d3:51:97:7f:61:80:d2:2d:57:cf:31:fb:9f:a0:58:
         25:cd:cc:5e:e3:dc:31:bb:3d:85:55:85:ef:89:63:72:ef:36:
         f9:98:72:09:35:48:17:e3:dc:9f:b7:d1:4c:73:2c:dc:f8:13:
         7f:4a:f5:9e:ee:4f:5d:4c:a8:5f:b9:78:7d:0e:d7:94:fd:a8:
         f9:64:5b:aa:21:1f:b0:d4:c5:d7:4a:3b:a4:59:dd:33:24:cf:
         9d:2d:41:17:04:d6:29:d1:56:08:a9:0d:62:bf:92:1f:46:a9:
         03:37:b7:3b:b5:fe:4a:6e:3d:46:eb:dc:00:ea:b3:c4:6c:16:
         9c:ed:9a:a1:df:6c:b9:a6:7f:35:6c:bf:eb:af:fb:26:03:fa:
         8b:8e:fd:44:12:ba:8c:d0:83:28:e9:64:00:c7:99:c3:71:5b:
         68:fb:df:c8:7c:80:d5:c9:31:16:d8:f0:35:3d:86:36:32:c3:
         77:c9:d0:40:b0:ef:5e:54:46:ab:80:54:77:b7:8e:8c:96:46:
         ed:63:86:ab:bb:1b:c8:f5:be:c7:7b:2b:cb:8b:fe:f2:8d:75:
         98:4e:23:d1:e8:6a:00:81:77:1c:2c:21:6b:44:b1:de:f5:dd:
         01:a6:9f:2a:cd:28:eb:9d:3d:be:cf:d4:93:1c:1f:32:94:b3:
         34:7f:13:36:f1:a2:8d:04:21:9c:d7:9c:a4:2c:92:9c:92:d8:
         67:6f:93:6d:88:b2:2b:ce:4f:7e:78:96:7b:2f:8e:4a:64:a1:
         27:61:e9:21:d2:9d:e8:70:4b:f3:c3:bb:68:b4:38:0e:77:61:
         18:0d:6d:2c:43:67:39:57:da:f2:55:9a:eb:36:75:9d:cc:80:
         e4:c6:ce:25:ac:45:a5:f1:1b:bd:45:a4:64:28:d8:6c:d8:f5:
         03:d9:ef:62:0a:2d:ac:59:a2:68:58:96:89:11:c5:0f:15:1c:
         b5:3e:9d:29:5b:ae:9a:75:30:92:50:8c:24:7e:5e:5b:11:ef:
         67:a5:f9:5d:33:dd:5a:91:0d:c2:a2:7b:26:45:56:97:f9:ee:
         96:1f:79:71:de:29:ea:0d:49:4b:9c:ac:cc:b4:2b:b2:60:ad:
         da:17:56:86:a8:f0:07:91:7c:3a:44:75:dc:91:c4:b8:71:f8:
         ef:5a:0a:1e:9e:83:72:19:97:f0:27:00:aa:68:8d:a5:54:2b:
         8d:3e:8a:49:81:3b:80:0a:ee:3c:5c:94:41:13:90:e7:38:3c:
         7b:68:b6:33:eb:1d:58:a4:22:8d:46:d9:ee:2b:73:f0:f0:71:
         45:f0:16:64:d1:d9:18:39
-----BEGIN CERTIFICATE-----
MIIFqTCCA5GgAwIBAgICAakwDQYJKoZIhvcNAQELBQAwgYQxCzAJBgNVBAYTAkNI
MRAwDgYDVQQIEwdUaHVyZ2F1MRAwDgYDVQQHEwdLZWZpa29uMRMwEQYDVQQKEwpn
dWVuZ2VsLmNoMRYwFAYDVQQDEw1DQSBndWVuZ2VsLmNoMSQwIgYJKoZIhvcNAQkB
FhVwb3N0bWFzdGVyQGd1ZW5nZWwuY2gwHhcNMjEwMjA2MTUxMjU0WhcNMjIwMzEz
MTUxMjU0WjBpMQswCQYDVQQGEwJDSDEQMA4GA1UECBMHVGh1cmdhdTETMBEGA1UE
ChMKZ3VlbmdlbC5jaDENMAsGA1UEAxMEZGItMTEkMCIGCSqGSIb3DQEJARYVcG9z
dG1hc3RlckBndWVuZ2VsLmNoMIIBIjANBgkqhkiG9w0BAQEFAAOCAQ8AMIIBCgKC
AQEArSrPU7vR4v1BR6SwZx+bdHhxJ8aAwoF1GmgunlTdPr8+5UJOYfpcheGof+j6
AXWgio0QR0MbdBoSXZ5rC/WU9rPl0dHyun0Y8KCgKprNcqMCn5SWZ9CE5A8dx4IP
MONduLodE1llS5PY+3rVCxZpgNJo4XRU5oKHrUrh2wUyFRyoaT2Y7n3T0394yv44
Y6EXEIoRlNKwmXpSdk03KyBYVLLPhZ3NuqMJrTnU0KtYJ9pjHmd7a3eraBHqmzDd
D84freUIIA7NV1N8S0DDLbTnlEH3I/ZWaYatvGrSrbqbWJvT+q8p+lPx2aZRt4Fx
oDuUuS5/qR+maST9qmqpt2mYiQIDAQABo4IBPTCCATkwCwYDVR0PBAQDAgOoMAwG
A1UdEwEB/wQCMAAwEQYJYIZIAYb4QgEBBAQDAgbAMB0GA1UdJQQWMBQGCCsGAQUF
BwMBBggrBgEFBQcDAjAPBgNVHREECDAGggRkYi0xMB0GA1UdDgQWBBRyKH3hRqw/
XCfH3vd405kAEQM4uTCBuQYDVR0jBIGxMIGugBTWiPGqwSsJjLhcnc7fVzliJhAg
kKGBiqSBhzCBhDELMAkGA1UEBhMCQ0gxEDAOBgNVBAgTB1RodXJnYXUxEDAOBgNV
BAcTB0tlZmlrb24xEzARBgNVBAoTCmd1ZW5nZWwuY2gxFjAUBgNVBAMTDUNBIGd1
ZW5nZWwuY2gxJDAiBgkqhkiG9w0BCQEWFXBvc3RtYXN0ZXJAZ3VlbmdlbC5jaIIJ
AOUlO6Z3vcv/MA0GCSqGSIb3DQEBCwUAA4ICAQCZRrLLUXSYmh6YRoyvc5Mnj6ZC
eg3TUZd/YYDSLVfPMfufoFglzcxe49wxuz2FVYXviWNy7zb5mHIJNUgX49yft9FM
cyzc+BN/SvWe7k9dTKhfuXh9DteU/aj5ZFuqIR+w1MXXSjukWd0zJM+dLUEXBNYp
0VYIqQ1iv5IfRqkDN7c7tf5Kbj1G69wA6rPEbBac7Zqh32y5pn81bL/rr/smA/qL
jv1EErqM0IMo6WQAx5nDcVto+9/IfIDVyTEW2PA1PYY2MsN3ydBAsO9eVEargFR3
t46MlkbtY4aruxvI9b7HeyvLi/7yjXWYTiPR6GoAgXccLCFrRLHe9d0Bpp8qzSjr
nT2+z9STHB8ylLM0fxM28aKNBCGc15ykLJKckthnb5NtiLIrzk9+eJZ7L45KZKEn
Yekh0p3ocEvzw7totDgOd2EYDW0sQ2c5V9ryVZrrNnWdzIDkxs4lrEWl8Ru9RaRk
KNhs2PUD2e9iCi2sWaJoWJaJEcUPFRy1Pp0pW66adTCSUIwkfl5bEe9npfldM91a
kQ3ConsmRVaX+e6WH3lx3inqDUlLnKzMtCuyYK3aF1aGqPAHkXw6RHXckcS4cfjv
WgoenoNyGZfwJwCqaI2lVCuNPopJgTuACu48XJRBE5DnODx7aLYz6x1YpCKNRtnu
K3Pw8HFF8BZk0dkYOQ==
-----END CERTIFICATE-----
