Certificate:
    Data:
        Version: 3 (0x2)
        Serial Number: 478 (0x1de)
        Signature Algorithm: sha256WithRSAEncryption
        Issuer: C=CH, ST=Thurgau, L=Kefikon, O=guengel.ch, CN=CA guengel.ch/emailAddress=postmaster@guengel.ch
        Validity
            Not Before: Feb 11 07:07:33 2022 GMT
            Not After : Mar 18 07:07:33 2023 GMT
        Subject: C=CH, ST=Thurgau, O=guengel.ch, CN=db-1/emailAddress=postmaster@guengel.ch
        Subject Public Key Info:
            Public Key Algorithm: rsaEncryption
                RSA Public-Key: (2048 bit)
                Modulus:
                    00:ad:2a:cf:53:bb:d1:e2:fd:41:47:a4:b0:67:1f:
                    9b:74:78:71:27:c6:80:c2:81:75:1a:68:2e:9e:54:
                    dd:3e:bf:3e:e5:42:4e:61:fa:5c:85:e1:a8:7f:e8:
                    fa:01:75:a0:8a:8d:10:47:43:1b:74:1a:12:5d:9e:
                    6b:0b:f5:94:f6:b3:e5:d1:d1:f2:ba:7d:18:f0:a0:
                    a0:2a:9a:cd:72:a3:02:9f:94:96:67:d0:84:e4:0f:
                    1d:c7:82:0f:30:e3:5d:b8:ba:1d:13:59:65:4b:93:
                    d8:fb:7a:d5:0b:16:69:80:d2:68:e1:74:54:e6:82:
                    87:ad:4a:e1:db:05:32:15:1c:a8:69:3d:98:ee:7d:
                    d3:d3:7f:78:ca:fe:38:63:a1:17:10:8a:11:94:d2:
                    b0:99:7a:52:76:4d:37:2b:20:58:54:b2:cf:85:9d:
                    cd:ba:a3:09:ad:39:d4:d0:ab:58:27:da:63:1e:67:
                    7b:6b:77:ab:68:11:ea:9b:30:dd:0f:ce:1f:ad:e5:
                    08:20:0e:cd:57:53:7c:4b:40:c3:2d:b4:e7:94:41:
                    f7:23:f6:56:69:86:ad:bc:6a:d2:ad:ba:9b:58:9b:
                    d3:fa:af:29:fa:53:f1:d9:a6:51:b7:81:71:a0:3b:
                    94:b9:2e:7f:a9:1f:a6:69:24:fd:aa:6a:a9:b7:69:
                    98:89
                Exponent: 65537 (0x10001)
        X509v3 extensions:
            X509v3 Key Usage: 
                Digital Signature, Key Encipherment, Key Agreement
            X509v3 Basic Constraints: critical
                CA:FALSE
            Netscape Cert Type: 
                SSL Client, SSL Server
            X509v3 Extended Key Usage: 
                TLS Web Server Authentication, TLS Web Client Authentication
            X509v3 Subject Alternative Name: 
                DNS:db-1
            X509v3 Subject Key Identifier: 
                72:28:7D:E1:46:AC:3F:5C:27:C7:DE:F7:78:D3:99:00:11:03:38:B9
            X509v3 Authority Key Identifier: 
                keyid:D6:88:F1:AA:C1:2B:09:8C:B8:5C:9D:CE:DF:57:39:62:26:10:20:90
                DirName:/C=CH/ST=Thurgau/L=Kefikon/O=guengel.ch/CN=CA guengel.ch/emailAddress=postmaster@guengel.ch
                serial:E5:25:3B:A6:77:BD:CB:FF

    Signature Algorithm: sha256WithRSAEncryption
         ab:7c:5a:07:f4:96:3f:c4:b5:7a:7c:79:ed:fb:9c:f7:fa:bf:
         9a:93:b6:f3:d2:67:6e:c6:a1:c2:01:e3:07:dd:c3:77:05:6d:
         22:83:78:39:5d:04:96:c9:cd:e6:fd:ad:5c:ef:cf:a4:f6:35:
         6b:f1:45:0d:75:7c:38:8e:c2:8d:4a:6c:ab:89:69:d9:3f:f6:
         31:4a:02:fa:64:79:94:ef:cc:50:c9:c5:a9:f4:10:99:f1:c9:
         ab:29:a7:47:10:3b:ee:79:01:2e:14:22:be:4d:b0:cc:1b:37:
         a0:14:c0:90:ed:f4:d1:56:d2:0b:f7:1f:31:43:28:09:8d:16:
         40:e5:47:ce:98:ed:16:25:7c:1d:e0:2b:ba:ac:94:de:66:de:
         8e:ab:29:7c:10:03:bf:4c:37:45:4a:11:70:bc:b9:13:af:c8:
         e6:df:55:9f:4b:8a:63:84:03:a3:70:5b:31:57:b3:cd:15:98:
         90:72:c8:74:8f:47:c4:36:6c:52:80:16:62:d1:31:72:09:7d:
         70:ec:c6:82:a5:1f:2f:c5:7b:36:2e:30:0a:04:27:84:30:0f:
         94:66:77:c5:d0:91:a3:d3:13:d2:e3:f2:91:5a:87:60:65:0c:
         17:34:b7:c0:77:73:ae:f0:0b:a3:42:5d:c2:28:90:26:44:c1:
         03:14:bd:68:b0:9d:49:38:8d:a7:9a:b4:b0:d6:d7:ab:a9:36:
         50:89:16:e1:a8:11:dc:fd:57:03:e2:6c:72:65:7e:b1:c7:49:
         1a:b4:3f:f4:53:d1:8c:f6:7a:c3:47:e3:d4:f0:ab:dc:0f:9b:
         7d:57:c9:bf:d3:05:e8:d4:66:d0:f4:19:0a:29:95:1c:29:a7:
         a3:a2:a6:c7:07:0d:62:80:b4:88:4b:b5:97:fb:69:d9:4d:b8:
         21:8a:6e:05:a3:8e:35:da:e9:e3:cc:56:f3:5a:e8:e0:e4:c6:
         c2:cf:ab:f8:da:ba:f0:90:4d:fa:2a:05:f7:e9:15:a4:35:4b:
         51:45:8b:1e:65:97:d8:ae:a4:76:12:c1:af:2f:49:1b:56:8c:
         53:a7:49:da:cc:99:a1:33:2d:df:28:fe:8e:a6:a1:76:c6:cf:
         4e:81:42:a8:24:c1:a7:ca:58:ac:21:a9:94:c2:1b:14:2c:16:
         52:b3:4b:5a:e5:73:9d:a7:b2:7d:d3:a7:6b:ae:0f:e6:e0:d0:
         42:6a:6b:39:7a:20:23:f7:32:9e:21:cc:de:75:d5:2b:b4:2a:
         67:08:f5:e3:01:9b:30:d5:dc:fd:33:f3:ca:50:aa:fe:77:94:
         bc:20:10:5c:97:f0:e3:ab:f4:23:e5:94:d3:1e:8f:9f:80:be:
         00:82:5d:39:66:a5:d9:ec
-----BEGIN CERTIFICATE-----
MIIFqTCCA5GgAwIBAgICAd4wDQYJKoZIhvcNAQELBQAwgYQxCzAJBgNVBAYTAkNI
MRAwDgYDVQQIEwdUaHVyZ2F1MRAwDgYDVQQHEwdLZWZpa29uMRMwEQYDVQQKEwpn
dWVuZ2VsLmNoMRYwFAYDVQQDEw1DQSBndWVuZ2VsLmNoMSQwIgYJKoZIhvcNAQkB
FhVwb3N0bWFzdGVyQGd1ZW5nZWwuY2gwHhcNMjIwMjExMDcwNzMzWhcNMjMwMzE4
MDcwNzMzWjBpMQswCQYDVQQGEwJDSDEQMA4GA1UECBMHVGh1cmdhdTETMBEGA1UE
ChMKZ3VlbmdlbC5jaDENMAsGA1UEAxMEZGItMTEkMCIGCSqGSIb3DQEJARYVcG9z
dG1hc3RlckBndWVuZ2VsLmNoMIIBIjANBgkqhkiG9w0BAQEFAAOCAQ8AMIIBCgKC
AQEArSrPU7vR4v1BR6SwZx+bdHhxJ8aAwoF1GmgunlTdPr8+5UJOYfpcheGof+j6
AXWgio0QR0MbdBoSXZ5rC/WU9rPl0dHyun0Y8KCgKprNcqMCn5SWZ9CE5A8dx4IP
MONduLodE1llS5PY+3rVCxZpgNJo4XRU5oKHrUrh2wUyFRyoaT2Y7n3T0394yv44
Y6EXEIoRlNKwmXpSdk03KyBYVLLPhZ3NuqMJrTnU0KtYJ9pjHmd7a3eraBHqmzDd
D84freUIIA7NV1N8S0DDLbTnlEH3I/ZWaYatvGrSrbqbWJvT+q8p+lPx2aZRt4Fx
oDuUuS5/qR+maST9qmqpt2mYiQIDAQABo4IBPTCCATkwCwYDVR0PBAQDAgOoMAwG
A1UdEwEB/wQCMAAwEQYJYIZIAYb4QgEBBAQDAgbAMB0GA1UdJQQWMBQGCCsGAQUF
BwMBBggrBgEFBQcDAjAPBgNVHREECDAGggRkYi0xMB0GA1UdDgQWBBRyKH3hRqw/
XCfH3vd405kAEQM4uTCBuQYDVR0jBIGxMIGugBTWiPGqwSsJjLhcnc7fVzliJhAg
kKGBiqSBhzCBhDELMAkGA1UEBhMCQ0gxEDAOBgNVBAgTB1RodXJnYXUxEDAOBgNV
BAcTB0tlZmlrb24xEzARBgNVBAoTCmd1ZW5nZWwuY2gxFjAUBgNVBAMTDUNBIGd1
ZW5nZWwuY2gxJDAiBgkqhkiG9w0BCQEWFXBvc3RtYXN0ZXJAZ3VlbmdlbC5jaIIJ
AOUlO6Z3vcv/MA0GCSqGSIb3DQEBCwUAA4ICAQCrfFoH9JY/xLV6fHnt+5z3+r+a
k7bz0mduxqHCAeMH3cN3BW0ig3g5XQSWyc3m/a1c78+k9jVr8UUNdXw4jsKNSmyr
iWnZP/YxSgL6ZHmU78xQycWp9BCZ8cmrKadHEDvueQEuFCK+TbDMGzegFMCQ7fTR
VtIL9x8xQygJjRZA5UfOmO0WJXwd4Cu6rJTeZt6Oqyl8EAO/TDdFShFwvLkTr8jm
31WfS4pjhAOjcFsxV7PNFZiQcsh0j0fENmxSgBZi0TFyCX1w7MaCpR8vxXs2LjAK
BCeEMA+UZnfF0JGj0xPS4/KRWodgZQwXNLfAd3Ou8AujQl3CKJAmRMEDFL1osJ1J
OI2nmrSw1terqTZQiRbhqBHc/VcD4mxyZX6xx0katD/0U9GM9nrDR+PU8KvcD5t9
V8m/0wXo1GbQ9BkKKZUcKaejoqbHBw1igLSIS7WX+2nZTbghim4Fo4412unjzFbz
Wujg5MbCz6v42rrwkE36KgX36RWkNUtRRYseZZfYrqR2EsGvL0kbVoxTp0nazJmh
My3fKP6OpqF2xs9OgUKoJMGnylisIamUwhsULBZSs0ta5XOdp7J906drrg/m4NBC
ams5eiAj9zKeIczeddUrtCpnCPXjAZsw1dz9M/PKUKr+d5S8IBBcl/Djq/Qj5ZTT
Ho+fgL4Agl05ZqXZ7A==
-----END CERTIFICATE-----
