Certificate:
    Data:
        Version: 3 (0x2)
        Serial Number: 382 (0x17e)
        Signature Algorithm: sha256WithRSAEncryption
        Issuer: C=CH, ST=Thurgau, L=Kefikon, O=guengel.ch, CN=CA guengel.ch/emailAddress=postmaster@guengel.ch
        Validity
            Not Before: Jan  3 10:08:58 2020 GMT
            Not After : Feb  6 10:08:58 2021 GMT
        Subject: C=CH, ST=Thurgau, O=guengel.ch, CN=db-1/emailAddress=postmaster@guengel.ch
        Subject Public Key Info:
            Public Key Algorithm: rsaEncryption
                RSA Public-Key: (2048 bit)
                Modulus:
                    00:ad:2a:cf:53:bb:d1:e2:fd:41:47:a4:b0:67:1f:
                    9b:74:78:71:27:c6:80:c2:81:75:1a:68:2e:9e:54:
                    dd:3e:bf:3e:e5:42:4e:61:fa:5c:85:e1:a8:7f:e8:
                    fa:01:75:a0:8a:8d:10:47:43:1b:74:1a:12:5d:9e:
                    6b:0b:f5:94:f6:b3:e5:d1:d1:f2:ba:7d:18:f0:a0:
                    a0:2a:9a:cd:72:a3:02:9f:94:96:67:d0:84:e4:0f:
                    1d:c7:82:0f:30:e3:5d:b8:ba:1d:13:59:65:4b:93:
                    d8:fb:7a:d5:0b:16:69:80:d2:68:e1:74:54:e6:82:
                    87:ad:4a:e1:db:05:32:15:1c:a8:69:3d:98:ee:7d:
                    d3:d3:7f:78:ca:fe:38:63:a1:17:10:8a:11:94:d2:
                    b0:99:7a:52:76:4d:37:2b:20:58:54:b2:cf:85:9d:
                    cd:ba:a3:09:ad:39:d4:d0:ab:58:27:da:63:1e:67:
                    7b:6b:77:ab:68:11:ea:9b:30:dd:0f:ce:1f:ad:e5:
                    08:20:0e:cd:57:53:7c:4b:40:c3:2d:b4:e7:94:41:
                    f7:23:f6:56:69:86:ad:bc:6a:d2:ad:ba:9b:58:9b:
                    d3:fa:af:29:fa:53:f1:d9:a6:51:b7:81:71:a0:3b:
                    94:b9:2e:7f:a9:1f:a6:69:24:fd:aa:6a:a9:b7:69:
                    98:89
                Exponent: 65537 (0x10001)
        X509v3 extensions:
            X509v3 Basic Constraints: 
                CA:FALSE
            Netscape Comment: 
                OpenSSL Generated Certificate
            X509v3 Subject Key Identifier: 
                72:28:7D:E1:46:AC:3F:5C:27:C7:DE:F7:78:D3:99:00:11:03:38:B9
            X509v3 Authority Key Identifier: 
                keyid:D6:88:F1:AA:C1:2B:09:8C:B8:5C:9D:CE:DF:57:39:62:26:10:20:90
                DirName:/C=CH/ST=Thurgau/L=Kefikon/O=guengel.ch/CN=CA guengel.ch/emailAddress=postmaster@guengel.ch
                serial:E5:25:3B:A6:77:BD:CB:FF

    Signature Algorithm: sha256WithRSAEncryption
         6f:6b:35:69:9d:42:ea:58:3b:b2:9e:30:21:26:b7:79:36:b1:
         ae:7c:54:d6:b1:2b:49:58:18:f1:8d:8b:d1:ec:0e:27:fb:9b:
         9d:4d:5e:e1:68:02:ec:dc:79:65:84:7f:bf:0f:0c:e1:fc:f6:
         0a:d7:0f:91:f3:4d:3b:bd:7c:fd:17:9d:e3:48:93:81:d7:81:
         3c:31:63:e9:3c:eb:70:8b:42:e5:d7:9a:4c:76:30:cd:8c:24:
         64:04:aa:2b:0e:2a:a4:32:ad:bb:ca:e0:cb:18:de:b9:8b:c9:
         d7:e6:bc:6d:8b:c2:07:bd:93:dc:bd:a6:d5:7f:72:61:51:37:
         e6:7e:bb:03:00:03:f6:2f:ac:c1:4a:6c:26:0b:c7:fc:c4:4b:
         16:6a:20:4b:5f:71:42:d4:99:5e:bc:03:5b:13:49:6a:de:35:
         8d:2c:e2:c5:71:e5:d4:c3:61:66:1c:1a:d6:a5:6e:35:65:98:
         c2:7c:21:4e:da:d2:a9:60:32:9e:2a:9e:3c:2c:cf:21:13:41:
         64:fb:a9:20:a5:b5:06:4a:91:be:7a:20:2e:68:ba:49:38:3d:
         83:4a:52:80:b6:c4:41:d9:4e:ad:38:d9:76:69:96:23:23:2b:
         ec:2e:45:99:c2:bf:fa:19:b1:ec:b5:c2:29:d4:52:0f:ad:c6:
         39:d0:bd:d9:7f:ef:02:ac:84:2e:c5:69:a9:fa:ca:69:cc:72:
         c2:30:d6:89:90:77:d2:18:fc:67:6a:19:6d:1d:85:e8:db:cf:
         37:7b:b9:87:cf:4b:0c:5e:a8:6a:c6:8e:ce:21:f9:17:ec:7c:
         31:8a:c7:b9:90:84:56:24:9a:b8:37:e6:c5:6b:56:f3:00:fa:
         16:b9:ff:4d:49:d9:c4:e3:3b:05:0d:0b:f0:45:c1:12:83:b9:
         b6:0d:c4:e3:d1:53:9e:ee:56:ea:f6:0c:84:f6:f7:c8:3a:51:
         83:90:1b:75:42:25:99:a6:43:26:d3:4f:2f:45:73:b9:91:0e:
         2f:28:ee:22:2d:b7:69:81:c6:e3:42:8b:a6:2d:72:1d:4e:2c:
         39:59:4e:28:43:35:43:a0:1c:e2:3f:49:44:ad:c0:8a:5d:bf:
         20:b5:45:d1:eb:42:15:27:37:9d:9d:b8:89:f2:81:50:4c:f5:
         14:2d:26:88:81:8b:d0:99:94:94:68:a3:01:0f:30:6b:5a:84:
         93:d5:f4:19:66:c4:86:3b:57:0f:d1:9b:72:9a:23:35:a6:ca:
         23:65:44:4f:da:2d:ab:e4:33:90:14:bd:77:11:ad:16:b9:e6:
         d2:ba:d7:a6:bc:55:88:b5:46:32:96:43:46:73:ae:0e:2d:91:
         63:e6:19:d2:1d:d2:46:06
-----BEGIN CERTIFICATE-----
MIIFhDCCA2ygAwIBAgICAX4wDQYJKoZIhvcNAQELBQAwgYQxCzAJBgNVBAYTAkNI
MRAwDgYDVQQIEwdUaHVyZ2F1MRAwDgYDVQQHEwdLZWZpa29uMRMwEQYDVQQKEwpn
dWVuZ2VsLmNoMRYwFAYDVQQDEw1DQSBndWVuZ2VsLmNoMSQwIgYJKoZIhvcNAQkB
FhVwb3N0bWFzdGVyQGd1ZW5nZWwuY2gwHhcNMjAwMTAzMTAwODU4WhcNMjEwMjA2
MTAwODU4WjBpMQswCQYDVQQGEwJDSDEQMA4GA1UECBMHVGh1cmdhdTETMBEGA1UE
ChMKZ3VlbmdlbC5jaDENMAsGA1UEAxMEZGItMTEkMCIGCSqGSIb3DQEJARYVcG9z
dG1hc3RlckBndWVuZ2VsLmNoMIIBIjANBgkqhkiG9w0BAQEFAAOCAQ8AMIIBCgKC
AQEArSrPU7vR4v1BR6SwZx+bdHhxJ8aAwoF1GmgunlTdPr8+5UJOYfpcheGof+j6
AXWgio0QR0MbdBoSXZ5rC/WU9rPl0dHyun0Y8KCgKprNcqMCn5SWZ9CE5A8dx4IP
MONduLodE1llS5PY+3rVCxZpgNJo4XRU5oKHrUrh2wUyFRyoaT2Y7n3T0394yv44
Y6EXEIoRlNKwmXpSdk03KyBYVLLPhZ3NuqMJrTnU0KtYJ9pjHmd7a3eraBHqmzDd
D84freUIIA7NV1N8S0DDLbTnlEH3I/ZWaYatvGrSrbqbWJvT+q8p+lPx2aZRt4Fx
oDuUuS5/qR+maST9qmqpt2mYiQIDAQABo4IBGDCCARQwCQYDVR0TBAIwADAsBglg
hkgBhvhCAQ0EHxYdT3BlblNTTCBHZW5lcmF0ZWQgQ2VydGlmaWNhdGUwHQYDVR0O
BBYEFHIofeFGrD9cJ8fe93jTmQARAzi5MIG5BgNVHSMEgbEwga6AFNaI8arBKwmM
uFydzt9XOWImECCQoYGKpIGHMIGEMQswCQYDVQQGEwJDSDEQMA4GA1UECBMHVGh1
cmdhdTEQMA4GA1UEBxMHS2VmaWtvbjETMBEGA1UEChMKZ3VlbmdlbC5jaDEWMBQG
A1UEAxMNQ0EgZ3VlbmdlbC5jaDEkMCIGCSqGSIb3DQEJARYVcG9zdG1hc3RlckBn
dWVuZ2VsLmNoggkA5SU7pne9y/8wDQYJKoZIhvcNAQELBQADggIBAG9rNWmdQupY
O7KeMCEmt3k2sa58VNaxK0lYGPGNi9HsDif7m51NXuFoAuzceWWEf78PDOH89grX
D5HzTTu9fP0XneNIk4HXgTwxY+k863CLQuXXmkx2MM2MJGQEqisOKqQyrbvK4MsY
3rmLydfmvG2Lwge9k9y9ptV/cmFRN+Z+uwMAA/YvrMFKbCYLx/zESxZqIEtfcULU
mV68A1sTSWreNY0s4sVx5dTDYWYcGtalbjVlmMJ8IU7a0qlgMp4qnjwszyETQWT7
qSCltQZKkb56IC5oukk4PYNKUoC2xEHZTq042XZpliMjK+wuRZnCv/oZsey1winU
Ug+txjnQvdl/7wKshC7Faan6ymnMcsIw1omQd9IY/GdqGW0dhejbzzd7uYfPSwxe
qGrGjs4h+RfsfDGKx7mQhFYkmrg35sVrVvMA+ha5/01J2cTjOwUNC/BFwRKDubYN
xOPRU57uVur2DIT298g6UYOQG3VCJZmmQybTTy9Fc7mRDi8o7iItt2mBxuNCi6Yt
ch1OLDlZTihDNUOgHOI/SUStwIpdvyC1RdHrQhUnN52duInygVBM9RQtJoiBi9CZ
lJRoowEPMGtahJPV9BlmxIY7Vw/Rm3KaIzWmyiNlRE/aLavkM5AUvXcRrRa55tK6
16a8VYi1RjKWQ0Zzrg4tkWPmGdId0kYG
-----END CERTIFICATE-----
