Certificate:
    Data:
        Version: 3 (0x2)
        Serial Number:
            6d:f2:4f:cb:9c:64:db:5a:15:c6:c2:65:12:95:09:80:1f:8b:94:e0
        Signature Algorithm: sha256WithRSAEncryption
        Issuer: C=CH, ST=Thurgau, L=Kefikon, O=guengel.ch, CN=CA 2022/emailAddress=postmaster@guengel.ch
        Validity
            Not Before: Dec 30 08:48:53 2023 GMT
            Not After : Feb  2 08:48:53 2025 GMT
        Subject: C=CH, ST=Thurgau, O=guengel.ch, CN=db-1/emailAddress=postmaster@guengel.ch
        Subject Public Key Info:
            Public Key Algorithm: rsaEncryption
                RSA Public-Key: (2048 bit)
                Modulus:
                    00:bd:86:fc:c0:9f:8a:f5:99:72:82:bf:31:01:1a:
                    9c:c0:66:f8:f3:78:7b:f7:32:3d:dd:c2:0f:b1:d8:
                    b8:8f:af:30:9f:6b:0f:48:51:d3:f1:50:34:2e:bc:
                    6b:00:67:6b:01:f3:3f:81:77:4d:5a:89:34:c6:67:
                    b9:03:5d:06:e5:4a:3f:45:db:5a:dc:64:5b:be:1b:
                    e6:fb:0b:ca:07:c4:e9:bb:2e:7d:c3:4a:b0:bd:07:
                    be:36:69:0f:03:2d:d9:6c:6d:4f:ae:ea:33:6a:d6:
                    66:6a:49:a4:27:ff:62:14:f4:1f:64:73:57:76:7e:
                    2e:82:9a:48:56:b3:53:37:17:03:1c:b8:30:4e:1c:
                    e6:ed:80:31:7f:a1:c2:61:74:35:4d:08:c3:f9:6c:
                    c9:e6:4f:93:25:f0:41:51:3d:26:af:43:61:0d:9e:
                    4c:46:82:46:43:b3:c4:a9:87:c6:07:58:75:1f:bc:
                    99:5d:14:a6:78:5a:ba:31:82:b8:a0:b2:7e:08:e9:
                    3a:0d:a1:64:94:f4:b1:f7:e3:f7:e2:af:4c:11:58:
                    46:33:21:fd:63:6d:7f:b1:3e:b9:6d:64:f7:86:b0:
                    7d:6d:fe:0e:c9:06:50:82:10:50:23:ea:ea:e6:9f:
                    dc:f9:97:fd:29:38:7f:d0:dc:42:78:95:87:84:d6:
                    83:f5
                Exponent: 65537 (0x10001)
        X509v3 extensions:
            X509v3 Basic Constraints: critical
                CA:FALSE
            X509v3 Key Usage: 
                Digital Signature, Key Encipherment, Key Agreement
            X509v3 Subject Key Identifier: 
                D7:C8:47:3F:57:0E:23:D3:00:49:6F:3C:A9:E2:85:DF:18:A9:D6:51
            X509v3 Authority Key Identifier: 
                keyid:22:20:0D:51:40:61:42:BE:DD:BA:D9:C9:C1:77:B6:93:28:C3:99:EC
                DirName:/C=CH/ST=Thurgau/L=Kefikon/O=guengel.ch/CN=CA 2022/emailAddress=postmaster@guengel.ch
                serial:6D:29:90:54:E9:17:E9:C2:6A:E6:52:AD:84:4E:30:8E:6E:57:FB:1C

            Netscape Cert Type: 
                SSL Client, SSL Server
            X509v3 Extended Key Usage: 
                TLS Web Server Authentication, TLS Web Client Authentication
    Signature Algorithm: sha256WithRSAEncryption
         73:76:19:0e:e2:58:a5:5f:4c:a4:e4:fa:e4:a9:f5:0c:61:f5:
         7b:14:43:5a:30:fe:66:ab:ba:e8:d5:35:ab:ce:d1:cd:d5:25:
         36:e1:db:80:f0:27:af:66:31:ac:07:ca:dd:d5:9c:0f:bd:02:
         05:87:b9:62:be:9d:d6:3c:ad:42:6c:6d:41:90:76:77:44:e0:
         dc:c7:e9:c1:8c:25:d0:1b:f1:74:f7:85:4c:20:82:d2:6d:b1:
         ad:d7:ed:d9:b8:9f:7b:82:ae:16:5f:1e:c0:8d:d7:54:9a:f6:
         1c:f4:00:29:5b:29:6f:9d:6e:71:bf:c0:81:8b:f4:41:1b:fe:
         cd:b6:fd:7b:3b:25:0b:7f:fe:b3:79:c1:d5:96:58:5b:60:7c:
         64:64:48:2e:da:07:9c:f4:66:e0:53:cc:8c:6f:09:66:04:f8:
         54:c8:5f:d9:5e:86:b3:2f:31:6e:86:b8:00:a8:9b:71:5a:df:
         41:3b:ae:57:30:32:86:d4:2a:c8:df:bb:6c:da:05:42:e4:d3:
         ef:9f:b1:00:06:ad:ef:cc:78:a0:e2:cd:6c:b5:1c:53:f8:2f:
         0f:a8:3d:e0:3a:eb:71:a5:54:76:41:9e:94:f1:cc:3f:5d:d0:
         e2:9c:15:29:10:44:74:5a:43:23:93:36:80:4a:b3:6d:51:38:
         a2:3c:76:79:f5:23:3e:fe:7a:e3:46:56:56:15:c3:00:f2:47:
         f4:48:f6:8d:41:2b:71:6e:d9:41:81:2f:66:57:52:2a:af:19:
         f5:31:aa:e7:f1:9e:7f:02:06:25:14:9c:83:2a:3b:95:d3:4b:
         3b:95:bf:7a:84:0e:11:b7:da:27:86:ce:46:e6:80:d6:fe:ac:
         c5:23:26:bf:91:44:64:05:5d:95:fe:e6:3d:f5:54:df:c2:c8:
         ee:76:24:70:bc:0e:32:9a:23:4d:64:cb:86:cb:08:e2:84:63:
         7f:cf:a0:49:e3:5b:4f:3c:86:d0:23:d3:9c:39:a7:20:6b:e3:
         67:bb:12:2b:2e:63:0a:aa:d8:ae:8c:06:8a:fe:ed:0d:58:e1:
         09:1d:bb:ac:80:9f:9f:73:f7:a9:fa:f8:58:28:14:d8:12:bf:
         00:5b:6e:80:0c:27:01:0c:c6:e2:08:a3:8e:90:ba:8d:2d:71:
         20:2d:c1:29:a0:b9:67:21:10:a1:7b:d3:66:0d:c2:27:df:71:
         08:2a:2f:5e:3f:78:b9:fe:fb:5a:db:ba:ed:6a:fd:34:87:23:
         ec:03:f1:af:85:96:1a:bc:fd:d3:16:5e:97:07:00:ab:b1:df:
         fe:04:3f:ab:04:ef:5e:e7:f7:26:42:2b:61:7f:44:aa:c7:45:
         47:ce:56:48:c0:43:8c:64
-----BEGIN CERTIFICATE-----
MIIFpzCCA4+gAwIBAgIUbfJPy5xk21oVxsJlEpUJgB+LlOAwDQYJKoZIhvcNAQEL
BQAwfjELMAkGA1UEBhMCQ0gxEDAOBgNVBAgTB1RodXJnYXUxEDAOBgNVBAcTB0tl
Zmlrb24xEzARBgNVBAoTCmd1ZW5nZWwuY2gxEDAOBgNVBAMTB0NBIDIwMjIxJDAi
BgkqhkiG9w0BCQEWFXBvc3RtYXN0ZXJAZ3VlbmdlbC5jaDAeFw0yMzEyMzAwODQ4
NTNaFw0yNTAyMDIwODQ4NTNaMGkxCzAJBgNVBAYTAkNIMRAwDgYDVQQIEwdUaHVy
Z2F1MRMwEQYDVQQKEwpndWVuZ2VsLmNoMQ0wCwYDVQQDEwRkYi0xMSQwIgYJKoZI
hvcNAQkBFhVwb3N0bWFzdGVyQGd1ZW5nZWwuY2gwggEiMA0GCSqGSIb3DQEBAQUA
A4IBDwAwggEKAoIBAQC9hvzAn4r1mXKCvzEBGpzAZvjzeHv3Mj3dwg+x2LiPrzCf
aw9IUdPxUDQuvGsAZ2sB8z+Bd01aiTTGZ7kDXQblSj9F21rcZFu+G+b7C8oHxOm7
Ln3DSrC9B742aQ8DLdlsbU+u6jNq1mZqSaQn/2IU9B9kc1d2fi6CmkhWs1M3FwMc
uDBOHObtgDF/ocJhdDVNCMP5bMnmT5Ml8EFRPSavQ2ENnkxGgkZDs8Sph8YHWHUf
vJldFKZ4Wroxgrigsn4I6ToNoWSU9LH34/fir0wRWEYzIf1jbX+xPrltZPeGsH1t
/g7JBlCCEFAj6urmn9z5l/0pOH/Q3EJ4lYeE1oP1AgMBAAGjggEwMIIBLDAMBgNV
HRMBAf8EAjAAMAsGA1UdDwQEAwIDqDAdBgNVHQ4EFgQU18hHP1cOI9MASW88qeKF
3xip1lEwgb0GA1UdIwSBtTCBsoAUIiANUUBhQr7dutnJwXe2kyjDmeyhgYOkgYAw
fjELMAkGA1UEBhMCQ0gxEDAOBgNVBAgTB1RodXJnYXUxEDAOBgNVBAcTB0tlZmlr
b24xEzARBgNVBAoTCmd1ZW5nZWwuY2gxEDAOBgNVBAMTB0NBIDIwMjIxJDAiBgkq
hkiG9w0BCQEWFXBvc3RtYXN0ZXJAZ3VlbmdlbC5jaIIUbSmQVOkX6cJq5lKthE4w
jm5X+xwwEQYJYIZIAYb4QgEBBAQDAgbAMB0GA1UdJQQWMBQGCCsGAQUFBwMBBggr
BgEFBQcDAjANBgkqhkiG9w0BAQsFAAOCAgEAc3YZDuJYpV9MpOT65Kn1DGH1exRD
WjD+Zqu66NU1q87RzdUlNuHbgPAnr2YxrAfK3dWcD70CBYe5Yr6d1jytQmxtQZB2
d0Tg3MfpwYwl0BvxdPeFTCCC0m2xrdft2bife4KuFl8ewI3XVJr2HPQAKVspb51u
cb/AgYv0QRv+zbb9ezslC3/+s3nB1ZZYW2B8ZGRILtoHnPRm4FPMjG8JZgT4VMhf
2V6Gsy8xboa4AKibcVrfQTuuVzAyhtQqyN+7bNoFQuTT75+xAAat78x4oOLNbLUc
U/gvD6g94DrrcaVUdkGelPHMP13Q4pwVKRBEdFpDI5M2gEqzbVE4ojx2efUjPv56
40ZWVhXDAPJH9Ej2jUErcW7ZQYEvZldSKq8Z9TGq5/GefwIGJRScgyo7ldNLO5W/
eoQOEbfaJ4bORuaA1v6sxSMmv5FEZAVdlf7mPfVU38LI7nYkcLwOMpojTWTLhssI
4oRjf8+gSeNbTzyG0CPTnDmnIGvjZ7sSKy5jCqrYrowGiv7tDVjhCR27rICfn3P3
qfr4WCgU2BK/AFtugAwnAQzG4gijjpC6jS1xIC3BKaC5ZyEQoXvTZg3CJ99xCCov
Xj94uf77Wtu67Wr9NIcj7APxr4WWGrz90xZelwcAq7Hf/gQ/qwTvXuf3JkIrYX9E
qsdFR85WSMBDjGQ=
-----END CERTIFICATE-----
