Certificate:
    Data:
        Version: 3 (0x2)
        Serial Number:
            71:28:38:c8:5e:82:f7:43:6e:60:44:65:a3:76:e7:9b:49:7d:28:39
        Signature Algorithm: sha256WithRSAEncryption
        Issuer: C=CH, ST=Thurgau, L=Kefikon, O=guengel.ch, CN=CA 2022/emailAddress=postmaster@guengel.ch
        Validity
            Not Before: Jan  3 14:04:35 2025 GMT
            Not After : Feb  7 14:04:35 2026 GMT
        Subject: C=CH, ST=Thurgau, O=guengel.ch, CN=db-1/emailAddress=postmaster@guengel.ch
        Subject Public Key Info:
            Public Key Algorithm: rsaEncryption
                Public-Key: (2048 bit)
                Modulus:
                    00:bd:86:fc:c0:9f:8a:f5:99:72:82:bf:31:01:1a:
                    9c:c0:66:f8:f3:78:7b:f7:32:3d:dd:c2:0f:b1:d8:
                    b8:8f:af:30:9f:6b:0f:48:51:d3:f1:50:34:2e:bc:
                    6b:00:67:6b:01:f3:3f:81:77:4d:5a:89:34:c6:67:
                    b9:03:5d:06:e5:4a:3f:45:db:5a:dc:64:5b:be:1b:
                    e6:fb:0b:ca:07:c4:e9:bb:2e:7d:c3:4a:b0:bd:07:
                    be:36:69:0f:03:2d:d9:6c:6d:4f:ae:ea:33:6a:d6:
                    66:6a:49:a4:27:ff:62:14:f4:1f:64:73:57:76:7e:
                    2e:82:9a:48:56:b3:53:37:17:03:1c:b8:30:4e:1c:
                    e6:ed:80:31:7f:a1:c2:61:74:35:4d:08:c3:f9:6c:
                    c9:e6:4f:93:25:f0:41:51:3d:26:af:43:61:0d:9e:
                    4c:46:82:46:43:b3:c4:a9:87:c6:07:58:75:1f:bc:
                    99:5d:14:a6:78:5a:ba:31:82:b8:a0:b2:7e:08:e9:
                    3a:0d:a1:64:94:f4:b1:f7:e3:f7:e2:af:4c:11:58:
                    46:33:21:fd:63:6d:7f:b1:3e:b9:6d:64:f7:86:b0:
                    7d:6d:fe:0e:c9:06:50:82:10:50:23:ea:ea:e6:9f:
                    dc:f9:97:fd:29:38:7f:d0:dc:42:78:95:87:84:d6:
                    83:f5
                Exponent: 65537 (0x10001)
        X509v3 extensions:
            X509v3 Basic Constraints: critical
                CA:FALSE
            X509v3 Key Usage: 
                Digital Signature, Key Encipherment, Key Agreement
            X509v3 Subject Key Identifier: 
                D7:C8:47:3F:57:0E:23:D3:00:49:6F:3C:A9:E2:85:DF:18:A9:D6:51
            X509v3 Authority Key Identifier: 
                keyid:22:20:0D:51:40:61:42:BE:DD:BA:D9:C9:C1:77:B6:93:28:C3:99:EC
                DirName:/C=CH/ST=Thurgau/L=Kefikon/O=guengel.ch/CN=CA 2022/emailAddress=postmaster@guengel.ch
                serial:6D:29:90:54:E9:17:E9:C2:6A:E6:52:AD:84:4E:30:8E:6E:57:FB:1C
            Netscape Cert Type: 
                SSL Client, SSL Server
            X509v3 Extended Key Usage: 
                TLS Web Server Authentication, TLS Web Client Authentication
    Signature Algorithm: sha256WithRSAEncryption
    Signature Value:
        4c:b1:57:67:d9:13:07:41:e6:30:f2:c5:ee:37:a6:83:66:fa:
        c4:9c:30:0f:3b:77:a2:3f:99:db:aa:23:2a:20:30:69:be:52:
        5b:9b:b8:76:e2:9b:a7:7a:1a:8a:f4:47:18:45:90:e0:b4:5e:
        9c:a6:6f:97:76:aa:d6:67:de:0f:42:25:42:ac:c3:8b:52:b9:
        7e:9d:b4:72:7a:0b:25:da:81:eb:40:d0:d0:9f:a1:99:f1:99:
        db:10:93:f7:43:b8:9e:69:8a:72:79:e7:ca:00:ce:91:6d:cf:
        87:ce:5e:b6:65:20:3a:cc:86:44:a9:8b:bb:e5:92:8c:e9:46:
        eb:cd:ef:dd:47:12:c5:53:9b:a3:98:8c:cf:90:cd:aa:af:2f:
        aa:97:ac:71:4c:9c:51:75:bb:df:93:07:70:56:c9:31:39:4d:
        a2:9a:f4:86:52:5c:37:cb:32:29:ff:c1:6d:7f:f5:9f:bc:2b:
        51:47:48:35:fa:ea:09:69:0a:60:a7:45:66:a6:8d:0f:96:c4:
        f5:7b:c3:db:64:e9:18:b1:2a:b5:ae:fd:30:68:f6:c1:6a:be:
        2b:ed:05:1e:cf:ed:06:64:94:2b:7d:30:a2:c1:99:e1:16:fe:
        48:1d:6f:9b:8d:c0:83:75:d9:7c:da:b5:e7:fc:e3:66:3c:c9:
        2a:20:93:ac:01:34:70:57:a4:8b:ac:35:e1:7b:f2:a6:0f:89:
        b3:98:84:4c:1b:e4:45:65:6f:ce:84:a2:ca:92:98:89:a7:c4:
        4a:92:05:f5:c2:66:0a:0b:c7:42:26:a4:06:5a:70:87:f8:0a:
        75:8c:3a:81:b9:c1:07:08:22:af:e1:15:ec:51:0c:6f:0c:05:
        9b:f7:c7:da:54:a4:93:c3:32:6d:0a:8b:9e:af:8f:3a:03:de:
        97:6c:f0:6f:d3:92:14:12:c9:07:01:e9:79:28:f7:03:b2:a3:
        d0:df:f3:18:13:27:66:fb:24:97:db:24:aa:24:6e:7e:0a:7b:
        16:43:9b:77:a3:69:38:55:44:80:cc:5b:0a:a4:69:c0:82:62:
        bb:c1:93:1e:c0:eb:b8:ad:77:cb:f0:19:88:51:88:a6:49:a6:
        7f:51:4b:e9:f6:40:1e:3d:86:9b:c9:50:f2:d0:3b:09:ee:f6:
        53:29:87:19:ec:61:55:76:c2:63:b2:ab:fa:4c:ed:0d:d3:90:
        39:c4:e8:cf:10:ac:3a:10:da:d8:e0:fb:4c:0e:f3:78:7d:c5:
        40:7d:f7:52:5a:29:8e:da:4a:dd:28:ad:88:ee:2c:f0:5f:75:
        87:76:45:53:3e:c9:7f:e9:1b:ae:3d:ef:af:f5:2b:9a:19:9b:
        b8:11:08:8b:d7:62:c4:b2
-----BEGIN CERTIFICATE-----
MIIFpzCCA4+gAwIBAgIUcSg4yF6C90NuYERlo3bnm0l9KDkwDQYJKoZIhvcNAQEL
BQAwfjELMAkGA1UEBhMCQ0gxEDAOBgNVBAgTB1RodXJnYXUxEDAOBgNVBAcTB0tl
Zmlrb24xEzARBgNVBAoTCmd1ZW5nZWwuY2gxEDAOBgNVBAMTB0NBIDIwMjIxJDAi
BgkqhkiG9w0BCQEWFXBvc3RtYXN0ZXJAZ3VlbmdlbC5jaDAeFw0yNTAxMDMxNDA0
MzVaFw0yNjAyMDcxNDA0MzVaMGkxCzAJBgNVBAYTAkNIMRAwDgYDVQQIEwdUaHVy
Z2F1MRMwEQYDVQQKEwpndWVuZ2VsLmNoMQ0wCwYDVQQDEwRkYi0xMSQwIgYJKoZI
hvcNAQkBFhVwb3N0bWFzdGVyQGd1ZW5nZWwuY2gwggEiMA0GCSqGSIb3DQEBAQUA
A4IBDwAwggEKAoIBAQC9hvzAn4r1mXKCvzEBGpzAZvjzeHv3Mj3dwg+x2LiPrzCf
aw9IUdPxUDQuvGsAZ2sB8z+Bd01aiTTGZ7kDXQblSj9F21rcZFu+G+b7C8oHxOm7
Ln3DSrC9B742aQ8DLdlsbU+u6jNq1mZqSaQn/2IU9B9kc1d2fi6CmkhWs1M3FwMc
uDBOHObtgDF/ocJhdDVNCMP5bMnmT5Ml8EFRPSavQ2ENnkxGgkZDs8Sph8YHWHUf
vJldFKZ4Wroxgrigsn4I6ToNoWSU9LH34/fir0wRWEYzIf1jbX+xPrltZPeGsH1t
/g7JBlCCEFAj6urmn9z5l/0pOH/Q3EJ4lYeE1oP1AgMBAAGjggEwMIIBLDAMBgNV
HRMBAf8EAjAAMAsGA1UdDwQEAwIDqDAdBgNVHQ4EFgQU18hHP1cOI9MASW88qeKF
3xip1lEwgb0GA1UdIwSBtTCBsoAUIiANUUBhQr7dutnJwXe2kyjDmeyhgYOkgYAw
fjELMAkGA1UEBhMCQ0gxEDAOBgNVBAgTB1RodXJnYXUxEDAOBgNVBAcTB0tlZmlr
b24xEzARBgNVBAoTCmd1ZW5nZWwuY2gxEDAOBgNVBAMTB0NBIDIwMjIxJDAiBgkq
hkiG9w0BCQEWFXBvc3RtYXN0ZXJAZ3VlbmdlbC5jaIIUbSmQVOkX6cJq5lKthE4w
jm5X+xwwEQYJYIZIAYb4QgEBBAQDAgbAMB0GA1UdJQQWMBQGCCsGAQUFBwMBBggr
BgEFBQcDAjANBgkqhkiG9w0BAQsFAAOCAgEATLFXZ9kTB0HmMPLF7jemg2b6xJww
Dzt3oj+Z26ojKiAwab5SW5u4duKbp3oaivRHGEWQ4LRenKZvl3aq1mfeD0IlQqzD
i1K5fp20cnoLJdqB60DQ0J+hmfGZ2xCT90O4nmmKcnnnygDOkW3Ph85etmUgOsyG
RKmLu+WSjOlG683v3UcSxVObo5iMz5DNqq8vqpescUycUXW735MHcFbJMTlNopr0
hlJcN8syKf/BbX/1n7wrUUdINfrqCWkKYKdFZqaND5bE9XvD22TpGLEqta79MGj2
wWq+K+0FHs/tBmSUK30wosGZ4Rb+SB1vm43Ag3XZfNq15/zjZjzJKiCTrAE0cFek
i6w14Xvypg+Js5iETBvkRWVvzoSiypKYiafESpIF9cJmCgvHQiakBlpwh/gKdYw6
gbnBBwgir+EV7FEMbwwFm/fH2lSkk8MybQqLnq+POgPel2zwb9OSFBLJBwHpeSj3
A7Kj0N/zGBMnZvskl9skqiRufgp7FkObd6NpOFVEgMxbCqRpwIJiu8GTHsDruK13
y/AZiFGIpkmmf1FL6fZAHj2Gm8lQ8tA7Ce72UymHGexhVXbCY7Kr+kztDdOQOcTo
zxCsOhDa2OD7TA7zeH3FQH33UlopjtpK3SitiO4s8F91h3ZFUz7Jf+kbrj3vr/Ur
mhmbuBEIi9dixLI=
-----END CERTIFICATE-----
