Certificate:
    Data:
        Version: 3 (0x2)
        Serial Number:
            03:17:8a:c6:c6:4e:56:76:0b:b5:a1:5e:08:af:d7:7f:7b:87:2e:a5
        Signature Algorithm: sha256WithRSAEncryption
        Issuer: C=CH, ST=Thurgau, L=Kefikon, O=guengel.ch, CN=CA 2022/emailAddress=postmaster@guengel.ch
        Validity
            Not Before: Feb 28 06:38:35 2023 GMT
            Not After : Apr  3 06:38:35 2024 GMT
        Subject: C=CH, ST=Thurgau, O=guengel.ch, CN=db-1/emailAddress=postmaster@guengel.ch
        Subject Public Key Info:
            Public Key Algorithm: rsaEncryption
                RSA Public-Key: (2048 bit)
                Modulus:
                    00:bd:86:fc:c0:9f:8a:f5:99:72:82:bf:31:01:1a:
                    9c:c0:66:f8:f3:78:7b:f7:32:3d:dd:c2:0f:b1:d8:
                    b8:8f:af:30:9f:6b:0f:48:51:d3:f1:50:34:2e:bc:
                    6b:00:67:6b:01:f3:3f:81:77:4d:5a:89:34:c6:67:
                    b9:03:5d:06:e5:4a:3f:45:db:5a:dc:64:5b:be:1b:
                    e6:fb:0b:ca:07:c4:e9:bb:2e:7d:c3:4a:b0:bd:07:
                    be:36:69:0f:03:2d:d9:6c:6d:4f:ae:ea:33:6a:d6:
                    66:6a:49:a4:27:ff:62:14:f4:1f:64:73:57:76:7e:
                    2e:82:9a:48:56:b3:53:37:17:03:1c:b8:30:4e:1c:
                    e6:ed:80:31:7f:a1:c2:61:74:35:4d:08:c3:f9:6c:
                    c9:e6:4f:93:25:f0:41:51:3d:26:af:43:61:0d:9e:
                    4c:46:82:46:43:b3:c4:a9:87:c6:07:58:75:1f:bc:
                    99:5d:14:a6:78:5a:ba:31:82:b8:a0:b2:7e:08:e9:
                    3a:0d:a1:64:94:f4:b1:f7:e3:f7:e2:af:4c:11:58:
                    46:33:21:fd:63:6d:7f:b1:3e:b9:6d:64:f7:86:b0:
                    7d:6d:fe:0e:c9:06:50:82:10:50:23:ea:ea:e6:9f:
                    dc:f9:97:fd:29:38:7f:d0:dc:42:78:95:87:84:d6:
                    83:f5
                Exponent: 65537 (0x10001)
        X509v3 extensions:
            X509v3 Basic Constraints: critical
                CA:FALSE
            X509v3 Key Usage: 
                Digital Signature, Key Encipherment, Key Agreement
            X509v3 Subject Key Identifier: 
                D7:C8:47:3F:57:0E:23:D3:00:49:6F:3C:A9:E2:85:DF:18:A9:D6:51
            X509v3 Authority Key Identifier: 
                keyid:22:20:0D:51:40:61:42:BE:DD:BA:D9:C9:C1:77:B6:93:28:C3:99:EC
                DirName:/C=CH/ST=Thurgau/L=Kefikon/O=guengel.ch/CN=CA 2022/emailAddress=postmaster@guengel.ch
                serial:6D:29:90:54:E9:17:E9:C2:6A:E6:52:AD:84:4E:30:8E:6E:57:FB:1C

            Netscape Cert Type: 
                SSL Client, SSL Server
            X509v3 Extended Key Usage: 
                TLS Web Server Authentication, TLS Web Client Authentication
    Signature Algorithm: sha256WithRSAEncryption
         b9:d7:56:19:95:6a:58:61:fa:0e:ec:15:d7:ce:86:d0:ce:eb:
         92:16:77:f2:c0:cc:91:40:96:bd:14:6c:d8:ba:93:ed:09:26:
         18:71:be:1a:8d:6b:7d:1e:70:1b:bb:ed:24:23:65:95:f3:71:
         79:16:2d:9d:cc:92:34:ff:b9:2f:7e:32:1e:14:34:9c:38:9a:
         3a:5f:a6:6e:f7:48:5a:ea:38:c7:3d:0b:46:0a:d4:0d:fe:38:
         28:19:82:cb:44:04:6f:dc:fb:60:ff:23:00:d9:90:09:8a:a2:
         95:e5:7f:ac:06:84:df:b6:32:eb:36:c1:1a:a4:c2:b0:a3:fb:
         8d:ff:d0:92:21:3b:b3:cc:ff:31:25:df:74:f9:00:4d:c6:45:
         03:d5:83:47:e6:19:14:a1:7e:28:df:89:4d:dd:ee:85:b4:41:
         ae:f1:d6:13:66:0b:d2:0a:1f:15:24:f4:41:6c:d3:86:44:a5:
         d3:2e:56:72:a9:57:f2:02:43:6a:6f:33:3c:6d:1c:f3:d4:6d:
         e1:03:02:9f:2e:d5:cb:82:32:da:a3:e6:54:42:b9:32:ba:16:
         3c:72:dd:ad:27:cf:8a:fb:b7:c2:e5:c1:60:5a:f7:20:9f:83:
         92:18:14:04:4e:cd:96:d0:b5:cf:ba:b5:71:27:c2:7b:ca:b1:
         9f:66:67:5e:38:bf:1a:a7:d1:05:0a:db:7e:70:bc:46:0c:f8:
         05:25:fa:4b:7d:bf:65:bb:d8:ec:0a:fb:53:45:94:24:c3:6e:
         d6:41:09:77:e4:76:3b:17:49:ed:06:de:a6:22:05:8c:0f:96:
         79:66:0a:dc:dc:91:17:84:7f:3a:bf:0f:ee:5b:21:09:2f:d4:
         e7:5f:01:28:6c:56:56:45:29:f3:19:ac:f9:dc:6f:82:18:af:
         6b:0d:c1:63:88:e3:e5:db:ae:38:b2:b3:3f:20:ac:60:7b:5f:
         6d:1d:3d:cd:46:36:91:8b:51:86:dd:be:67:3d:7a:f4:5e:0c:
         9f:4f:95:3c:a7:f2:d6:23:85:1c:fb:c3:51:a2:24:90:86:ae:
         eb:47:82:a8:b5:e4:3a:ef:a4:18:c1:f9:de:e6:7d:03:87:64:
         eb:e0:d8:c9:cb:2a:08:ea:49:05:b5:12:02:2b:cc:56:9b:61:
         ca:3e:86:55:48:fa:fe:9d:80:22:5a:b4:33:93:90:ae:38:aa:
         ae:ef:ff:74:77:78:bf:79:6d:3a:20:9e:1c:c3:97:40:fc:4f:
         db:03:94:49:2f:66:c6:d6:f6:25:18:de:a5:72:26:5e:79:68:
         6e:98:77:a6:c4:eb:0a:1f:20:2e:75:76:0d:f5:a8:da:2a:d1:
         5e:6f:48:0e:fa:fe:25:26
-----BEGIN CERTIFICATE-----
MIIFpzCCA4+gAwIBAgIUAxeKxsZOVnYLtaFeCK/Xf3uHLqUwDQYJKoZIhvcNAQEL
BQAwfjELMAkGA1UEBhMCQ0gxEDAOBgNVBAgTB1RodXJnYXUxEDAOBgNVBAcTB0tl
Zmlrb24xEzARBgNVBAoTCmd1ZW5nZWwuY2gxEDAOBgNVBAMTB0NBIDIwMjIxJDAi
BgkqhkiG9w0BCQEWFXBvc3RtYXN0ZXJAZ3VlbmdlbC5jaDAeFw0yMzAyMjgwNjM4
MzVaFw0yNDA0MDMwNjM4MzVaMGkxCzAJBgNVBAYTAkNIMRAwDgYDVQQIEwdUaHVy
Z2F1MRMwEQYDVQQKEwpndWVuZ2VsLmNoMQ0wCwYDVQQDEwRkYi0xMSQwIgYJKoZI
hvcNAQkBFhVwb3N0bWFzdGVyQGd1ZW5nZWwuY2gwggEiMA0GCSqGSIb3DQEBAQUA
A4IBDwAwggEKAoIBAQC9hvzAn4r1mXKCvzEBGpzAZvjzeHv3Mj3dwg+x2LiPrzCf
aw9IUdPxUDQuvGsAZ2sB8z+Bd01aiTTGZ7kDXQblSj9F21rcZFu+G+b7C8oHxOm7
Ln3DSrC9B742aQ8DLdlsbU+u6jNq1mZqSaQn/2IU9B9kc1d2fi6CmkhWs1M3FwMc
uDBOHObtgDF/ocJhdDVNCMP5bMnmT5Ml8EFRPSavQ2ENnkxGgkZDs8Sph8YHWHUf
vJldFKZ4Wroxgrigsn4I6ToNoWSU9LH34/fir0wRWEYzIf1jbX+xPrltZPeGsH1t
/g7JBlCCEFAj6urmn9z5l/0pOH/Q3EJ4lYeE1oP1AgMBAAGjggEwMIIBLDAMBgNV
HRMBAf8EAjAAMAsGA1UdDwQEAwIDqDAdBgNVHQ4EFgQU18hHP1cOI9MASW88qeKF
3xip1lEwgb0GA1UdIwSBtTCBsoAUIiANUUBhQr7dutnJwXe2kyjDmeyhgYOkgYAw
fjELMAkGA1UEBhMCQ0gxEDAOBgNVBAgTB1RodXJnYXUxEDAOBgNVBAcTB0tlZmlr
b24xEzARBgNVBAoTCmd1ZW5nZWwuY2gxEDAOBgNVBAMTB0NBIDIwMjIxJDAiBgkq
hkiG9w0BCQEWFXBvc3RtYXN0ZXJAZ3VlbmdlbC5jaIIUbSmQVOkX6cJq5lKthE4w
jm5X+xwwEQYJYIZIAYb4QgEBBAQDAgbAMB0GA1UdJQQWMBQGCCsGAQUFBwMBBggr
BgEFBQcDAjANBgkqhkiG9w0BAQsFAAOCAgEAuddWGZVqWGH6DuwV186G0M7rkhZ3
8sDMkUCWvRRs2LqT7QkmGHG+Go1rfR5wG7vtJCNllfNxeRYtncySNP+5L34yHhQ0
nDiaOl+mbvdIWuo4xz0LRgrUDf44KBmCy0QEb9z7YP8jANmQCYqileV/rAaE37Yy
6zbBGqTCsKP7jf/QkiE7s8z/MSXfdPkATcZFA9WDR+YZFKF+KN+JTd3uhbRBrvHW
E2YL0gofFST0QWzThkSl0y5WcqlX8gJDam8zPG0c89Rt4QMCny7Vy4Iy2qPmVEK5
MroWPHLdrSfPivu3wuXBYFr3IJ+DkhgUBE7NltC1z7q1cSfCe8qxn2ZnXji/GqfR
BQrbfnC8Rgz4BSX6S32/ZbvY7Ar7U0WUJMNu1kEJd+R2OxdJ7QbepiIFjA+WeWYK
3NyRF4R/Or8P7lshCS/U518BKGxWVkUp8xms+dxvghivaw3BY4jj5duuOLKzPyCs
YHtfbR09zUY2kYtRht2+Zz169F4Mn0+VPKfy1iOFHPvDUaIkkIau60eCqLXkOu+k
GMH53uZ9A4dk6+DYycsqCOpJBbUSAivMVpthyj6GVUj6/p2AIlq0M5OQrjiqru//
dHd4v3ltOiCeHMOXQPxP2wOUSS9mxtb2JRjepXImXnlobph3psTrCh8gLnV2DfWo
2irRXm9IDvr+JSY=
-----END CERTIFICATE-----
