Certificate:
    Data:
        Version: 3 (0x2)
        Serial Number:
            7a:42:cc:6f:05:e5:dd:f9:3b:27:ab:0f:d1:75:35:6c:de:a2:79:8e
        Signature Algorithm: sha256WithRSAEncryption
        Issuer: C=CH, ST=Thurgau, L=Kefikon, O=guengel.ch, CN=CA 2022/emailAddress=postmaster@guengel.ch
        Validity
            Not Before: Feb 11 13:57:26 2022 GMT
            Not After : Mar 18 13:57:26 2023 GMT
        Subject: C=CH, ST=Thurgau, O=guengel.ch, CN=db-1/emailAddress=postmaster@guengel.ch
        Subject Public Key Info:
            Public Key Algorithm: rsaEncryption
                RSA Public-Key: (2048 bit)
                Modulus:
                    00:bd:86:fc:c0:9f:8a:f5:99:72:82:bf:31:01:1a:
                    9c:c0:66:f8:f3:78:7b:f7:32:3d:dd:c2:0f:b1:d8:
                    b8:8f:af:30:9f:6b:0f:48:51:d3:f1:50:34:2e:bc:
                    6b:00:67:6b:01:f3:3f:81:77:4d:5a:89:34:c6:67:
                    b9:03:5d:06:e5:4a:3f:45:db:5a:dc:64:5b:be:1b:
                    e6:fb:0b:ca:07:c4:e9:bb:2e:7d:c3:4a:b0:bd:07:
                    be:36:69:0f:03:2d:d9:6c:6d:4f:ae:ea:33:6a:d6:
                    66:6a:49:a4:27:ff:62:14:f4:1f:64:73:57:76:7e:
                    2e:82:9a:48:56:b3:53:37:17:03:1c:b8:30:4e:1c:
                    e6:ed:80:31:7f:a1:c2:61:74:35:4d:08:c3:f9:6c:
                    c9:e6:4f:93:25:f0:41:51:3d:26:af:43:61:0d:9e:
                    4c:46:82:46:43:b3:c4:a9:87:c6:07:58:75:1f:bc:
                    99:5d:14:a6:78:5a:ba:31:82:b8:a0:b2:7e:08:e9:
                    3a:0d:a1:64:94:f4:b1:f7:e3:f7:e2:af:4c:11:58:
                    46:33:21:fd:63:6d:7f:b1:3e:b9:6d:64:f7:86:b0:
                    7d:6d:fe:0e:c9:06:50:82:10:50:23:ea:ea:e6:9f:
                    dc:f9:97:fd:29:38:7f:d0:dc:42:78:95:87:84:d6:
                    83:f5
                Exponent: 65537 (0x10001)
        X509v3 extensions:
            X509v3 Basic Constraints: critical
                CA:FALSE
            X509v3 Key Usage: 
                Digital Signature, Key Encipherment, Key Agreement
            X509v3 Subject Key Identifier: 
                D7:C8:47:3F:57:0E:23:D3:00:49:6F:3C:A9:E2:85:DF:18:A9:D6:51
            X509v3 Authority Key Identifier: 
                keyid:22:20:0D:51:40:61:42:BE:DD:BA:D9:C9:C1:77:B6:93:28:C3:99:EC
                DirName:/C=CH/ST=Thurgau/L=Kefikon/O=guengel.ch/CN=CA 2022/emailAddress=postmaster@guengel.ch
                serial:6D:29:90:54:E9:17:E9:C2:6A:E6:52:AD:84:4E:30:8E:6E:57:FB:1C

            Netscape Cert Type: 
                SSL Client, SSL Server
            X509v3 Extended Key Usage: 
                TLS Web Server Authentication, TLS Web Client Authentication
    Signature Algorithm: sha256WithRSAEncryption
         2c:6b:73:37:e2:7b:a2:ae:8d:59:8c:36:1d:3f:e2:0f:ad:71:
         9b:e8:d6:9f:2a:0a:bb:cb:23:ec:71:be:cd:e0:b0:c5:39:f1:
         60:dd:1b:fe:34:34:cc:3e:fc:e4:85:c0:23:53:7d:fa:f2:21:
         6c:0b:7f:63:d1:c3:72:6f:5e:64:32:a2:b9:a4:3b:9e:c7:0e:
         e2:2e:23:19:a2:5f:10:74:c1:e7:5b:25:0c:15:69:87:c2:cb:
         38:36:b9:a8:35:ad:78:a0:42:8c:db:11:0a:e4:b7:48:47:db:
         e4:df:27:2a:f8:7d:83:67:e4:22:d0:45:e8:48:9d:d2:85:24:
         8e:ab:2b:5b:e4:5c:5d:6b:62:50:c7:08:73:5a:71:86:5e:ab:
         79:b9:d5:0e:fc:c1:70:9f:61:4f:f5:d5:86:b6:b1:c7:c5:9e:
         28:c9:9e:af:f6:0e:56:9b:b3:8c:d9:8a:97:57:d1:94:ed:74:
         8d:69:c8:53:42:a1:fc:df:e5:d4:45:26:c8:1d:8e:00:b9:44:
         04:13:cc:3e:60:6e:22:e5:72:fa:bb:92:d4:d7:cb:f1:c6:7b:
         44:ba:9f:55:5e:41:eb:a3:d2:31:c5:be:95:91:40:64:96:9b:
         17:67:96:91:94:58:f7:30:98:48:4b:3b:a6:64:23:19:da:73:
         bb:5f:3c:92:8f:5a:45:bd:3e:ff:e2:69:ff:d4:f2:0c:82:0a:
         17:f1:79:5a:c3:af:45:88:72:68:6d:13:3c:bd:c9:25:56:e9:
         e5:91:0c:be:90:df:eb:61:59:11:56:28:e2:f6:59:41:aa:23:
         91:53:8d:0e:22:2c:20:08:14:69:65:c5:56:3e:f2:8b:d9:73:
         a5:74:94:1f:28:0a:19:a2:1a:f5:cb:8c:3c:34:bb:3a:18:cd:
         e1:9e:d8:dc:19:4d:63:49:95:2d:72:d0:89:e1:3a:4e:09:09:
         80:5e:1f:2a:ae:f0:28:5b:98:f1:cd:28:c8:43:07:d5:29:61:
         ac:cc:cc:d8:50:e6:fd:82:b4:c5:a1:47:b9:10:0e:ef:6b:8c:
         a0:b7:1d:4a:b8:6b:55:7c:69:56:97:b7:af:5d:e0:d2:5b:8a:
         25:98:18:11:ce:5c:b0:47:b1:f7:41:41:9e:69:43:08:fa:b1:
         e4:87:52:d5:c0:e7:78:1a:2f:ad:b4:d3:ff:e0:3f:ea:f3:08:
         ef:84:89:3d:d2:06:53:5e:4b:3e:c0:d2:1f:d4:7e:22:c5:27:
         8e:8e:9d:48:18:bc:ea:63:e5:2e:39:b8:ab:0b:f2:ad:57:e6:
         02:8a:b7:c9:4e:6a:f2:fc:94:61:e3:19:ca:64:bd:62:05:c9:
         b7:2d:c4:2e:82:50:2e:49
-----BEGIN CERTIFICATE-----
MIIFpzCCA4+gAwIBAgIUekLMbwXl3fk7J6sP0XU1bN6ieY4wDQYJKoZIhvcNAQEL
BQAwfjELMAkGA1UEBhMCQ0gxEDAOBgNVBAgTB1RodXJnYXUxEDAOBgNVBAcTB0tl
Zmlrb24xEzARBgNVBAoTCmd1ZW5nZWwuY2gxEDAOBgNVBAMTB0NBIDIwMjIxJDAi
BgkqhkiG9w0BCQEWFXBvc3RtYXN0ZXJAZ3VlbmdlbC5jaDAeFw0yMjAyMTExMzU3
MjZaFw0yMzAzMTgxMzU3MjZaMGkxCzAJBgNVBAYTAkNIMRAwDgYDVQQIEwdUaHVy
Z2F1MRMwEQYDVQQKEwpndWVuZ2VsLmNoMQ0wCwYDVQQDEwRkYi0xMSQwIgYJKoZI
hvcNAQkBFhVwb3N0bWFzdGVyQGd1ZW5nZWwuY2gwggEiMA0GCSqGSIb3DQEBAQUA
A4IBDwAwggEKAoIBAQC9hvzAn4r1mXKCvzEBGpzAZvjzeHv3Mj3dwg+x2LiPrzCf
aw9IUdPxUDQuvGsAZ2sB8z+Bd01aiTTGZ7kDXQblSj9F21rcZFu+G+b7C8oHxOm7
Ln3DSrC9B742aQ8DLdlsbU+u6jNq1mZqSaQn/2IU9B9kc1d2fi6CmkhWs1M3FwMc
uDBOHObtgDF/ocJhdDVNCMP5bMnmT5Ml8EFRPSavQ2ENnkxGgkZDs8Sph8YHWHUf
vJldFKZ4Wroxgrigsn4I6ToNoWSU9LH34/fir0wRWEYzIf1jbX+xPrltZPeGsH1t
/g7JBlCCEFAj6urmn9z5l/0pOH/Q3EJ4lYeE1oP1AgMBAAGjggEwMIIBLDAMBgNV
HRMBAf8EAjAAMAsGA1UdDwQEAwIDqDAdBgNVHQ4EFgQU18hHP1cOI9MASW88qeKF
3xip1lEwgb0GA1UdIwSBtTCBsoAUIiANUUBhQr7dutnJwXe2kyjDmeyhgYOkgYAw
fjELMAkGA1UEBhMCQ0gxEDAOBgNVBAgTB1RodXJnYXUxEDAOBgNVBAcTB0tlZmlr
b24xEzARBgNVBAoTCmd1ZW5nZWwuY2gxEDAOBgNVBAMTB0NBIDIwMjIxJDAiBgkq
hkiG9w0BCQEWFXBvc3RtYXN0ZXJAZ3VlbmdlbC5jaIIUbSmQVOkX6cJq5lKthE4w
jm5X+xwwEQYJYIZIAYb4QgEBBAQDAgbAMB0GA1UdJQQWMBQGCCsGAQUFBwMBBggr
BgEFBQcDAjANBgkqhkiG9w0BAQsFAAOCAgEALGtzN+J7oq6NWYw2HT/iD61xm+jW
nyoKu8sj7HG+zeCwxTnxYN0b/jQ0zD785IXAI1N9+vIhbAt/Y9HDcm9eZDKiuaQ7
nscO4i4jGaJfEHTB51slDBVph8LLODa5qDWteKBCjNsRCuS3SEfb5N8nKvh9g2fk
ItBF6Eid0oUkjqsrW+RcXWtiUMcIc1pxhl6rebnVDvzBcJ9hT/XVhraxx8WeKMme
r/YOVpuzjNmKl1fRlO10jWnIU0Kh/N/l1EUmyB2OALlEBBPMPmBuIuVy+ruS1NfL
8cZ7RLqfVV5B66PSMcW+lZFAZJabF2eWkZRY9zCYSEs7pmQjGdpzu188ko9aRb0+
/+Jp/9TyDIIKF/F5WsOvRYhyaG0TPL3JJVbp5ZEMvpDf62FZEVYo4vZZQaojkVON
DiIsIAgUaWXFVj7yi9lzpXSUHygKGaIa9cuMPDS7OhjN4Z7Y3BlNY0mVLXLQieE6
TgkJgF4fKq7wKFuY8c0oyEMH1SlhrMzM2FDm/YK0xaFHuRAO72uMoLcdSrhrVXxp
Vpe3r13g0luKJZgYEc5csEex90FBnmlDCPqx5IdS1cDneBovrbTT/+A/6vMI74SJ
PdIGU15LPsDSH9R+IsUnjo6dSBi86mPlLjm4qwvyrVfmAoq3yU5q8vyUYeMZymS9
YgXJty3ELoJQLkk=
-----END CERTIFICATE-----
