Certificate:
    Data:
        Version: 3 (0x2)
        Serial Number: 7 (0x7)
        Signature Algorithm: sha1WithRSAEncryption
        Issuer: C=CH, ST=Thurgau, L=Kefikon, O=guengel.ch, CN=CA guengel.ch/emailAddress=postmaster@guengel.ch
        Validity
            Not Before: Nov  4 16:20:49 2012 GMT
            Not After : Nov 19 16:20:49 2013 GMT
        Subject: C=CH, ST=Thurgau, O=guengel.ch, CN=deepstar.kruemel.home/emailAddress=postmaster@guengel.ch
        Subject Public Key Info:
            Public Key Algorithm: rsaEncryption
            RSA Public Key: (2048 bit)
                Modulus (2048 bit):
                    00:c8:7d:c2:f4:c6:26:94:3e:26:ce:c1:f0:9c:4b:
                    45:8c:51:8c:96:c7:b1:cd:d5:47:a0:96:20:28:7c:
                    f5:7c:12:8b:ab:93:35:0a:0b:a1:bc:28:28:a2:fd:
                    b4:69:b2:68:fb:64:26:93:22:b1:29:c2:c7:bf:14:
                    cf:13:a8:7b:72:cd:05:56:b7:94:b6:a1:e3:4e:d1:
                    fb:15:a9:83:68:0a:1d:29:e5:b9:b9:f9:26:a0:6a:
                    db:1b:61:bd:54:a3:1a:df:7d:10:a1:2c:9a:21:3c:
                    57:6f:0e:e3:9f:e5:b5:56:b7:b5:3f:4c:d4:cf:a8:
                    15:04:9e:3b:db:94:bb:38:9a:52:c1:fa:05:3a:16:
                    76:7c:13:3b:03:3c:30:66:ec:da:34:3b:9f:ea:fc:
                    e6:91:08:31:c9:cd:16:e5:db:79:85:9a:36:73:0c:
                    0c:39:bf:ad:d6:b4:60:ac:b0:b5:cc:da:0c:fe:e0:
                    12:ce:6d:64:bb:27:2f:eb:da:81:ea:7d:32:86:09:
                    4e:e2:aa:8f:6d:ac:32:08:04:cd:3f:15:17:22:5b:
                    00:53:34:be:d7:3e:25:1d:da:ca:3e:d2:d0:31:10:
                    8f:9d:23:3f:d0:1d:33:56:1d:c7:8d:99:2c:47:58:
                    5d:4d:e1:77:14:34:e4:ae:bb:d2:56:dc:d0:3c:35:
                    2b:31
                Exponent: 65537 (0x10001)
        X509v3 extensions:
            X509v3 Basic Constraints: 
                CA:FALSE
            Netscape Comment: 
                OpenSSL Generated Certificate
            X509v3 Subject Key Identifier: 
                D9:40:0D:21:16:3D:26:99:2C:41:8F:6F:40:C5:DE:8A:FB:91:34:56
            X509v3 Authority Key Identifier: 
                keyid:D6:88:F1:AA:C1:2B:09:8C:B8:5C:9D:CE:DF:57:39:62:26:10:20:90
                DirName:/C=CH/ST=Thurgau/L=Kefikon/O=guengel.ch/CN=CA guengel.ch/emailAddress=postmaster@guengel.ch
                serial:E5:25:3B:A6:77:BD:CB:FF

    Signature Algorithm: sha1WithRSAEncryption
        0a:88:21:9e:fa:55:64:72:33:7c:e1:ad:92:46:b0:18:cc:35:
        cd:ac:93:63:11:32:f7:c3:b6:8c:4f:c2:8d:a5:7b:c0:71:60:
        03:b9:5f:f0:8e:36:9a:09:ee:bd:f9:2c:2d:59:5c:67:bb:26:
        d3:10:4c:d0:5e:cd:1e:5f:2c:88:8c:00:23:5e:73:31:3b:1b:
        29:86:ac:0d:ba:6d:3b:dc:7a:06:43:35:74:1a:80:08:73:95:
        43:04:32:d4:6d:97:47:93:6f:90:d8:0c:5a:a6:af:03:eb:af:
        74:96:c8:03:73:4a:73:87:b2:e5:bd:ab:e4:eb:8b:4a:af:92:
        e4:0c:48:81:4d:65:91:82:95:d9:c5:1c:72:56:fd:75:89:d7:
        10:03:a8:63:de:67:7e:9d:c2:39:6a:97:d1:86:b1:c8:59:09:
        68:4f:80:40:60:27:6c:b7:2b:f0:31:3f:24:59:1c:4c:b9:fc:
        c7:b1:22:d8:af:aa:f7:7e:d5:ec:ea:57:9b:72:a5:c9:cf:8b:
        52:7c:d1:01:3b:b6:fb:7e:d7:25:d4:68:04:69:1e:39:da:27:
        a9:80:78:dc:ae:8e:d1:29:89:fe:f8:d9:a6:f3:97:cf:02:41:
        57:da:b3:37:f9:c8:ec:3b:f9:02:33:d0:8c:52:75:6d:3d:c7:
        79:d0:de:51:42:97:8b:1b:90:7e:eb:a5:14:49:39:5a:b8:2d:
        eb:45:34:b7:0d:84:48:5c:7f:fa:99:23:0b:a1:8d:d9:35:bb:
        3f:07:0f:72:1c:a7:ae:59:97:f6:b4:1b:4f:80:1b:1d:75:fb:
        b2:86:ef:72:3f:f8:db:05:41:62:3f:1d:79:c5:11:a3:eb:1d:
        66:6e:c5:aa:a0:1f:83:69:e5:dc:1b:98:f5:ce:49:35:7f:e9:
        27:74:9b:0b:21:45:67:eb:b8:04:7b:9c:15:d1:54:f1:23:1b:
        85:92:b2:62:f1:58:10:51:b4:1f:76:0a:49:1f:a8:8e:5b:30:
        85:10:cf:a4:f9:c5:6d:49:12:4d:d9:2b:7e:6e:66:6a:e8:cb:
        e8:e3:1d:f4:c4:c0:5f:fd:c7:cb:7a:4f:dd:a2:19:5b:e3:c2:
        85:54:42:36:bd:6a:e8:0e:e2:98:92:9f:dc:ed:d8:8e:ff:b7:
        12:14:ce:a5:73:33:af:3e:0a:42:2e:8e:ed:60:ce:f9:8b:c6:
        77:67:df:f9:bd:c1:b9:68:91:b5:9a:68:f8:c8:b3:b5:29:51:
        37:99:1e:87:05:94:08:58:f5:8c:7b:b4:e3:6c:a0:76:30:32:
        33:ea:ef:19:d7:67:c0:44:71:a9:d6:d6:8a:c5:5d:65:25:5a:
        da:ae:71:7a:dc:5c:20:e4
-----BEGIN CERTIFICATE-----
MIIFlDCCA3ygAwIBAgIBBzANBgkqhkiG9w0BAQUFADCBhDELMAkGA1UEBhMCQ0gx
EDAOBgNVBAgTB1RodXJnYXUxEDAOBgNVBAcTB0tlZmlrb24xEzARBgNVBAoTCmd1
ZW5nZWwuY2gxFjAUBgNVBAMTDUNBIGd1ZW5nZWwuY2gxJDAiBgkqhkiG9w0BCQEW
FXBvc3RtYXN0ZXJAZ3VlbmdlbC5jaDAeFw0xMjExMDQxNjIwNDlaFw0xMzExMTkx
NjIwNDlaMHoxCzAJBgNVBAYTAkNIMRAwDgYDVQQIEwdUaHVyZ2F1MRMwEQYDVQQK
EwpndWVuZ2VsLmNoMR4wHAYDVQQDExVkZWVwc3Rhci5rcnVlbWVsLmhvbWUxJDAi
BgkqhkiG9w0BCQEWFXBvc3RtYXN0ZXJAZ3VlbmdlbC5jaDCCASIwDQYJKoZIhvcN
AQEBBQADggEPADCCAQoCggEBAMh9wvTGJpQ+Js7B8JxLRYxRjJbHsc3VR6CWICh8
9XwSi6uTNQoLobwoKKL9tGmyaPtkJpMisSnCx78UzxOoe3LNBVa3lLah407R+xWp
g2gKHSnlubn5JqBq2xthvVSjGt99EKEsmiE8V28O45/ltVa3tT9M1M+oFQSeO9uU
uziaUsH6BToWdnwTOwM8MGbs2jQ7n+r85pEIMcnNFuXbeYWaNnMMDDm/rda0YKyw
tczaDP7gEs5tZLsnL+vagep9MoYJTuKqj22sMggEzT8VFyJbAFM0vtc+JR3ayj7S
0DEQj50jP9AdM1Ydx42ZLEdYXU3hdxQ05K670lbc0Dw1KzECAwEAAaOCARgwggEU
MAkGA1UdEwQCMAAwLAYJYIZIAYb4QgENBB8WHU9wZW5TU0wgR2VuZXJhdGVkIENl
cnRpZmljYXRlMB0GA1UdDgQWBBTZQA0hFj0mmSxBj29Axd6K+5E0VjCBuQYDVR0j
BIGxMIGugBTWiPGqwSsJjLhcnc7fVzliJhAgkKGBiqSBhzCBhDELMAkGA1UEBhMC
Q0gxEDAOBgNVBAgTB1RodXJnYXUxEDAOBgNVBAcTB0tlZmlrb24xEzARBgNVBAoT
Cmd1ZW5nZWwuY2gxFjAUBgNVBAMTDUNBIGd1ZW5nZWwuY2gxJDAiBgkqhkiG9w0B
CQEWFXBvc3RtYXN0ZXJAZ3VlbmdlbC5jaIIJAOUlO6Z3vcv/MA0GCSqGSIb3DQEB
BQUAA4ICAQAKiCGe+lVkcjN84a2SRrAYzDXNrJNjETL3w7aMT8KNpXvAcWADuV/w
jjaaCe69+SwtWVxnuybTEEzQXs0eXyyIjAAjXnMxOxsphqwNum073HoGQzV0GoAI
c5VDBDLUbZdHk2+Q2Axapq8D6690lsgDc0pzh7Llvavk64tKr5LkDEiBTWWRgpXZ
xRxyVv11idcQA6hj3md+ncI5apfRhrHIWQloT4BAYCdstyvwMT8kWRxMufzHsSLY
r6r3ftXs6lebcqXJz4tSfNEBO7b7ftcl1GgEaR452iepgHjcro7RKYn++Nmm85fP
AkFX2rM3+cjsO/kCM9CMUnVtPcd50N5RQpeLG5B+66UUSTlauC3rRTS3DYRIXH/6
mSMLoY3ZNbs/Bw9yHKeuWZf2tBtPgBsddfuyhu9yP/jbBUFiPx15xRGj6x1mbsWq
oB+DaeXcG5j1zkk1f+kndJsLIUVn67gEe5wV0VTxIxuFkrJi8VgQUbQfdgpJH6iO
WzCFEM+k+cVtSRJN2St+bmZq6Mvo4x30xMBf/cfLek/dohlb48KFVEI2vWroDuKY
kp/c7diO/7cSFM6lczOvPgpCLo7tYM75i8Z3Z9/5vcG5aJG1mmj4yLO1KVE3mR6H
BZQIWPWMe7TjbKB2MDIz6u8Z12fARHGp1taKxV1lJVrarnF63Fwg5A==
-----END CERTIFICATE-----
