Certificate:
    Data:
        Version: 3 (0x2)
        Serial Number: 297 (0x129)
    Signature Algorithm: sha256WithRSAEncryption
        Issuer: C=CH, ST=Thurgau, L=Kefikon, O=guengel.ch, CN=CA guengel.ch/emailAddress=postmaster@guengel.ch
        Validity
            Not Before: Jan  6 18:02:55 2018 GMT
            Not After : Feb 10 18:02:55 2019 GMT
        Subject: C=CH, ST=Thurgau, O=guengel.ch, CN=docuwiki.web.kruemel.home/emailAddress=postmaster@guengel.ch
        Subject Public Key Info:
            Public Key Algorithm: rsaEncryption
                Public-Key: (2048 bit)
                Modulus:
                    00:d5:5f:db:d0:8b:33:66:48:46:1b:e6:b0:a8:36:
                    ee:a2:98:1a:11:b2:98:7f:18:7b:bd:d1:c7:16:67:
                    fd:df:68:f5:6a:ce:cb:78:d1:12:26:9d:6b:9e:b1:
                    a8:ed:90:b6:f1:f4:44:ae:8e:8c:3e:d7:07:8b:f9:
                    7c:4c:4e:2a:54:fd:08:fd:b5:43:47:7a:48:a9:61:
                    80:ee:02:d6:fb:e0:ae:92:57:a2:6b:33:37:64:90:
                    14:95:41:6b:6a:0f:d3:04:a3:c5:1b:5b:6f:cc:37:
                    03:b7:31:b4:c9:3c:59:fd:4a:6b:a8:e1:2a:72:b6:
                    90:ca:80:ac:82:26:cc:1d:a9:cf:17:a5:73:32:70:
                    fe:e2:7b:79:34:58:1c:e4:03:be:6f:37:5d:d3:34:
                    39:bc:61:f0:70:42:86:06:da:ca:0f:72:8b:94:80:
                    ab:46:ec:87:63:8e:b1:14:6f:35:e4:a2:43:c2:32:
                    77:f5:9b:83:c1:74:72:96:a7:03:44:bf:2a:e0:ee:
                    3f:65:b8:7b:2f:11:22:bb:36:9d:0a:5e:60:1d:d5:
                    14:91:2f:22:e0:ba:06:79:0f:07:d0:35:d5:70:04:
                    12:2f:2a:d4:7f:76:eb:b6:55:eb:fa:e7:ff:b4:56:
                    b5:16:08:ae:58:42:08:e7:90:fd:c0:a2:71:14:71:
                    05:a1
                Exponent: 65537 (0x10001)
        X509v3 extensions:
            X509v3 Basic Constraints: 
                CA:FALSE
            Netscape Comment: 
                OpenSSL Generated Certificate
            X509v3 Subject Key Identifier: 
                75:18:41:86:99:92:3E:7A:D3:1E:1B:13:A5:4C:AD:39:C8:3E:E0:DC
            X509v3 Authority Key Identifier: 
                keyid:D6:88:F1:AA:C1:2B:09:8C:B8:5C:9D:CE:DF:57:39:62:26:10:20:90
                DirName:/C=CH/ST=Thurgau/L=Kefikon/O=guengel.ch/CN=CA guengel.ch/emailAddress=postmaster@guengel.ch
                serial:E5:25:3B:A6:77:BD:CB:FF

    Signature Algorithm: sha256WithRSAEncryption
         60:62:1e:62:7e:df:da:32:02:6a:f6:a4:85:a3:37:01:4c:cb:
         0a:1b:c3:07:f1:b1:56:23:18:a5:ec:ad:5c:9a:f6:fc:5b:11:
         96:4a:6f:d6:2e:3c:49:23:60:b1:f8:69:0e:51:87:0b:50:de:
         c9:d6:ea:b8:2d:b8:71:37:7c:99:19:e2:59:a3:c2:7c:a3:8c:
         dc:29:0c:f5:7f:8d:b6:73:ba:cd:5f:55:80:f7:f7:34:5d:1e:
         0c:b1:5b:f6:51:72:3a:51:71:e1:2a:e1:44:36:4a:a8:d8:05:
         6a:57:4c:d4:4f:ec:45:ca:25:06:f8:c9:0d:6b:1f:73:08:06:
         9b:f2:ec:fb:91:ce:8c:9b:68:58:15:02:a0:1d:38:fb:84:ae:
         2e:12:c2:d9:51:d4:6e:5e:02:87:69:94:fb:53:de:77:68:6c:
         82:57:f4:dd:0e:54:57:c0:e4:ef:53:ca:b5:0a:c5:c0:ec:3a:
         06:82:a3:1b:c9:18:72:64:85:26:e4:7f:43:e8:59:fe:22:cf:
         7d:86:6c:c7:c0:71:46:9b:10:e8:dd:4c:bc:63:e3:95:f0:d4:
         2b:b4:b6:36:52:5b:ba:07:a7:8a:66:bb:56:12:ff:b3:74:bf:
         e1:ca:d9:46:4d:3b:d1:07:bc:6d:4a:4a:11:f1:8b:bd:d8:95:
         e5:e2:04:f5:a8:ca:33:3a:d0:01:fd:0c:20:d0:7f:62:61:a7:
         ae:5f:13:df:a6:89:c8:f5:3e:09:b0:49:34:50:20:a0:fc:44:
         6e:b6:ae:26:86:75:1e:dd:80:6a:f4:4f:30:b5:e1:29:9c:5c:
         c3:62:06:de:08:b4:34:7a:13:de:b5:24:46:89:15:b8:29:48:
         98:09:9b:47:3c:95:34:62:3e:75:9f:35:ae:a2:6f:06:d7:d1:
         73:c2:48:47:a5:af:d1:0e:90:fd:16:d7:e2:de:2d:2d:36:54:
         ae:69:dd:45:01:1b:99:dc:b1:86:6e:21:75:c2:1a:ed:55:92:
         9b:a5:25:67:65:59:98:b1:94:5c:31:25:d1:0b:95:a4:0d:de:
         e7:05:e4:25:6f:ff:4a:4e:61:04:06:ba:f7:43:a6:fa:d6:e7:
         ce:d9:4d:6b:22:02:0d:99:34:8b:92:b8:16:06:5a:b5:47:dd:
         ea:de:f0:a6:36:a1:ed:41:3e:a1:d7:53:e0:8b:7d:28:74:2e:
         5f:de:cf:6f:c5:71:6b:79:6f:e3:55:41:92:ea:5b:1d:17:d1:
         d9:4c:d6:36:2b:51:58:f1:0b:9f:c5:d2:09:e8:4d:1a:91:bc:
         e3:b4:be:4b:99:b0:2e:56:31:b8:82:13:61:ca:ca:b6:ee:e2:
         e5:51:8f:bc:37:81:77:c1
-----BEGIN CERTIFICATE-----
MIIFmTCCA4GgAwIBAgICASkwDQYJKoZIhvcNAQELBQAwgYQxCzAJBgNVBAYTAkNI
MRAwDgYDVQQIEwdUaHVyZ2F1MRAwDgYDVQQHEwdLZWZpa29uMRMwEQYDVQQKEwpn
dWVuZ2VsLmNoMRYwFAYDVQQDEw1DQSBndWVuZ2VsLmNoMSQwIgYJKoZIhvcNAQkB
FhVwb3N0bWFzdGVyQGd1ZW5nZWwuY2gwHhcNMTgwMTA2MTgwMjU1WhcNMTkwMjEw
MTgwMjU1WjB+MQswCQYDVQQGEwJDSDEQMA4GA1UECBMHVGh1cmdhdTETMBEGA1UE
ChMKZ3VlbmdlbC5jaDEiMCAGA1UEAxMZZG9jdXdpa2kud2ViLmtydWVtZWwuaG9t
ZTEkMCIGCSqGSIb3DQEJARYVcG9zdG1hc3RlckBndWVuZ2VsLmNoMIIBIjANBgkq
hkiG9w0BAQEFAAOCAQ8AMIIBCgKCAQEA1V/b0IszZkhGG+awqDbuopgaEbKYfxh7
vdHHFmf932j1as7LeNESJp1rnrGo7ZC28fREro6MPtcHi/l8TE4qVP0I/bVDR3pI
qWGA7gLW++CukleiazM3ZJAUlUFrag/TBKPFG1tvzDcDtzG0yTxZ/UprqOEqcraQ
yoCsgibMHanPF6VzMnD+4nt5NFgc5AO+bzdd0zQ5vGHwcEKGBtrKD3KLlICrRuyH
Y46xFG815KJDwjJ39ZuDwXRylqcDRL8q4O4/Zbh7LxEiuzadCl5gHdUUkS8i4LoG
eQ8H0DXVcAQSLyrUf3brtlXr+uf/tFa1FgiuWEII55D9wKJxFHEFoQIDAQABo4IB
GDCCARQwCQYDVR0TBAIwADAsBglghkgBhvhCAQ0EHxYdT3BlblNTTCBHZW5lcmF0
ZWQgQ2VydGlmaWNhdGUwHQYDVR0OBBYEFHUYQYaZkj560x4bE6VMrTnIPuDcMIG5
BgNVHSMEgbEwga6AFNaI8arBKwmMuFydzt9XOWImECCQoYGKpIGHMIGEMQswCQYD
VQQGEwJDSDEQMA4GA1UECBMHVGh1cmdhdTEQMA4GA1UEBxMHS2VmaWtvbjETMBEG
A1UEChMKZ3VlbmdlbC5jaDEWMBQGA1UEAxMNQ0EgZ3VlbmdlbC5jaDEkMCIGCSqG
SIb3DQEJARYVcG9zdG1hc3RlckBndWVuZ2VsLmNoggkA5SU7pne9y/8wDQYJKoZI
hvcNAQELBQADggIBAGBiHmJ+39oyAmr2pIWjNwFMywobwwfxsVYjGKXsrVya9vxb
EZZKb9YuPEkjYLH4aQ5RhwtQ3snW6rgtuHE3fJkZ4lmjwnyjjNwpDPV/jbZzus1f
VYD39zRdHgyxW/ZRcjpRceEq4UQ2SqjYBWpXTNRP7EXKJQb4yQ1rH3MIBpvy7PuR
zoybaFgVAqAdOPuEri4SwtlR1G5eAodplPtT3ndobIJX9N0OVFfA5O9TyrUKxcDs
OgaCoxvJGHJkhSbkf0PoWf4iz32GbMfAcUabEOjdTLxj45Xw1Cu0tjZSW7oHp4pm
u1YS/7N0v+HK2UZNO9EHvG1KShHxi73YleXiBPWoyjM60AH9DCDQf2Jhp65fE9+m
icj1PgmwSTRQIKD8RG62riaGdR7dgGr0TzC14SmcXMNiBt4ItDR6E961JEaJFbgp
SJgJm0c8lTRiPnWfNa6ibwbX0XPCSEelr9EOkP0W1+LeLS02VK5p3UUBG5ncsYZu
IXXCGu1VkpulJWdlWZixlFwxJdELlaQN3ucF5CVv/0pOYQQGuvdDpvrW587ZTWsi
Ag2ZNIuSuBYGWrVH3ere8KY2oe1BPqHXU+CLfSh0Ll/ez2/FcWt5b+NVQZLqWx0X
0dlM1jYrUVjxC5/F0gnoTRqRvOO0vkuZsC5WMbiCE2HKyrbu4uVRj7w3gXfB
-----END CERTIFICATE-----
