Certificate:
    Data:
        Version: 3 (0x2)
        Serial Number:
            6d:70:cf:ad:26:90:9e:18:d4:fc:97:cf:c6:de:fc:14:93:1f:8a:28
        Signature Algorithm: sha256WithRSAEncryption
        Issuer: C=CH, ST=Thurgau, L=Kefikon, O=guengel.ch, CN=CA 2022/emailAddress=postmaster@guengel.ch
        Validity
            Not Before: Feb 11 15:36:59 2022 GMT
            Not After : Mar 18 15:36:59 2023 GMT
        Subject: C=CH, ST=Thurgau, O=guengel.ch, CN=ec2-52-29-59-221.eu-central-1.compute.amazonaws.com/emailAddress=postmaster@guengel.ch
        Subject Public Key Info:
            Public Key Algorithm: rsaEncryption
                RSA Public-Key: (2048 bit)
                Modulus:
                    00:c6:0d:14:d1:65:0c:a5:4f:c1:42:82:af:84:a6:
                    ad:d6:f4:84:a2:df:af:b1:46:7d:ca:46:ab:50:80:
                    17:02:97:c7:d8:50:f4:97:30:36:68:2a:e1:18:15:
                    e5:32:97:a7:10:f2:57:f8:2b:65:45:6b:2c:37:09:
                    88:c7:07:f7:3a:1d:ee:88:8f:27:a9:ff:53:26:e5:
                    5b:b5:27:df:3f:d0:3c:1b:af:97:e5:0e:0f:83:f9:
                    37:49:ca:4c:2a:e4:96:d7:6b:fd:e5:66:e3:70:9b:
                    5f:47:df:46:fb:6a:27:e4:99:19:0f:81:0e:73:76:
                    df:37:20:e2:c9:d3:2c:af:e2:d8:a9:d6:7c:2a:48:
                    55:25:df:3f:ac:ff:34:3d:3a:1c:57:9f:dc:43:7c:
                    53:8e:03:a5:16:cd:60:9e:16:9d:b2:1c:06:c4:94:
                    27:3a:2f:27:c2:8e:c9:52:f5:bb:a4:cf:57:d5:e5:
                    89:8b:13:3f:1e:d9:71:92:92:51:5a:f2:a6:18:e5:
                    76:3f:83:6e:1e:35:6b:72:dd:04:fb:4d:28:96:fc:
                    4b:30:08:19:d1:77:23:96:6e:7f:ee:7d:d9:fc:56:
                    97:42:c8:2b:31:df:0c:70:35:67:4f:80:4a:dd:06:
                    e3:f8:67:ec:1d:e8:e3:4a:ad:83:0c:d7:c5:70:48:
                    6f:37
                Exponent: 65537 (0x10001)
        X509v3 extensions:
            X509v3 Basic Constraints: critical
                CA:FALSE
            X509v3 Key Usage: 
                Digital Signature, Key Encipherment, Key Agreement
            X509v3 Subject Key Identifier: 
                42:AC:BC:3D:24:ED:7D:C7:3D:C5:DB:0A:47:5E:93:E5:6A:87:DF:E5
            X509v3 Authority Key Identifier: 
                keyid:22:20:0D:51:40:61:42:BE:DD:BA:D9:C9:C1:77:B6:93:28:C3:99:EC
                DirName:/C=CH/ST=Thurgau/L=Kefikon/O=guengel.ch/CN=CA 2022/emailAddress=postmaster@guengel.ch
                serial:6D:29:90:54:E9:17:E9:C2:6A:E6:52:AD:84:4E:30:8E:6E:57:FB:1C

            Netscape Cert Type: 
                SSL Client, SSL Server
            X509v3 Extended Key Usage: 
                TLS Web Server Authentication, TLS Web Client Authentication
            X509v3 Subject Alternative Name: 
                DNS:ec2-52-29-59-221.eu-central-1.compute.amazonaws.com
    Signature Algorithm: sha256WithRSAEncryption
         62:b6:cc:1e:9c:4a:9b:56:6a:19:11:b2:52:d9:22:bc:4d:bc:
         72:56:e4:79:4b:87:5c:a8:72:0b:a6:12:30:fa:3b:9c:49:2a:
         1d:b6:83:2e:2f:b9:9b:95:82:bb:d9:bf:8b:10:0e:cf:5f:16:
         68:aa:82:c7:99:9f:72:29:10:27:7d:28:94:21:8e:8b:02:aa:
         2d:2a:c2:87:bd:e4:ba:1e:0c:f7:37:25:4d:2d:68:3f:1b:65:
         60:d4:40:2b:25:0d:39:6d:d2:60:fc:01:57:19:55:ad:5f:2e:
         e6:a5:9e:7e:0b:32:67:50:21:4c:99:a8:8e:74:83:de:fb:ba:
         39:89:4b:cb:37:16:80:8b:c8:f4:a5:8c:b9:84:e0:b0:86:ec:
         f1:95:54:55:04:c5:9e:a4:93:27:55:f7:5f:21:b6:11:17:77:
         0e:4d:23:73:91:b2:a7:dc:7e:04:d8:34:8d:1b:72:da:1a:4f:
         52:ea:d9:72:02:cc:f0:70:fe:ca:30:bf:a2:bb:96:ec:b4:9d:
         42:36:58:35:58:fc:53:de:a3:89:c9:d3:c7:e4:df:af:23:7a:
         c6:cb:eb:04:1d:1d:88:15:76:c3:d4:e6:ac:2f:22:e4:ec:f7:
         51:5b:b8:32:a8:ef:b8:18:d5:f8:c1:7b:ac:21:98:0d:8b:33:
         0d:0c:10:1f:75:fb:49:04:b0:8a:bb:09:ee:d7:b2:3b:75:c2:
         a4:4c:e9:34:98:44:6e:17:8a:cb:a6:d3:bc:96:a9:7f:e8:05:
         59:f4:36:6b:23:9c:f5:0c:af:52:f3:67:13:c0:97:1f:17:42:
         ee:f9:d2:f4:a4:34:c1:ab:76:00:59:70:51:29:c3:64:33:c5:
         19:4f:e0:b5:f7:84:1f:d5:ae:ea:fb:fb:93:96:4a:25:33:11:
         8b:f5:90:c7:a3:30:1b:51:ae:79:5b:df:8c:e9:d9:b7:f1:43:
         52:77:5f:b0:b0:30:d8:ff:1d:5a:51:13:cd:f6:ea:6a:f0:11:
         e9:71:4e:1d:a5:89:20:c8:cd:e4:93:23:9b:84:4a:6f:ba:79:
         22:4e:58:73:a3:39:3e:b8:c3:6e:ad:ce:16:c8:04:e0:b2:3f:
         e4:af:68:36:5d:31:b7:b3:ff:49:0e:01:60:38:fe:8c:98:56:
         6d:63:cb:96:d7:e0:9e:97:d4:7d:88:35:2d:19:1d:fb:7d:59:
         d3:31:3f:30:43:57:a5:64:b2:70:4f:65:b8:63:b0:f2:a7:d7:
         51:56:75:5c:36:6d:eb:0f:0c:4a:a2:18:ff:fe:d1:c1:02:c8:
         49:96:de:fa:32:90:e9:e2:db:5a:0f:2b:1d:0b:2b:58:4c:2d:
         15:9c:37:c5:5e:1f:b7:87
-----BEGIN CERTIFICATE-----
MIIGFzCCA/+gAwIBAgIUbXDPrSaQnhjU/JfPxt78FJMfiigwDQYJKoZIhvcNAQEL
BQAwfjELMAkGA1UEBhMCQ0gxEDAOBgNVBAgTB1RodXJnYXUxEDAOBgNVBAcTB0tl
Zmlrb24xEzARBgNVBAoTCmd1ZW5nZWwuY2gxEDAOBgNVBAMTB0NBIDIwMjIxJDAi
BgkqhkiG9w0BCQEWFXBvc3RtYXN0ZXJAZ3VlbmdlbC5jaDAeFw0yMjAyMTExNTM2
NTlaFw0yMzAzMTgxNTM2NTlaMIGYMQswCQYDVQQGEwJDSDEQMA4GA1UECBMHVGh1
cmdhdTETMBEGA1UEChMKZ3VlbmdlbC5jaDE8MDoGA1UEAxMzZWMyLTUyLTI5LTU5
LTIyMS5ldS1jZW50cmFsLTEuY29tcHV0ZS5hbWF6b25hd3MuY29tMSQwIgYJKoZI
hvcNAQkBFhVwb3N0bWFzdGVyQGd1ZW5nZWwuY2gwggEiMA0GCSqGSIb3DQEBAQUA
A4IBDwAwggEKAoIBAQDGDRTRZQylT8FCgq+Epq3W9ISi36+xRn3KRqtQgBcCl8fY
UPSXMDZoKuEYFeUyl6cQ8lf4K2VFayw3CYjHB/c6He6Ijyep/1Mm5Vu1J98/0Dwb
r5flDg+D+TdJykwq5JbXa/3lZuNwm19H30b7aifkmRkPgQ5zdt83IOLJ0yyv4tip
1nwqSFUl3z+s/zQ9OhxXn9xDfFOOA6UWzWCeFp2yHAbElCc6LyfCjslS9bukz1fV
5YmLEz8e2XGSklFa8qYY5XY/g24eNWty3QT7TSiW/EswCBnRdyOWbn/ufdn8VpdC
yCsx3wxwNWdPgErdBuP4Z+wd6ONKrYMM18VwSG83AgMBAAGjggFwMIIBbDAMBgNV
HRMBAf8EAjAAMAsGA1UdDwQEAwIDqDAdBgNVHQ4EFgQUQqy8PSTtfcc9xdsKR16T
5WqH3+Uwgb0GA1UdIwSBtTCBsoAUIiANUUBhQr7dutnJwXe2kyjDmeyhgYOkgYAw
fjELMAkGA1UEBhMCQ0gxEDAOBgNVBAgTB1RodXJnYXUxEDAOBgNVBAcTB0tlZmlr
b24xEzARBgNVBAoTCmd1ZW5nZWwuY2gxEDAOBgNVBAMTB0NBIDIwMjIxJDAiBgkq
hkiG9w0BCQEWFXBvc3RtYXN0ZXJAZ3VlbmdlbC5jaIIUbSmQVOkX6cJq5lKthE4w
jm5X+xwwEQYJYIZIAYb4QgEBBAQDAgbAMB0GA1UdJQQWMBQGCCsGAQUFBwMBBggr
BgEFBQcDAjA+BgNVHREENzA1gjNlYzItNTItMjktNTktMjIxLmV1LWNlbnRyYWwt
MS5jb21wdXRlLmFtYXpvbmF3cy5jb20wDQYJKoZIhvcNAQELBQADggIBAGK2zB6c
SptWahkRslLZIrxNvHJW5HlLh1yocgumEjD6O5xJKh22gy4vuZuVgrvZv4sQDs9f
FmiqgseZn3IpECd9KJQhjosCqi0qwoe95LoeDPc3JU0taD8bZWDUQCslDTlt0mD8
AVcZVa1fLualnn4LMmdQIUyZqI50g977ujmJS8s3FoCLyPSljLmE4LCG7PGVVFUE
xZ6kkydV918hthEXdw5NI3ORsqfcfgTYNI0bctoaT1Lq2XICzPBw/sowv6K7luy0
nUI2WDVY/FPeo4nJ08fk368jesbL6wQdHYgVdsPU5qwvIuTs91FbuDKo77gY1fjB
e6whmA2LMw0MEB91+0kEsIq7Ce7Xsjt1wqRM6TSYRG4Xisum07yWqX/oBVn0Nmsj
nPUMr1LzZxPAlx8XQu750vSkNMGrdgBZcFEpw2QzxRlP4LX3hB/Vrur7+5OWSiUz
EYv1kMejMBtRrnlb34zp2bfxQ1J3X7CwMNj/HVpRE8326mrwEelxTh2liSDIzeST
I5uESm+6eSJOWHOjOT64w26tzhbIBOCyP+SvaDZdMbez/0kOAWA4/oyYVm1jy5bX
4J6X1H2INS0ZHft9WdMxPzBDV6VksnBPZbhjsPKn11FWdVw2besPDEqiGP/+0cEC
yEmW3voykOni21oPKx0LK1hMLRWcN8VeH7eH
-----END CERTIFICATE-----
