Certificate:
    Data:
        Version: 3 (0x2)
        Serial Number: 402 (0x192)
        Signature Algorithm: sha256WithRSAEncryption
        Issuer: C=CH, ST=Thurgau, L=Kefikon, O=guengel.ch, CN=CA guengel.ch/emailAddress=postmaster@guengel.ch
        Validity
            Not Before: Aug 16 08:27:46 2020 GMT
            Not After : Sep 20 08:27:46 2021 GMT
        Subject: C=CH, ST=Thurgau, O=guengel.ch, CN=ec2-3-123-24-250.eu-central-1.compute.amazonaws.com/emailAddress=postmaster@guengel.ch
        Subject Public Key Info:
            Public Key Algorithm: rsaEncryption
                RSA Public-Key: (2048 bit)
                Modulus:
                    00:d6:f6:82:c1:35:6c:83:c0:07:46:10:67:fd:01:
                    17:6c:56:21:c4:36:3d:b8:ea:a6:97:4e:89:20:72:
                    82:0d:a8:26:c0:e5:d2:76:e6:60:17:54:76:15:92:
                    f9:05:71:dd:7d:5f:3c:60:a7:b2:11:52:e0:77:bb:
                    c6:ae:32:8b:ae:81:57:b7:b4:b6:2c:5f:af:48:f5:
                    8b:d8:6a:71:d8:cc:6a:08:d7:59:d8:0d:d5:e7:a2:
                    fc:4e:67:85:e8:65:49:19:01:8e:4f:9e:9e:d4:73:
                    33:76:ff:52:33:1e:e2:0a:6c:5b:d7:90:c4:4c:60:
                    4f:2f:ed:1c:e2:a2:71:07:7c:79:e2:10:e3:e8:71:
                    8a:90:c5:fb:b0:c0:ea:9a:70:45:03:87:7b:11:75:
                    8d:64:27:4a:db:1b:b9:93:60:cb:ee:88:9a:81:cf:
                    7d:e3:2c:5a:0d:d0:d0:f6:18:63:69:22:91:c4:d0:
                    39:90:bf:96:15:d7:b2:87:2d:6d:33:93:cb:b7:ec:
                    56:3a:5e:72:58:5f:c2:df:8a:9f:95:e8:51:7f:34:
                    b3:c7:c5:b3:0e:c7:36:e1:ed:a3:0c:a4:e0:6d:ff:
                    d5:3c:ba:89:2c:bd:aa:4e:5f:32:66:c2:bf:a3:df:
                    93:1c:5a:f4:77:53:65:99:b2:71:92:d9:fb:59:4a:
                    0f:b5
                Exponent: 65537 (0x10001)
        X509v3 extensions:
            X509v3 Basic Constraints: 
                CA:FALSE
            X509v3 Key Usage: 
                Digital Signature, Key Agreement
            Netscape Cert Type: 
                SSL Client, SSL Server
            X509v3 Extended Key Usage: 
                TLS Web Server Authentication, TLS Web Client Authentication
            X509v3 Subject Alternative Name: 
                DNS:ec2-3-123-24-250.eu-central-1.compute.amazonaws.com
    Signature Algorithm: sha256WithRSAEncryption
         66:5d:f9:67:bd:d6:22:d3:a6:86:fe:d0:98:29:80:3d:55:76:
         ed:dc:ee:de:7f:0a:fc:cf:0a:b8:cc:81:98:1b:86:3e:ef:14:
         48:f4:cf:d2:be:2f:72:12:b6:02:ee:51:74:41:aa:58:66:ab:
         8f:ed:28:91:f2:8c:d2:7e:97:db:46:7b:82:7c:d7:3a:10:a8:
         cd:51:27:d0:d6:a5:07:41:7e:47:19:f5:62:1a:33:89:63:95:
         69:68:65:1d:b0:df:e7:26:bf:c7:d1:d2:d1:59:1c:8c:1e:ae:
         dd:f8:d2:a0:75:75:17:3a:f2:21:bc:e7:71:62:32:d3:20:23:
         8d:69:78:00:dc:1a:5e:32:3a:0e:bf:82:a5:11:9c:78:a7:b5:
         0b:ff:5e:fa:e6:c2:d7:e8:c6:e0:21:5e:c4:e9:df:c8:e6:00:
         a7:57:9c:2b:6c:de:f1:6d:7f:96:62:4d:75:da:87:0f:f5:64:
         d4:36:c4:52:db:ca:b0:f1:59:06:1b:9c:ad:74:fa:3b:17:a0:
         9b:26:34:b6:9f:0a:cd:12:12:50:28:dc:98:88:e5:d2:1b:30:
         86:84:3f:72:07:1e:fb:65:85:ae:eb:5e:a9:f9:f1:04:f0:09:
         81:2b:dc:d0:cd:b6:18:31:9e:78:ab:d6:4a:77:8a:ad:7e:51:
         43:33:72:30:87:c8:d3:f3:aa:26:d3:d9:be:e1:46:29:c2:4c:
         b4:6d:8f:f1:f8:94:7b:cb:fe:7a:75:2a:f9:21:3d:84:5a:0f:
         0c:8f:10:04:bf:1c:31:65:68:bb:cf:f7:67:fd:f3:95:17:f9:
         d4:82:65:b7:ed:25:26:a0:62:c3:1c:11:ff:44:67:cb:44:ed:
         b9:5d:19:68:17:0c:53:c6:98:fa:4f:76:86:5c:6e:17:f0:8b:
         b2:24:41:1b:a8:81:ec:8c:e6:0b:f0:26:ce:cf:8e:83:cc:80:
         5d:e6:e1:72:4d:19:1a:de:f1:81:8d:c8:e7:ad:82:9c:66:8d:
         5d:93:e9:7f:89:70:52:3e:51:28:f6:f7:96:ca:a2:37:dd:62:
         db:7c:03:1d:68:c1:dd:f6:2e:ce:8d:c8:4f:cd:8e:f8:f4:b7:
         39:68:23:61:9f:fc:16:17:7d:98:19:28:52:e1:dd:57:93:ef:
         2b:91:68:21:c8:1b:49:1b:be:cc:66:84:5a:21:1d:ae:0c:eb:
         03:4b:00:15:cf:36:f4:01:e1:71:ab:24:1a:eb:86:20:37:a4:
         78:52:4d:b1:81:a3:18:62:92:ca:5e:80:06:30:e1:97:bf:fc:
         59:03:ef:28:c9:50:0f:d2:57:60:7f:40:37:24:04:e9:f1:89:
         1d:05:b1:a6:d7:1f:cf:b0
-----BEGIN CERTIFICATE-----
MIIFKDCCAxCgAwIBAgICAZIwDQYJKoZIhvcNAQELBQAwgYQxCzAJBgNVBAYTAkNI
MRAwDgYDVQQIEwdUaHVyZ2F1MRAwDgYDVQQHEwdLZWZpa29uMRMwEQYDVQQKEwpn
dWVuZ2VsLmNoMRYwFAYDVQQDEw1DQSBndWVuZ2VsLmNoMSQwIgYJKoZIhvcNAQkB
FhVwb3N0bWFzdGVyQGd1ZW5nZWwuY2gwHhcNMjAwODE2MDgyNzQ2WhcNMjEwOTIw
MDgyNzQ2WjCBmDELMAkGA1UEBhMCQ0gxEDAOBgNVBAgTB1RodXJnYXUxEzARBgNV
BAoTCmd1ZW5nZWwuY2gxPDA6BgNVBAMTM2VjMi0zLTEyMy0yNC0yNTAuZXUtY2Vu
dHJhbC0xLmNvbXB1dGUuYW1hem9uYXdzLmNvbTEkMCIGCSqGSIb3DQEJARYVcG9z
dG1hc3RlckBndWVuZ2VsLmNoMIIBIjANBgkqhkiG9w0BAQEFAAOCAQ8AMIIBCgKC
AQEA1vaCwTVsg8AHRhBn/QEXbFYhxDY9uOqml06JIHKCDagmwOXSduZgF1R2FZL5
BXHdfV88YKeyEVLgd7vGrjKLroFXt7S2LF+vSPWL2Gpx2MxqCNdZ2A3V56L8TmeF
6GVJGQGOT56e1HMzdv9SMx7iCmxb15DETGBPL+0c4qJxB3x54hDj6HGKkMX7sMDq
mnBFA4d7EXWNZCdK2xu5k2DL7oiagc994yxaDdDQ9hhjaSKRxNA5kL+WFdeyhy1t
M5PLt+xWOl5yWF/C34qflehRfzSzx8WzDsc24e2jDKTgbf/VPLqJLL2qTl8yZsK/
o9+THFr0d1NlmbJxktn7WUoPtQIDAQABo4GNMIGKMAkGA1UdEwQCMAAwCwYDVR0P
BAQDAgOIMBEGCWCGSAGG+EIBAQQEAwIGwDAdBgNVHSUEFjAUBggrBgEFBQcDAQYI
KwYBBQUHAwIwPgYDVR0RBDcwNYIzZWMyLTMtMTIzLTI0LTI1MC5ldS1jZW50cmFs
LTEuY29tcHV0ZS5hbWF6b25hd3MuY29tMA0GCSqGSIb3DQEBCwUAA4ICAQBmXfln
vdYi06aG/tCYKYA9VXbt3O7efwr8zwq4zIGYG4Y+7xRI9M/Svi9yErYC7lF0QapY
ZquP7SiR8ozSfpfbRnuCfNc6EKjNUSfQ1qUHQX5HGfViGjOJY5VpaGUdsN/nJr/H
0dLRWRyMHq7d+NKgdXUXOvIhvOdxYjLTICONaXgA3BpeMjoOv4KlEZx4p7UL/176
5sLX6MbgIV7E6d/I5gCnV5wrbN7xbX+WYk112ocP9WTUNsRS28qw8VkGG5ytdPo7
F6CbJjS2nwrNEhJQKNyYiOXSGzCGhD9yBx77ZYWu616p+fEE8AmBK9zQzbYYMZ54
q9ZKd4qtflFDM3Iwh8jT86om09m+4UYpwky0bY/x+JR7y/56dSr5IT2EWg8MjxAE
vxwxZWi7z/dn/fOVF/nUgmW37SUmoGLDHBH/RGfLRO25XRloFwxTxpj6T3aGXG4X
8IuyJEEbqIHsjOYL8CbOz46DzIBd5uFyTRka3vGBjcjnrYKcZo1dk+l/iXBSPlEo
9veWyqI33WLbfAMdaMHd9i7OjchPzY749Lc5aCNhn/wWF32YGShS4d1Xk+8rkWgh
yBtJG77MZoRaIR2uDOsDSwAVzzb0AeFxqyQa64YgN6R4Uk2xgaMYYpLKXoAGMOGX
v/xZA+8oyVAP0ldgf0A3JATp8YkdBbGm1x/PsA==
-----END CERTIFICATE-----
