Certificate:
    Data:
        Version: 3 (0x2)
        Serial Number: 403 (0x193)
        Signature Algorithm: sha256WithRSAEncryption
        Issuer: C=CH, ST=Thurgau, L=Kefikon, O=guengel.ch, CN=CA guengel.ch/emailAddress=postmaster@guengel.ch
        Validity
            Not Before: Aug 16 08:27:47 2020 GMT
            Not After : Sep 20 08:27:47 2021 GMT
        Subject: C=CH, ST=Thurgau, O=guengel.ch, CN=ec2-35-156-183-108.eu-central-1.compute.amazonaws.com/emailAddress=postmaster@guengel.ch
        Subject Public Key Info:
            Public Key Algorithm: rsaEncryption
                RSA Public-Key: (2048 bit)
                Modulus:
                    00:bb:69:57:7a:46:1a:c0:c1:60:0c:2a:20:07:82:
                    a0:ca:c7:1b:f8:e6:00:c3:79:a2:e3:5b:2e:42:0a:
                    33:e3:d3:60:f5:3f:97:8c:c8:1c:76:9a:cc:1a:b1:
                    14:53:f1:fc:cf:94:f1:f0:77:ca:2c:71:ac:d6:16:
                    e3:c1:e7:3f:60:47:62:8b:75:6e:23:88:c2:a5:e1:
                    8e:99:f6:52:83:ef:70:2e:74:88:cc:3c:7c:86:b7:
                    af:f2:83:45:51:d5:e5:45:11:52:4d:fc:a5:0c:64:
                    81:c1:0e:40:42:c1:30:6b:57:95:d2:4b:2c:21:59:
                    36:1c:33:0d:1f:df:0a:df:30:13:16:c1:e6:65:f2:
                    c1:d4:da:dc:ad:60:02:58:2a:2b:78:fb:66:02:25:
                    18:14:89:ce:e9:81:46:10:2b:2b:4f:47:d0:34:f3:
                    0b:bc:a2:12:83:30:bd:26:ff:a8:49:11:b2:40:d8:
                    be:bb:6b:bb:45:89:5e:b9:7e:29:94:0e:c2:d6:b1:
                    d0:f0:90:54:20:ef:e3:4a:c3:0d:dd:6f:65:ff:52:
                    c9:46:10:97:1f:bc:c9:e7:ef:56:2d:aa:46:90:73:
                    3f:b3:1f:a7:38:6f:2d:3c:e8:f8:54:49:2c:9e:ef:
                    8f:ad:6b:45:3d:de:5a:68:c7:60:96:6f:f1:52:e3:
                    4b:f3
                Exponent: 65537 (0x10001)
        X509v3 extensions:
            X509v3 Basic Constraints: 
                CA:FALSE
            X509v3 Key Usage: 
                Digital Signature, Key Agreement
            Netscape Cert Type: 
                SSL Client, SSL Server
            X509v3 Extended Key Usage: 
                TLS Web Server Authentication, TLS Web Client Authentication
            X509v3 Subject Alternative Name: 
                DNS:ec2-35-156-183-108.eu-central-1.compute.amazonaws.com
    Signature Algorithm: sha256WithRSAEncryption
         6c:85:a1:ef:f0:45:48:de:83:31:2b:c9:48:8a:f2:86:d2:59:
         25:85:72:24:a6:46:28:9d:51:c6:73:41:82:f8:24:cd:15:08:
         f3:79:24:3a:25:cb:80:b6:37:df:0a:a1:bd:e8:d4:a6:a0:d3:
         e9:f8:bf:6d:35:a9:61:c2:df:ba:d5:51:0a:9b:36:71:8c:71:
         9f:fd:bf:6f:09:e4:6f:6c:90:f7:ea:16:7e:00:8e:4e:6d:ff:
         d9:10:9e:4d:d1:dc:56:41:d2:b6:26:7b:98:a1:bb:56:a6:f1:
         a5:d7:df:a7:cd:51:1b:4c:ef:cb:fd:94:3f:b9:f8:da:94:e0:
         84:6d:72:45:ed:a1:63:4d:8c:14:61:e5:ab:9f:90:86:7b:a8:
         7d:a1:22:d3:9d:32:c8:70:e9:5e:fc:94:b3:1e:29:75:c7:f0:
         b2:c5:ec:05:54:5b:f3:7a:93:c2:b8:a8:9e:e6:fa:04:93:bb:
         6f:25:da:fe:6f:68:8d:be:70:4b:e3:b2:c4:e6:49:db:2b:80:
         29:5b:0d:b9:30:ab:1d:47:60:f4:a2:42:c3:eb:a6:5d:69:27:
         2f:55:a6:48:4b:23:1f:b8:37:b5:14:77:58:6a:27:6b:21:61:
         02:9b:0b:53:bc:e3:97:9d:23:58:26:80:b3:5b:ec:a1:81:46:
         1f:92:fe:aa:5c:7d:2a:31:a3:4b:17:ad:cd:2b:80:d4:8d:ac:
         4c:0a:6d:d4:7e:7e:e9:7e:a9:21:60:13:59:f8:ce:5a:1e:f0:
         42:3e:94:51:7c:00:a9:92:f1:6b:be:d6:e9:11:d4:70:cd:97:
         58:7a:39:09:d1:40:ba:07:11:7b:46:20:e8:32:88:c2:e4:0f:
         e8:c4:e7:bb:66:12:60:ec:75:29:a3:2c:1e:57:6a:2d:ed:9a:
         ce:1d:4d:b5:3d:37:c9:c3:81:64:18:70:b4:b5:77:50:01:30:
         2c:67:5c:6d:5c:5a:4e:6d:d0:1c:88:43:14:60:e6:9e:db:8b:
         5e:b2:42:25:94:e7:c9:35:38:9a:11:2f:ad:ad:08:f4:d2:65:
         67:d3:e9:3b:91:45:4a:18:71:80:14:b3:d5:67:e4:0a:b2:8e:
         e6:7a:71:20:db:78:42:db:7b:24:1d:61:02:b6:09:53:91:d3:
         b8:37:0b:c2:bd:df:03:af:bd:81:78:79:f1:0b:45:d5:1a:e1:
         6f:f7:4f:d8:52:7e:74:fb:91:9c:d1:d3:e9:da:3b:fa:d2:b5:
         ab:50:7e:ff:5e:7e:dd:f0:bf:d8:34:cd:f8:99:7b:78:b5:13:
         7e:02:9f:6f:6e:8e:e5:35:94:c0:51:97:48:57:75:15:62:54:
         42:e4:8c:70:40:43:b7:6b
-----BEGIN CERTIFICATE-----
MIIFLDCCAxSgAwIBAgICAZMwDQYJKoZIhvcNAQELBQAwgYQxCzAJBgNVBAYTAkNI
MRAwDgYDVQQIEwdUaHVyZ2F1MRAwDgYDVQQHEwdLZWZpa29uMRMwEQYDVQQKEwpn
dWVuZ2VsLmNoMRYwFAYDVQQDEw1DQSBndWVuZ2VsLmNoMSQwIgYJKoZIhvcNAQkB
FhVwb3N0bWFzdGVyQGd1ZW5nZWwuY2gwHhcNMjAwODE2MDgyNzQ3WhcNMjEwOTIw
MDgyNzQ3WjCBmjELMAkGA1UEBhMCQ0gxEDAOBgNVBAgTB1RodXJnYXUxEzARBgNV
BAoTCmd1ZW5nZWwuY2gxPjA8BgNVBAMTNWVjMi0zNS0xNTYtMTgzLTEwOC5ldS1j
ZW50cmFsLTEuY29tcHV0ZS5hbWF6b25hd3MuY29tMSQwIgYJKoZIhvcNAQkBFhVw
b3N0bWFzdGVyQGd1ZW5nZWwuY2gwggEiMA0GCSqGSIb3DQEBAQUAA4IBDwAwggEK
AoIBAQC7aVd6RhrAwWAMKiAHgqDKxxv45gDDeaLjWy5CCjPj02D1P5eMyBx2mswa
sRRT8fzPlPHwd8oscazWFuPB5z9gR2KLdW4jiMKl4Y6Z9lKD73AudIjMPHyGt6/y
g0VR1eVFEVJN/KUMZIHBDkBCwTBrV5XSSywhWTYcMw0f3wrfMBMWweZl8sHU2tyt
YAJYKit4+2YCJRgUic7pgUYQKytPR9A08wu8ohKDML0m/6hJEbJA2L67a7tFiV65
fimUDsLWsdDwkFQg7+NKww3db2X/UslGEJcfvMnn71YtqkaQcz+zH6c4by086PhU
SSye74+ta0U93lpox2CWb/FS40vzAgMBAAGjgY8wgYwwCQYDVR0TBAIwADALBgNV
HQ8EBAMCA4gwEQYJYIZIAYb4QgEBBAQDAgbAMB0GA1UdJQQWMBQGCCsGAQUFBwMB
BggrBgEFBQcDAjBABgNVHREEOTA3gjVlYzItMzUtMTU2LTE4My0xMDguZXUtY2Vu
dHJhbC0xLmNvbXB1dGUuYW1hem9uYXdzLmNvbTANBgkqhkiG9w0BAQsFAAOCAgEA
bIWh7/BFSN6DMSvJSIryhtJZJYVyJKZGKJ1RxnNBgvgkzRUI83kkOiXLgLY33wqh
vejUpqDT6fi/bTWpYcLfutVRCps2cYxxn/2/bwnkb2yQ9+oWfgCOTm3/2RCeTdHc
VkHStiZ7mKG7Vqbxpdffp81RG0zvy/2UP7n42pTghG1yRe2hY02MFGHlq5+Qhnuo
faEi050yyHDpXvyUsx4pdcfwssXsBVRb83qTwrionub6BJO7byXa/m9ojb5wS+Oy
xOZJ2yuAKVsNuTCrHUdg9KJCw+umXWknL1WmSEsjH7g3tRR3WGonayFhApsLU7zj
l50jWCaAs1vsoYFGH5L+qlx9KjGjSxetzSuA1I2sTApt1H5+6X6pIWATWfjOWh7w
Qj6UUXwAqZLxa77W6RHUcM2XWHo5CdFAugcRe0Yg6DKIwuQP6MTnu2YSYOx1KaMs
HldqLe2azh1NtT03ycOBZBhwtLV3UAEwLGdcbVxaTm3QHIhDFGDmntuLXrJCJZTn
yTU4mhEvra0I9NJlZ9PpO5FFShhxgBSz1WfkCrKO5npxINt4Qtt7JB1hArYJU5HT
uDcLwr3fA6+9gXh58QtF1Rrhb/dP2FJ+dPuRnNHT6do7+tK1q1B+/15+3fC/2DTN
+Jl7eLUTfgKfb26O5TWUwFGXSFd1FWJUQuSMcEBDt2s=
-----END CERTIFICATE-----
