Certificate:
    Data:
        Version: 3 (0x2)
        Serial Number: 470 (0x1d6)
        Signature Algorithm: sha256WithRSAEncryption
        Issuer: C=CH, ST=Thurgau, L=Kefikon, O=guengel.ch, CN=CA guengel.ch/emailAddress=postmaster@guengel.ch
        Validity
            Not Before: Feb 11 07:07:21 2022 GMT
            Not After : Mar 18 07:07:21 2023 GMT
        Subject: C=CH, ST=Thurgau, O=guengel.ch, CN=ec2-3-123-24-250.eu-central-1.compute.amazonaws.com/emailAddress=postmaster@guengel.ch
        Subject Public Key Info:
            Public Key Algorithm: rsaEncryption
                RSA Public-Key: (2048 bit)
                Modulus:
                    00:d6:f6:82:c1:35:6c:83:c0:07:46:10:67:fd:01:
                    17:6c:56:21:c4:36:3d:b8:ea:a6:97:4e:89:20:72:
                    82:0d:a8:26:c0:e5:d2:76:e6:60:17:54:76:15:92:
                    f9:05:71:dd:7d:5f:3c:60:a7:b2:11:52:e0:77:bb:
                    c6:ae:32:8b:ae:81:57:b7:b4:b6:2c:5f:af:48:f5:
                    8b:d8:6a:71:d8:cc:6a:08:d7:59:d8:0d:d5:e7:a2:
                    fc:4e:67:85:e8:65:49:19:01:8e:4f:9e:9e:d4:73:
                    33:76:ff:52:33:1e:e2:0a:6c:5b:d7:90:c4:4c:60:
                    4f:2f:ed:1c:e2:a2:71:07:7c:79:e2:10:e3:e8:71:
                    8a:90:c5:fb:b0:c0:ea:9a:70:45:03:87:7b:11:75:
                    8d:64:27:4a:db:1b:b9:93:60:cb:ee:88:9a:81:cf:
                    7d:e3:2c:5a:0d:d0:d0:f6:18:63:69:22:91:c4:d0:
                    39:90:bf:96:15:d7:b2:87:2d:6d:33:93:cb:b7:ec:
                    56:3a:5e:72:58:5f:c2:df:8a:9f:95:e8:51:7f:34:
                    b3:c7:c5:b3:0e:c7:36:e1:ed:a3:0c:a4:e0:6d:ff:
                    d5:3c:ba:89:2c:bd:aa:4e:5f:32:66:c2:bf:a3:df:
                    93:1c:5a:f4:77:53:65:99:b2:71:92:d9:fb:59:4a:
                    0f:b5
                Exponent: 65537 (0x10001)
        X509v3 extensions:
            X509v3 Key Usage: 
                Digital Signature, Key Encipherment, Key Agreement
            X509v3 Basic Constraints: critical
                CA:FALSE
            Netscape Cert Type: 
                SSL Client, SSL Server
            X509v3 Extended Key Usage: 
                TLS Web Server Authentication, TLS Web Client Authentication
            X509v3 Subject Alternative Name: 
                DNS:ec2-3-123-24-250.eu-central-1.compute.amazonaws.com
            X509v3 Subject Key Identifier: 
                6E:6B:1D:E7:6C:1D:90:E6:75:C8:C2:47:7C:C2:3B:EF:FF:DA:D8:CC
            X509v3 Authority Key Identifier: 
                keyid:D6:88:F1:AA:C1:2B:09:8C:B8:5C:9D:CE:DF:57:39:62:26:10:20:90
                DirName:/C=CH/ST=Thurgau/L=Kefikon/O=guengel.ch/CN=CA guengel.ch/emailAddress=postmaster@guengel.ch
                serial:E5:25:3B:A6:77:BD:CB:FF

    Signature Algorithm: sha256WithRSAEncryption
         0a:14:4f:41:30:cd:d7:a1:ad:57:db:01:34:54:8a:a6:d5:33:
         9e:22:e1:a1:81:e6:43:7b:74:33:cd:75:1e:f8:b0:92:de:2f:
         e2:f6:d9:68:05:2f:7d:55:6d:c8:15:94:9f:cf:48:53:c2:e6:
         a3:30:3d:43:22:36:94:c5:3a:2e:bf:5a:51:c7:c7:24:0f:a6:
         b4:b8:b8:11:4a:9d:29:96:89:7b:de:31:ec:c9:60:08:26:6a:
         5c:81:33:2b:e7:87:5a:b0:79:77:62:50:33:4e:99:f7:21:19:
         c6:6b:f8:30:f5:03:30:e1:95:f4:c0:cd:28:2a:e3:57:47:b1:
         64:bd:35:2b:b7:26:ee:2e:47:b9:fe:43:f7:ed:6c:3d:ad:ba:
         ba:7f:6b:9e:83:51:55:35:06:cb:69:e8:1e:59:c3:1e:d7:c6:
         95:da:37:f1:6b:23:7f:b1:53:9e:e0:d9:c9:77:8e:26:11:fd:
         25:70:8f:0a:ac:6d:0b:0a:6f:dc:dd:7d:4d:4f:27:35:00:9e:
         8b:15:5c:4c:31:b9:8c:86:01:ab:4d:9b:8a:59:68:23:14:46:
         25:bb:47:3c:aa:61:1f:a4:f6:75:a4:dd:6e:d1:c2:a2:ad:c4:
         ad:af:cb:f9:96:d0:1f:d2:db:4e:a7:38:d5:ec:f0:9e:1f:30:
         06:1c:98:7e:b6:7a:9a:dd:6d:73:e1:a9:91:71:98:9e:0d:20:
         3e:ac:b4:01:7e:d7:68:16:cc:7a:d7:42:c8:b3:6e:bf:92:1b:
         e0:e2:f5:e3:2b:33:0c:e9:d6:bb:11:d6:42:45:79:ac:5f:6d:
         98:a2:b8:ef:8c:1f:0e:e9:27:30:e6:05:7d:3d:af:bd:24:44:
         32:b3:f0:a0:40:00:11:dc:76:4e:b7:1a:8f:b8:c5:1d:e4:62:
         77:dd:de:ca:c8:e5:4b:87:9f:ce:e6:d5:df:3e:15:f1:04:76:
         ba:0b:a5:3f:4e:e1:cc:39:3d:fd:30:8d:a1:87:59:04:72:5b:
         62:8e:0b:71:60:0f:ba:db:08:cc:f0:82:fa:6f:7f:e2:7e:c3:
         80:82:21:36:02:e8:cf:75:da:98:00:56:af:ca:3a:bb:af:e4:
         82:c1:2a:cb:7d:c1:86:7d:57:27:89:91:ac:fe:53:6b:76:db:
         84:2d:7f:91:4f:e7:0d:f8:3d:ae:5d:98:ab:11:11:4f:3f:81:
         96:12:9b:a9:43:63:b4:7b:3e:1a:cf:8f:8f:b3:11:49:d1:9c:
         dc:8a:5a:80:ca:77:5d:00:cd:ac:63:8d:51:77:0a:97:e3:e9:
         8a:ab:89:9b:78:d5:90:bd:b1:66:10:6d:26:f0:86:34:03:a3:
         60:44:8e:56:75:68:58:f6
-----BEGIN CERTIFICATE-----
MIIGCDCCA/CgAwIBAgICAdYwDQYJKoZIhvcNAQELBQAwgYQxCzAJBgNVBAYTAkNI
MRAwDgYDVQQIEwdUaHVyZ2F1MRAwDgYDVQQHEwdLZWZpa29uMRMwEQYDVQQKEwpn
dWVuZ2VsLmNoMRYwFAYDVQQDEw1DQSBndWVuZ2VsLmNoMSQwIgYJKoZIhvcNAQkB
FhVwb3N0bWFzdGVyQGd1ZW5nZWwuY2gwHhcNMjIwMjExMDcwNzIxWhcNMjMwMzE4
MDcwNzIxWjCBmDELMAkGA1UEBhMCQ0gxEDAOBgNVBAgTB1RodXJnYXUxEzARBgNV
BAoTCmd1ZW5nZWwuY2gxPDA6BgNVBAMTM2VjMi0zLTEyMy0yNC0yNTAuZXUtY2Vu
dHJhbC0xLmNvbXB1dGUuYW1hem9uYXdzLmNvbTEkMCIGCSqGSIb3DQEJARYVcG9z
dG1hc3RlckBndWVuZ2VsLmNoMIIBIjANBgkqhkiG9w0BAQEFAAOCAQ8AMIIBCgKC
AQEA1vaCwTVsg8AHRhBn/QEXbFYhxDY9uOqml06JIHKCDagmwOXSduZgF1R2FZL5
BXHdfV88YKeyEVLgd7vGrjKLroFXt7S2LF+vSPWL2Gpx2MxqCNdZ2A3V56L8TmeF
6GVJGQGOT56e1HMzdv9SMx7iCmxb15DETGBPL+0c4qJxB3x54hDj6HGKkMX7sMDq
mnBFA4d7EXWNZCdK2xu5k2DL7oiagc994yxaDdDQ9hhjaSKRxNA5kL+WFdeyhy1t
M5PLt+xWOl5yWF/C34qflehRfzSzx8WzDsc24e2jDKTgbf/VPLqJLL2qTl8yZsK/
o9+THFr0d1NlmbJxktn7WUoPtQIDAQABo4IBbDCCAWgwCwYDVR0PBAQDAgOoMAwG
A1UdEwEB/wQCMAAwEQYJYIZIAYb4QgEBBAQDAgbAMB0GA1UdJQQWMBQGCCsGAQUF
BwMBBggrBgEFBQcDAjA+BgNVHREENzA1gjNlYzItMy0xMjMtMjQtMjUwLmV1LWNl
bnRyYWwtMS5jb21wdXRlLmFtYXpvbmF3cy5jb20wHQYDVR0OBBYEFG5rHedsHZDm
dcjCR3zCO+//2tjMMIG5BgNVHSMEgbEwga6AFNaI8arBKwmMuFydzt9XOWImECCQ
oYGKpIGHMIGEMQswCQYDVQQGEwJDSDEQMA4GA1UECBMHVGh1cmdhdTEQMA4GA1UE
BxMHS2VmaWtvbjETMBEGA1UEChMKZ3VlbmdlbC5jaDEWMBQGA1UEAxMNQ0EgZ3Vl
bmdlbC5jaDEkMCIGCSqGSIb3DQEJARYVcG9zdG1hc3RlckBndWVuZ2VsLmNoggkA
5SU7pne9y/8wDQYJKoZIhvcNAQELBQADggIBAAoUT0EwzdehrVfbATRUiqbVM54i
4aGB5kN7dDPNdR74sJLeL+L22WgFL31VbcgVlJ/PSFPC5qMwPUMiNpTFOi6/WlHH
xyQPprS4uBFKnSmWiXveMezJYAgmalyBMyvnh1qweXdiUDNOmfchGcZr+DD1AzDh
lfTAzSgq41dHsWS9NSu3Ju4uR7n+Q/ftbD2turp/a56DUVU1Bstp6B5Zwx7XxpXa
N/FrI3+xU57g2cl3jiYR/SVwjwqsbQsKb9zdfU1PJzUAnosVXEwxuYyGAatNm4pZ
aCMURiW7RzyqYR+k9nWk3W7RwqKtxK2vy/mW0B/S206nONXs8J4fMAYcmH62eprd
bXPhqZFxmJ4NID6stAF+12gWzHrXQsizbr+SG+Di9eMrMwzp1rsR1kJFeaxfbZii
uO+MHw7pJzDmBX09r70kRDKz8KBAABHcdk63Go+4xR3kYnfd3srI5UuHn87m1d8+
FfEEdroLpT9O4cw5Pf0wjaGHWQRyW2KOC3FgD7rbCMzwgvpvf+J+w4CCITYC6M91
2pgAVq/KOruv5ILBKst9wYZ9VyeJkaz+U2t224Qtf5FP5w34Pa5dmKsREU8/gZYS
m6lDY7R7PhrPj4+zEUnRnNyKWoDKd10AzaxjjVF3Cpfj6YqriZt41ZC9sWYQbSbw
hjQDo2BEjlZ1aFj2
-----END CERTIFICATE-----
