Certificate:
    Data:
        Version: 3 (0x2)
        Serial Number:
            3e:fe:39:6b:b1:3a:e0:59:f7:c6:1b:fa:06:93:5a:b9:34:90:c0:c6
        Signature Algorithm: sha256WithRSAEncryption
        Issuer: C=CH, ST=Thurgau, L=Kefikon, O=guengel.ch, CN=CA 2022/emailAddress=postmaster@guengel.ch
        Validity
            Not Before: Feb 28 06:40:30 2023 GMT
            Not After : Apr  3 06:40:30 2024 GMT
        Subject: C=CH, ST=Thurgau, O=guengel.ch, CN=ec2-35-156-183-108.eu-central-1.compute.amazonaws.com/emailAddress=postmaster@guengel.ch
        Subject Public Key Info:
            Public Key Algorithm: rsaEncryption
                RSA Public-Key: (2048 bit)
                Modulus:
                    00:9e:57:4f:39:55:f9:a8:1a:1a:57:8f:06:40:3b:
                    ef:e2:a5:13:fb:37:f5:26:d1:46:bc:4a:dd:b0:e8:
                    61:05:9a:c9:85:58:37:d2:76:df:e8:5d:55:d6:ef:
                    0f:15:d7:55:0e:88:08:9f:88:56:15:73:df:99:e6:
                    fd:44:0b:bb:07:ba:30:f5:ae:51:e8:80:fd:30:e7:
                    37:29:9a:08:64:23:af:e0:db:65:60:df:26:98:a5:
                    a6:19:b7:08:d6:67:26:98:0e:97:1a:82:53:8a:f0:
                    7c:12:5d:ed:68:33:3d:c1:a8:7f:d0:65:e7:d2:26:
                    7e:da:4e:cc:8e:9c:0a:d8:9d:aa:fe:eb:06:49:cb:
                    9e:32:8f:a2:2a:19:87:b8:dc:13:bd:5c:0f:d9:a6:
                    c3:ad:56:2c:68:7c:70:70:09:6e:2f:27:f6:4b:11:
                    03:cf:78:ae:da:8f:94:99:23:a4:78:38:cf:8d:13:
                    3b:d4:a5:75:c1:bd:3c:af:f5:b6:93:b9:16:dd:bc:
                    27:54:cf:37:31:0d:b6:f6:a2:4d:01:9c:85:db:c2:
                    7a:b3:a4:37:5c:55:89:84:34:00:1b:d8:26:e9:c4:
                    04:49:6a:05:79:21:aa:9c:a7:28:31:8f:93:8e:67:
                    01:f3:7c:81:ca:59:a2:1c:ad:a7:6e:00:b8:40:ad:
                    d2:03
                Exponent: 65537 (0x10001)
        X509v3 extensions:
            X509v3 Basic Constraints: critical
                CA:FALSE
            X509v3 Key Usage: 
                Digital Signature, Key Encipherment, Key Agreement
            X509v3 Subject Key Identifier: 
                9F:C2:BB:B2:24:54:A1:BA:CD:70:8A:3F:70:02:B8:51:F2:53:F2:00
            X509v3 Authority Key Identifier: 
                keyid:22:20:0D:51:40:61:42:BE:DD:BA:D9:C9:C1:77:B6:93:28:C3:99:EC
                DirName:/C=CH/ST=Thurgau/L=Kefikon/O=guengel.ch/CN=CA 2022/emailAddress=postmaster@guengel.ch
                serial:6D:29:90:54:E9:17:E9:C2:6A:E6:52:AD:84:4E:30:8E:6E:57:FB:1C

            Netscape Cert Type: 
                SSL Client, SSL Server
            X509v3 Extended Key Usage: 
                TLS Web Server Authentication, TLS Web Client Authentication
            X509v3 Subject Alternative Name: 
                DNS:ec2-35-156-183-108.eu-central-1.compute.amazonaws.com
    Signature Algorithm: sha256WithRSAEncryption
         16:2c:c9:40:a1:6f:d6:bb:ef:fd:98:4d:4f:86:2e:53:1e:3f:
         ad:61:5f:2a:39:a8:4f:6c:bd:18:9e:80:b3:b7:c3:a9:0b:1d:
         94:92:32:f5:f5:19:0f:e6:3f:b4:68:01:e1:66:b0:63:6f:0e:
         7b:d6:88:b3:a8:12:e6:ec:08:19:21:d2:07:b7:b2:40:b8:14:
         8c:f5:60:85:6c:fa:07:d9:9c:06:d4:12:cd:c7:bc:ee:3f:e4:
         e9:0a:4b:42:07:26:18:f2:e7:5d:cf:b8:26:97:3a:e5:d3:a2:
         11:68:74:6c:c5:d2:e7:e8:5c:6a:41:03:fc:af:12:61:77:ac:
         27:2a:4b:e9:ee:54:8b:74:97:59:9c:8d:c5:38:2c:84:0f:a6:
         52:ba:2b:b2:ab:d8:e7:df:e8:e5:56:59:48:d4:be:b3:9d:76:
         e3:fa:c1:1b:9d:37:45:77:e3:ce:b1:ad:f0:bc:ca:77:30:71:
         78:88:ed:83:63:5b:04:aa:7c:59:9d:f7:dc:d4:83:4c:5a:ab:
         ca:4a:bb:11:e9:4d:21:65:45:cc:d7:b8:90:04:80:5d:b0:6d:
         f8:42:8e:8d:3e:97:d4:8e:ab:ae:db:77:58:b5:0c:81:4a:cf:
         61:f4:02:4d:5a:ca:19:f9:32:26:33:e6:ae:d5:96:63:36:83:
         cd:23:1d:4d:40:ea:90:e7:e0:18:9b:06:2e:96:7c:85:e6:f5:
         39:19:54:62:38:0f:55:ae:a5:e1:79:2d:82:51:73:df:2c:13:
         cf:83:0d:c2:11:19:ab:d2:89:55:4e:82:3d:b4:e1:bb:e9:f1:
         9b:40:04:6c:8f:8d:79:2c:e0:a1:77:83:a5:03:49:8c:ce:2e:
         96:82:de:ad:0f:69:11:85:b7:8f:d3:0c:6b:e2:17:a9:99:0b:
         c2:97:b0:e7:b3:a7:20:b4:f7:59:88:42:00:41:e8:c5:b3:87:
         87:35:17:d9:ba:cf:bc:e8:7b:b9:9f:32:bd:e2:4a:9a:d2:96:
         22:0f:38:02:62:c0:0b:67:ff:8e:dd:58:b2:3f:3c:7a:0a:d8:
         e8:eb:e7:ac:53:1c:72:3d:29:e3:54:01:25:fc:b5:86:c4:51:
         d6:33:77:2b:b7:8c:7d:c8:f8:07:bc:ad:48:f1:ed:41:66:a2:
         ab:7a:8a:22:ae:bf:62:32:2e:96:13:3f:08:f1:45:e6:df:09:
         04:3d:a1:8a:e6:09:55:ae:b3:8e:70:d3:e8:43:c9:b2:7d:d8:
         1d:f7:ec:93:55:44:65:05:6c:88:08:ed:a7:57:54:dc:08:f0:
         7e:ef:74:d3:7e:d8:34:76:dd:87:00:7b:16:2d:a5:1b:cb:55:
         9f:a9:d9:41:6d:09:38:46
-----BEGIN CERTIFICATE-----
MIIGGzCCBAOgAwIBAgIUPv45a7E64Fn3xhv6BpNauTSQwMYwDQYJKoZIhvcNAQEL
BQAwfjELMAkGA1UEBhMCQ0gxEDAOBgNVBAgTB1RodXJnYXUxEDAOBgNVBAcTB0tl
Zmlrb24xEzARBgNVBAoTCmd1ZW5nZWwuY2gxEDAOBgNVBAMTB0NBIDIwMjIxJDAi
BgkqhkiG9w0BCQEWFXBvc3RtYXN0ZXJAZ3VlbmdlbC5jaDAeFw0yMzAyMjgwNjQw
MzBaFw0yNDA0MDMwNjQwMzBaMIGaMQswCQYDVQQGEwJDSDEQMA4GA1UECBMHVGh1
cmdhdTETMBEGA1UEChMKZ3VlbmdlbC5jaDE+MDwGA1UEAxM1ZWMyLTM1LTE1Ni0x
ODMtMTA4LmV1LWNlbnRyYWwtMS5jb21wdXRlLmFtYXpvbmF3cy5jb20xJDAiBgkq
hkiG9w0BCQEWFXBvc3RtYXN0ZXJAZ3VlbmdlbC5jaDCCASIwDQYJKoZIhvcNAQEB
BQADggEPADCCAQoCggEBAJ5XTzlV+agaGlePBkA77+KlE/s39SbRRrxK3bDoYQWa
yYVYN9J23+hdVdbvDxXXVQ6ICJ+IVhVz35nm/UQLuwe6MPWuUeiA/TDnNymaCGQj
r+DbZWDfJpilphm3CNZnJpgOlxqCU4rwfBJd7WgzPcGof9Bl59ImftpOzI6cCtid
qv7rBknLnjKPoioZh7jcE71cD9mmw61WLGh8cHAJbi8n9ksRA894rtqPlJkjpHg4
z40TO9SldcG9PK/1tpO5Ft28J1TPNzENtvaiTQGchdvCerOkN1xViYQ0ABvYJunE
BElqBXkhqpynKDGPk45nAfN8gcpZohytp24AuECt0gMCAwEAAaOCAXIwggFuMAwG
A1UdEwEB/wQCMAAwCwYDVR0PBAQDAgOoMB0GA1UdDgQWBBSfwruyJFShus1wij9w
ArhR8lPyADCBvQYDVR0jBIG1MIGygBQiIA1RQGFCvt262cnBd7aTKMOZ7KGBg6SB
gDB+MQswCQYDVQQGEwJDSDEQMA4GA1UECBMHVGh1cmdhdTEQMA4GA1UEBxMHS2Vm
aWtvbjETMBEGA1UEChMKZ3VlbmdlbC5jaDEQMA4GA1UEAxMHQ0EgMjAyMjEkMCIG
CSqGSIb3DQEJARYVcG9zdG1hc3RlckBndWVuZ2VsLmNoghRtKZBU6RfpwmrmUq2E
TjCOblf7HDARBglghkgBhvhCAQEEBAMCBsAwHQYDVR0lBBYwFAYIKwYBBQUHAwEG
CCsGAQUFBwMCMEAGA1UdEQQ5MDeCNWVjMi0zNS0xNTYtMTgzLTEwOC5ldS1jZW50
cmFsLTEuY29tcHV0ZS5hbWF6b25hd3MuY29tMA0GCSqGSIb3DQEBCwUAA4ICAQAW
LMlAoW/Wu+/9mE1Phi5THj+tYV8qOahPbL0YnoCzt8OpCx2UkjL19RkP5j+0aAHh
ZrBjbw571oizqBLm7AgZIdIHt7JAuBSM9WCFbPoH2ZwG1BLNx7zuP+TpCktCByYY
8uddz7gmlzrl06IRaHRsxdLn6FxqQQP8rxJhd6wnKkvp7lSLdJdZnI3FOCyED6ZS
uiuyq9jn3+jlVllI1L6znXbj+sEbnTdFd+POsa3wvMp3MHF4iO2DY1sEqnxZnffc
1INMWqvKSrsR6U0hZUXM17iQBIBdsG34Qo6NPpfUjquu23dYtQyBSs9h9AJNWsoZ
+TImM+au1ZZjNoPNIx1NQOqQ5+AYmwYulnyF5vU5GVRiOA9VrqXheS2CUXPfLBPP
gw3CERmr0olVToI9tOG76fGbQARsj415LOChd4OlA0mMzi6Wgt6tD2kRhbeP0wxr
4hepmQvCl7Dns6cgtPdZiEIAQejFs4eHNRfZus+86Hu5nzK94kqa0pYiDzgCYsAL
Z/+O3ViyPzx6Ctjo6+esUxxyPSnjVAEl/LWGxFHWM3crt4x9yPgHvK1I8e1BZqKr
eooirr9iMi6WEz8I8UXm3wkEPaGK5glVrrOOcNPoQ8myfdgd9+yTVURlBWyICO2n
V1TcCPB+73TTftg0dt2HAHsWLaUby1WfqdlBbQk4Rg==
-----END CERTIFICATE-----
