Certificate:
    Data:
        Version: 3 (0x2)
        Serial Number:
            01:20:e3:a4:5f:d0:4b:c1:77:aa:7d:f7:ac:d3:67:c2:ba:f7:b6:fd
        Signature Algorithm: sha256WithRSAEncryption
        Issuer: C=CH, ST=Thurgau, L=Kefikon, O=guengel.ch, CN=CA 2022/emailAddress=postmaster@guengel.ch
        Validity
            Not Before: Dec 30 08:45:44 2023 GMT
            Not After : Feb  2 08:45:44 2025 GMT
        Subject: C=CH, ST=Thurgau, O=guengel.ch, CN=ec2-3-123-24-250.eu-central-1.compute.amazonaws.com/emailAddress=postmaster@guengel.ch
        Subject Public Key Info:
            Public Key Algorithm: rsaEncryption
                RSA Public-Key: (2048 bit)
                Modulus:
                    00:bf:ec:4c:4a:3c:c3:72:ba:33:47:01:b1:a0:17:
                    b2:18:e5:37:eb:c3:80:d4:d0:0b:00:2c:89:48:60:
                    a6:d9:82:a6:02:dd:22:6a:43:58:f3:e3:23:ea:b4:
                    f7:b2:68:92:4c:9c:52:ff:7a:38:36:da:8a:61:a3:
                    91:b3:cf:70:49:ff:c1:91:90:ca:0f:06:99:d4:58:
                    69:7e:b5:f4:82:98:d5:c6:26:7b:b1:ec:be:3d:e6:
                    07:60:00:32:c0:12:13:27:cc:9a:b8:32:a8:ca:52:
                    3a:53:ee:04:35:9f:b1:42:d6:e4:f1:51:df:c0:e6:
                    6a:ed:31:b4:6a:25:46:8d:0a:ca:f5:fa:c9:56:9d:
                    8c:35:7d:ef:c3:7c:9a:6a:c5:b6:53:4b:aa:de:5e:
                    ac:67:3b:b2:3f:ad:39:f0:c8:c5:25:b4:7f:5d:06:
                    a7:02:24:29:74:0e:8e:75:bf:59:2f:5e:7d:0c:0b:
                    cc:3e:d8:83:9a:42:10:d7:90:db:5c:f1:b3:36:8e:
                    8b:d1:f9:a4:c8:ae:ce:09:1b:d8:79:bc:6c:8f:8b:
                    be:0d:69:36:a6:07:c9:c3:f1:87:a9:d8:bf:41:76:
                    56:69:18:20:67:6c:0a:b2:c4:c2:cd:ea:7f:54:25:
                    69:ec:b8:2e:56:02:25:ba:c9:22:53:ee:f3:61:61:
                    8e:8b
                Exponent: 65537 (0x10001)
        X509v3 extensions:
            X509v3 Basic Constraints: critical
                CA:FALSE
            X509v3 Key Usage: 
                Digital Signature, Key Encipherment, Key Agreement
            X509v3 Subject Key Identifier: 
                66:84:91:B8:61:40:A3:92:8F:B1:27:96:4C:5D:CB:FA:D6:6E:7F:F4
            X509v3 Authority Key Identifier: 
                keyid:22:20:0D:51:40:61:42:BE:DD:BA:D9:C9:C1:77:B6:93:28:C3:99:EC
                DirName:/C=CH/ST=Thurgau/L=Kefikon/O=guengel.ch/CN=CA 2022/emailAddress=postmaster@guengel.ch
                serial:6D:29:90:54:E9:17:E9:C2:6A:E6:52:AD:84:4E:30:8E:6E:57:FB:1C

            Netscape Cert Type: 
                SSL Client, SSL Server
            X509v3 Extended Key Usage: 
                TLS Web Server Authentication, TLS Web Client Authentication
            X509v3 Subject Alternative Name: 
                DNS:ec2-3-123-24-250.eu-central-1.compute.amazonaws.com
    Signature Algorithm: sha256WithRSAEncryption
         6f:5c:1c:80:94:c2:25:4b:f8:4c:2e:da:65:ef:b5:38:2d:3e:
         8a:f9:73:10:53:c5:af:85:06:eb:db:41:5c:ee:0e:04:ce:df:
         f9:81:88:e1:80:10:05:da:b7:b6:b2:cd:9e:1f:43:b5:7a:27:
         da:5b:f1:fb:62:f7:d3:0e:70:85:58:01:1c:9c:d7:45:63:88:
         bf:b2:ed:a7:e7:fd:b2:72:8c:da:c8:d7:97:14:28:85:30:31:
         c0:70:a2:e6:1c:a7:07:ba:2e:de:86:a8:a9:d5:43:38:3d:1e:
         26:c3:5c:85:67:de:39:3a:1b:26:25:b9:d1:89:54:f7:78:d5:
         bf:8f:39:29:61:fc:96:29:ea:5c:c7:c2:a3:64:99:f6:ba:00:
         9b:0a:8e:f0:b4:70:49:10:9d:b0:f7:83:66:a4:3f:8c:9b:7f:
         8f:30:29:da:7e:6a:10:56:a2:b3:d7:9c:fb:82:56:56:af:63:
         b4:7a:79:b3:7c:d8:cc:9e:78:91:f7:67:6b:a4:58:8d:5b:81:
         04:63:36:6e:82:5e:60:27:31:28:5a:b9:4f:cb:8c:48:df:fd:
         9d:8e:35:4a:fe:45:5b:de:26:52:a9:33:ad:d4:24:c1:11:d8:
         df:07:a8:7c:7e:ec:08:c5:2e:7e:e7:50:6d:fb:2f:79:6c:79:
         65:85:ae:15:db:45:a7:6c:a8:60:36:28:a7:dc:85:38:b9:1e:
         d3:83:df:e2:8a:7d:31:c9:6c:20:f7:15:f5:a0:06:93:a1:95:
         ce:8f:54:81:0a:4c:16:e8:4a:1a:b6:d6:cb:44:0c:8c:f8:80:
         f8:1b:b0:f9:b3:d1:6c:45:01:27:57:06:c1:13:e5:d9:bb:12:
         1f:0d:a5:2c:e9:f1:bc:59:57:b7:0c:c9:21:61:9b:56:2b:20:
         8b:4f:57:1c:58:92:95:90:8a:a3:79:9e:e9:ff:e2:ff:fd:85:
         bb:8b:30:a7:4d:ea:b3:3b:ae:f4:e8:49:5c:4c:f8:38:9d:f7:
         2d:87:42:3a:50:52:89:52:78:ac:85:a8:51:47:83:ec:d8:30:
         72:03:f9:50:46:00:96:72:f3:98:be:bd:cf:01:2b:46:d1:0a:
         8d:2c:54:89:db:ba:3b:cd:d5:5f:08:60:b9:01:fb:49:6e:b1:
         83:df:73:d1:c2:d0:8e:c5:ba:f6:15:56:5e:24:90:fc:ed:26:
         7b:2c:f6:60:7a:93:43:55:88:56:bc:af:90:54:32:57:d3:98:
         47:1f:58:83:13:c8:3d:78:eb:3a:b2:5b:8d:5d:b3:05:69:43:
         55:e6:9b:94:bf:24:7a:fa:64:20:9a:a7:93:14:bf:f7:40:56:
         88:a3:aa:4f:f9:7a:5f:5f
-----BEGIN CERTIFICATE-----
MIIGFzCCA/+gAwIBAgIUASDjpF/QS8F3qn33rNNnwrr3tv0wDQYJKoZIhvcNAQEL
BQAwfjELMAkGA1UEBhMCQ0gxEDAOBgNVBAgTB1RodXJnYXUxEDAOBgNVBAcTB0tl
Zmlrb24xEzARBgNVBAoTCmd1ZW5nZWwuY2gxEDAOBgNVBAMTB0NBIDIwMjIxJDAi
BgkqhkiG9w0BCQEWFXBvc3RtYXN0ZXJAZ3VlbmdlbC5jaDAeFw0yMzEyMzAwODQ1
NDRaFw0yNTAyMDIwODQ1NDRaMIGYMQswCQYDVQQGEwJDSDEQMA4GA1UECBMHVGh1
cmdhdTETMBEGA1UEChMKZ3VlbmdlbC5jaDE8MDoGA1UEAxMzZWMyLTMtMTIzLTI0
LTI1MC5ldS1jZW50cmFsLTEuY29tcHV0ZS5hbWF6b25hd3MuY29tMSQwIgYJKoZI
hvcNAQkBFhVwb3N0bWFzdGVyQGd1ZW5nZWwuY2gwggEiMA0GCSqGSIb3DQEBAQUA
A4IBDwAwggEKAoIBAQC/7ExKPMNyujNHAbGgF7IY5Tfrw4DU0AsALIlIYKbZgqYC
3SJqQ1jz4yPqtPeyaJJMnFL/ejg22opho5Gzz3BJ/8GRkMoPBpnUWGl+tfSCmNXG
Jnux7L495gdgADLAEhMnzJq4MqjKUjpT7gQ1n7FC1uTxUd/A5mrtMbRqJUaNCsr1
+slWnYw1fe/DfJpqxbZTS6reXqxnO7I/rTnwyMUltH9dBqcCJCl0Do51v1kvXn0M
C8w+2IOaQhDXkNtc8bM2jovR+aTIrs4JG9h5vGyPi74NaTamB8nD8Yep2L9BdlZp
GCBnbAqyxMLN6n9UJWnsuC5WAiW6ySJT7vNhYY6LAgMBAAGjggFwMIIBbDAMBgNV
HRMBAf8EAjAAMAsGA1UdDwQEAwIDqDAdBgNVHQ4EFgQUZoSRuGFAo5KPsSeWTF3L
+tZuf/Qwgb0GA1UdIwSBtTCBsoAUIiANUUBhQr7dutnJwXe2kyjDmeyhgYOkgYAw
fjELMAkGA1UEBhMCQ0gxEDAOBgNVBAgTB1RodXJnYXUxEDAOBgNVBAcTB0tlZmlr
b24xEzARBgNVBAoTCmd1ZW5nZWwuY2gxEDAOBgNVBAMTB0NBIDIwMjIxJDAiBgkq
hkiG9w0BCQEWFXBvc3RtYXN0ZXJAZ3VlbmdlbC5jaIIUbSmQVOkX6cJq5lKthE4w
jm5X+xwwEQYJYIZIAYb4QgEBBAQDAgbAMB0GA1UdJQQWMBQGCCsGAQUFBwMBBggr
BgEFBQcDAjA+BgNVHREENzA1gjNlYzItMy0xMjMtMjQtMjUwLmV1LWNlbnRyYWwt
MS5jb21wdXRlLmFtYXpvbmF3cy5jb20wDQYJKoZIhvcNAQELBQADggIBAG9cHICU
wiVL+Ewu2mXvtTgtPor5cxBTxa+FBuvbQVzuDgTO3/mBiOGAEAXat7ayzZ4fQ7V6
J9pb8fti99MOcIVYARyc10VjiL+y7afn/bJyjNrI15cUKIUwMcBwouYcpwe6Lt6G
qKnVQzg9HibDXIVn3jk6GyYludGJVPd41b+POSlh/JYp6lzHwqNkmfa6AJsKjvC0
cEkQnbD3g2akP4ybf48wKdp+ahBWorPXnPuCVlavY7R6ebN82MyeeJH3Z2ukWI1b
gQRjNm6CXmAnMShauU/LjEjf/Z2ONUr+RVveJlKpM63UJMER2N8HqHx+7AjFLn7n
UG37L3lseWWFrhXbRadsqGA2KKfchTi5HtOD3+KKfTHJbCD3FfWgBpOhlc6PVIEK
TBboShq21stEDIz4gPgbsPmz0WxFASdXBsET5dm7Eh8NpSzp8bxZV7cMySFhm1Yr
IItPVxxYkpWQiqN5nun/4v/9hbuLMKdN6rM7rvToSVxM+Did9y2HQjpQUolSeKyF
qFFHg+zYMHID+VBGAJZy85i+vc8BK0bRCo0sVInbujvN1V8IYLkB+0lusYPfc9HC
0I7FuvYVVl4kkPztJnss9mB6k0NViFa8r5BUMlfTmEcfWIMTyD146zqyW41dswVp
Q1Xmm5S/JHr6ZCCap5MUv/dAVoijqk/5el9f
-----END CERTIFICATE-----
