Certificate:
    Data:
        Version: 3 (0x2)
        Serial Number: 472 (0x1d8)
        Signature Algorithm: sha256WithRSAEncryption
        Issuer: C=CH, ST=Thurgau, L=Kefikon, O=guengel.ch, CN=CA guengel.ch/emailAddress=postmaster@guengel.ch
        Validity
            Not Before: Feb 11 07:07:24 2022 GMT
            Not After : Mar 18 07:07:24 2023 GMT
        Subject: C=CH, ST=Thurgau, O=guengel.ch, CN=ec2-52-29-59-221.eu-central-1.compute.amazonaws.com/emailAddress=postmaster@guengel.ch
        Subject Public Key Info:
            Public Key Algorithm: rsaEncryption
                RSA Public-Key: (2048 bit)
                Modulus:
                    00:cf:e5:ac:e9:88:ad:c5:73:70:51:03:58:30:86:
                    2d:45:dc:99:70:93:7d:56:7c:5f:d6:59:bd:ce:9b:
                    c3:e4:e2:43:b2:72:20:63:be:09:30:29:52:5d:4f:
                    79:eb:1d:db:b9:b8:23:fb:43:08:6f:1b:78:bc:41:
                    eb:71:cc:b8:e1:16:9c:ae:4e:dc:ba:d6:37:f1:68:
                    f5:c1:7a:84:d7:8e:de:95:38:79:ec:ab:ef:75:bb:
                    15:db:b3:20:f6:1c:ad:e7:6b:c1:53:8e:c0:8e:e9:
                    56:71:7e:74:77:cc:a4:45:40:a1:af:b8:f4:4e:3b:
                    f2:a5:0d:dc:21:00:24:4d:ef:5f:4b:2b:d4:72:82:
                    77:ed:ce:88:27:84:ca:28:f3:a5:68:28:96:98:b9:
                    07:03:c9:91:e1:12:ad:47:a7:37:df:da:b2:f2:5b:
                    86:7d:7b:5a:a0:0f:40:05:e0:8f:68:b6:27:c9:fa:
                    fd:b3:e8:8c:e5:d1:5e:1e:b3:6b:a9:d6:a0:e6:ee:
                    c5:2f:d2:20:34:fd:ea:7f:a4:c8:20:63:82:36:9d:
                    da:3b:7c:da:b7:47:4b:8e:4e:3d:fc:1b:9a:bd:1f:
                    c1:c6:d2:4b:ea:3f:ee:dc:60:f4:09:84:f1:9c:33:
                    7b:7f:7c:96:2d:68:65:2a:77:39:90:b2:89:9b:34:
                    b2:c1
                Exponent: 65537 (0x10001)
        X509v3 extensions:
            X509v3 Key Usage: 
                Digital Signature, Key Encipherment, Key Agreement
            X509v3 Basic Constraints: critical
                CA:FALSE
            Netscape Cert Type: 
                SSL Client, SSL Server
            X509v3 Extended Key Usage: 
                TLS Web Server Authentication, TLS Web Client Authentication
            X509v3 Subject Alternative Name: 
                DNS:ec2-52-29-59-221.eu-central-1.compute.amazonaws.com
            X509v3 Subject Key Identifier: 
                1E:AA:D4:BA:96:5D:60:10:57:76:0A:3D:B0:CB:E6:70:93:02:CD:71
            X509v3 Authority Key Identifier: 
                keyid:D6:88:F1:AA:C1:2B:09:8C:B8:5C:9D:CE:DF:57:39:62:26:10:20:90
                DirName:/C=CH/ST=Thurgau/L=Kefikon/O=guengel.ch/CN=CA guengel.ch/emailAddress=postmaster@guengel.ch
                serial:E5:25:3B:A6:77:BD:CB:FF

    Signature Algorithm: sha256WithRSAEncryption
         38:92:d7:c7:a6:7e:5f:8e:8d:ea:80:d0:70:9d:21:cf:b9:8e:
         8f:c4:60:8c:c3:06:ac:ea:7c:b6:78:e5:63:ba:41:4f:a8:40:
         42:d4:5c:32:55:08:fc:68:ed:c6:d2:b6:f2:85:49:03:b1:1d:
         5b:df:da:a8:2a:86:19:a4:3a:16:d9:90:83:bb:d1:da:d1:a9:
         32:b3:f6:0c:8b:7c:92:35:34:c0:0e:90:fb:7a:64:68:85:56:
         79:48:ed:0b:ad:4f:9b:0f:7f:a8:10:d8:d7:70:cc:d1:b1:76:
         ef:46:12:5f:b3:19:1c:0a:fa:0a:df:e5:b2:14:b8:82:55:16:
         bb:dd:6f:00:39:6d:da:67:0d:d8:95:ac:77:f0:de:e7:8d:0b:
         84:60:fc:aa:e6:27:4c:2a:06:b7:6f:f0:99:36:03:07:bd:ef:
         81:7e:eb:ad:03:30:ee:aa:16:fc:ed:a7:43:cc:ba:44:94:f6:
         c4:90:75:7d:ee:92:a6:04:14:ad:1a:b1:ba:57:7f:b0:68:3e:
         37:6b:bc:4b:d5:2f:07:1e:62:15:3a:bb:36:e7:23:ad:ab:cf:
         f3:9b:74:b5:df:9f:b4:83:df:58:13:68:81:b9:42:9b:ea:e9:
         2d:72:e6:0e:f1:b1:db:e2:d9:ed:26:6b:d9:31:f5:9c:57:5d:
         70:d2:a2:de:fc:ad:a6:c0:80:9e:ed:60:cf:df:6f:f9:3a:5e:
         8f:3b:b4:97:39:24:a1:f5:12:d2:f2:cd:ee:20:8c:34:64:86:
         a5:19:26:61:87:c7:ee:22:27:46:2e:7f:6d:d6:58:7e:d4:8e:
         76:96:13:07:8c:a5:63:a0:20:2a:6b:85:d3:02:02:e6:33:23:
         26:54:d5:99:b7:99:40:0b:9e:99:bb:82:21:48:e0:83:b6:9a:
         eb:6a:8b:c0:eb:41:55:4d:07:08:a3:9b:45:25:e3:cf:bd:6f:
         ae:ae:9e:de:01:58:99:2f:5b:e5:63:18:e7:81:7c:69:f7:15:
         36:f7:3d:b7:41:74:2c:17:0a:c3:8d:6f:3b:35:5e:04:9a:f4:
         82:aa:d8:86:65:ee:86:a4:59:15:98:6e:cd:61:ad:6c:d6:1b:
         2e:2f:17:71:67:09:2c:56:5f:ee:f8:c7:a0:d1:bc:df:8e:c5:
         0a:bc:21:16:5e:b0:7b:63:d6:c2:7d:dd:cb:de:f7:20:4e:ec:
         ef:e8:88:5f:e0:84:f8:ed:00:5e:49:13:36:72:fb:04:ff:6f:
         74:a9:bd:ea:bb:f4:54:33:24:17:31:25:9f:0e:5e:bc:d6:fd:
         85:44:98:37:f1:ee:ce:a5:21:11:ed:44:88:e7:db:fb:16:f0:
         50:ac:a7:1e:6f:0c:27:4b
-----BEGIN CERTIFICATE-----
MIIGCDCCA/CgAwIBAgICAdgwDQYJKoZIhvcNAQELBQAwgYQxCzAJBgNVBAYTAkNI
MRAwDgYDVQQIEwdUaHVyZ2F1MRAwDgYDVQQHEwdLZWZpa29uMRMwEQYDVQQKEwpn
dWVuZ2VsLmNoMRYwFAYDVQQDEw1DQSBndWVuZ2VsLmNoMSQwIgYJKoZIhvcNAQkB
FhVwb3N0bWFzdGVyQGd1ZW5nZWwuY2gwHhcNMjIwMjExMDcwNzI0WhcNMjMwMzE4
MDcwNzI0WjCBmDELMAkGA1UEBhMCQ0gxEDAOBgNVBAgTB1RodXJnYXUxEzARBgNV
BAoTCmd1ZW5nZWwuY2gxPDA6BgNVBAMTM2VjMi01Mi0yOS01OS0yMjEuZXUtY2Vu
dHJhbC0xLmNvbXB1dGUuYW1hem9uYXdzLmNvbTEkMCIGCSqGSIb3DQEJARYVcG9z
dG1hc3RlckBndWVuZ2VsLmNoMIIBIjANBgkqhkiG9w0BAQEFAAOCAQ8AMIIBCgKC
AQEAz+Ws6YitxXNwUQNYMIYtRdyZcJN9Vnxf1lm9zpvD5OJDsnIgY74JMClSXU95
6x3bubgj+0MIbxt4vEHrccy44Racrk7cutY38Wj1wXqE147elTh57KvvdbsV27Mg
9hyt52vBU47AjulWcX50d8ykRUChr7j0TjvypQ3cIQAkTe9fSyvUcoJ37c6IJ4TK
KPOlaCiWmLkHA8mR4RKtR6c339qy8luGfXtaoA9ABeCPaLYnyfr9s+iM5dFeHrNr
qdag5u7FL9IgNP3qf6TIIGOCNp3aO3zat0dLjk49/BuavR/BxtJL6j/u3GD0CYTx
nDN7f3yWLWhlKnc5kLKJmzSywQIDAQABo4IBbDCCAWgwCwYDVR0PBAQDAgOoMAwG
A1UdEwEB/wQCMAAwEQYJYIZIAYb4QgEBBAQDAgbAMB0GA1UdJQQWMBQGCCsGAQUF
BwMBBggrBgEFBQcDAjA+BgNVHREENzA1gjNlYzItNTItMjktNTktMjIxLmV1LWNl
bnRyYWwtMS5jb21wdXRlLmFtYXpvbmF3cy5jb20wHQYDVR0OBBYEFB6q1LqWXWAQ
V3YKPbDL5nCTAs1xMIG5BgNVHSMEgbEwga6AFNaI8arBKwmMuFydzt9XOWImECCQ
oYGKpIGHMIGEMQswCQYDVQQGEwJDSDEQMA4GA1UECBMHVGh1cmdhdTEQMA4GA1UE
BxMHS2VmaWtvbjETMBEGA1UEChMKZ3VlbmdlbC5jaDEWMBQGA1UEAxMNQ0EgZ3Vl
bmdlbC5jaDEkMCIGCSqGSIb3DQEJARYVcG9zdG1hc3RlckBndWVuZ2VsLmNoggkA
5SU7pne9y/8wDQYJKoZIhvcNAQELBQADggIBADiS18emfl+OjeqA0HCdIc+5jo/E
YIzDBqzqfLZ45WO6QU+oQELUXDJVCPxo7cbStvKFSQOxHVvf2qgqhhmkOhbZkIO7
0drRqTKz9gyLfJI1NMAOkPt6ZGiFVnlI7QutT5sPf6gQ2NdwzNGxdu9GEl+zGRwK
+grf5bIUuIJVFrvdbwA5bdpnDdiVrHfw3ueNC4Rg/KrmJ0wqBrdv8Jk2Awe974F+
660DMO6qFvztp0PMukSU9sSQdX3ukqYEFK0asbpXf7BoPjdrvEvVLwceYhU6uzbn
I62rz/ObdLXfn7SD31gTaIG5Qpvq6S1y5g7xsdvi2e0ma9kx9ZxXXXDSot78rabA
gJ7tYM/fb/k6Xo87tJc5JKH1EtLyze4gjDRkhqUZJmGHx+4iJ0Yuf23WWH7UjnaW
EweMpWOgICprhdMCAuYzIyZU1Zm3mUALnpm7giFI4IO2mutqi8DrQVVNBwijm0Ul
48+9b66unt4BWJkvW+VjGOeBfGn3FTb3PbdBdCwXCsONbzs1XgSa9IKq2IZl7oak
WRWYbs1hrWzWGy4vF3FnCSxWX+74x6DRvN+OxQq8IRZesHtj1sJ93cve9yBO7O/o
iF/ghPjtAF5JEzZy+wT/b3Spveq79FQzJBcxJZ8OXrzW/YVEmDfx7s6lIRHtRIjn
2/sW8FCspx5vDCdL
-----END CERTIFICATE-----
