Certificate:
    Data:
        Version: 3 (0x2)
        Serial Number:
            3f:0e:61:10:4b:a3:e4:cb:d2:51:c8:c8:46:b6:70:db:fd:fa:22:04
        Signature Algorithm: sha256WithRSAEncryption
        Issuer: C=CH, ST=Thurgau, L=Kefikon, O=guengel.ch, CN=CA 2022/emailAddress=postmaster@guengel.ch
        Validity
            Not Before: Jan  3 14:04:40 2025 GMT
            Not After : Feb  7 14:04:40 2026 GMT
        Subject: C=CH, ST=Thurgau, O=guengel.ch, CN=ec2-35-156-183-108.eu-central-1.compute.amazonaws.com/emailAddress=postmaster@guengel.ch
        Subject Public Key Info:
            Public Key Algorithm: rsaEncryption
                Public-Key: (2048 bit)
                Modulus:
                    00:9e:57:4f:39:55:f9:a8:1a:1a:57:8f:06:40:3b:
                    ef:e2:a5:13:fb:37:f5:26:d1:46:bc:4a:dd:b0:e8:
                    61:05:9a:c9:85:58:37:d2:76:df:e8:5d:55:d6:ef:
                    0f:15:d7:55:0e:88:08:9f:88:56:15:73:df:99:e6:
                    fd:44:0b:bb:07:ba:30:f5:ae:51:e8:80:fd:30:e7:
                    37:29:9a:08:64:23:af:e0:db:65:60:df:26:98:a5:
                    a6:19:b7:08:d6:67:26:98:0e:97:1a:82:53:8a:f0:
                    7c:12:5d:ed:68:33:3d:c1:a8:7f:d0:65:e7:d2:26:
                    7e:da:4e:cc:8e:9c:0a:d8:9d:aa:fe:eb:06:49:cb:
                    9e:32:8f:a2:2a:19:87:b8:dc:13:bd:5c:0f:d9:a6:
                    c3:ad:56:2c:68:7c:70:70:09:6e:2f:27:f6:4b:11:
                    03:cf:78:ae:da:8f:94:99:23:a4:78:38:cf:8d:13:
                    3b:d4:a5:75:c1:bd:3c:af:f5:b6:93:b9:16:dd:bc:
                    27:54:cf:37:31:0d:b6:f6:a2:4d:01:9c:85:db:c2:
                    7a:b3:a4:37:5c:55:89:84:34:00:1b:d8:26:e9:c4:
                    04:49:6a:05:79:21:aa:9c:a7:28:31:8f:93:8e:67:
                    01:f3:7c:81:ca:59:a2:1c:ad:a7:6e:00:b8:40:ad:
                    d2:03
                Exponent: 65537 (0x10001)
        X509v3 extensions:
            X509v3 Basic Constraints: critical
                CA:FALSE
            X509v3 Key Usage: 
                Digital Signature, Key Encipherment, Key Agreement
            X509v3 Subject Key Identifier: 
                9F:C2:BB:B2:24:54:A1:BA:CD:70:8A:3F:70:02:B8:51:F2:53:F2:00
            X509v3 Authority Key Identifier: 
                keyid:22:20:0D:51:40:61:42:BE:DD:BA:D9:C9:C1:77:B6:93:28:C3:99:EC
                DirName:/C=CH/ST=Thurgau/L=Kefikon/O=guengel.ch/CN=CA 2022/emailAddress=postmaster@guengel.ch
                serial:6D:29:90:54:E9:17:E9:C2:6A:E6:52:AD:84:4E:30:8E:6E:57:FB:1C
            Netscape Cert Type: 
                SSL Client, SSL Server
            X509v3 Extended Key Usage: 
                TLS Web Server Authentication, TLS Web Client Authentication
            X509v3 Subject Alternative Name: 
                DNS:ec2-35-156-183-108.eu-central-1.compute.amazonaws.com
    Signature Algorithm: sha256WithRSAEncryption
    Signature Value:
        55:f0:d1:7c:ec:24:fe:75:0c:f5:6a:d3:4a:df:85:00:46:17:
        da:7e:5a:32:5c:6e:ea:c1:39:f3:3d:25:75:be:40:19:1b:f2:
        b1:6f:66:6a:30:55:6b:d9:72:3f:1c:e7:93:35:91:87:1e:04:
        55:d0:3c:f5:5f:54:17:7e:89:f8:87:00:b9:e9:75:3d:e7:55:
        f1:6c:42:ad:76:95:1e:31:9f:cf:f0:9d:03:9d:e3:66:06:ba:
        93:54:b2:f2:03:bb:0d:bf:8f:5c:56:82:16:0e:0d:0b:38:38:
        11:cb:ee:6a:f6:23:61:d9:ff:e2:bc:3e:1e:fc:2a:b5:8a:f6:
        9b:50:24:95:5b:ca:bc:6f:74:a5:e6:3e:1c:5b:8f:57:b9:39:
        4b:27:20:3b:5c:40:00:02:fb:73:57:fa:4e:7d:3b:c3:30:d9:
        a4:41:5f:2b:c9:83:05:31:d2:bb:9f:91:d4:a4:cb:66:ce:e2:
        d4:ef:4c:24:cf:6b:8e:4f:24:06:eb:ca:4e:b7:11:0a:ce:52:
        71:c5:ec:e0:b4:93:6d:1e:1c:16:dc:d1:f2:61:ea:b6:52:53:
        69:9c:2e:96:d9:9d:39:89:11:7f:a4:ca:7d:37:9b:c1:3f:7e:
        2b:e5:ca:62:69:c9:ea:ff:85:78:b2:e8:bd:e1:28:60:51:4f:
        5e:e4:f0:b5:c2:b4:dc:2a:f7:b3:2e:4a:9b:66:db:c0:76:f7:
        73:af:fa:5e:92:1e:89:10:e5:63:45:45:a4:a5:04:96:30:05:
        fc:1e:bd:c8:56:8f:fc:eb:59:eb:5e:bc:28:a9:66:af:d5:56:
        8c:9a:a1:48:36:76:32:80:3b:1d:a9:1f:c7:86:eb:c3:d1:b8:
        b8:10:e2:0c:32:43:b2:9b:50:fc:21:ce:65:38:46:b1:ad:5c:
        cf:ec:32:55:4b:6b:54:3f:2c:e2:7b:70:6b:3e:7a:aa:36:e0:
        bc:d9:a9:9f:73:89:52:a7:34:cd:e5:54:70:af:46:a1:3d:0c:
        72:0a:08:f8:b1:e2:a2:ab:75:8e:68:a4:40:5c:23:67:5c:c3:
        51:1b:80:c8:69:e6:b5:0d:ae:4f:c8:32:bb:3b:a5:e4:77:07:
        52:fe:39:66:30:2f:ef:bf:67:07:30:6a:3f:cf:6b:3f:22:cf:
        6f:3e:3b:14:c4:25:50:93:e1:5b:8e:86:86:3a:5e:3d:d8:bc:
        fc:a2:49:c4:d4:92:1d:6c:86:a9:34:ac:e3:70:af:06:d5:71:
        48:da:42:0a:93:9a:ce:49:6d:c0:17:06:2e:82:3e:41:bd:90:
        1f:e2:21:b7:f2:c9:0a:ba:79:1d:7c:a2:e6:18:6f:1e:45:4c:
        61:57:a3:77:ac:2a:47:87
-----BEGIN CERTIFICATE-----
MIIGGzCCBAOgAwIBAgIUPw5hEEuj5MvSUcjIRrZw2/36IgQwDQYJKoZIhvcNAQEL
BQAwfjELMAkGA1UEBhMCQ0gxEDAOBgNVBAgTB1RodXJnYXUxEDAOBgNVBAcTB0tl
Zmlrb24xEzARBgNVBAoTCmd1ZW5nZWwuY2gxEDAOBgNVBAMTB0NBIDIwMjIxJDAi
BgkqhkiG9w0BCQEWFXBvc3RtYXN0ZXJAZ3VlbmdlbC5jaDAeFw0yNTAxMDMxNDA0
NDBaFw0yNjAyMDcxNDA0NDBaMIGaMQswCQYDVQQGEwJDSDEQMA4GA1UECBMHVGh1
cmdhdTETMBEGA1UEChMKZ3VlbmdlbC5jaDE+MDwGA1UEAxM1ZWMyLTM1LTE1Ni0x
ODMtMTA4LmV1LWNlbnRyYWwtMS5jb21wdXRlLmFtYXpvbmF3cy5jb20xJDAiBgkq
hkiG9w0BCQEWFXBvc3RtYXN0ZXJAZ3VlbmdlbC5jaDCCASIwDQYJKoZIhvcNAQEB
BQADggEPADCCAQoCggEBAJ5XTzlV+agaGlePBkA77+KlE/s39SbRRrxK3bDoYQWa
yYVYN9J23+hdVdbvDxXXVQ6ICJ+IVhVz35nm/UQLuwe6MPWuUeiA/TDnNymaCGQj
r+DbZWDfJpilphm3CNZnJpgOlxqCU4rwfBJd7WgzPcGof9Bl59ImftpOzI6cCtid
qv7rBknLnjKPoioZh7jcE71cD9mmw61WLGh8cHAJbi8n9ksRA894rtqPlJkjpHg4
z40TO9SldcG9PK/1tpO5Ft28J1TPNzENtvaiTQGchdvCerOkN1xViYQ0ABvYJunE
BElqBXkhqpynKDGPk45nAfN8gcpZohytp24AuECt0gMCAwEAAaOCAXIwggFuMAwG
A1UdEwEB/wQCMAAwCwYDVR0PBAQDAgOoMB0GA1UdDgQWBBSfwruyJFShus1wij9w
ArhR8lPyADCBvQYDVR0jBIG1MIGygBQiIA1RQGFCvt262cnBd7aTKMOZ7KGBg6SB
gDB+MQswCQYDVQQGEwJDSDEQMA4GA1UECBMHVGh1cmdhdTEQMA4GA1UEBxMHS2Vm
aWtvbjETMBEGA1UEChMKZ3VlbmdlbC5jaDEQMA4GA1UEAxMHQ0EgMjAyMjEkMCIG
CSqGSIb3DQEJARYVcG9zdG1hc3RlckBndWVuZ2VsLmNoghRtKZBU6RfpwmrmUq2E
TjCOblf7HDARBglghkgBhvhCAQEEBAMCBsAwHQYDVR0lBBYwFAYIKwYBBQUHAwEG
CCsGAQUFBwMCMEAGA1UdEQQ5MDeCNWVjMi0zNS0xNTYtMTgzLTEwOC5ldS1jZW50
cmFsLTEuY29tcHV0ZS5hbWF6b25hd3MuY29tMA0GCSqGSIb3DQEBCwUAA4ICAQBV
8NF87CT+dQz1atNK34UARhfafloyXG7qwTnzPSV1vkAZG/Kxb2ZqMFVr2XI/HOeT
NZGHHgRV0Dz1X1QXfon4hwC56XU951XxbEKtdpUeMZ/P8J0DneNmBrqTVLLyA7sN
v49cVoIWDg0LODgRy+5q9iNh2f/ivD4e/Cq1ivabUCSVW8q8b3Sl5j4cW49XuTlL
JyA7XEAAAvtzV/pOfTvDMNmkQV8ryYMFMdK7n5HUpMtmzuLU70wkz2uOTyQG68pO
txEKzlJxxezgtJNtHhwW3NHyYeq2UlNpnC6W2Z05iRF/pMp9N5vBP34r5cpiacnq
/4V4sui94ShgUU9e5PC1wrTcKvezLkqbZtvAdvdzr/pekh6JEOVjRUWkpQSWMAX8
Hr3IVo/861nrXrwoqWav1VaMmqFINnYygDsdqR/HhuvD0bi4EOIMMkOym1D8Ic5l
OEaxrVzP7DJVS2tUPyzie3BrPnqqNuC82amfc4lSpzTN5VRwr0ahPQxyCgj4seKi
q3WOaKRAXCNnXMNRG4DIaea1Da5PyDK7O6XkdwdS/jlmMC/vv2cHMGo/z2s/Is9v
PjsUxCVQk+FbjoaGOl492Lz8oknE1JIdbIapNKzjcK8G1XFI2kIKk5rOSW3AFwYu
gj5BvZAf4iG38skKunkdfKLmGG8eRUxhV6N3rCpHhw==
-----END CERTIFICATE-----
