Certificate:
    Data:
        Version: 3 (0x2)
        Serial Number: 473 (0x1d9)
        Signature Algorithm: sha256WithRSAEncryption
        Issuer: C=CH, ST=Thurgau, L=Kefikon, O=guengel.ch, CN=CA guengel.ch/emailAddress=postmaster@guengel.ch
        Validity
            Not Before: Feb 11 07:07:26 2022 GMT
            Not After : Mar 18 07:07:26 2023 GMT
        Subject: C=CH, ST=Thurgau, O=guengel.ch, CN=ec2-52-57-75-84.eu-central-1.compute.amazonaws.com/emailAddress=postmaster@guengel.ch
        Subject Public Key Info:
            Public Key Algorithm: rsaEncryption
                RSA Public-Key: (2048 bit)
                Modulus:
                    00:96:3a:03:2c:d7:c7:27:0c:87:4e:e7:9a:03:a7:
                    2d:34:3a:24:19:ba:7c:ef:5d:09:e5:f7:b3:7b:c1:
                    7a:13:4e:8a:9f:0d:28:31:5d:93:0b:7d:3b:ce:bc:
                    8e:d0:66:af:a7:ed:e8:9a:6f:bc:57:93:e9:5b:14:
                    71:ac:54:36:72:be:fe:8b:51:93:01:f8:ac:65:de:
                    06:ee:26:76:13:1b:ee:61:b3:e7:3b:dd:0d:c7:56:
                    e9:4b:a2:f0:a7:5d:fc:0a:61:f0:35:c7:81:01:d5:
                    17:0b:a7:10:73:d8:1a:41:b2:10:d5:ff:25:d1:16:
                    08:e1:08:8c:c3:da:67:a8:41:26:1c:31:fb:33:0a:
                    75:ac:2f:54:c9:7b:3e:41:f9:62:78:b8:72:9d:8a:
                    cd:3b:c6:18:e8:d8:4b:6c:a0:06:7d:09:9c:ac:ee:
                    c4:f4:c5:da:e9:7f:f6:07:00:69:6e:e9:3a:5f:08:
                    c9:8b:7f:c1:bf:5d:04:5f:a0:42:d2:2a:68:d1:f1:
                    c5:78:3a:e9:c5:c0:51:d8:46:39:0d:46:96:89:4a:
                    9a:23:42:bf:a5:b4:e0:80:4e:96:21:b3:95:77:1f:
                    dd:55:c1:82:fa:c5:29:27:0b:ac:3e:10:10:4b:6d:
                    d2:6c:3a:12:a9:63:d9:56:77:fd:97:4a:e4:65:24:
                    6a:99
                Exponent: 65537 (0x10001)
        X509v3 extensions:
            X509v3 Key Usage: 
                Digital Signature, Key Encipherment, Key Agreement
            X509v3 Basic Constraints: critical
                CA:FALSE
            Netscape Cert Type: 
                SSL Client, SSL Server
            X509v3 Extended Key Usage: 
                TLS Web Server Authentication, TLS Web Client Authentication
            X509v3 Subject Alternative Name: 
                DNS:ec2-52-57-75-84.eu-central-1.compute.amazonaws.com
            X509v3 Subject Key Identifier: 
                CC:11:52:11:39:21:F0:A4:75:E4:79:4A:27:8C:54:66:B8:52:B3:00
            X509v3 Authority Key Identifier: 
                keyid:D6:88:F1:AA:C1:2B:09:8C:B8:5C:9D:CE:DF:57:39:62:26:10:20:90
                DirName:/C=CH/ST=Thurgau/L=Kefikon/O=guengel.ch/CN=CA guengel.ch/emailAddress=postmaster@guengel.ch
                serial:E5:25:3B:A6:77:BD:CB:FF

    Signature Algorithm: sha256WithRSAEncryption
         bd:cf:63:4c:2c:ed:8a:88:95:f4:8f:6c:69:23:86:4c:c3:11:
         dc:5a:13:a6:ad:c0:fc:92:05:e5:7e:bb:b4:c5:44:07:4d:4a:
         4f:19:db:3e:cb:25:7c:fd:1c:39:65:4f:49:79:c7:2a:e9:15:
         08:9b:94:9b:a6:31:fd:eb:88:a5:58:43:93:0e:45:12:6d:e2:
         cc:51:77:67:ec:19:4d:07:17:46:83:98:2f:7a:0f:22:0e:a1:
         cc:d8:6c:90:af:03:e8:0d:9d:5d:90:56:be:62:a1:e9:83:4b:
         b2:80:97:18:b2:cc:1a:f5:48:9b:09:fe:52:8e:ab:8f:f7:15:
         58:1f:1f:22:3a:63:dd:4c:64:fe:a3:66:77:b5:1f:d5:ec:5c:
         5d:50:c7:ed:b1:f8:49:60:ee:60:27:82:53:0a:64:c1:bc:ae:
         f7:90:9b:de:47:f8:30:fc:97:fc:e5:90:95:84:20:a1:15:90:
         aa:29:c4:03:2a:bf:a2:f1:52:f8:46:7e:18:0f:f4:60:4c:23:
         7e:83:d2:47:d1:97:4b:a4:5f:da:3a:3f:2d:dd:75:b0:1c:9f:
         1b:5d:bf:bd:ea:de:5c:a4:0a:16:83:a7:07:d5:03:6f:90:24:
         af:30:94:95:10:4f:e2:89:42:a8:f8:60:4c:bd:d5:12:bb:76:
         54:3c:fb:ea:fd:be:8e:73:88:2a:14:c0:e8:43:93:79:11:35:
         42:cc:12:cb:8d:69:80:17:e4:47:e6:ea:d1:45:3f:2c:e8:4c:
         12:49:25:70:83:7b:0a:c6:50:66:6e:35:c0:c2:8e:53:cf:8b:
         47:5b:9e:7c:46:89:57:98:cd:3a:65:06:c8:77:99:3c:1b:b9:
         20:a3:fe:9f:45:6a:9d:33:49:58:b6:7c:28:e3:8e:7d:55:4e:
         bc:59:05:43:33:c9:d5:20:b8:04:57:94:b0:26:d2:9a:17:74:
         37:30:f5:94:17:e0:e6:25:ed:32:9a:07:99:a6:d4:55:56:28:
         b9:90:f6:b3:bc:6c:93:a0:c0:28:f2:74:da:0e:86:9e:9b:b1:
         ee:70:2a:cb:4a:41:a5:c0:f0:df:78:d4:0f:23:ce:47:0b:6a:
         30:2e:1d:9b:22:ef:33:7c:7c:6e:1f:65:c6:82:f7:05:71:7e:
         c7:44:00:73:9c:6f:74:72:ae:00:a1:f4:81:ff:17:d1:09:cf:
         0f:6c:50:12:61:a9:31:d2:4e:68:af:29:eb:91:62:d0:d2:87:
         da:09:43:85:af:da:5c:77:9f:91:0b:04:a5:6f:0f:d9:82:6b:
         70:6e:c0:50:21:8c:13:0f:e2:75:6b:2c:7e:01:9b:73:ea:7c:
         77:c4:87:61:33:1c:5a:1c
-----BEGIN CERTIFICATE-----
MIIGBjCCA+6gAwIBAgICAdkwDQYJKoZIhvcNAQELBQAwgYQxCzAJBgNVBAYTAkNI
MRAwDgYDVQQIEwdUaHVyZ2F1MRAwDgYDVQQHEwdLZWZpa29uMRMwEQYDVQQKEwpn
dWVuZ2VsLmNoMRYwFAYDVQQDEw1DQSBndWVuZ2VsLmNoMSQwIgYJKoZIhvcNAQkB
FhVwb3N0bWFzdGVyQGd1ZW5nZWwuY2gwHhcNMjIwMjExMDcwNzI2WhcNMjMwMzE4
MDcwNzI2WjCBlzELMAkGA1UEBhMCQ0gxEDAOBgNVBAgTB1RodXJnYXUxEzARBgNV
BAoTCmd1ZW5nZWwuY2gxOzA5BgNVBAMTMmVjMi01Mi01Ny03NS04NC5ldS1jZW50
cmFsLTEuY29tcHV0ZS5hbWF6b25hd3MuY29tMSQwIgYJKoZIhvcNAQkBFhVwb3N0
bWFzdGVyQGd1ZW5nZWwuY2gwggEiMA0GCSqGSIb3DQEBAQUAA4IBDwAwggEKAoIB
AQCWOgMs18cnDIdO55oDpy00OiQZunzvXQnl97N7wXoTToqfDSgxXZMLfTvOvI7Q
Zq+n7eiab7xXk+lbFHGsVDZyvv6LUZMB+Kxl3gbuJnYTG+5hs+c73Q3HVulLovCn
XfwKYfA1x4EB1RcLpxBz2BpBshDV/yXRFgjhCIzD2meoQSYcMfszCnWsL1TJez5B
+WJ4uHKdis07xhjo2EtsoAZ9CZys7sT0xdrpf/YHAGlu6TpfCMmLf8G/XQRfoELS
KmjR8cV4OunFwFHYRjkNRpaJSpojQr+ltOCATpYhs5V3H91VwYL6xSknC6w+EBBL
bdJsOhKpY9lWd/2XSuRlJGqZAgMBAAGjggFrMIIBZzALBgNVHQ8EBAMCA6gwDAYD
VR0TAQH/BAIwADARBglghkgBhvhCAQEEBAMCBsAwHQYDVR0lBBYwFAYIKwYBBQUH
AwEGCCsGAQUFBwMCMD0GA1UdEQQ2MDSCMmVjMi01Mi01Ny03NS04NC5ldS1jZW50
cmFsLTEuY29tcHV0ZS5hbWF6b25hd3MuY29tMB0GA1UdDgQWBBTMEVIROSHwpHXk
eUonjFRmuFKzADCBuQYDVR0jBIGxMIGugBTWiPGqwSsJjLhcnc7fVzliJhAgkKGB
iqSBhzCBhDELMAkGA1UEBhMCQ0gxEDAOBgNVBAgTB1RodXJnYXUxEDAOBgNVBAcT
B0tlZmlrb24xEzARBgNVBAoTCmd1ZW5nZWwuY2gxFjAUBgNVBAMTDUNBIGd1ZW5n
ZWwuY2gxJDAiBgkqhkiG9w0BCQEWFXBvc3RtYXN0ZXJAZ3VlbmdlbC5jaIIJAOUl
O6Z3vcv/MA0GCSqGSIb3DQEBCwUAA4ICAQC9z2NMLO2KiJX0j2xpI4ZMwxHcWhOm
rcD8kgXlfru0xUQHTUpPGds+yyV8/Rw5ZU9Jeccq6RUIm5SbpjH964ilWEOTDkUS
beLMUXdn7BlNBxdGg5gveg8iDqHM2GyQrwPoDZ1dkFa+YqHpg0uygJcYsswa9Uib
Cf5SjquP9xVYHx8iOmPdTGT+o2Z3tR/V7FxdUMftsfhJYO5gJ4JTCmTBvK73kJve
R/gw/Jf85ZCVhCChFZCqKcQDKr+i8VL4Rn4YD/RgTCN+g9JH0ZdLpF/aOj8t3XWw
HJ8bXb+96t5cpAoWg6cH1QNvkCSvMJSVEE/iiUKo+GBMvdUSu3ZUPPvq/b6Oc4gq
FMDoQ5N5ETVCzBLLjWmAF+RH5urRRT8s6EwSSSVwg3sKxlBmbjXAwo5Tz4tHW558
RolXmM06ZQbId5k8G7kgo/6fRWqdM0lYtnwo4459VU68WQVDM8nVILgEV5SwJtKa
F3Q3MPWUF+DmJe0ymgeZptRVVii5kPazvGyToMAo8nTaDoaem7HucCrLSkGlwPDf
eNQPI85HC2owLh2bIu8zfHxuH2XGgvcFcX7HRABznG90cq4AofSB/xfRCc8PbFAS
Yakx0k5orynrkWLQ0ofaCUOFr9pcd5+RCwSlbw/ZgmtwbsBQIYwTD+J1ayx+AZtz
6nx3xIdhMxxaHA==
-----END CERTIFICATE-----
