Certificate:
    Data:
        Version: 3 (0x2)
        Serial Number:
            04:87:1f:f3:4a:e3:f6:fb:c5:29:22:0e:dc:ee:43:08:ad:a3:2b:4b
        Signature Algorithm: sha256WithRSAEncryption
        Issuer: C=CH, ST=Thurgau, L=Kefikon, O=guengel.ch, CN=CA 2022/emailAddress=postmaster@guengel.ch
        Validity
            Not Before: Feb 28 06:40:56 2023 GMT
            Not After : Apr  3 06:40:56 2024 GMT
        Subject: C=CH, ST=Thurgau, O=guengel.ch, CN=ec2-52-57-75-84.eu-central-1.compute.amazonaws.com/emailAddress=postmaster@guengel.ch
        Subject Public Key Info:
            Public Key Algorithm: rsaEncryption
                RSA Public-Key: (2048 bit)
                Modulus:
                    00:bf:ec:26:1b:e2:f7:23:0c:c9:e0:df:4a:aa:dc:
                    b9:e5:0c:b0:25:32:57:09:80:b3:95:f2:cf:b6:af:
                    41:46:cf:04:1f:9e:97:d5:0d:2a:28:c4:56:4f:d7:
                    16:6c:c8:fa:4e:ea:d8:86:74:f7:d9:9d:93:66:79:
                    f8:f6:e8:24:18:65:64:ef:0d:02:0a:e2:2e:ad:5a:
                    d1:23:e8:62:65:53:3d:f9:1a:81:89:ae:00:f9:0c:
                    e3:06:f8:45:06:58:db:d2:fc:28:f9:86:f2:cb:44:
                    e3:8b:4e:52:3d:79:ab:a1:15:65:09:68:10:43:47:
                    ba:f1:d6:6a:fd:52:17:11:38:3e:4c:b0:7a:73:50:
                    0f:f4:6f:a9:0b:53:ad:b4:57:05:4f:49:12:65:80:
                    51:98:81:b9:44:e6:f3:d7:a6:4b:76:c8:88:c6:28:
                    d4:ec:6a:98:d8:7b:78:fa:cf:54:8d:17:a5:5a:c9:
                    3a:4d:94:c3:00:9e:fe:43:89:18:c8:ff:92:6c:ab:
                    77:8a:ae:59:0e:be:bc:9b:84:46:a8:b9:b8:f8:cf:
                    87:b4:22:5c:8e:80:7f:40:93:09:e8:3a:d0:e0:3f:
                    5b:1a:a5:66:00:25:83:b8:0e:bf:de:d8:13:ad:0f:
                    de:41:cc:3e:43:96:f4:43:d5:87:49:33:fb:97:46:
                    d4:b7
                Exponent: 65537 (0x10001)
        X509v3 extensions:
            X509v3 Basic Constraints: critical
                CA:FALSE
            X509v3 Key Usage: 
                Digital Signature, Key Encipherment, Key Agreement
            X509v3 Subject Key Identifier: 
                E1:69:AE:85:76:72:AE:12:FA:6F:01:D5:29:D7:97:6E:AC:57:68:EC
            X509v3 Authority Key Identifier: 
                keyid:22:20:0D:51:40:61:42:BE:DD:BA:D9:C9:C1:77:B6:93:28:C3:99:EC
                DirName:/C=CH/ST=Thurgau/L=Kefikon/O=guengel.ch/CN=CA 2022/emailAddress=postmaster@guengel.ch
                serial:6D:29:90:54:E9:17:E9:C2:6A:E6:52:AD:84:4E:30:8E:6E:57:FB:1C

            Netscape Cert Type: 
                SSL Client, SSL Server
            X509v3 Extended Key Usage: 
                TLS Web Server Authentication, TLS Web Client Authentication
            X509v3 Subject Alternative Name: 
                DNS:ec2-52-57-75-84.eu-central-1.compute.amazonaws.com
    Signature Algorithm: sha256WithRSAEncryption
         27:a9:8a:22:7e:cc:7c:23:af:5c:66:7c:83:58:7c:06:79:f8:
         5f:a5:e9:72:a4:0d:d3:e4:bc:57:1b:63:9c:8a:cb:81:1c:8e:
         72:97:33:d1:b2:87:26:48:06:ee:57:4c:ff:a5:ad:55:ec:6c:
         a1:ba:ad:b1:93:81:21:c4:6e:70:6e:1c:cb:64:fc:22:83:5c:
         bb:d4:ba:57:3b:4a:b4:ec:af:5b:bf:9f:f8:95:b0:e0:4f:88:
         c0:61:df:a5:23:3e:a1:bb:95:59:62:8a:a5:87:f5:93:2a:66:
         8a:11:65:5f:63:14:87:08:90:09:3b:99:e1:8e:05:a1:76:c3:
         f0:9d:de:a5:55:9a:7b:1c:c3:62:81:c2:16:b9:6d:03:43:e1:
         be:e7:71:6e:e4:cc:51:bf:0b:51:74:38:db:35:b7:35:15:d8:
         fc:b3:f5:f8:e5:dd:90:5c:be:a2:71:4e:df:e8:fc:ad:f3:6d:
         ba:31:82:1e:8c:7a:69:ec:74:c0:1d:2e:c8:1f:d9:79:93:07:
         ed:d8:a5:de:2b:9f:2c:f6:8e:47:5a:bb:36:b1:b7:e4:81:c6:
         1c:8c:ca:cd:c8:e6:b9:bd:6e:13:d5:79:dd:18:81:27:e2:f1:
         b0:a0:72:8e:fc:5b:ed:4e:ff:35:f9:d0:df:1d:de:ea:e1:96:
         3e:99:c2:d3:47:a7:36:60:83:31:ab:62:a8:2d:5c:e1:c3:7d:
         a4:56:48:fe:12:70:af:fb:b8:f5:87:a6:74:5d:07:ce:e2:f9:
         07:f9:a5:5e:55:66:50:8d:a1:36:f5:fc:23:a9:ab:9e:e2:2c:
         65:c1:7d:88:cf:3e:6a:79:f7:06:20:c8:07:76:15:e4:9e:a4:
         02:e5:2e:62:d0:c1:a4:8d:ad:78:6c:b4:75:7b:dd:fa:b7:86:
         ac:ec:26:58:c0:2e:ee:e6:06:00:95:6d:87:ea:04:a7:7d:46:
         80:46:be:0e:cb:d2:4a:00:00:34:9f:0b:95:2f:a0:39:fc:a2:
         ad:a6:41:19:6e:dc:1e:e8:78:29:2c:c5:76:80:38:69:46:bf:
         d1:c9:3f:5e:ec:e0:58:25:52:fe:ea:57:68:2c:59:81:12:76:
         a8:96:5a:13:3a:66:58:50:0f:85:7a:7f:74:a3:76:e7:da:10:
         7c:98:23:34:50:f5:67:54:65:fc:5e:a1:7b:1f:d0:70:32:61:
         33:5b:43:fa:ca:73:f2:8a:5c:8c:36:b4:7c:4c:e9:cf:20:2d:
         ec:5c:e1:3a:27:e2:76:7a:c3:f1:18:53:2c:ba:ca:28:c3:0d:
         ca:6d:83:24:01:bf:93:42:68:63:ed:f8:95:7a:46:94:f6:85:
         0a:1a:fd:dc:8c:de:d9:7a
-----BEGIN CERTIFICATE-----
MIIGFTCCA/2gAwIBAgIUBIcf80rj9vvFKSIO3O5DCK2jK0swDQYJKoZIhvcNAQEL
BQAwfjELMAkGA1UEBhMCQ0gxEDAOBgNVBAgTB1RodXJnYXUxEDAOBgNVBAcTB0tl
Zmlrb24xEzARBgNVBAoTCmd1ZW5nZWwuY2gxEDAOBgNVBAMTB0NBIDIwMjIxJDAi
BgkqhkiG9w0BCQEWFXBvc3RtYXN0ZXJAZ3VlbmdlbC5jaDAeFw0yMzAyMjgwNjQw
NTZaFw0yNDA0MDMwNjQwNTZaMIGXMQswCQYDVQQGEwJDSDEQMA4GA1UECBMHVGh1
cmdhdTETMBEGA1UEChMKZ3VlbmdlbC5jaDE7MDkGA1UEAxMyZWMyLTUyLTU3LTc1
LTg0LmV1LWNlbnRyYWwtMS5jb21wdXRlLmFtYXpvbmF3cy5jb20xJDAiBgkqhkiG
9w0BCQEWFXBvc3RtYXN0ZXJAZ3VlbmdlbC5jaDCCASIwDQYJKoZIhvcNAQEBBQAD
ggEPADCCAQoCggEBAL/sJhvi9yMMyeDfSqrcueUMsCUyVwmAs5Xyz7avQUbPBB+e
l9UNKijEVk/XFmzI+k7q2IZ099mdk2Z5+PboJBhlZO8NAgriLq1a0SPoYmVTPfka
gYmuAPkM4wb4RQZY29L8KPmG8stE44tOUj15q6EVZQloEENHuvHWav1SFxE4Pkyw
enNQD/RvqQtTrbRXBU9JEmWAUZiBuUTm89emS3bIiMYo1OxqmNh7ePrPVI0XpVrJ
Ok2UwwCe/kOJGMj/kmyrd4quWQ6+vJuERqi5uPjPh7QiXI6Af0CTCeg60OA/Wxql
ZgAlg7gOv97YE60P3kHMPkOW9EPVh0kz+5dG1LcCAwEAAaOCAW8wggFrMAwGA1Ud
EwEB/wQCMAAwCwYDVR0PBAQDAgOoMB0GA1UdDgQWBBThaa6FdnKuEvpvAdUp15du
rFdo7DCBvQYDVR0jBIG1MIGygBQiIA1RQGFCvt262cnBd7aTKMOZ7KGBg6SBgDB+
MQswCQYDVQQGEwJDSDEQMA4GA1UECBMHVGh1cmdhdTEQMA4GA1UEBxMHS2VmaWtv
bjETMBEGA1UEChMKZ3VlbmdlbC5jaDEQMA4GA1UEAxMHQ0EgMjAyMjEkMCIGCSqG
SIb3DQEJARYVcG9zdG1hc3RlckBndWVuZ2VsLmNoghRtKZBU6RfpwmrmUq2ETjCO
blf7HDARBglghkgBhvhCAQEEBAMCBsAwHQYDVR0lBBYwFAYIKwYBBQUHAwEGCCsG
AQUFBwMCMD0GA1UdEQQ2MDSCMmVjMi01Mi01Ny03NS04NC5ldS1jZW50cmFsLTEu
Y29tcHV0ZS5hbWF6b25hd3MuY29tMA0GCSqGSIb3DQEBCwUAA4ICAQAnqYoifsx8
I69cZnyDWHwGefhfpelypA3T5LxXG2OcisuBHI5ylzPRsocmSAbuV0z/pa1V7Gyh
uq2xk4EhxG5wbhzLZPwig1y71LpXO0q07K9bv5/4lbDgT4jAYd+lIz6hu5VZYoql
h/WTKmaKEWVfYxSHCJAJO5nhjgWhdsPwnd6lVZp7HMNigcIWuW0DQ+G+53Fu5MxR
vwtRdDjbNbc1Fdj8s/X45d2QXL6icU7f6Pyt8226MYIejHpp7HTAHS7IH9l5kwft
2KXeK58s9o5HWrs2sbfkgcYcjMrNyOa5vW4T1XndGIEn4vGwoHKO/FvtTv81+dDf
Hd7q4ZY+mcLTR6c2YIMxq2KoLVzhw32kVkj+EnCv+7j1h6Z0XQfO4vkH+aVeVWZQ
jaE29fwjqaue4ixlwX2Izz5qefcGIMgHdhXknqQC5S5i0MGkja14bLR1e936t4as
7CZYwC7u5gYAlW2H6gSnfUaARr4Oy9JKAAA0nwuVL6A5/KKtpkEZbtwe6HgpLMV2
gDhpRr/RyT9e7OBYJVL+6ldoLFmBEnaolloTOmZYUA+Fen90o3bn2hB8mCM0UPVn
VGX8XqF7H9BwMmEzW0P6ynPyilyMNrR8TOnPIC3sXOE6J+J2esPxGFMsusooww3K
bYMkAb+TQmhj7fiVekaU9oUKGv3cjN7Zeg==
-----END CERTIFICATE-----
