Certificate:
    Data:
        Version: 3 (0x2)
        Serial Number: 443 (0x1bb)
        Signature Algorithm: sha256WithRSAEncryption
        Issuer: C=CH, ST=Thurgau, L=Kefikon, O=guengel.ch, CN=CA guengel.ch/emailAddress=postmaster@guengel.ch
        Validity
            Not Before: Feb  6 15:20:04 2021 GMT
            Not After : Mar 13 15:20:04 2022 GMT
        Subject: C=CH, ST=Thurgau, O=guengel.ch, CN=ec2-52-29-59-221.eu-central-1.compute.amazonaws.com/emailAddress=postmaster@guengel.ch
        Subject Public Key Info:
            Public Key Algorithm: rsaEncryption
                RSA Public-Key: (2048 bit)
                Modulus:
                    00:cf:e5:ac:e9:88:ad:c5:73:70:51:03:58:30:86:
                    2d:45:dc:99:70:93:7d:56:7c:5f:d6:59:bd:ce:9b:
                    c3:e4:e2:43:b2:72:20:63:be:09:30:29:52:5d:4f:
                    79:eb:1d:db:b9:b8:23:fb:43:08:6f:1b:78:bc:41:
                    eb:71:cc:b8:e1:16:9c:ae:4e:dc:ba:d6:37:f1:68:
                    f5:c1:7a:84:d7:8e:de:95:38:79:ec:ab:ef:75:bb:
                    15:db:b3:20:f6:1c:ad:e7:6b:c1:53:8e:c0:8e:e9:
                    56:71:7e:74:77:cc:a4:45:40:a1:af:b8:f4:4e:3b:
                    f2:a5:0d:dc:21:00:24:4d:ef:5f:4b:2b:d4:72:82:
                    77:ed:ce:88:27:84:ca:28:f3:a5:68:28:96:98:b9:
                    07:03:c9:91:e1:12:ad:47:a7:37:df:da:b2:f2:5b:
                    86:7d:7b:5a:a0:0f:40:05:e0:8f:68:b6:27:c9:fa:
                    fd:b3:e8:8c:e5:d1:5e:1e:b3:6b:a9:d6:a0:e6:ee:
                    c5:2f:d2:20:34:fd:ea:7f:a4:c8:20:63:82:36:9d:
                    da:3b:7c:da:b7:47:4b:8e:4e:3d:fc:1b:9a:bd:1f:
                    c1:c6:d2:4b:ea:3f:ee:dc:60:f4:09:84:f1:9c:33:
                    7b:7f:7c:96:2d:68:65:2a:77:39:90:b2:89:9b:34:
                    b2:c1
                Exponent: 65537 (0x10001)
        X509v3 extensions:
            X509v3 Key Usage: 
                Digital Signature, Key Encipherment, Key Agreement
            X509v3 Basic Constraints: critical
                CA:FALSE
            Netscape Cert Type: 
                SSL Client, SSL Server
            X509v3 Extended Key Usage: 
                TLS Web Server Authentication, TLS Web Client Authentication
            X509v3 Subject Alternative Name: 
                DNS:ec2-52-29-59-221.eu-central-1.compute.amazonaws.com
            X509v3 Subject Key Identifier: 
                1E:AA:D4:BA:96:5D:60:10:57:76:0A:3D:B0:CB:E6:70:93:02:CD:71
            X509v3 Authority Key Identifier: 
                keyid:D6:88:F1:AA:C1:2B:09:8C:B8:5C:9D:CE:DF:57:39:62:26:10:20:90
                DirName:/C=CH/ST=Thurgau/L=Kefikon/O=guengel.ch/CN=CA guengel.ch/emailAddress=postmaster@guengel.ch
                serial:E5:25:3B:A6:77:BD:CB:FF

    Signature Algorithm: sha256WithRSAEncryption
         1e:06:72:43:d2:01:da:75:e4:4d:01:a8:c8:6a:07:cd:76:1f:
         51:ba:46:40:41:b5:04:27:fb:1a:b1:ef:80:37:34:4d:4a:17:
         a4:9a:e6:09:23:b2:d4:30:79:30:1e:e7:48:32:0b:91:25:6c:
         c7:ac:76:00:a7:2e:2c:ff:88:3f:cc:be:c1:c0:6f:56:78:72:
         72:96:ea:06:23:1c:7e:b5:db:ac:e2:05:30:32:b4:32:11:01:
         0d:86:0f:51:be:0f:10:c1:17:b8:c9:d4:cf:1c:c0:4d:26:73:
         d3:ae:d2:2a:1c:6b:c3:9a:db:7e:ef:32:47:a3:75:9e:2a:8c:
         bf:d5:74:d7:55:3a:c3:1e:85:8b:2a:a1:c6:ee:16:f7:54:33:
         90:73:1c:0c:d3:74:56:80:6d:97:14:a8:b9:bd:a6:78:2f:19:
         8d:6c:bd:7c:e1:02:6c:96:d9:f0:db:da:67:a4:e8:a2:85:17:
         79:7e:61:b7:40:a4:46:a2:78:27:5c:1d:29:1c:da:d0:c8:e4:
         59:a2:d2:48:7c:1a:20:c2:ac:95:e3:fe:72:eb:1a:29:0f:72:
         ef:12:ce:05:c2:60:dd:cc:6a:09:dc:87:ec:6f:65:20:54:c4:
         eb:03:80:3a:e7:ac:b7:48:86:19:87:94:6b:43:67:4f:1c:64:
         e5:6d:8b:9a:7e:a2:41:be:a1:41:34:98:10:5b:96:6d:2c:d3:
         fb:89:b0:97:72:c8:d7:1c:ec:45:ea:4d:7e:a9:31:b5:0d:ea:
         8f:22:b8:38:37:2b:7a:99:dc:d2:38:67:b7:9f:bf:06:2b:d6:
         47:4a:64:48:14:7b:2b:c8:95:ac:7a:a4:d9:26:91:79:b0:00:
         8b:18:56:0c:db:84:93:1b:0b:43:6b:21:76:f5:7d:43:b0:37:
         34:75:08:95:98:1c:c6:0f:bf:36:63:6a:bc:9a:50:88:91:b7:
         aa:9f:56:db:4c:09:7e:5f:dd:f5:ac:0c:44:34:cb:fc:20:47:
         d8:4a:c0:b5:59:e7:00:d7:5d:f1:36:20:f6:35:45:14:0f:79:
         72:3b:bd:87:8c:4c:c9:ce:0b:16:e4:f6:21:03:40:9a:d2:c5:
         51:55:fb:d9:b7:55:5c:29:9e:4e:9a:7c:a5:4e:25:38:1c:6c:
         14:a3:8e:f6:1f:12:04:7d:5d:e7:9f:9f:f1:b7:95:5f:03:f3:
         88:b1:fb:b1:76:f6:3a:53:f4:d1:a8:8d:d2:cc:d3:fd:4f:dd:
         fc:f0:26:c7:a0:39:4c:ab:d7:33:c0:ca:64:39:91:54:71:93:
         52:1d:a2:35:33:ee:1e:27:a8:19:ee:99:06:47:0d:d7:06:05:
         95:e4:5c:2a:d1:c3:8b:96
-----BEGIN CERTIFICATE-----
MIIGCDCCA/CgAwIBAgICAbswDQYJKoZIhvcNAQELBQAwgYQxCzAJBgNVBAYTAkNI
MRAwDgYDVQQIEwdUaHVyZ2F1MRAwDgYDVQQHEwdLZWZpa29uMRMwEQYDVQQKEwpn
dWVuZ2VsLmNoMRYwFAYDVQQDEw1DQSBndWVuZ2VsLmNoMSQwIgYJKoZIhvcNAQkB
FhVwb3N0bWFzdGVyQGd1ZW5nZWwuY2gwHhcNMjEwMjA2MTUyMDA0WhcNMjIwMzEz
MTUyMDA0WjCBmDELMAkGA1UEBhMCQ0gxEDAOBgNVBAgTB1RodXJnYXUxEzARBgNV
BAoTCmd1ZW5nZWwuY2gxPDA6BgNVBAMTM2VjMi01Mi0yOS01OS0yMjEuZXUtY2Vu
dHJhbC0xLmNvbXB1dGUuYW1hem9uYXdzLmNvbTEkMCIGCSqGSIb3DQEJARYVcG9z
dG1hc3RlckBndWVuZ2VsLmNoMIIBIjANBgkqhkiG9w0BAQEFAAOCAQ8AMIIBCgKC
AQEAz+Ws6YitxXNwUQNYMIYtRdyZcJN9Vnxf1lm9zpvD5OJDsnIgY74JMClSXU95
6x3bubgj+0MIbxt4vEHrccy44Racrk7cutY38Wj1wXqE147elTh57KvvdbsV27Mg
9hyt52vBU47AjulWcX50d8ykRUChr7j0TjvypQ3cIQAkTe9fSyvUcoJ37c6IJ4TK
KPOlaCiWmLkHA8mR4RKtR6c339qy8luGfXtaoA9ABeCPaLYnyfr9s+iM5dFeHrNr
qdag5u7FL9IgNP3qf6TIIGOCNp3aO3zat0dLjk49/BuavR/BxtJL6j/u3GD0CYTx
nDN7f3yWLWhlKnc5kLKJmzSywQIDAQABo4IBbDCCAWgwCwYDVR0PBAQDAgOoMAwG
A1UdEwEB/wQCMAAwEQYJYIZIAYb4QgEBBAQDAgbAMB0GA1UdJQQWMBQGCCsGAQUF
BwMBBggrBgEFBQcDAjA+BgNVHREENzA1gjNlYzItNTItMjktNTktMjIxLmV1LWNl
bnRyYWwtMS5jb21wdXRlLmFtYXpvbmF3cy5jb20wHQYDVR0OBBYEFB6q1LqWXWAQ
V3YKPbDL5nCTAs1xMIG5BgNVHSMEgbEwga6AFNaI8arBKwmMuFydzt9XOWImECCQ
oYGKpIGHMIGEMQswCQYDVQQGEwJDSDEQMA4GA1UECBMHVGh1cmdhdTEQMA4GA1UE
BxMHS2VmaWtvbjETMBEGA1UEChMKZ3VlbmdlbC5jaDEWMBQGA1UEAxMNQ0EgZ3Vl
bmdlbC5jaDEkMCIGCSqGSIb3DQEJARYVcG9zdG1hc3RlckBndWVuZ2VsLmNoggkA
5SU7pne9y/8wDQYJKoZIhvcNAQELBQADggIBAB4GckPSAdp15E0BqMhqB812H1G6
RkBBtQQn+xqx74A3NE1KF6Sa5gkjstQweTAe50gyC5ElbMesdgCnLiz/iD/MvsHA
b1Z4cnKW6gYjHH6126ziBTAytDIRAQ2GD1G+DxDBF7jJ1M8cwE0mc9Ou0ioca8Oa
237vMkejdZ4qjL/VdNdVOsMehYsqocbuFvdUM5BzHAzTdFaAbZcUqLm9pngvGY1s
vXzhAmyW2fDb2mek6KKFF3l+YbdApEaieCdcHSkc2tDI5Fmi0kh8GiDCrJXj/nLr
GikPcu8SzgXCYN3Magnch+xvZSBUxOsDgDrnrLdIhhmHlGtDZ08cZOVti5p+okG+
oUE0mBBblm0s0/uJsJdyyNcc7EXqTX6pMbUN6o8iuDg3K3qZ3NI4Z7efvwYr1kdK
ZEgUeyvIlax6pNkmkXmwAIsYVgzbhJMbC0NrIXb1fUOwNzR1CJWYHMYPvzZjarya
UIiRt6qfVttMCX5f3fWsDEQ0y/wgR9hKwLVZ5wDXXfE2IPY1RRQPeXI7vYeMTMnO
Cxbk9iEDQJrSxVFV+9m3VVwpnk6afKVOJTgcbBSjjvYfEgR9Xeefn/G3lV8D84ix
+7F29jpT9NGojdLM0/1P3fzwJsegOUyr1zPAymQ5kVRxk1IdojUz7h4nqBnumQZH
DdcGBZXkXCrRw4uW
-----END CERTIFICATE-----
