Certificate:
    Data:
        Version: 3 (0x2)
        Serial Number:
            3e:51:cb:bf:5b:7a:a6:5a:42:ea:ab:dc:b4:a7:de:45:28:3d:06:94
        Signature Algorithm: sha256WithRSAEncryption
        Issuer: C=CH, ST=Thurgau, L=Kefikon, O=guengel.ch, CN=CA 2022/emailAddress=postmaster@guengel.ch
        Validity
            Not Before: Feb 28 06:41:08 2023 GMT
            Not After : Apr  3 06:41:08 2024 GMT
        Subject: C=CH, ST=Thurgau, O=guengel.ch, CN=ec2-54-93-164-159.eu-central-1.compute.amazonaws.com/emailAddress=postmaster@guengel.ch
        Subject Public Key Info:
            Public Key Algorithm: rsaEncryption
                RSA Public-Key: (2048 bit)
                Modulus:
                    00:c4:0c:ca:0d:f6:3e:cb:dc:c1:c3:67:aa:86:61:
                    fd:23:03:1d:57:50:76:34:0e:31:ca:62:2c:a1:74:
                    d5:15:53:8e:14:58:4f:80:db:57:49:55:60:ca:9d:
                    66:c9:2c:f0:ac:62:6e:8a:b1:df:41:34:ff:e8:76:
                    84:f7:2f:83:7c:7f:a4:8d:9b:e3:42:e0:36:43:04:
                    8c:53:c9:ed:8a:7a:14:b9:5a:e4:43:0d:d1:81:e7:
                    a1:bb:73:61:44:04:dc:1b:2d:74:c1:40:84:9c:95:
                    16:a7:44:23:cc:d8:54:43:28:db:00:3f:ca:8d:2f:
                    a2:5b:0f:e9:bd:77:fe:a7:1e:30:30:7f:47:70:75:
                    97:09:38:29:42:91:d4:49:3c:cd:5b:e7:a4:0c:1f:
                    da:79:06:06:be:08:1c:cd:53:dd:c9:df:7c:f9:61:
                    ec:37:26:cf:bd:bc:e3:15:4a:0e:93:3f:1e:07:4c:
                    73:ef:e2:d9:e8:c0:1b:be:5d:68:2d:70:4e:ee:c1:
                    af:ff:20:20:68:e4:96:da:2c:c3:b6:39:22:e1:c4:
                    d6:71:9f:dd:e5:72:d2:1f:c8:01:70:42:b0:57:22:
                    9f:28:5d:b2:45:90:40:bc:83:0a:77:e6:de:ca:af:
                    2d:96:6e:16:a6:87:b5:ce:a3:f0:e5:e0:d7:a0:cd:
                    d3:1d
                Exponent: 65537 (0x10001)
        X509v3 extensions:
            X509v3 Basic Constraints: critical
                CA:FALSE
            X509v3 Key Usage: 
                Digital Signature, Key Encipherment, Key Agreement
            X509v3 Subject Key Identifier: 
                71:64:AA:9D:E5:7B:69:B7:F4:82:F7:05:75:3F:2F:72:7A:C3:27:B7
            X509v3 Authority Key Identifier: 
                keyid:22:20:0D:51:40:61:42:BE:DD:BA:D9:C9:C1:77:B6:93:28:C3:99:EC
                DirName:/C=CH/ST=Thurgau/L=Kefikon/O=guengel.ch/CN=CA 2022/emailAddress=postmaster@guengel.ch
                serial:6D:29:90:54:E9:17:E9:C2:6A:E6:52:AD:84:4E:30:8E:6E:57:FB:1C

            Netscape Cert Type: 
                SSL Client, SSL Server
            X509v3 Extended Key Usage: 
                TLS Web Server Authentication, TLS Web Client Authentication
            X509v3 Subject Alternative Name: 
                DNS:ec2-54-93-164-159.eu-central-1.compute.amazonaws.com
    Signature Algorithm: sha256WithRSAEncryption
         63:f6:5f:b7:ee:1c:41:19:db:4d:5e:a2:b1:f2:aa:9c:e7:e7:
         dd:f3:df:58:ca:7e:e2:c8:02:34:a1:89:51:2e:6c:5d:6f:a7:
         98:c7:75:dc:af:45:e8:f4:ef:77:34:74:e9:cd:95:dc:65:50:
         fe:dd:9d:f5:b0:d6:fc:f8:05:c0:3f:98:a1:c7:62:32:ba:33:
         be:94:d2:3c:37:8a:bb:e1:c7:48:58:fe:e2:05:b9:f0:dd:fb:
         04:99:21:b7:c3:b2:22:42:75:c5:12:68:65:a2:98:42:b0:01:
         ac:26:65:c8:e7:bd:d6:a8:ad:4b:63:ab:ff:f7:50:84:59:9c:
         73:11:2d:cd:7f:a1:1a:de:a8:87:f3:46:55:9e:e6:c1:2e:9b:
         15:c6:75:3c:fa:a7:c3:5d:3c:bf:7b:66:83:82:2e:35:e5:31:
         f3:07:96:b3:2b:a8:87:d5:7a:7f:ba:44:10:0e:14:c8:4f:15:
         4a:40:7b:82:3b:1f:06:c2:eb:8e:13:a0:68:85:c6:de:c9:af:
         04:51:11:49:07:c6:cd:1e:18:bd:c0:d9:04:6b:b7:7d:8c:97:
         1d:a7:55:e5:1d:37:a9:8e:7e:1b:80:53:bc:1c:fe:00:be:5f:
         53:a3:dc:07:b3:ec:ce:79:e1:93:28:0e:e8:0d:10:17:c7:79:
         5f:65:04:1c:e2:30:3c:ff:f4:ba:f6:5a:bf:fd:b4:a5:9b:02:
         4a:ae:42:e8:e1:1d:8d:8e:d8:46:08:98:f0:bd:99:00:17:db:
         db:80:02:8c:45:8b:64:8a:c0:b5:6b:dc:ad:2e:a9:4b:7f:0d:
         60:07:82:69:c7:66:ae:9a:2f:d5:20:e6:0b:a5:d3:20:ba:28:
         b5:22:65:a3:65:88:20:2d:61:5b:c3:d6:96:09:e0:70:ca:54:
         af:24:26:df:21:7c:91:17:d3:c6:f0:b0:aa:99:6a:a3:a3:96:
         f4:0a:4c:c1:e6:75:51:18:87:4d:b0:93:02:d8:f5:de:da:87:
         68:ea:df:7f:68:fb:bb:e6:7a:10:a5:b1:40:b8:01:59:53:78:
         76:32:b5:3b:f8:c2:96:bd:93:f0:22:a7:9d:8a:e6:b8:47:24:
         33:c8:76:92:db:ee:98:72:f8:62:ae:d0:50:2f:5d:da:96:93:
         84:26:c5:82:f1:91:f8:19:a3:90:9f:9f:d8:d3:3e:f9:f5:c6:
         d5:24:fc:1a:2c:bf:98:11:f3:ca:45:8e:cf:e8:4c:b6:4a:2f:
         34:59:08:6a:d8:5b:12:68:07:82:91:78:5f:56:5a:9b:01:e6:
         73:bb:63:b7:0b:c7:77:7d:96:26:26:54:a6:b2:79:e7:d2:87:
         f3:63:61:82:a5:47:27:3e
-----BEGIN CERTIFICATE-----
MIIGGTCCBAGgAwIBAgIUPlHLv1t6plpC6qvctKfeRSg9BpQwDQYJKoZIhvcNAQEL
BQAwfjELMAkGA1UEBhMCQ0gxEDAOBgNVBAgTB1RodXJnYXUxEDAOBgNVBAcTB0tl
Zmlrb24xEzARBgNVBAoTCmd1ZW5nZWwuY2gxEDAOBgNVBAMTB0NBIDIwMjIxJDAi
BgkqhkiG9w0BCQEWFXBvc3RtYXN0ZXJAZ3VlbmdlbC5jaDAeFw0yMzAyMjgwNjQx
MDhaFw0yNDA0MDMwNjQxMDhaMIGZMQswCQYDVQQGEwJDSDEQMA4GA1UECBMHVGh1
cmdhdTETMBEGA1UEChMKZ3VlbmdlbC5jaDE9MDsGA1UEAxM0ZWMyLTU0LTkzLTE2
NC0xNTkuZXUtY2VudHJhbC0xLmNvbXB1dGUuYW1hem9uYXdzLmNvbTEkMCIGCSqG
SIb3DQEJARYVcG9zdG1hc3RlckBndWVuZ2VsLmNoMIIBIjANBgkqhkiG9w0BAQEF
AAOCAQ8AMIIBCgKCAQEAxAzKDfY+y9zBw2eqhmH9IwMdV1B2NA4xymIsoXTVFVOO
FFhPgNtXSVVgyp1mySzwrGJuirHfQTT/6HaE9y+DfH+kjZvjQuA2QwSMU8ntinoU
uVrkQw3Rgeehu3NhRATcGy10wUCEnJUWp0QjzNhUQyjbAD/KjS+iWw/pvXf+px4w
MH9HcHWXCTgpQpHUSTzNW+ekDB/aeQYGvggczVPdyd98+WHsNybPvbzjFUoOkz8e
B0xz7+LZ6MAbvl1oLXBO7sGv/yAgaOSW2izDtjki4cTWcZ/d5XLSH8gBcEKwVyKf
KF2yRZBAvIMKd+beyq8tlm4Wpoe1zqPw5eDXoM3THQIDAQABo4IBcTCCAW0wDAYD
VR0TAQH/BAIwADALBgNVHQ8EBAMCA6gwHQYDVR0OBBYEFHFkqp3le2m39IL3BXU/
L3J6wye3MIG9BgNVHSMEgbUwgbKAFCIgDVFAYUK+3brZycF3tpMow5nsoYGDpIGA
MH4xCzAJBgNVBAYTAkNIMRAwDgYDVQQIEwdUaHVyZ2F1MRAwDgYDVQQHEwdLZWZp
a29uMRMwEQYDVQQKEwpndWVuZ2VsLmNoMRAwDgYDVQQDEwdDQSAyMDIyMSQwIgYJ
KoZIhvcNAQkBFhVwb3N0bWFzdGVyQGd1ZW5nZWwuY2iCFG0pkFTpF+nCauZSrYRO
MI5uV/scMBEGCWCGSAGG+EIBAQQEAwIGwDAdBgNVHSUEFjAUBggrBgEFBQcDAQYI
KwYBBQUHAwIwPwYDVR0RBDgwNoI0ZWMyLTU0LTkzLTE2NC0xNTkuZXUtY2VudHJh
bC0xLmNvbXB1dGUuYW1hem9uYXdzLmNvbTANBgkqhkiG9w0BAQsFAAOCAgEAY/Zf
t+4cQRnbTV6isfKqnOfn3fPfWMp+4sgCNKGJUS5sXW+nmMd13K9F6PTvdzR06c2V
3GVQ/t2d9bDW/PgFwD+YocdiMrozvpTSPDeKu+HHSFj+4gW58N37BJkht8OyIkJ1
xRJoZaKYQrABrCZlyOe91qitS2Or//dQhFmccxEtzX+hGt6oh/NGVZ7mwS6bFcZ1
PPqnw108v3tmg4IuNeUx8weWsyuoh9V6f7pEEA4UyE8VSkB7gjsfBsLrjhOgaIXG
3smvBFERSQfGzR4YvcDZBGu3fYyXHadV5R03qY5+G4BTvBz+AL5fU6PcB7Psznnh
kygO6A0QF8d5X2UEHOIwPP/0uvZav/20pZsCSq5C6OEdjY7YRgiY8L2ZABfb24AC
jEWLZIrAtWvcrS6pS38NYAeCacdmrpov1SDmC6XTILootSJlo2WIIC1hW8PWlgng
cMpUryQm3yF8kRfTxvCwqplqo6OW9ApMweZ1URiHTbCTAtj13tqHaOrff2j7u+Z6
EKWxQLgBWVN4djK1O/jClr2T8CKnnYrmuEckM8h2ktvumHL4Yq7QUC9d2paThCbF
gvGR+BmjkJ+f2NM++fXG1ST8Giy/mBHzykWOz+hMtkovNFkIathbEmgHgpF4X1Za
mwHmc7tjtwvHd32WJiZUprJ559KH82NhgqVHJz4=
-----END CERTIFICATE-----
