Certificate:
    Data:
        Version: 3 (0x2)
        Serial Number: 445 (0x1bd)
        Signature Algorithm: sha256WithRSAEncryption
        Issuer: C=CH, ST=Thurgau, L=Kefikon, O=guengel.ch, CN=CA guengel.ch/emailAddress=postmaster@guengel.ch
        Validity
            Not Before: Feb  6 15:20:11 2021 GMT
            Not After : Mar 13 15:20:11 2022 GMT
        Subject: C=CH, ST=Thurgau, O=guengel.ch, CN=ec2-54-93-164-159.eu-central-1.compute.amazonaws.com/emailAddress=postmaster@guengel.ch
        Subject Public Key Info:
            Public Key Algorithm: rsaEncryption
                RSA Public-Key: (2048 bit)
                Modulus:
                    00:ac:fc:9c:fb:c2:bb:e5:63:93:98:30:21:da:6a:
                    70:0b:ec:84:93:45:e2:79:4d:d0:b4:73:35:8d:45:
                    50:65:21:a0:81:7a:84:0c:28:81:4c:26:8e:41:a2:
                    56:d8:d6:98:21:4a:dc:9c:c6:76:3a:3f:36:2b:72:
                    8f:72:38:d8:2b:e2:6c:7c:49:2e:61:d5:d7:c2:e8:
                    06:56:2a:63:e4:4b:6c:a8:4b:bb:77:e9:dd:b2:7d:
                    dd:31:88:06:b5:b3:f9:5a:18:21:44:4d:9d:0d:95:
                    76:88:be:db:ff:18:c6:b1:97:1c:b2:6c:d6:d0:80:
                    d3:19:8a:8c:85:f9:8d:ff:c2:c3:39:08:20:20:fd:
                    1f:4b:44:cb:51:50:9d:d5:4f:49:ed:0c:70:1f:5e:
                    d0:d0:71:87:47:94:fc:69:85:98:af:9a:ba:a2:e1:
                    31:1e:a8:4c:97:b7:53:09:b1:5b:ee:35:06:9b:0d:
                    ba:92:dd:7f:a2:2f:d4:42:e2:e2:e8:75:c6:5e:07:
                    6b:b5:cc:db:8d:64:71:2f:d0:d2:83:c2:92:2d:ab:
                    8e:6a:11:6b:42:cf:07:d4:b5:a2:c5:4f:05:e4:d8:
                    b8:18:21:3d:9e:8a:e7:7a:6d:e8:43:ef:d8:94:1f:
                    ed:a0:42:2c:a2:a0:fd:73:25:6e:ef:ba:40:9a:65:
                    c6:a9
                Exponent: 65537 (0x10001)
        X509v3 extensions:
            X509v3 Key Usage: 
                Digital Signature, Key Encipherment, Key Agreement
            X509v3 Basic Constraints: critical
                CA:FALSE
            Netscape Cert Type: 
                SSL Client, SSL Server
            X509v3 Extended Key Usage: 
                TLS Web Server Authentication, TLS Web Client Authentication
            X509v3 Subject Alternative Name: 
                DNS:ec2-54-93-164-159.eu-central-1.compute.amazonaws.com
            X509v3 Subject Key Identifier: 
                9D:86:77:4D:1D:55:DD:27:4E:19:B5:30:A5:D5:9B:1E:12:69:CF:66
            X509v3 Authority Key Identifier: 
                keyid:D6:88:F1:AA:C1:2B:09:8C:B8:5C:9D:CE:DF:57:39:62:26:10:20:90
                DirName:/C=CH/ST=Thurgau/L=Kefikon/O=guengel.ch/CN=CA guengel.ch/emailAddress=postmaster@guengel.ch
                serial:E5:25:3B:A6:77:BD:CB:FF

    Signature Algorithm: sha256WithRSAEncryption
         42:da:6d:9e:c5:53:06:fb:bd:1f:b0:d7:46:7e:c6:84:be:66:
         54:ac:fd:6e:4e:3e:cd:40:a4:c8:12:3c:de:44:0f:2e:0d:16:
         44:6a:f0:a7:0f:84:42:96:c2:5b:51:10:45:97:70:cd:55:d4:
         b8:c1:a5:7b:9e:d9:8c:86:10:d3:98:98:eb:ea:c4:aa:6e:a9:
         41:0a:64:14:c4:87:d8:5d:6f:0b:e4:78:bb:d4:fd:de:c5:84:
         ad:4b:1b:33:56:20:03:3e:71:15:2a:d2:bf:9e:61:f7:f5:5f:
         13:a4:43:db:79:9a:fb:d0:ed:04:2b:68:6e:00:3e:ee:f7:ae:
         61:a9:bd:18:a2:ba:0e:ce:ac:bb:e0:5b:3a:04:43:e0:b1:21:
         7d:79:82:55:3d:63:2e:59:a7:e9:6e:90:c7:25:77:1e:48:aa:
         08:2e:24:f4:f7:40:bf:c7:22:fd:78:3a:00:82:96:97:d1:23:
         4e:3a:b1:39:92:71:9f:f2:7e:fe:dd:6b:fc:46:cf:11:ef:8d:
         4e:95:69:f9:56:1a:d9:8f:fc:4a:17:af:f9:e5:a1:c9:ab:a0:
         78:8a:bc:eb:81:42:2e:6a:26:6c:59:a0:0e:22:52:28:eb:94:
         27:6b:20:ee:f7:f9:ec:c8:0e:1e:93:5f:e0:43:ca:43:82:77:
         87:d1:f7:6d:b7:30:fd:23:f1:1b:10:11:cb:03:60:4c:65:94:
         7a:a5:db:13:3a:3b:35:1d:79:a0:17:3b:d7:cc:62:a7:03:03:
         1f:ca:e9:46:20:0e:a5:f7:49:2f:29:3d:b0:3e:86:1b:b8:1c:
         ed:16:d6:48:c0:a0:b4:b4:51:89:bf:c4:39:e4:eb:b9:52:7c:
         7a:00:a3:26:a4:28:e0:9a:32:68:85:2c:15:7d:99:db:29:1d:
         67:e9:56:4c:6d:e7:8a:8a:c3:69:ad:7d:9b:60:76:c1:78:ad:
         bd:ad:6c:d0:95:d9:6b:75:8c:cd:3c:05:74:9a:d6:8f:48:1a:
         29:b0:a2:4d:df:91:78:66:24:8d:14:17:2f:da:c3:95:26:25:
         b2:61:5c:e8:9e:ae:db:d2:67:09:df:b7:85:a1:c3:c5:f3:87:
         bf:97:7e:80:4f:9c:ea:87:1f:c4:c5:c6:af:db:75:38:f7:f3:
         c6:56:b2:99:6a:eb:81:31:89:5e:38:3b:55:3e:70:d0:1d:16:
         8c:b0:ab:4f:38:47:e5:f7:cd:b4:a2:93:20:d0:69:86:79:2b:
         b1:72:6d:7c:54:0a:ae:0c:39:d1:05:59:d9:56:94:48:2c:f6:
         81:fd:9b:69:ec:4f:de:5f:1f:10:95:00:50:06:07:55:f7:e3:
         c3:2d:5a:6c:a8:07:ee:1d
-----BEGIN CERTIFICATE-----
MIIGCjCCA/KgAwIBAgICAb0wDQYJKoZIhvcNAQELBQAwgYQxCzAJBgNVBAYTAkNI
MRAwDgYDVQQIEwdUaHVyZ2F1MRAwDgYDVQQHEwdLZWZpa29uMRMwEQYDVQQKEwpn
dWVuZ2VsLmNoMRYwFAYDVQQDEw1DQSBndWVuZ2VsLmNoMSQwIgYJKoZIhvcNAQkB
FhVwb3N0bWFzdGVyQGd1ZW5nZWwuY2gwHhcNMjEwMjA2MTUyMDExWhcNMjIwMzEz
MTUyMDExWjCBmTELMAkGA1UEBhMCQ0gxEDAOBgNVBAgTB1RodXJnYXUxEzARBgNV
BAoTCmd1ZW5nZWwuY2gxPTA7BgNVBAMTNGVjMi01NC05My0xNjQtMTU5LmV1LWNl
bnRyYWwtMS5jb21wdXRlLmFtYXpvbmF3cy5jb20xJDAiBgkqhkiG9w0BCQEWFXBv
c3RtYXN0ZXJAZ3VlbmdlbC5jaDCCASIwDQYJKoZIhvcNAQEBBQADggEPADCCAQoC
ggEBAKz8nPvCu+Vjk5gwIdpqcAvshJNF4nlN0LRzNY1FUGUhoIF6hAwogUwmjkGi
VtjWmCFK3JzGdjo/Nityj3I42CvibHxJLmHV18LoBlYqY+RLbKhLu3fp3bJ93TGI
BrWz+VoYIURNnQ2Vdoi+2/8YxrGXHLJs1tCA0xmKjIX5jf/CwzkIICD9H0tEy1FQ
ndVPSe0McB9e0NBxh0eU/GmFmK+auqLhMR6oTJe3UwmxW+41BpsNupLdf6Iv1ELi
4uh1xl4Ha7XM241kcS/Q0oPCki2rjmoRa0LPB9S1osVPBeTYuBghPZ6K53pt6EPv
2JQf7aBCLKKg/XMlbu+6QJplxqkCAwEAAaOCAW0wggFpMAsGA1UdDwQEAwIDqDAM
BgNVHRMBAf8EAjAAMBEGCWCGSAGG+EIBAQQEAwIGwDAdBgNVHSUEFjAUBggrBgEF
BQcDAQYIKwYBBQUHAwIwPwYDVR0RBDgwNoI0ZWMyLTU0LTkzLTE2NC0xNTkuZXUt
Y2VudHJhbC0xLmNvbXB1dGUuYW1hem9uYXdzLmNvbTAdBgNVHQ4EFgQUnYZ3TR1V
3SdOGbUwpdWbHhJpz2YwgbkGA1UdIwSBsTCBroAU1ojxqsErCYy4XJ3O31c5YiYQ
IJChgYqkgYcwgYQxCzAJBgNVBAYTAkNIMRAwDgYDVQQIEwdUaHVyZ2F1MRAwDgYD
VQQHEwdLZWZpa29uMRMwEQYDVQQKEwpndWVuZ2VsLmNoMRYwFAYDVQQDEw1DQSBn
dWVuZ2VsLmNoMSQwIgYJKoZIhvcNAQkBFhVwb3N0bWFzdGVyQGd1ZW5nZWwuY2iC
CQDlJTumd73L/zANBgkqhkiG9w0BAQsFAAOCAgEAQtptnsVTBvu9H7DXRn7GhL5m
VKz9bk4+zUCkyBI83kQPLg0WRGrwpw+EQpbCW1EQRZdwzVXUuMGle57ZjIYQ05iY
6+rEqm6pQQpkFMSH2F1vC+R4u9T93sWErUsbM1YgAz5xFSrSv55h9/VfE6RD23ma
+9DtBCtobgA+7veuYam9GKK6Ds6su+BbOgRD4LEhfXmCVT1jLlmn6W6QxyV3Hkiq
CC4k9PdAv8ci/Xg6AIKWl9EjTjqxOZJxn/J+/t1r/EbPEe+NTpVp+VYa2Y/8Shev
+eWhyaugeIq864FCLmombFmgDiJSKOuUJ2sg7vf57MgOHpNf4EPKQ4J3h9H3bbcw
/SPxGxARywNgTGWUeqXbEzo7NR15oBc718xipwMDH8rpRiAOpfdJLyk9sD6GG7gc
7RbWSMCgtLRRib/EOeTruVJ8egCjJqQo4JoyaIUsFX2Z2ykdZ+lWTG3niorDaa19
m2B2wXitva1s0JXZa3WMzTwFdJrWj0gaKbCiTd+ReGYkjRQXL9rDlSYlsmFc6J6u
29JnCd+3haHDxfOHv5d+gE+c6ocfxMXGr9t1OPfzxlaymWrrgTGJXjg7VT5w0B0W
jLCrTzhH5ffNtKKTINBphnkrsXJtfFQKrgw50QVZ2VaUSCz2gf2baexP3l8fEJUA
UAYHVffjwy1abKgH7h0=
-----END CERTIFICATE-----
