Certificate:
    Data:
        Version: 3 (0x2)
        Serial Number:
            2b:de:03:7b:27:ef:2f:fd:0c:f5:ab:c5:f0:14:1d:c1:ef:00:57:be
        Signature Algorithm: sha256WithRSAEncryption
        Issuer: C=CH, ST=Thurgau, L=Kefikon, O=guengel.ch, CN=CA 2022/emailAddress=postmaster@guengel.ch
        Validity
            Not Before: Feb 11 15:37:02 2022 GMT
            Not After : Mar 18 15:37:02 2023 GMT
        Subject: C=CH, ST=Thurgau, O=guengel.ch, CN=ec2-54-93-164-159.eu-central-1.compute.amazonaws.com/emailAddress=postmaster@guengel.ch
        Subject Public Key Info:
            Public Key Algorithm: rsaEncryption
                RSA Public-Key: (2048 bit)
                Modulus:
                    00:c4:0c:ca:0d:f6:3e:cb:dc:c1:c3:67:aa:86:61:
                    fd:23:03:1d:57:50:76:34:0e:31:ca:62:2c:a1:74:
                    d5:15:53:8e:14:58:4f:80:db:57:49:55:60:ca:9d:
                    66:c9:2c:f0:ac:62:6e:8a:b1:df:41:34:ff:e8:76:
                    84:f7:2f:83:7c:7f:a4:8d:9b:e3:42:e0:36:43:04:
                    8c:53:c9:ed:8a:7a:14:b9:5a:e4:43:0d:d1:81:e7:
                    a1:bb:73:61:44:04:dc:1b:2d:74:c1:40:84:9c:95:
                    16:a7:44:23:cc:d8:54:43:28:db:00:3f:ca:8d:2f:
                    a2:5b:0f:e9:bd:77:fe:a7:1e:30:30:7f:47:70:75:
                    97:09:38:29:42:91:d4:49:3c:cd:5b:e7:a4:0c:1f:
                    da:79:06:06:be:08:1c:cd:53:dd:c9:df:7c:f9:61:
                    ec:37:26:cf:bd:bc:e3:15:4a:0e:93:3f:1e:07:4c:
                    73:ef:e2:d9:e8:c0:1b:be:5d:68:2d:70:4e:ee:c1:
                    af:ff:20:20:68:e4:96:da:2c:c3:b6:39:22:e1:c4:
                    d6:71:9f:dd:e5:72:d2:1f:c8:01:70:42:b0:57:22:
                    9f:28:5d:b2:45:90:40:bc:83:0a:77:e6:de:ca:af:
                    2d:96:6e:16:a6:87:b5:ce:a3:f0:e5:e0:d7:a0:cd:
                    d3:1d
                Exponent: 65537 (0x10001)
        X509v3 extensions:
            X509v3 Basic Constraints: critical
                CA:FALSE
            X509v3 Key Usage: 
                Digital Signature, Key Encipherment, Key Agreement
            X509v3 Subject Key Identifier: 
                71:64:AA:9D:E5:7B:69:B7:F4:82:F7:05:75:3F:2F:72:7A:C3:27:B7
            X509v3 Authority Key Identifier: 
                keyid:22:20:0D:51:40:61:42:BE:DD:BA:D9:C9:C1:77:B6:93:28:C3:99:EC
                DirName:/C=CH/ST=Thurgau/L=Kefikon/O=guengel.ch/CN=CA 2022/emailAddress=postmaster@guengel.ch
                serial:6D:29:90:54:E9:17:E9:C2:6A:E6:52:AD:84:4E:30:8E:6E:57:FB:1C

            Netscape Cert Type: 
                SSL Client, SSL Server
            X509v3 Extended Key Usage: 
                TLS Web Server Authentication, TLS Web Client Authentication
            X509v3 Subject Alternative Name: 
                DNS:ec2-54-93-164-159.eu-central-1.compute.amazonaws.com
    Signature Algorithm: sha256WithRSAEncryption
         17:d0:bc:61:9f:44:fa:21:b2:61:82:3a:e8:8e:9a:3f:d6:a9:
         58:8a:1a:fc:b7:a0:54:ae:d4:98:4e:f2:0d:fa:45:8a:2d:be:
         e4:25:56:fa:f5:fd:b2:05:86:90:82:88:a0:da:ea:87:bb:cd:
         36:05:82:1b:bb:a9:bc:3d:bb:47:46:7a:27:58:f4:d8:18:32:
         49:d9:13:4e:71:ef:a7:f0:e1:26:2a:4b:ab:73:38:41:ad:17:
         f5:0d:29:79:42:e3:08:b4:c5:55:19:8c:b1:7d:36:c2:ab:97:
         24:d1:ba:55:55:33:35:25:c4:8c:7c:b5:78:0a:4e:d6:93:eb:
         e0:07:e8:7e:4a:c7:8a:5d:da:05:34:df:9b:94:fc:02:8f:a6:
         05:56:72:a7:61:e8:82:6a:19:15:01:52:52:36:3a:98:e3:69:
         40:65:2f:61:42:42:ee:cc:a5:41:db:35:ec:69:ec:2d:ce:14:
         0e:56:1e:a5:a4:e1:02:9c:d7:7c:2d:6b:6f:d1:25:c5:4b:f9:
         c9:0c:76:2c:9b:de:7e:e6:b0:38:3f:13:bb:f0:2d:6a:a7:b5:
         25:05:a7:29:20:45:25:53:d0:c6:8c:00:b8:f2:e4:2d:6a:89:
         e3:6d:ab:39:eb:1d:7e:67:65:b2:8e:1e:e1:a0:a3:c3:ae:33:
         17:79:15:c7:16:f9:c0:54:ad:59:d9:f3:75:5d:65:03:0d:9f:
         cf:9f:34:a2:48:9f:23:5c:63:de:b3:f8:f8:15:15:52:67:40:
         c7:36:84:93:1f:b9:4a:c5:8f:2d:1d:32:d4:99:39:3c:86:a1:
         50:c7:22:65:bd:a0:89:d7:a4:5d:e2:37:91:cd:49:9b:8d:ae:
         37:a5:42:88:5a:8c:08:ff:5b:57:53:cf:9f:84:12:6b:34:ba:
         74:22:63:68:de:f6:b4:9e:41:8c:b7:a1:f0:a4:d8:9a:ec:94:
         8c:39:26:00:ff:bf:78:8b:b3:e1:f5:f4:56:76:94:6f:68:0c:
         d7:65:28:94:54:a7:ad:fb:3b:7c:33:1e:10:cb:db:b9:84:bd:
         f5:e1:99:f7:ca:a9:02:16:87:c9:41:5b:12:e5:55:c1:1b:4f:
         35:3b:55:b6:03:5e:8c:b2:05:53:42:90:ff:c4:35:40:cb:36:
         1d:27:48:bb:5e:ee:bb:0b:fe:9a:2f:25:05:69:79:42:05:18:
         7e:a1:00:31:1f:7e:f5:29:61:e4:5d:c0:e9:26:bc:3c:7e:b7:
         e0:88:24:94:70:c2:14:f7:83:44:b5:9d:d3:35:68:02:74:86:
         10:fa:5d:8b:2c:70:5e:42:a2:52:f3:09:5e:97:cb:57:98:6b:
         6f:1a:14:6e:53:06:5f:49
-----BEGIN CERTIFICATE-----
MIIGGTCCBAGgAwIBAgIUK94DeyfvL/0M9avF8BQdwe8AV74wDQYJKoZIhvcNAQEL
BQAwfjELMAkGA1UEBhMCQ0gxEDAOBgNVBAgTB1RodXJnYXUxEDAOBgNVBAcTB0tl
Zmlrb24xEzARBgNVBAoTCmd1ZW5nZWwuY2gxEDAOBgNVBAMTB0NBIDIwMjIxJDAi
BgkqhkiG9w0BCQEWFXBvc3RtYXN0ZXJAZ3VlbmdlbC5jaDAeFw0yMjAyMTExNTM3
MDJaFw0yMzAzMTgxNTM3MDJaMIGZMQswCQYDVQQGEwJDSDEQMA4GA1UECBMHVGh1
cmdhdTETMBEGA1UEChMKZ3VlbmdlbC5jaDE9MDsGA1UEAxM0ZWMyLTU0LTkzLTE2
NC0xNTkuZXUtY2VudHJhbC0xLmNvbXB1dGUuYW1hem9uYXdzLmNvbTEkMCIGCSqG
SIb3DQEJARYVcG9zdG1hc3RlckBndWVuZ2VsLmNoMIIBIjANBgkqhkiG9w0BAQEF
AAOCAQ8AMIIBCgKCAQEAxAzKDfY+y9zBw2eqhmH9IwMdV1B2NA4xymIsoXTVFVOO
FFhPgNtXSVVgyp1mySzwrGJuirHfQTT/6HaE9y+DfH+kjZvjQuA2QwSMU8ntinoU
uVrkQw3Rgeehu3NhRATcGy10wUCEnJUWp0QjzNhUQyjbAD/KjS+iWw/pvXf+px4w
MH9HcHWXCTgpQpHUSTzNW+ekDB/aeQYGvggczVPdyd98+WHsNybPvbzjFUoOkz8e
B0xz7+LZ6MAbvl1oLXBO7sGv/yAgaOSW2izDtjki4cTWcZ/d5XLSH8gBcEKwVyKf
KF2yRZBAvIMKd+beyq8tlm4Wpoe1zqPw5eDXoM3THQIDAQABo4IBcTCCAW0wDAYD
VR0TAQH/BAIwADALBgNVHQ8EBAMCA6gwHQYDVR0OBBYEFHFkqp3le2m39IL3BXU/
L3J6wye3MIG9BgNVHSMEgbUwgbKAFCIgDVFAYUK+3brZycF3tpMow5nsoYGDpIGA
MH4xCzAJBgNVBAYTAkNIMRAwDgYDVQQIEwdUaHVyZ2F1MRAwDgYDVQQHEwdLZWZp
a29uMRMwEQYDVQQKEwpndWVuZ2VsLmNoMRAwDgYDVQQDEwdDQSAyMDIyMSQwIgYJ
KoZIhvcNAQkBFhVwb3N0bWFzdGVyQGd1ZW5nZWwuY2iCFG0pkFTpF+nCauZSrYRO
MI5uV/scMBEGCWCGSAGG+EIBAQQEAwIGwDAdBgNVHSUEFjAUBggrBgEFBQcDAQYI
KwYBBQUHAwIwPwYDVR0RBDgwNoI0ZWMyLTU0LTkzLTE2NC0xNTkuZXUtY2VudHJh
bC0xLmNvbXB1dGUuYW1hem9uYXdzLmNvbTANBgkqhkiG9w0BAQsFAAOCAgEAF9C8
YZ9E+iGyYYI66I6aP9apWIoa/LegVK7UmE7yDfpFii2+5CVW+vX9sgWGkIKIoNrq
h7vNNgWCG7upvD27R0Z6J1j02BgySdkTTnHvp/DhJipLq3M4Qa0X9Q0peULjCLTF
VRmMsX02wquXJNG6VVUzNSXEjHy1eApO1pPr4AfofkrHil3aBTTfm5T8Ao+mBVZy
p2HogmoZFQFSUjY6mONpQGUvYUJC7sylQds17GnsLc4UDlYepaThApzXfC1rb9El
xUv5yQx2LJvefuawOD8Tu/Ataqe1JQWnKSBFJVPQxowAuPLkLWqJ422rOesdfmdl
so4e4aCjw64zF3kVxxb5wFStWdnzdV1lAw2fz580okifI1xj3rP4+BUVUmdAxzaE
kx+5SsWPLR0y1Jk5PIahUMciZb2gidekXeI3kc1Jm42uN6VCiFqMCP9bV1PPn4QS
azS6dCJjaN72tJ5BjLeh8KTYmuyUjDkmAP+/eIuz4fX0VnaUb2gM12UolFSnrfs7
fDMeEMvbuYS99eGZ98qpAhaHyUFbEuVVwRtPNTtVtgNejLIFU0KQ/8Q1QMs2HSdI
u17uuwv+mi8lBWl5QgUYfqEAMR9+9Slh5F3A6Sa8PH634IgklHDCFPeDRLWd0zVo
AnSGEPpdiyxwXkKiUvMJXpfLV5hrbxoUblMGX0k=
-----END CERTIFICATE-----
