Certificate:
    Data:
        Version: 3 (0x2)
        Serial Number: 398 (0x18e)
        Signature Algorithm: sha256WithRSAEncryption
        Issuer: C=CH, ST=Thurgau, L=Kefikon, O=guengel.ch, CN=CA guengel.ch/emailAddress=postmaster@guengel.ch
        Validity
            Not Before: Aug 15 22:19:29 2020 GMT
            Not After : Sep 19 22:19:29 2021 GMT
        Subject: C=CH, ST=Thurgau, O=guengel.ch, CN=ec2-52-29-59-221.eu-central-1.compute.amazonaws.com/emailAddress=postmaster@guengel.ch
        Subject Public Key Info:
            Public Key Algorithm: rsaEncryption
                RSA Public-Key: (2048 bit)
                Modulus:
                    00:cf:e5:ac:e9:88:ad:c5:73:70:51:03:58:30:86:
                    2d:45:dc:99:70:93:7d:56:7c:5f:d6:59:bd:ce:9b:
                    c3:e4:e2:43:b2:72:20:63:be:09:30:29:52:5d:4f:
                    79:eb:1d:db:b9:b8:23:fb:43:08:6f:1b:78:bc:41:
                    eb:71:cc:b8:e1:16:9c:ae:4e:dc:ba:d6:37:f1:68:
                    f5:c1:7a:84:d7:8e:de:95:38:79:ec:ab:ef:75:bb:
                    15:db:b3:20:f6:1c:ad:e7:6b:c1:53:8e:c0:8e:e9:
                    56:71:7e:74:77:cc:a4:45:40:a1:af:b8:f4:4e:3b:
                    f2:a5:0d:dc:21:00:24:4d:ef:5f:4b:2b:d4:72:82:
                    77:ed:ce:88:27:84:ca:28:f3:a5:68:28:96:98:b9:
                    07:03:c9:91:e1:12:ad:47:a7:37:df:da:b2:f2:5b:
                    86:7d:7b:5a:a0:0f:40:05:e0:8f:68:b6:27:c9:fa:
                    fd:b3:e8:8c:e5:d1:5e:1e:b3:6b:a9:d6:a0:e6:ee:
                    c5:2f:d2:20:34:fd:ea:7f:a4:c8:20:63:82:36:9d:
                    da:3b:7c:da:b7:47:4b:8e:4e:3d:fc:1b:9a:bd:1f:
                    c1:c6:d2:4b:ea:3f:ee:dc:60:f4:09:84:f1:9c:33:
                    7b:7f:7c:96:2d:68:65:2a:77:39:90:b2:89:9b:34:
                    b2:c1
                Exponent: 65537 (0x10001)
        X509v3 extensions:
            X509v3 Basic Constraints: 
                CA:FALSE
            Netscape Cert Type: 
                SSL Client, SSL Server
            X509v3 Extended Key Usage: 
                TLS Web Server Authentication, TLS Web Client Authentication
    Signature Algorithm: sha256WithRSAEncryption
         91:3e:69:70:5d:ca:90:4d:78:f6:5e:ad:c1:25:16:ab:69:c9:
         94:42:dc:a4:e9:8b:ea:f2:57:b7:27:93:cf:71:24:22:d0:5b:
         3f:c2:bb:25:56:99:a1:6a:3c:db:ca:64:8a:f1:90:d5:33:f8:
         a7:dd:8a:03:fb:8b:40:5d:ef:19:f1:6a:78:c2:13:3d:83:de:
         a3:70:83:b5:8e:cc:86:43:3b:c3:5a:21:48:9d:a2:9e:87:50:
         04:af:96:83:11:bf:9e:d6:2f:c8:69:f3:4d:a1:1a:ab:17:62:
         d5:be:b5:6a:90:a7:67:4e:3b:ae:df:9d:2b:c5:fe:8b:81:96:
         c9:ad:70:56:5e:12:f9:49:ce:b5:c2:3d:05:54:25:5a:1e:33:
         d3:fe:01:2f:c3:d4:7a:03:4b:cc:13:c2:7d:af:81:4e:1a:2b:
         41:9e:13:a4:36:80:7d:c7:ae:9b:59:6d:f2:a0:ba:3e:80:b8:
         b8:84:d4:a1:cd:5d:1d:75:68:cb:4f:07:49:12:5a:46:a7:53:
         2f:98:06:a7:2e:ed:dd:73:c9:45:1d:44:2d:5c:da:dd:85:6f:
         2c:7d:df:2c:f6:6f:fb:4e:da:f8:b4:ab:89:80:a6:07:b2:b4:
         6f:79:3e:67:b0:5e:87:a7:cb:ea:1d:04:66:cb:9e:12:cf:eb:
         8b:56:c7:6f:cb:96:6e:94:c0:fa:2c:2e:cf:cb:26:ac:6e:87:
         d6:71:cd:c4:70:6a:20:be:70:5d:8f:8c:b2:a2:37:43:92:10:
         21:49:34:ac:eb:24:c0:7e:b8:ac:59:85:c4:ff:13:e6:10:51:
         31:68:6d:a6:da:b0:b6:62:54:8c:68:ab:a3:cd:53:4c:18:91:
         93:e0:a0:d5:54:a7:ec:97:3f:64:d5:87:d3:ce:02:ea:83:da:
         46:c9:1c:04:3f:1d:85:d5:7d:9e:4b:a4:46:90:a5:4a:f9:f1:
         f6:d5:88:3e:d9:bb:ee:61:00:0b:d7:d4:91:9d:ae:6a:1d:1e:
         cd:ec:23:1b:93:05:c1:f8:7d:6e:66:49:f0:fa:79:24:ce:56:
         d3:a1:0e:c7:39:8c:b4:4f:57:ba:04:c2:fe:94:1b:49:9f:40:
         7e:5c:bb:71:3a:90:77:50:32:98:5b:82:db:f0:25:7e:b9:3d:
         6c:4a:c9:52:59:59:3f:6b:f0:73:51:4d:36:cc:14:16:60:13:
         4d:c4:ba:c9:b1:c7:8a:bf:ab:a2:42:e3:cb:45:85:6a:ae:97:
         cd:32:f5:9e:5a:b1:b2:b9:26:89:f8:ac:b3:82:9d:8a:81:c5:
         a3:a9:1c:59:55:82:ba:3a:4d:ed:9e:57:2e:cd:8b:c5:dc:cb:
         5f:c1:92:ac:6c:ba:a9:57
-----BEGIN CERTIFICATE-----
MIIE2TCCAsGgAwIBAgICAY4wDQYJKoZIhvcNAQELBQAwgYQxCzAJBgNVBAYTAkNI
MRAwDgYDVQQIEwdUaHVyZ2F1MRAwDgYDVQQHEwdLZWZpa29uMRMwEQYDVQQKEwpn
dWVuZ2VsLmNoMRYwFAYDVQQDEw1DQSBndWVuZ2VsLmNoMSQwIgYJKoZIhvcNAQkB
FhVwb3N0bWFzdGVyQGd1ZW5nZWwuY2gwHhcNMjAwODE1MjIxOTI5WhcNMjEwOTE5
MjIxOTI5WjCBmDELMAkGA1UEBhMCQ0gxEDAOBgNVBAgTB1RodXJnYXUxEzARBgNV
BAoTCmd1ZW5nZWwuY2gxPDA6BgNVBAMTM2VjMi01Mi0yOS01OS0yMjEuZXUtY2Vu
dHJhbC0xLmNvbXB1dGUuYW1hem9uYXdzLmNvbTEkMCIGCSqGSIb3DQEJARYVcG9z
dG1hc3RlckBndWVuZ2VsLmNoMIIBIjANBgkqhkiG9w0BAQEFAAOCAQ8AMIIBCgKC
AQEAz+Ws6YitxXNwUQNYMIYtRdyZcJN9Vnxf1lm9zpvD5OJDsnIgY74JMClSXU95
6x3bubgj+0MIbxt4vEHrccy44Racrk7cutY38Wj1wXqE147elTh57KvvdbsV27Mg
9hyt52vBU47AjulWcX50d8ykRUChr7j0TjvypQ3cIQAkTe9fSyvUcoJ37c6IJ4TK
KPOlaCiWmLkHA8mR4RKtR6c339qy8luGfXtaoA9ABeCPaLYnyfr9s+iM5dFeHrNr
qdag5u7FL9IgNP3qf6TIIGOCNp3aO3zat0dLjk49/BuavR/BxtJL6j/u3GD0CYTx
nDN7f3yWLWhlKnc5kLKJmzSywQIDAQABoz8wPTAJBgNVHRMEAjAAMBEGCWCGSAGG
+EIBAQQEAwIGwDAdBgNVHSUEFjAUBggrBgEFBQcDAQYIKwYBBQUHAwIwDQYJKoZI
hvcNAQELBQADggIBAJE+aXBdypBNePZercElFqtpyZRC3KTpi+ryV7cnk89xJCLQ
Wz/CuyVWmaFqPNvKZIrxkNUz+KfdigP7i0Bd7xnxanjCEz2D3qNwg7WOzIZDO8Na
IUidop6HUASvloMRv57WL8hp802hGqsXYtW+tWqQp2dOO67fnSvF/ouBlsmtcFZe
EvlJzrXCPQVUJVoeM9P+AS/D1HoDS8wTwn2vgU4aK0GeE6Q2gH3HrptZbfKguj6A
uLiE1KHNXR11aMtPB0kSWkanUy+YBqcu7d1zyUUdRC1c2t2Fbyx93yz2b/tO2vi0
q4mApgeytG95PmewXoeny+odBGbLnhLP64tWx2/Llm6UwPosLs/LJqxuh9ZxzcRw
aiC+cF2PjLKiN0OSECFJNKzrJMB+uKxZhcT/E+YQUTFobabasLZiVIxoq6PNU0wY
kZPgoNVUp+yXP2TVh9POAuqD2kbJHAQ/HYXVfZ5LpEaQpUr58fbViD7Zu+5hAAvX
1JGdrmodHs3sIxuTBcH4fW5mSfD6eSTOVtOhDsc5jLRPV7oEwv6UG0mfQH5cu3E6
kHdQMphbgtvwJX65PWxKyVJZWT9r8HNRTTbMFBZgE03Eusmxx4q/q6JC48tFhWqu
l80y9Z5asbK5Jon4rLOCnYqBxaOpHFlVgro6Te2eVy7Ni8Xcy1/BkqxsuqlX
-----END CERTIFICATE-----
