Certificate:
    Data:
        Version: 3 (0x2)
        Serial Number:
            19:21:17:65:a4:77:29:97:2e:30:80:65:9d:41:7a:d8:19:be:e9:98
        Signature Algorithm: sha256WithRSAEncryption
        Issuer: C=CH, ST=Thurgau, L=Kefikon, O=guengel.ch, CN=CA 2022/emailAddress=postmaster@guengel.ch
        Validity
            Not Before: Jan  3 14:04:41 2025 GMT
            Not After : Feb  7 14:04:41 2026 GMT
        Subject: C=CH, ST=Thurgau, O=guengel.ch, CN=ec2-52-29-59-221.eu-central-1.compute.amazonaws.com/emailAddress=postmaster@guengel.ch
        Subject Public Key Info:
            Public Key Algorithm: rsaEncryption
                Public-Key: (2048 bit)
                Modulus:
                    00:c6:0d:14:d1:65:0c:a5:4f:c1:42:82:af:84:a6:
                    ad:d6:f4:84:a2:df:af:b1:46:7d:ca:46:ab:50:80:
                    17:02:97:c7:d8:50:f4:97:30:36:68:2a:e1:18:15:
                    e5:32:97:a7:10:f2:57:f8:2b:65:45:6b:2c:37:09:
                    88:c7:07:f7:3a:1d:ee:88:8f:27:a9:ff:53:26:e5:
                    5b:b5:27:df:3f:d0:3c:1b:af:97:e5:0e:0f:83:f9:
                    37:49:ca:4c:2a:e4:96:d7:6b:fd:e5:66:e3:70:9b:
                    5f:47:df:46:fb:6a:27:e4:99:19:0f:81:0e:73:76:
                    df:37:20:e2:c9:d3:2c:af:e2:d8:a9:d6:7c:2a:48:
                    55:25:df:3f:ac:ff:34:3d:3a:1c:57:9f:dc:43:7c:
                    53:8e:03:a5:16:cd:60:9e:16:9d:b2:1c:06:c4:94:
                    27:3a:2f:27:c2:8e:c9:52:f5:bb:a4:cf:57:d5:e5:
                    89:8b:13:3f:1e:d9:71:92:92:51:5a:f2:a6:18:e5:
                    76:3f:83:6e:1e:35:6b:72:dd:04:fb:4d:28:96:fc:
                    4b:30:08:19:d1:77:23:96:6e:7f:ee:7d:d9:fc:56:
                    97:42:c8:2b:31:df:0c:70:35:67:4f:80:4a:dd:06:
                    e3:f8:67:ec:1d:e8:e3:4a:ad:83:0c:d7:c5:70:48:
                    6f:37
                Exponent: 65537 (0x10001)
        X509v3 extensions:
            X509v3 Basic Constraints: critical
                CA:FALSE
            X509v3 Key Usage: 
                Digital Signature, Key Encipherment, Key Agreement
            X509v3 Subject Key Identifier: 
                42:AC:BC:3D:24:ED:7D:C7:3D:C5:DB:0A:47:5E:93:E5:6A:87:DF:E5
            X509v3 Authority Key Identifier: 
                keyid:22:20:0D:51:40:61:42:BE:DD:BA:D9:C9:C1:77:B6:93:28:C3:99:EC
                DirName:/C=CH/ST=Thurgau/L=Kefikon/O=guengel.ch/CN=CA 2022/emailAddress=postmaster@guengel.ch
                serial:6D:29:90:54:E9:17:E9:C2:6A:E6:52:AD:84:4E:30:8E:6E:57:FB:1C
            Netscape Cert Type: 
                SSL Client, SSL Server
            X509v3 Extended Key Usage: 
                TLS Web Server Authentication, TLS Web Client Authentication
            X509v3 Subject Alternative Name: 
                DNS:ec2-52-29-59-221.eu-central-1.compute.amazonaws.com
    Signature Algorithm: sha256WithRSAEncryption
    Signature Value:
        0f:bb:b1:2b:2b:c3:5c:de:05:80:fa:d3:19:3f:d1:7c:4a:32:
        86:ec:53:0b:9a:69:2c:62:31:70:a0:f2:27:52:02:a8:0a:a1:
        52:05:d0:db:da:36:4c:0a:1c:ed:5b:67:2d:59:94:88:60:bc:
        76:43:c6:cb:1e:be:5e:31:c2:63:1b:f9:41:f7:a8:ed:8c:cf:
        4e:0c:d2:00:fb:d1:43:44:34:23:9e:93:94:9f:62:22:a2:8d:
        f9:95:4d:8c:61:80:a5:72:dc:d5:db:ce:3f:87:a7:a4:5b:aa:
        2d:b5:fc:b2:22:3e:f8:d9:12:25:9c:a7:de:d0:e2:f8:04:37:
        66:1c:ac:96:f7:20:b2:23:d8:72:31:48:bc:12:7e:15:99:51:
        fa:ae:2e:c6:15:35:84:c5:1d:3c:80:f1:04:fe:e3:17:2b:de:
        6c:a4:6e:61:4f:af:04:9f:d7:f5:cd:45:f4:3f:cb:50:c6:8d:
        fb:1c:69:7f:15:a7:16:cc:46:83:8f:26:f3:2d:84:77:28:6a:
        5c:c0:bd:59:98:da:62:57:a4:9a:f5:09:ce:56:44:d8:55:bc:
        25:bc:35:98:42:ec:35:c3:34:c7:6c:b5:51:a8:09:fc:94:e6:
        fc:38:e3:60:a9:52:8c:44:f2:dd:e1:5f:78:f9:3d:e5:94:a1:
        ff:f1:ad:7b:1e:1a:9d:0f:e3:53:9e:68:d5:66:60:fe:73:3f:
        fb:ce:89:cf:6f:9f:b2:8e:9f:91:b7:f9:54:3d:ef:f0:da:ef:
        d4:87:cf:9e:e5:73:60:ba:0c:63:53:a6:12:53:22:fd:fa:0a:
        60:f7:4f:e5:32:f6:e7:4f:00:ab:54:ee:d4:78:9c:cd:07:28:
        b1:39:56:e9:1b:95:35:b5:5e:f5:fd:c4:b9:fb:de:f6:4f:92:
        67:11:26:3b:13:57:a5:ee:b4:30:fd:1a:17:37:cd:1a:3a:b4:
        6b:f8:66:90:05:a2:5f:70:1b:fe:3b:b1:1e:2d:b2:19:09:e7:
        68:1e:e7:94:99:15:60:c0:6c:24:d7:06:a2:96:0d:d5:48:7d:
        68:e3:8d:5b:3b:8f:97:e8:99:98:17:b2:5a:91:83:20:0f:74:
        05:f5:71:1c:13:1b:a4:c0:81:29:c1:ff:be:dd:06:b5:70:1a:
        4b:4e:91:c8:02:61:6d:6f:73:e5:9f:49:b4:81:31:72:9f:a5:
        59:5a:59:c3:38:db:f3:d6:2a:48:2d:54:da:1b:d0:a4:f8:3f:
        d6:5e:97:3e:d0:5b:e0:0d:50:60:71:a1:ae:06:20:5e:1d:08:
        40:bf:2e:38:e9:d4:47:fd:d4:83:d3:d6:8f:d8:b6:b9:6c:62:
        64:68:99:41:45:5a:90:44
-----BEGIN CERTIFICATE-----
MIIGFzCCA/+gAwIBAgIUGSEXZaR3KZcuMIBlnUF62Bm+6ZgwDQYJKoZIhvcNAQEL
BQAwfjELMAkGA1UEBhMCQ0gxEDAOBgNVBAgTB1RodXJnYXUxEDAOBgNVBAcTB0tl
Zmlrb24xEzARBgNVBAoTCmd1ZW5nZWwuY2gxEDAOBgNVBAMTB0NBIDIwMjIxJDAi
BgkqhkiG9w0BCQEWFXBvc3RtYXN0ZXJAZ3VlbmdlbC5jaDAeFw0yNTAxMDMxNDA0
NDFaFw0yNjAyMDcxNDA0NDFaMIGYMQswCQYDVQQGEwJDSDEQMA4GA1UECBMHVGh1
cmdhdTETMBEGA1UEChMKZ3VlbmdlbC5jaDE8MDoGA1UEAxMzZWMyLTUyLTI5LTU5
LTIyMS5ldS1jZW50cmFsLTEuY29tcHV0ZS5hbWF6b25hd3MuY29tMSQwIgYJKoZI
hvcNAQkBFhVwb3N0bWFzdGVyQGd1ZW5nZWwuY2gwggEiMA0GCSqGSIb3DQEBAQUA
A4IBDwAwggEKAoIBAQDGDRTRZQylT8FCgq+Epq3W9ISi36+xRn3KRqtQgBcCl8fY
UPSXMDZoKuEYFeUyl6cQ8lf4K2VFayw3CYjHB/c6He6Ijyep/1Mm5Vu1J98/0Dwb
r5flDg+D+TdJykwq5JbXa/3lZuNwm19H30b7aifkmRkPgQ5zdt83IOLJ0yyv4tip
1nwqSFUl3z+s/zQ9OhxXn9xDfFOOA6UWzWCeFp2yHAbElCc6LyfCjslS9bukz1fV
5YmLEz8e2XGSklFa8qYY5XY/g24eNWty3QT7TSiW/EswCBnRdyOWbn/ufdn8VpdC
yCsx3wxwNWdPgErdBuP4Z+wd6ONKrYMM18VwSG83AgMBAAGjggFwMIIBbDAMBgNV
HRMBAf8EAjAAMAsGA1UdDwQEAwIDqDAdBgNVHQ4EFgQUQqy8PSTtfcc9xdsKR16T
5WqH3+Uwgb0GA1UdIwSBtTCBsoAUIiANUUBhQr7dutnJwXe2kyjDmeyhgYOkgYAw
fjELMAkGA1UEBhMCQ0gxEDAOBgNVBAgTB1RodXJnYXUxEDAOBgNVBAcTB0tlZmlr
b24xEzARBgNVBAoTCmd1ZW5nZWwuY2gxEDAOBgNVBAMTB0NBIDIwMjIxJDAiBgkq
hkiG9w0BCQEWFXBvc3RtYXN0ZXJAZ3VlbmdlbC5jaIIUbSmQVOkX6cJq5lKthE4w
jm5X+xwwEQYJYIZIAYb4QgEBBAQDAgbAMB0GA1UdJQQWMBQGCCsGAQUFBwMBBggr
BgEFBQcDAjA+BgNVHREENzA1gjNlYzItNTItMjktNTktMjIxLmV1LWNlbnRyYWwt
MS5jb21wdXRlLmFtYXpvbmF3cy5jb20wDQYJKoZIhvcNAQELBQADggIBAA+7sSsr
w1zeBYD60xk/0XxKMobsUwuaaSxiMXCg8idSAqgKoVIF0NvaNkwKHO1bZy1ZlIhg
vHZDxssevl4xwmMb+UH3qO2Mz04M0gD70UNENCOek5SfYiKijfmVTYxhgKVy3NXb
zj+Hp6Rbqi21/LIiPvjZEiWcp97Q4vgEN2YcrJb3ILIj2HIxSLwSfhWZUfquLsYV
NYTFHTyA8QT+4xcr3mykbmFPrwSf1/XNRfQ/y1DGjfscaX8VpxbMRoOPJvMthHco
alzAvVmY2mJXpJr1Cc5WRNhVvCW8NZhC7DXDNMdstVGoCfyU5vw442CpUoxE8t3h
X3j5PeWUof/xrXseGp0P41OeaNVmYP5zP/vOic9vn7KOn5G3+VQ97/Da79SHz57l
c2C6DGNTphJTIv36CmD3T+Uy9udPAKtU7tR4nM0HKLE5VukblTW1XvX9xLn73vZP
kmcRJjsTV6XutDD9Ghc3zRo6tGv4ZpAFol9wG/47sR4tshkJ52ge55SZFWDAbCTX
BqKWDdVIfWjjjVs7j5fomZgXslqRgyAPdAX1cRwTG6TAgSnB/77dBrVwGktOkcgC
YW1vc+WfSbSBMXKfpVlaWcM42/PWKkgtVNob0KT4P9Zelz7QW+ANUGBxoa4GIF4d
CEC/Ljjp1Ef91IPT1o/YtrlsYmRomUFFWpBE
-----END CERTIFICATE-----
