Certificate:
    Data:
        Version: 3 (0x2)
        Serial Number:
            30:67:aa:76:b3:ed:b3:6d:b1:75:c5:32:02:0d:26:b9:99:52:dd:e6
        Signature Algorithm: sha256WithRSAEncryption
        Issuer: C=CH, ST=Thurgau, L=Kefikon, O=guengel.ch, CN=CA 2022/emailAddress=postmaster@guengel.ch
        Validity
            Not Before: Jan  3 14:04:39 2025 GMT
            Not After : Feb  7 14:04:39 2026 GMT
        Subject: C=CH, ST=Thurgau, O=guengel.ch, CN=ec2-3-123-24-250.eu-central-1.compute.amazonaws.com/emailAddress=postmaster@guengel.ch
        Subject Public Key Info:
            Public Key Algorithm: rsaEncryption
                Public-Key: (2048 bit)
                Modulus:
                    00:bf:ec:4c:4a:3c:c3:72:ba:33:47:01:b1:a0:17:
                    b2:18:e5:37:eb:c3:80:d4:d0:0b:00:2c:89:48:60:
                    a6:d9:82:a6:02:dd:22:6a:43:58:f3:e3:23:ea:b4:
                    f7:b2:68:92:4c:9c:52:ff:7a:38:36:da:8a:61:a3:
                    91:b3:cf:70:49:ff:c1:91:90:ca:0f:06:99:d4:58:
                    69:7e:b5:f4:82:98:d5:c6:26:7b:b1:ec:be:3d:e6:
                    07:60:00:32:c0:12:13:27:cc:9a:b8:32:a8:ca:52:
                    3a:53:ee:04:35:9f:b1:42:d6:e4:f1:51:df:c0:e6:
                    6a:ed:31:b4:6a:25:46:8d:0a:ca:f5:fa:c9:56:9d:
                    8c:35:7d:ef:c3:7c:9a:6a:c5:b6:53:4b:aa:de:5e:
                    ac:67:3b:b2:3f:ad:39:f0:c8:c5:25:b4:7f:5d:06:
                    a7:02:24:29:74:0e:8e:75:bf:59:2f:5e:7d:0c:0b:
                    cc:3e:d8:83:9a:42:10:d7:90:db:5c:f1:b3:36:8e:
                    8b:d1:f9:a4:c8:ae:ce:09:1b:d8:79:bc:6c:8f:8b:
                    be:0d:69:36:a6:07:c9:c3:f1:87:a9:d8:bf:41:76:
                    56:69:18:20:67:6c:0a:b2:c4:c2:cd:ea:7f:54:25:
                    69:ec:b8:2e:56:02:25:ba:c9:22:53:ee:f3:61:61:
                    8e:8b
                Exponent: 65537 (0x10001)
        X509v3 extensions:
            X509v3 Basic Constraints: critical
                CA:FALSE
            X509v3 Key Usage: 
                Digital Signature, Key Encipherment, Key Agreement
            X509v3 Subject Key Identifier: 
                66:84:91:B8:61:40:A3:92:8F:B1:27:96:4C:5D:CB:FA:D6:6E:7F:F4
            X509v3 Authority Key Identifier: 
                keyid:22:20:0D:51:40:61:42:BE:DD:BA:D9:C9:C1:77:B6:93:28:C3:99:EC
                DirName:/C=CH/ST=Thurgau/L=Kefikon/O=guengel.ch/CN=CA 2022/emailAddress=postmaster@guengel.ch
                serial:6D:29:90:54:E9:17:E9:C2:6A:E6:52:AD:84:4E:30:8E:6E:57:FB:1C
            Netscape Cert Type: 
                SSL Client, SSL Server
            X509v3 Extended Key Usage: 
                TLS Web Server Authentication, TLS Web Client Authentication
            X509v3 Subject Alternative Name: 
                DNS:ec2-3-123-24-250.eu-central-1.compute.amazonaws.com
    Signature Algorithm: sha256WithRSAEncryption
    Signature Value:
        a3:ed:79:b6:36:7c:6b:ac:aa:b5:60:ff:fe:64:7f:b6:20:67:
        1e:78:c9:22:57:80:33:72:a5:46:d7:55:a0:44:75:b2:f2:17:
        cc:24:50:6f:73:b2:cd:2c:46:31:ea:41:88:ed:16:21:cb:1c:
        f2:12:ad:34:bb:2a:13:67:f9:db:d3:48:d4:31:4b:cf:71:6e:
        f6:c2:94:b2:91:7a:fe:5c:95:6d:ec:9b:d4:e3:35:7a:1d:67:
        1b:16:e5:c9:86:58:2d:e4:fb:7c:3a:71:e5:3f:71:e9:35:43:
        0e:01:e1:e6:96:2c:43:fb:f8:66:e2:d7:da:34:c1:07:1a:97:
        16:10:82:7c:d3:c7:5c:76:0d:d7:de:c3:43:60:0d:00:9a:d6:
        f7:33:86:ec:fd:c8:79:dd:d4:a1:5c:50:03:6b:a3:23:ea:41:
        1a:d6:05:06:d6:78:cd:33:63:6c:2b:f0:d5:fc:64:b6:9b:7a:
        b8:0f:3f:56:e3:6e:86:1e:8d:34:26:93:0c:26:69:0f:65:ef:
        a9:e6:80:5b:60:c8:82:6b:ca:60:c8:b5:6c:ec:4c:f6:a7:a2:
        a0:ed:a1:5f:54:ae:a2:4b:58:a2:cb:74:fe:9e:f7:5e:eb:e3:
        0f:aa:22:67:00:d2:85:63:5e:3b:72:84:72:31:78:6d:5b:56:
        b8:38:a4:29:c7:7d:3e:f5:ea:97:ed:e2:ca:89:19:7b:4e:f3:
        49:c0:86:6e:db:0e:a6:d4:e2:7c:be:9b:ba:2d:fc:9f:61:14:
        64:52:1a:8c:38:52:3b:60:43:7d:52:e1:5d:46:91:b4:30:e6:
        44:05:7e:d6:e2:1a:b1:b4:e8:f0:86:1d:0a:b4:c6:05:cb:d8:
        7b:cb:2a:4b:82:04:7b:28:da:8c:70:91:06:76:df:a6:2b:6c:
        c2:de:eb:ad:f1:f4:96:8e:e1:98:79:38:54:fc:8c:e1:06:64:
        d5:a2:17:89:9b:10:7f:7e:f1:df:5a:ee:9a:69:65:2c:74:35:
        ce:b9:58:d6:ae:61:e2:cd:74:6c:12:51:31:b7:6f:96:63:05:
        0b:41:84:39:1a:e9:19:c1:69:21:b2:fe:88:6c:6f:7d:de:e1:
        38:67:aa:25:59:e2:9b:06:83:6c:b0:b8:c5:1d:60:dd:58:39:
        e1:3f:20:68:41:9b:19:f6:1a:77:a2:5c:2a:94:1f:6f:87:ff:
        f3:f7:c2:91:c9:8d:18:d0:56:fb:24:8c:52:97:4f:f3:e8:50:
        ed:e3:86:19:ff:bb:3a:db:aa:d1:9a:01:5b:ab:38:d8:42:f8:
        7c:8e:4a:4a:94:7e:28:a5:a6:c5:69:4a:c7:26:b0:6b:03:5a:
        f6:51:ac:42:25:3d:71:e1
-----BEGIN CERTIFICATE-----
MIIGFzCCA/+gAwIBAgIUMGeqdrPts22xdcUyAg0muZlS3eYwDQYJKoZIhvcNAQEL
BQAwfjELMAkGA1UEBhMCQ0gxEDAOBgNVBAgTB1RodXJnYXUxEDAOBgNVBAcTB0tl
Zmlrb24xEzARBgNVBAoTCmd1ZW5nZWwuY2gxEDAOBgNVBAMTB0NBIDIwMjIxJDAi
BgkqhkiG9w0BCQEWFXBvc3RtYXN0ZXJAZ3VlbmdlbC5jaDAeFw0yNTAxMDMxNDA0
MzlaFw0yNjAyMDcxNDA0MzlaMIGYMQswCQYDVQQGEwJDSDEQMA4GA1UECBMHVGh1
cmdhdTETMBEGA1UEChMKZ3VlbmdlbC5jaDE8MDoGA1UEAxMzZWMyLTMtMTIzLTI0
LTI1MC5ldS1jZW50cmFsLTEuY29tcHV0ZS5hbWF6b25hd3MuY29tMSQwIgYJKoZI
hvcNAQkBFhVwb3N0bWFzdGVyQGd1ZW5nZWwuY2gwggEiMA0GCSqGSIb3DQEBAQUA
A4IBDwAwggEKAoIBAQC/7ExKPMNyujNHAbGgF7IY5Tfrw4DU0AsALIlIYKbZgqYC
3SJqQ1jz4yPqtPeyaJJMnFL/ejg22opho5Gzz3BJ/8GRkMoPBpnUWGl+tfSCmNXG
Jnux7L495gdgADLAEhMnzJq4MqjKUjpT7gQ1n7FC1uTxUd/A5mrtMbRqJUaNCsr1
+slWnYw1fe/DfJpqxbZTS6reXqxnO7I/rTnwyMUltH9dBqcCJCl0Do51v1kvXn0M
C8w+2IOaQhDXkNtc8bM2jovR+aTIrs4JG9h5vGyPi74NaTamB8nD8Yep2L9BdlZp
GCBnbAqyxMLN6n9UJWnsuC5WAiW6ySJT7vNhYY6LAgMBAAGjggFwMIIBbDAMBgNV
HRMBAf8EAjAAMAsGA1UdDwQEAwIDqDAdBgNVHQ4EFgQUZoSRuGFAo5KPsSeWTF3L
+tZuf/Qwgb0GA1UdIwSBtTCBsoAUIiANUUBhQr7dutnJwXe2kyjDmeyhgYOkgYAw
fjELMAkGA1UEBhMCQ0gxEDAOBgNVBAgTB1RodXJnYXUxEDAOBgNVBAcTB0tlZmlr
b24xEzARBgNVBAoTCmd1ZW5nZWwuY2gxEDAOBgNVBAMTB0NBIDIwMjIxJDAiBgkq
hkiG9w0BCQEWFXBvc3RtYXN0ZXJAZ3VlbmdlbC5jaIIUbSmQVOkX6cJq5lKthE4w
jm5X+xwwEQYJYIZIAYb4QgEBBAQDAgbAMB0GA1UdJQQWMBQGCCsGAQUFBwMBBggr
BgEFBQcDAjA+BgNVHREENzA1gjNlYzItMy0xMjMtMjQtMjUwLmV1LWNlbnRyYWwt
MS5jb21wdXRlLmFtYXpvbmF3cy5jb20wDQYJKoZIhvcNAQELBQADggIBAKPtebY2
fGusqrVg//5kf7YgZx54ySJXgDNypUbXVaBEdbLyF8wkUG9zss0sRjHqQYjtFiHL
HPISrTS7KhNn+dvTSNQxS89xbvbClLKRev5clW3sm9TjNXodZxsW5cmGWC3k+3w6
ceU/cek1Qw4B4eaWLEP7+Gbi19o0wQcalxYQgnzTx1x2Ddfew0NgDQCa1vczhuz9
yHnd1KFcUANroyPqQRrWBQbWeM0zY2wr8NX8ZLabergPP1bjboYejTQmkwwmaQ9l
76nmgFtgyIJrymDItWzsTPanoqDtoV9UrqJLWKLLdP6e917r4w+qImcA0oVjXjty
hHIxeG1bVrg4pCnHfT716pft4sqJGXtO80nAhm7bDqbU4ny+m7ot/J9hFGRSGow4
UjtgQ31S4V1GkbQw5kQFftbiGrG06PCGHQq0xgXL2HvLKkuCBHso2oxwkQZ236Yr
bMLe663x9JaO4Zh5OFT8jOEGZNWiF4mbEH9+8d9a7pppZSx0Nc65WNauYeLNdGwS
UTG3b5ZjBQtBhDka6RnBaSGy/ohsb33e4ThnqiVZ4psGg2ywuMUdYN1YOeE/IGhB
mxn2GneiXCqUH2+H//P3wpHJjRjQVvskjFKXT/PoUO3jhhn/uzrbqtGaAVurONhC
+HyOSkqUfiilpsVpSscmsGsDWvZRrEIlPXHh
-----END CERTIFICATE-----
