Certificate:
    Data:
        Version: 3 (0x2)
        Serial Number:
            60:18:4b:58:c8:48:bd:47:16:41:35:ef:ce:c9:af:b9:da:42:f7:11
        Signature Algorithm: sha256WithRSAEncryption
        Issuer: C=CH, ST=Thurgau, L=Kefikon, O=guengel.ch, CN=CA 2022/emailAddress=postmaster@guengel.ch
        Validity
            Not Before: Jan  3 14:04:42 2025 GMT
            Not After : Feb  7 14:04:42 2026 GMT
        Subject: C=CH, ST=Thurgau, O=guengel.ch, CN=ec2-52-57-75-84.eu-central-1.compute.amazonaws.com/emailAddress=postmaster@guengel.ch
        Subject Public Key Info:
            Public Key Algorithm: rsaEncryption
                Public-Key: (2048 bit)
                Modulus:
                    00:bf:ec:26:1b:e2:f7:23:0c:c9:e0:df:4a:aa:dc:
                    b9:e5:0c:b0:25:32:57:09:80:b3:95:f2:cf:b6:af:
                    41:46:cf:04:1f:9e:97:d5:0d:2a:28:c4:56:4f:d7:
                    16:6c:c8:fa:4e:ea:d8:86:74:f7:d9:9d:93:66:79:
                    f8:f6:e8:24:18:65:64:ef:0d:02:0a:e2:2e:ad:5a:
                    d1:23:e8:62:65:53:3d:f9:1a:81:89:ae:00:f9:0c:
                    e3:06:f8:45:06:58:db:d2:fc:28:f9:86:f2:cb:44:
                    e3:8b:4e:52:3d:79:ab:a1:15:65:09:68:10:43:47:
                    ba:f1:d6:6a:fd:52:17:11:38:3e:4c:b0:7a:73:50:
                    0f:f4:6f:a9:0b:53:ad:b4:57:05:4f:49:12:65:80:
                    51:98:81:b9:44:e6:f3:d7:a6:4b:76:c8:88:c6:28:
                    d4:ec:6a:98:d8:7b:78:fa:cf:54:8d:17:a5:5a:c9:
                    3a:4d:94:c3:00:9e:fe:43:89:18:c8:ff:92:6c:ab:
                    77:8a:ae:59:0e:be:bc:9b:84:46:a8:b9:b8:f8:cf:
                    87:b4:22:5c:8e:80:7f:40:93:09:e8:3a:d0:e0:3f:
                    5b:1a:a5:66:00:25:83:b8:0e:bf:de:d8:13:ad:0f:
                    de:41:cc:3e:43:96:f4:43:d5:87:49:33:fb:97:46:
                    d4:b7
                Exponent: 65537 (0x10001)
        X509v3 extensions:
            X509v3 Basic Constraints: critical
                CA:FALSE
            X509v3 Key Usage: 
                Digital Signature, Key Encipherment, Key Agreement
            X509v3 Subject Key Identifier: 
                E1:69:AE:85:76:72:AE:12:FA:6F:01:D5:29:D7:97:6E:AC:57:68:EC
            X509v3 Authority Key Identifier: 
                keyid:22:20:0D:51:40:61:42:BE:DD:BA:D9:C9:C1:77:B6:93:28:C3:99:EC
                DirName:/C=CH/ST=Thurgau/L=Kefikon/O=guengel.ch/CN=CA 2022/emailAddress=postmaster@guengel.ch
                serial:6D:29:90:54:E9:17:E9:C2:6A:E6:52:AD:84:4E:30:8E:6E:57:FB:1C
            Netscape Cert Type: 
                SSL Client, SSL Server
            X509v3 Extended Key Usage: 
                TLS Web Server Authentication, TLS Web Client Authentication
            X509v3 Subject Alternative Name: 
                DNS:ec2-52-57-75-84.eu-central-1.compute.amazonaws.com
    Signature Algorithm: sha256WithRSAEncryption
    Signature Value:
        34:29:77:db:19:e5:07:89:0d:a2:18:15:a1:a5:3f:46:8f:a6:
        eb:c4:6b:e0:9a:71:25:5d:5b:0f:41:57:4a:0f:24:ee:d8:93:
        d4:9f:4f:db:3b:c5:13:fa:71:ba:09:f2:0a:ee:c9:95:21:83:
        4f:1a:7c:80:7d:a7:76:86:00:9b:2f:e5:90:89:87:8d:d7:e9:
        48:f7:77:34:65:87:98:ef:b7:5d:ab:70:0c:3d:18:ae:3d:1f:
        85:5e:37:c6:01:bf:72:d7:57:ed:03:a9:ab:21:45:a2:e8:5b:
        41:71:69:ed:2c:91:ae:db:dd:03:d8:a4:54:84:9a:6a:18:c5:
        20:ab:88:db:b7:6c:b6:18:69:ed:fa:24:51:c9:2b:dd:d7:af:
        bd:da:e1:b6:a1:74:38:82:c5:bd:e4:e1:b1:93:eb:6e:f9:12:
        38:d5:ff:30:c8:4e:cf:0b:9d:f8:58:77:5a:c0:42:21:71:ae:
        50:6b:f4:fb:3b:df:b7:6f:cc:d2:a6:8c:46:f1:ae:08:2a:33:
        95:a3:f9:27:f7:fd:08:dd:c4:01:03:bc:fa:d6:32:8c:f9:1d:
        1d:f6:45:7b:7d:f0:95:3b:0c:6d:75:5f:44:e1:88:f2:fb:e5:
        ab:a7:c3:e4:94:03:81:89:1c:f5:87:b8:2c:96:a1:11:e8:12:
        3f:eb:1b:57:98:c4:ae:55:d9:d2:7f:d6:72:8b:50:78:aa:23:
        b0:2b:75:fd:c7:e1:c8:b1:aa:9e:fb:c6:98:c2:cf:9b:41:75:
        53:90:6c:66:12:95:83:82:e8:e4:56:8c:71:c4:a6:0f:48:2d:
        ad:f5:58:52:63:5c:0a:42:5b:a8:23:3e:2b:9f:c4:3f:d1:86:
        46:9c:99:95:bb:02:4e:42:7d:75:74:0c:d2:18:e7:6e:4b:11:
        ca:68:24:22:82:51:7f:60:97:7e:a7:d1:70:d5:82:c9:4d:06:
        50:fc:f7:6d:8e:20:6f:c6:a2:85:04:48:fd:d3:1d:f8:d7:bf:
        15:6a:7c:bc:b4:ec:bf:35:f0:c1:b4:41:e4:a1:f9:0f:f1:a9:
        f5:a6:2a:ea:26:78:08:dc:37:f8:81:e6:6d:c9:74:21:4a:63:
        97:02:17:cf:d1:27:69:7c:d6:39:5a:b4:22:d7:c5:ef:e2:fd:
        99:55:47:43:5f:1e:7d:48:60:1f:42:a2:4e:e4:88:d4:e8:04:
        7b:50:23:93:be:a9:29:a7:3e:d5:79:93:dc:10:43:39:f5:d3:
        cc:32:1f:f7:d0:b5:01:1e:78:f1:40:fe:1c:29:25:2b:83:c1:
        7b:a7:aa:14:46:80:dd:00:33:94:09:99:78:d8:36:ad:1f:5a:
        16:eb:11:8e:c1:5f:f8:0d
-----BEGIN CERTIFICATE-----
MIIGFTCCA/2gAwIBAgIUYBhLWMhIvUcWQTXvzsmvudpC9xEwDQYJKoZIhvcNAQEL
BQAwfjELMAkGA1UEBhMCQ0gxEDAOBgNVBAgTB1RodXJnYXUxEDAOBgNVBAcTB0tl
Zmlrb24xEzARBgNVBAoTCmd1ZW5nZWwuY2gxEDAOBgNVBAMTB0NBIDIwMjIxJDAi
BgkqhkiG9w0BCQEWFXBvc3RtYXN0ZXJAZ3VlbmdlbC5jaDAeFw0yNTAxMDMxNDA0
NDJaFw0yNjAyMDcxNDA0NDJaMIGXMQswCQYDVQQGEwJDSDEQMA4GA1UECBMHVGh1
cmdhdTETMBEGA1UEChMKZ3VlbmdlbC5jaDE7MDkGA1UEAxMyZWMyLTUyLTU3LTc1
LTg0LmV1LWNlbnRyYWwtMS5jb21wdXRlLmFtYXpvbmF3cy5jb20xJDAiBgkqhkiG
9w0BCQEWFXBvc3RtYXN0ZXJAZ3VlbmdlbC5jaDCCASIwDQYJKoZIhvcNAQEBBQAD
ggEPADCCAQoCggEBAL/sJhvi9yMMyeDfSqrcueUMsCUyVwmAs5Xyz7avQUbPBB+e
l9UNKijEVk/XFmzI+k7q2IZ099mdk2Z5+PboJBhlZO8NAgriLq1a0SPoYmVTPfka
gYmuAPkM4wb4RQZY29L8KPmG8stE44tOUj15q6EVZQloEENHuvHWav1SFxE4Pkyw
enNQD/RvqQtTrbRXBU9JEmWAUZiBuUTm89emS3bIiMYo1OxqmNh7ePrPVI0XpVrJ
Ok2UwwCe/kOJGMj/kmyrd4quWQ6+vJuERqi5uPjPh7QiXI6Af0CTCeg60OA/Wxql
ZgAlg7gOv97YE60P3kHMPkOW9EPVh0kz+5dG1LcCAwEAAaOCAW8wggFrMAwGA1Ud
EwEB/wQCMAAwCwYDVR0PBAQDAgOoMB0GA1UdDgQWBBThaa6FdnKuEvpvAdUp15du
rFdo7DCBvQYDVR0jBIG1MIGygBQiIA1RQGFCvt262cnBd7aTKMOZ7KGBg6SBgDB+
MQswCQYDVQQGEwJDSDEQMA4GA1UECBMHVGh1cmdhdTEQMA4GA1UEBxMHS2VmaWtv
bjETMBEGA1UEChMKZ3VlbmdlbC5jaDEQMA4GA1UEAxMHQ0EgMjAyMjEkMCIGCSqG
SIb3DQEJARYVcG9zdG1hc3RlckBndWVuZ2VsLmNoghRtKZBU6RfpwmrmUq2ETjCO
blf7HDARBglghkgBhvhCAQEEBAMCBsAwHQYDVR0lBBYwFAYIKwYBBQUHAwEGCCsG
AQUFBwMCMD0GA1UdEQQ2MDSCMmVjMi01Mi01Ny03NS04NC5ldS1jZW50cmFsLTEu
Y29tcHV0ZS5hbWF6b25hd3MuY29tMA0GCSqGSIb3DQEBCwUAA4ICAQA0KXfbGeUH
iQ2iGBWhpT9Gj6brxGvgmnElXVsPQVdKDyTu2JPUn0/bO8UT+nG6CfIK7smVIYNP
GnyAfad2hgCbL+WQiYeN1+lI93c0ZYeY77ddq3AMPRiuPR+FXjfGAb9y11ftA6mr
IUWi6FtBcWntLJGu290D2KRUhJpqGMUgq4jbt2y2GGnt+iRRySvd16+92uG2oXQ4
gsW95OGxk+tu+RI41f8wyE7PC534WHdawEIhca5Qa/T7O9+3b8zSpoxG8a4IKjOV
o/kn9/0I3cQBA7z61jKM+R0d9kV7ffCVOwxtdV9E4Yjy++Wrp8PklAOBiRz1h7gs
lqER6BI/6xtXmMSuVdnSf9Zyi1B4qiOwK3X9x+HIsaqe+8aYws+bQXVTkGxmEpWD
gujkVoxxxKYPSC2t9VhSY1wKQluoIz4rn8Q/0YZGnJmVuwJOQn11dAzSGOduSxHK
aCQiglF/YJd+p9Fw1YLJTQZQ/PdtjiBvxqKFBEj90x34178Vany8tOy/NfDBtEHk
ofkP8an1pirqJngI3Df4geZtyXQhSmOXAhfP0SdpfNY5WrQi18Xv4v2ZVUdDXx59
SGAfQqJO5IjU6AR7UCOTvqkppz7VeZPcEEM59dPMMh/30LUBHnjxQP4cKSUrg8F7
p6oURoDdADOUCZl42DatH1oW6xGOwV/4DQ==
-----END CERTIFICATE-----
