Certificate:
    Data:
        Version: 3 (0x2)
        Serial Number:
            6a:7e:35:b3:a3:1c:16:09:96:19:43:40:d3:0d:18:c7:ed:18:0c:fc
        Signature Algorithm: sha256WithRSAEncryption
        Issuer: C=CH, ST=Thurgau, L=Kefikon, O=guengel.ch, CN=CA 2022/emailAddress=postmaster@guengel.ch
        Validity
            Not Before: Jan  3 14:04:43 2025 GMT
            Not After : Feb  7 14:04:43 2026 GMT
        Subject: C=CH, ST=Thurgau, O=guengel.ch, CN=ec2-54-93-164-159.eu-central-1.compute.amazonaws.com/emailAddress=postmaster@guengel.ch
        Subject Public Key Info:
            Public Key Algorithm: rsaEncryption
                Public-Key: (2048 bit)
                Modulus:
                    00:c4:0c:ca:0d:f6:3e:cb:dc:c1:c3:67:aa:86:61:
                    fd:23:03:1d:57:50:76:34:0e:31:ca:62:2c:a1:74:
                    d5:15:53:8e:14:58:4f:80:db:57:49:55:60:ca:9d:
                    66:c9:2c:f0:ac:62:6e:8a:b1:df:41:34:ff:e8:76:
                    84:f7:2f:83:7c:7f:a4:8d:9b:e3:42:e0:36:43:04:
                    8c:53:c9:ed:8a:7a:14:b9:5a:e4:43:0d:d1:81:e7:
                    a1:bb:73:61:44:04:dc:1b:2d:74:c1:40:84:9c:95:
                    16:a7:44:23:cc:d8:54:43:28:db:00:3f:ca:8d:2f:
                    a2:5b:0f:e9:bd:77:fe:a7:1e:30:30:7f:47:70:75:
                    97:09:38:29:42:91:d4:49:3c:cd:5b:e7:a4:0c:1f:
                    da:79:06:06:be:08:1c:cd:53:dd:c9:df:7c:f9:61:
                    ec:37:26:cf:bd:bc:e3:15:4a:0e:93:3f:1e:07:4c:
                    73:ef:e2:d9:e8:c0:1b:be:5d:68:2d:70:4e:ee:c1:
                    af:ff:20:20:68:e4:96:da:2c:c3:b6:39:22:e1:c4:
                    d6:71:9f:dd:e5:72:d2:1f:c8:01:70:42:b0:57:22:
                    9f:28:5d:b2:45:90:40:bc:83:0a:77:e6:de:ca:af:
                    2d:96:6e:16:a6:87:b5:ce:a3:f0:e5:e0:d7:a0:cd:
                    d3:1d
                Exponent: 65537 (0x10001)
        X509v3 extensions:
            X509v3 Basic Constraints: critical
                CA:FALSE
            X509v3 Key Usage: 
                Digital Signature, Key Encipherment, Key Agreement
            X509v3 Subject Key Identifier: 
                71:64:AA:9D:E5:7B:69:B7:F4:82:F7:05:75:3F:2F:72:7A:C3:27:B7
            X509v3 Authority Key Identifier: 
                keyid:22:20:0D:51:40:61:42:BE:DD:BA:D9:C9:C1:77:B6:93:28:C3:99:EC
                DirName:/C=CH/ST=Thurgau/L=Kefikon/O=guengel.ch/CN=CA 2022/emailAddress=postmaster@guengel.ch
                serial:6D:29:90:54:E9:17:E9:C2:6A:E6:52:AD:84:4E:30:8E:6E:57:FB:1C
            Netscape Cert Type: 
                SSL Client, SSL Server
            X509v3 Extended Key Usage: 
                TLS Web Server Authentication, TLS Web Client Authentication
            X509v3 Subject Alternative Name: 
                DNS:ec2-54-93-164-159.eu-central-1.compute.amazonaws.com
    Signature Algorithm: sha256WithRSAEncryption
    Signature Value:
        74:23:a7:b1:80:6b:dc:ac:0d:07:18:fc:68:ca:04:e9:85:0e:
        0f:d4:91:c5:9d:3c:5b:59:16:a2:f5:1e:ed:43:b6:a6:87:af:
        5a:f4:37:8a:6e:77:5b:73:92:98:8a:b9:63:9a:a8:64:de:a0:
        a3:f5:9f:d4:20:59:f6:86:2e:68:01:ec:8f:14:fb:05:3d:47:
        a1:f2:73:7a:34:4e:c4:63:71:b3:37:e9:41:81:9d:6a:ec:1d:
        64:ee:6d:82:7b:3f:a5:5a:bf:59:c8:11:c1:70:20:1c:c9:90:
        06:86:a7:75:4a:f6:8c:35:2e:2a:6f:bd:92:6f:47:ac:42:75:
        a5:cb:4e:d8:c3:ab:7b:51:81:8a:a6:f1:8e:c5:43:8a:2d:1a:
        8f:f9:7f:87:93:88:d5:ae:70:a7:2f:f1:5c:4d:c3:3e:87:a2:
        e5:2e:5b:46:6d:9a:a0:0f:31:67:3c:78:f3:93:7e:44:e9:d6:
        1a:af:5d:b2:54:00:a6:d9:4e:a1:58:c0:07:ab:f7:ca:40:2a:
        d3:bd:94:cf:ba:13:8b:ce:2c:2e:74:9e:3b:3d:7d:25:4e:ee:
        bc:40:05:de:39:5a:20:0a:82:a7:bb:cd:46:b7:d3:a9:9c:3d:
        4a:59:89:51:66:02:11:97:70:ac:fa:af:95:63:40:96:72:2b:
        8f:09:27:7d:91:a9:a9:f7:8b:bc:e2:f4:af:74:4b:5b:90:9b:
        a9:94:d9:a6:1f:83:9b:e9:22:c4:c5:aa:d6:38:9c:42:ae:a8:
        d7:20:2e:02:1c:1f:71:7a:cc:6e:ef:75:2f:e6:93:25:67:6f:
        e5:cd:b8:68:34:af:32:95:fd:08:94:1d:dd:85:88:98:36:60:
        d4:0c:36:15:7d:25:28:6b:8c:49:d3:9e:f3:2a:08:6e:e4:b1:
        e1:fb:c9:fb:6b:92:b5:35:65:79:62:c2:96:2e:b6:9c:8a:02:
        d7:2d:d5:af:cb:91:72:e9:d8:b4:0c:6e:f6:03:1b:19:ef:68:
        36:08:77:c4:b1:13:4c:79:12:0f:80:55:e3:15:3b:e4:9f:12:
        92:28:7d:f0:49:3e:90:7b:7c:98:65:d6:ca:01:11:33:4f:b7:
        b4:03:73:4a:10:a6:c4:fa:26:a6:9c:75:97:75:54:01:bb:f2:
        66:66:b8:44:eb:f8:09:04:83:87:38:1b:72:76:c2:7d:d1:39:
        f0:dc:d3:6e:ab:f6:8b:c2:a5:e8:29:31:63:1c:9c:4e:c2:3e:
        ab:c6:12:4d:ab:5d:ae:24:a2:b3:58:39:1a:ab:82:24:6c:56:
        0b:e9:ce:ff:22:e1:6b:94:8a:04:d0:59:e3:f0:e4:34:57:a4:
        45:83:26:94:ce:fa:e7:44
-----BEGIN CERTIFICATE-----
MIIGGTCCBAGgAwIBAgIUan41s6McFgmWGUNA0w0Yx+0YDPwwDQYJKoZIhvcNAQEL
BQAwfjELMAkGA1UEBhMCQ0gxEDAOBgNVBAgTB1RodXJnYXUxEDAOBgNVBAcTB0tl
Zmlrb24xEzARBgNVBAoTCmd1ZW5nZWwuY2gxEDAOBgNVBAMTB0NBIDIwMjIxJDAi
BgkqhkiG9w0BCQEWFXBvc3RtYXN0ZXJAZ3VlbmdlbC5jaDAeFw0yNTAxMDMxNDA0
NDNaFw0yNjAyMDcxNDA0NDNaMIGZMQswCQYDVQQGEwJDSDEQMA4GA1UECBMHVGh1
cmdhdTETMBEGA1UEChMKZ3VlbmdlbC5jaDE9MDsGA1UEAxM0ZWMyLTU0LTkzLTE2
NC0xNTkuZXUtY2VudHJhbC0xLmNvbXB1dGUuYW1hem9uYXdzLmNvbTEkMCIGCSqG
SIb3DQEJARYVcG9zdG1hc3RlckBndWVuZ2VsLmNoMIIBIjANBgkqhkiG9w0BAQEF
AAOCAQ8AMIIBCgKCAQEAxAzKDfY+y9zBw2eqhmH9IwMdV1B2NA4xymIsoXTVFVOO
FFhPgNtXSVVgyp1mySzwrGJuirHfQTT/6HaE9y+DfH+kjZvjQuA2QwSMU8ntinoU
uVrkQw3Rgeehu3NhRATcGy10wUCEnJUWp0QjzNhUQyjbAD/KjS+iWw/pvXf+px4w
MH9HcHWXCTgpQpHUSTzNW+ekDB/aeQYGvggczVPdyd98+WHsNybPvbzjFUoOkz8e
B0xz7+LZ6MAbvl1oLXBO7sGv/yAgaOSW2izDtjki4cTWcZ/d5XLSH8gBcEKwVyKf
KF2yRZBAvIMKd+beyq8tlm4Wpoe1zqPw5eDXoM3THQIDAQABo4IBcTCCAW0wDAYD
VR0TAQH/BAIwADALBgNVHQ8EBAMCA6gwHQYDVR0OBBYEFHFkqp3le2m39IL3BXU/
L3J6wye3MIG9BgNVHSMEgbUwgbKAFCIgDVFAYUK+3brZycF3tpMow5nsoYGDpIGA
MH4xCzAJBgNVBAYTAkNIMRAwDgYDVQQIEwdUaHVyZ2F1MRAwDgYDVQQHEwdLZWZp
a29uMRMwEQYDVQQKEwpndWVuZ2VsLmNoMRAwDgYDVQQDEwdDQSAyMDIyMSQwIgYJ
KoZIhvcNAQkBFhVwb3N0bWFzdGVyQGd1ZW5nZWwuY2iCFG0pkFTpF+nCauZSrYRO
MI5uV/scMBEGCWCGSAGG+EIBAQQEAwIGwDAdBgNVHSUEFjAUBggrBgEFBQcDAQYI
KwYBBQUHAwIwPwYDVR0RBDgwNoI0ZWMyLTU0LTkzLTE2NC0xNTkuZXUtY2VudHJh
bC0xLmNvbXB1dGUuYW1hem9uYXdzLmNvbTANBgkqhkiG9w0BAQsFAAOCAgEAdCOn
sYBr3KwNBxj8aMoE6YUOD9SRxZ08W1kWovUe7UO2poevWvQ3im53W3OSmIq5Y5qo
ZN6go/Wf1CBZ9oYuaAHsjxT7BT1HofJzejROxGNxszfpQYGdauwdZO5tgns/pVq/
WcgRwXAgHMmQBoandUr2jDUuKm+9km9HrEJ1pctO2MOre1GBiqbxjsVDii0aj/l/
h5OI1a5wpy/xXE3DPoei5S5bRm2aoA8xZzx485N+ROnWGq9dslQAptlOoVjAB6v3
ykAq072Uz7oTi84sLnSeOz19JU7uvEAF3jlaIAqCp7vNRrfTqZw9SlmJUWYCEZdw
rPqvlWNAlnIrjwknfZGpqfeLvOL0r3RLW5CbqZTZph+Dm+kixMWq1jicQq6o1yAu
AhwfcXrMbu91L+aTJWdv5c24aDSvMpX9CJQd3YWImDZg1Aw2FX0lKGuMSdOe8yoI
buSx4fvJ+2uStTVleWLCli62nIoC1y3Vr8uRcunYtAxu9gMbGe9oNgh3xLETTHkS
D4BV4xU75J8Skih98Ek+kHt8mGXWygERM0+3tANzShCmxPomppx1l3VUAbvyZma4
ROv4CQSDhzgbcnbCfdE58NzTbqv2i8Kl6CkxYxycTsI+q8YSTatdriSis1g5GquC
JGxWC+nO/yLha5SKBNBZ4/DkNFekRYMmlM7650Q=
-----END CERTIFICATE-----
