Certificate:
    Data:
        Version: 3 (0x2)
        Serial Number:
            54:39:34:81:25:a3:b3:07:c7:de:a9:f4:4b:69:66:43:e2:d5:da:02
        Signature Algorithm: sha256WithRSAEncryption
        Issuer: C=CH, ST=Thurgau, L=Kefikon, O=guengel.ch, CN=CA 2022/emailAddress=postmaster@guengel.ch
        Validity
            Not Before: Feb 28 06:40:37 2023 GMT
            Not After : Apr  3 06:40:37 2024 GMT
        Subject: C=CH, ST=Thurgau, O=guengel.ch, CN=ec2-52-29-59-221.eu-central-1.compute.amazonaws.com/emailAddress=postmaster@guengel.ch
        Subject Public Key Info:
            Public Key Algorithm: rsaEncryption
                RSA Public-Key: (2048 bit)
                Modulus:
                    00:c6:0d:14:d1:65:0c:a5:4f:c1:42:82:af:84:a6:
                    ad:d6:f4:84:a2:df:af:b1:46:7d:ca:46:ab:50:80:
                    17:02:97:c7:d8:50:f4:97:30:36:68:2a:e1:18:15:
                    e5:32:97:a7:10:f2:57:f8:2b:65:45:6b:2c:37:09:
                    88:c7:07:f7:3a:1d:ee:88:8f:27:a9:ff:53:26:e5:
                    5b:b5:27:df:3f:d0:3c:1b:af:97:e5:0e:0f:83:f9:
                    37:49:ca:4c:2a:e4:96:d7:6b:fd:e5:66:e3:70:9b:
                    5f:47:df:46:fb:6a:27:e4:99:19:0f:81:0e:73:76:
                    df:37:20:e2:c9:d3:2c:af:e2:d8:a9:d6:7c:2a:48:
                    55:25:df:3f:ac:ff:34:3d:3a:1c:57:9f:dc:43:7c:
                    53:8e:03:a5:16:cd:60:9e:16:9d:b2:1c:06:c4:94:
                    27:3a:2f:27:c2:8e:c9:52:f5:bb:a4:cf:57:d5:e5:
                    89:8b:13:3f:1e:d9:71:92:92:51:5a:f2:a6:18:e5:
                    76:3f:83:6e:1e:35:6b:72:dd:04:fb:4d:28:96:fc:
                    4b:30:08:19:d1:77:23:96:6e:7f:ee:7d:d9:fc:56:
                    97:42:c8:2b:31:df:0c:70:35:67:4f:80:4a:dd:06:
                    e3:f8:67:ec:1d:e8:e3:4a:ad:83:0c:d7:c5:70:48:
                    6f:37
                Exponent: 65537 (0x10001)
        X509v3 extensions:
            X509v3 Basic Constraints: critical
                CA:FALSE
            X509v3 Key Usage: 
                Digital Signature, Key Encipherment, Key Agreement
            X509v3 Subject Key Identifier: 
                42:AC:BC:3D:24:ED:7D:C7:3D:C5:DB:0A:47:5E:93:E5:6A:87:DF:E5
            X509v3 Authority Key Identifier: 
                keyid:22:20:0D:51:40:61:42:BE:DD:BA:D9:C9:C1:77:B6:93:28:C3:99:EC
                DirName:/C=CH/ST=Thurgau/L=Kefikon/O=guengel.ch/CN=CA 2022/emailAddress=postmaster@guengel.ch
                serial:6D:29:90:54:E9:17:E9:C2:6A:E6:52:AD:84:4E:30:8E:6E:57:FB:1C

            Netscape Cert Type: 
                SSL Client, SSL Server
            X509v3 Extended Key Usage: 
                TLS Web Server Authentication, TLS Web Client Authentication
            X509v3 Subject Alternative Name: 
                DNS:ec2-52-29-59-221.eu-central-1.compute.amazonaws.com
    Signature Algorithm: sha256WithRSAEncryption
         34:be:79:ca:b0:3e:a3:15:70:ec:b9:70:16:fd:3c:10:f4:37:
         a1:39:df:7a:73:e3:9f:9b:d4:cb:8d:de:3f:ed:b1:e9:5c:f1:
         55:a8:30:46:62:85:8b:4b:60:d3:75:fe:ec:9e:06:ad:25:e4:
         b7:12:91:74:fa:62:34:e0:db:60:44:88:38:71:93:57:eb:c3:
         fd:6f:88:6f:2c:5e:e0:85:c2:90:bc:39:4a:52:ba:c6:55:e1:
         85:70:c0:b2:c1:2d:36:76:69:61:b9:8a:d1:54:77:3f:7a:ed:
         19:e3:fe:ea:b6:53:35:3f:2c:93:b4:ba:51:a1:55:03:04:65:
         c2:74:11:00:64:4a:36:6e:20:e8:05:c9:02:42:f2:1a:e9:86:
         6c:01:47:4a:47:e8:4d:af:9f:03:bb:78:97:ac:d2:17:b5:e7:
         22:e4:cd:53:f4:b8:c9:74:24:f1:c6:2a:f5:02:87:73:e9:c1:
         6b:4a:67:6a:38:90:6e:4d:0b:46:6f:86:2f:a1:16:d3:98:28:
         af:b2:0b:bb:98:e7:f2:eb:b7:e2:de:14:52:dc:a4:d4:e1:a2:
         47:5a:cd:5e:b6:d8:3f:0b:e2:0b:1b:f9:5e:b5:84:ca:16:e6:
         e5:e2:b0:23:f7:9f:dd:f5:bc:87:59:27:e9:1d:72:0f:3e:ce:
         33:c3:31:d8:2f:bd:be:8f:89:e4:38:51:7e:ae:54:9e:a9:e7:
         c3:1e:e4:30:ef:06:ba:a3:91:6c:e5:bd:c8:23:d2:63:9c:7b:
         6e:8e:7d:b1:d6:b3:e1:49:de:6a:0d:34:43:89:ee:b8:2c:62:
         5f:e8:e2:05:39:b6:bc:2e:b8:22:c9:a4:2d:f4:a5:8f:a2:ff:
         30:1d:8f:6d:63:f1:51:12:b3:d2:50:65:bc:bd:7d:02:a3:cb:
         f9:b5:a4:77:14:62:39:8a:c3:01:16:3a:98:bf:f7:f9:c9:b7:
         53:0e:87:e7:0a:1e:8e:46:b0:da:f1:76:fb:25:f4:94:0d:f7:
         c0:7f:3e:9b:55:bc:52:3d:39:ed:42:56:bb:8a:ef:b8:9a:10:
         01:e8:9c:91:aa:bc:b6:e1:19:c2:e9:85:6d:47:18:83:61:8b:
         02:1e:e4:63:8a:55:2b:46:4c:96:85:95:47:76:ce:c1:42:68:
         ce:b8:ff:ab:60:06:ab:27:79:b2:24:70:69:85:1c:f4:d9:49:
         02:dd:50:90:a7:23:bc:75:55:c8:2f:1c:2c:0f:c3:17:c8:cb:
         07:98:8d:71:9d:fa:d3:2d:37:15:d7:60:4f:d3:f1:2d:f0:43:
         55:3f:cd:bc:00:96:53:6b:fe:c4:5e:d5:34:6a:f0:18:b5:f7:
         89:7f:99:64:9e:ae:6c:c3
-----BEGIN CERTIFICATE-----
MIIGFzCCA/+gAwIBAgIUVDk0gSWjswfH3qn0S2lmQ+LV2gIwDQYJKoZIhvcNAQEL
BQAwfjELMAkGA1UEBhMCQ0gxEDAOBgNVBAgTB1RodXJnYXUxEDAOBgNVBAcTB0tl
Zmlrb24xEzARBgNVBAoTCmd1ZW5nZWwuY2gxEDAOBgNVBAMTB0NBIDIwMjIxJDAi
BgkqhkiG9w0BCQEWFXBvc3RtYXN0ZXJAZ3VlbmdlbC5jaDAeFw0yMzAyMjgwNjQw
MzdaFw0yNDA0MDMwNjQwMzdaMIGYMQswCQYDVQQGEwJDSDEQMA4GA1UECBMHVGh1
cmdhdTETMBEGA1UEChMKZ3VlbmdlbC5jaDE8MDoGA1UEAxMzZWMyLTUyLTI5LTU5
LTIyMS5ldS1jZW50cmFsLTEuY29tcHV0ZS5hbWF6b25hd3MuY29tMSQwIgYJKoZI
hvcNAQkBFhVwb3N0bWFzdGVyQGd1ZW5nZWwuY2gwggEiMA0GCSqGSIb3DQEBAQUA
A4IBDwAwggEKAoIBAQDGDRTRZQylT8FCgq+Epq3W9ISi36+xRn3KRqtQgBcCl8fY
UPSXMDZoKuEYFeUyl6cQ8lf4K2VFayw3CYjHB/c6He6Ijyep/1Mm5Vu1J98/0Dwb
r5flDg+D+TdJykwq5JbXa/3lZuNwm19H30b7aifkmRkPgQ5zdt83IOLJ0yyv4tip
1nwqSFUl3z+s/zQ9OhxXn9xDfFOOA6UWzWCeFp2yHAbElCc6LyfCjslS9bukz1fV
5YmLEz8e2XGSklFa8qYY5XY/g24eNWty3QT7TSiW/EswCBnRdyOWbn/ufdn8VpdC
yCsx3wxwNWdPgErdBuP4Z+wd6ONKrYMM18VwSG83AgMBAAGjggFwMIIBbDAMBgNV
HRMBAf8EAjAAMAsGA1UdDwQEAwIDqDAdBgNVHQ4EFgQUQqy8PSTtfcc9xdsKR16T
5WqH3+Uwgb0GA1UdIwSBtTCBsoAUIiANUUBhQr7dutnJwXe2kyjDmeyhgYOkgYAw
fjELMAkGA1UEBhMCQ0gxEDAOBgNVBAgTB1RodXJnYXUxEDAOBgNVBAcTB0tlZmlr
b24xEzARBgNVBAoTCmd1ZW5nZWwuY2gxEDAOBgNVBAMTB0NBIDIwMjIxJDAiBgkq
hkiG9w0BCQEWFXBvc3RtYXN0ZXJAZ3VlbmdlbC5jaIIUbSmQVOkX6cJq5lKthE4w
jm5X+xwwEQYJYIZIAYb4QgEBBAQDAgbAMB0GA1UdJQQWMBQGCCsGAQUFBwMBBggr
BgEFBQcDAjA+BgNVHREENzA1gjNlYzItNTItMjktNTktMjIxLmV1LWNlbnRyYWwt
MS5jb21wdXRlLmFtYXpvbmF3cy5jb20wDQYJKoZIhvcNAQELBQADggIBADS+ecqw
PqMVcOy5cBb9PBD0N6E533pz45+b1MuN3j/tselc8VWoMEZihYtLYNN1/uyeBq0l
5LcSkXT6YjTg22BEiDhxk1frw/1viG8sXuCFwpC8OUpSusZV4YVwwLLBLTZ2aWG5
itFUdz967Rnj/uq2UzU/LJO0ulGhVQMEZcJ0EQBkSjZuIOgFyQJC8hrphmwBR0pH
6E2vnwO7eJes0he15yLkzVP0uMl0JPHGKvUCh3PpwWtKZ2o4kG5NC0Zvhi+hFtOY
KK+yC7uY5/Lrt+LeFFLcpNThokdazV622D8L4gsb+V61hMoW5uXisCP3n931vIdZ
J+kdcg8+zjPDMdgvvb6PieQ4UX6uVJ6p58Me5DDvBrqjkWzlvcgj0mOce26OfbHW
s+FJ3moNNEOJ7rgsYl/o4gU5trwuuCLJpC30pY+i/zAdj21j8VESs9JQZby9fQKj
y/m1pHcUYjmKwwEWOpi/9/nJt1MOh+cKHo5GsNrxdvsl9JQN98B/PptVvFI9Oe1C
VruK77iaEAHonJGqvLbhGcLphW1HGINhiwIe5GOKVStGTJaFlUd2zsFCaM64/6tg
BqsnebIkcGmFHPTZSQLdUJCnI7x1VcgvHCwPwxfIyweYjXGd+tMtNxXXYE/T8S3w
Q1U/zbwAllNr/sRe1TRq8Bi194l/mWSermzD
-----END CERTIFICATE-----
