Certificate:
    Data:
        Version: 3 (0x2)
        Serial Number: 444 (0x1bc)
        Signature Algorithm: sha256WithRSAEncryption
        Issuer: C=CH, ST=Thurgau, L=Kefikon, O=guengel.ch, CN=CA guengel.ch/emailAddress=postmaster@guengel.ch
        Validity
            Not Before: Feb  6 15:20:07 2021 GMT
            Not After : Mar 13 15:20:07 2022 GMT
        Subject: C=CH, ST=Thurgau, O=guengel.ch, CN=ec2-52-57-75-84.eu-central-1.compute.amazonaws.com/emailAddress=postmaster@guengel.ch
        Subject Public Key Info:
            Public Key Algorithm: rsaEncryption
                RSA Public-Key: (2048 bit)
                Modulus:
                    00:96:3a:03:2c:d7:c7:27:0c:87:4e:e7:9a:03:a7:
                    2d:34:3a:24:19:ba:7c:ef:5d:09:e5:f7:b3:7b:c1:
                    7a:13:4e:8a:9f:0d:28:31:5d:93:0b:7d:3b:ce:bc:
                    8e:d0:66:af:a7:ed:e8:9a:6f:bc:57:93:e9:5b:14:
                    71:ac:54:36:72:be:fe:8b:51:93:01:f8:ac:65:de:
                    06:ee:26:76:13:1b:ee:61:b3:e7:3b:dd:0d:c7:56:
                    e9:4b:a2:f0:a7:5d:fc:0a:61:f0:35:c7:81:01:d5:
                    17:0b:a7:10:73:d8:1a:41:b2:10:d5:ff:25:d1:16:
                    08:e1:08:8c:c3:da:67:a8:41:26:1c:31:fb:33:0a:
                    75:ac:2f:54:c9:7b:3e:41:f9:62:78:b8:72:9d:8a:
                    cd:3b:c6:18:e8:d8:4b:6c:a0:06:7d:09:9c:ac:ee:
                    c4:f4:c5:da:e9:7f:f6:07:00:69:6e:e9:3a:5f:08:
                    c9:8b:7f:c1:bf:5d:04:5f:a0:42:d2:2a:68:d1:f1:
                    c5:78:3a:e9:c5:c0:51:d8:46:39:0d:46:96:89:4a:
                    9a:23:42:bf:a5:b4:e0:80:4e:96:21:b3:95:77:1f:
                    dd:55:c1:82:fa:c5:29:27:0b:ac:3e:10:10:4b:6d:
                    d2:6c:3a:12:a9:63:d9:56:77:fd:97:4a:e4:65:24:
                    6a:99
                Exponent: 65537 (0x10001)
        X509v3 extensions:
            X509v3 Key Usage: 
                Digital Signature, Key Encipherment, Key Agreement
            X509v3 Basic Constraints: critical
                CA:FALSE
            Netscape Cert Type: 
                SSL Client, SSL Server
            X509v3 Extended Key Usage: 
                TLS Web Server Authentication, TLS Web Client Authentication
            X509v3 Subject Alternative Name: 
                DNS:ec2-52-57-75-84.eu-central-1.compute.amazonaws.com
            X509v3 Subject Key Identifier: 
                CC:11:52:11:39:21:F0:A4:75:E4:79:4A:27:8C:54:66:B8:52:B3:00
            X509v3 Authority Key Identifier: 
                keyid:D6:88:F1:AA:C1:2B:09:8C:B8:5C:9D:CE:DF:57:39:62:26:10:20:90
                DirName:/C=CH/ST=Thurgau/L=Kefikon/O=guengel.ch/CN=CA guengel.ch/emailAddress=postmaster@guengel.ch
                serial:E5:25:3B:A6:77:BD:CB:FF

    Signature Algorithm: sha256WithRSAEncryption
         1f:d8:08:b1:76:3f:cc:81:03:c4:a9:f7:73:61:c4:45:aa:1f:
         54:71:01:f3:88:a4:18:98:f2:fe:93:79:33:84:39:b1:86:22:
         2a:28:4b:87:26:a1:d0:88:be:f1:60:3e:fd:9a:14:71:c4:b4:
         82:c6:1f:50:56:b7:c3:0c:3a:c0:8b:84:52:ce:41:49:76:01:
         b2:39:bd:8a:e6:d9:88:53:81:4e:0b:94:12:b0:2d:c5:69:5c:
         60:f3:95:94:6a:a7:c7:97:d2:40:7e:53:2c:07:57:b9:d4:95:
         fe:b0:1c:ed:ea:47:ed:fe:25:79:11:2c:8c:8d:cc:5f:4c:8a:
         5a:6e:81:22:a7:0b:2a:60:11:48:40:13:df:d9:71:9c:19:10:
         f9:e4:93:bc:7f:d1:3f:24:29:78:3e:e7:81:51:29:b5:9c:24:
         ca:e2:11:03:bb:45:af:22:bb:a9:26:16:59:ec:c6:3f:13:32:
         cd:1b:dc:fb:61:01:50:b1:55:35:9e:8d:c7:78:10:6b:2c:ac:
         ca:c1:aa:87:ca:80:74:1e:e1:99:10:c3:fb:f6:b0:10:30:cd:
         e8:47:ec:ca:e3:77:25:50:c1:0a:ab:f3:35:6b:eb:0f:d9:86:
         f8:24:fa:c9:27:93:4d:77:ec:0d:b6:37:82:40:2b:e7:7d:14:
         df:2d:50:97:d1:12:67:83:01:18:16:87:ac:e1:17:be:ec:10:
         b5:57:d7:76:8e:ba:c9:0c:8b:40:bb:ef:80:b5:04:bc:65:5b:
         5c:68:1b:ae:91:7b:a9:f3:c0:c7:fb:b8:3a:88:73:d6:c8:83:
         48:d7:46:03:19:c9:2c:91:e1:ec:4e:63:b3:0b:26:f2:9a:d4:
         f1:34:c2:05:0e:42:13:35:66:9c:81:cb:9f:43:ca:62:25:86:
         c9:25:b0:45:ae:66:17:73:a2:3d:41:89:41:4d:35:37:c7:5a:
         34:fb:62:6c:50:8a:a3:11:98:c5:33:48:cb:2d:46:f0:87:1e:
         5b:92:fa:51:ba:d4:e0:d5:9c:04:b8:94:ee:2e:b0:a5:49:1c:
         df:21:c4:df:5e:ac:a8:6c:a5:35:d9:a4:97:aa:3c:e8:41:0c:
         e9:86:c0:5e:47:5b:7b:82:aa:f1:4c:fc:ec:80:af:e9:b4:27:
         a1:bb:6e:10:62:ec:2c:8d:31:a4:f2:75:e5:09:3e:57:cd:97:
         aa:7d:61:4d:1e:03:50:d8:52:50:d2:c6:29:ac:20:03:c1:dc:
         c2:38:f9:27:f9:dc:45:d2:aa:ef:44:3e:17:81:0a:b9:74:99:
         0c:bc:cf:9f:b2:09:f3:3a:ee:26:43:60:60:2f:61:bb:9b:7a:
         14:b9:8d:de:58:88:f2:07
-----BEGIN CERTIFICATE-----
MIIGBjCCA+6gAwIBAgICAbwwDQYJKoZIhvcNAQELBQAwgYQxCzAJBgNVBAYTAkNI
MRAwDgYDVQQIEwdUaHVyZ2F1MRAwDgYDVQQHEwdLZWZpa29uMRMwEQYDVQQKEwpn
dWVuZ2VsLmNoMRYwFAYDVQQDEw1DQSBndWVuZ2VsLmNoMSQwIgYJKoZIhvcNAQkB
FhVwb3N0bWFzdGVyQGd1ZW5nZWwuY2gwHhcNMjEwMjA2MTUyMDA3WhcNMjIwMzEz
MTUyMDA3WjCBlzELMAkGA1UEBhMCQ0gxEDAOBgNVBAgTB1RodXJnYXUxEzARBgNV
BAoTCmd1ZW5nZWwuY2gxOzA5BgNVBAMTMmVjMi01Mi01Ny03NS04NC5ldS1jZW50
cmFsLTEuY29tcHV0ZS5hbWF6b25hd3MuY29tMSQwIgYJKoZIhvcNAQkBFhVwb3N0
bWFzdGVyQGd1ZW5nZWwuY2gwggEiMA0GCSqGSIb3DQEBAQUAA4IBDwAwggEKAoIB
AQCWOgMs18cnDIdO55oDpy00OiQZunzvXQnl97N7wXoTToqfDSgxXZMLfTvOvI7Q
Zq+n7eiab7xXk+lbFHGsVDZyvv6LUZMB+Kxl3gbuJnYTG+5hs+c73Q3HVulLovCn
XfwKYfA1x4EB1RcLpxBz2BpBshDV/yXRFgjhCIzD2meoQSYcMfszCnWsL1TJez5B
+WJ4uHKdis07xhjo2EtsoAZ9CZys7sT0xdrpf/YHAGlu6TpfCMmLf8G/XQRfoELS
KmjR8cV4OunFwFHYRjkNRpaJSpojQr+ltOCATpYhs5V3H91VwYL6xSknC6w+EBBL
bdJsOhKpY9lWd/2XSuRlJGqZAgMBAAGjggFrMIIBZzALBgNVHQ8EBAMCA6gwDAYD
VR0TAQH/BAIwADARBglghkgBhvhCAQEEBAMCBsAwHQYDVR0lBBYwFAYIKwYBBQUH
AwEGCCsGAQUFBwMCMD0GA1UdEQQ2MDSCMmVjMi01Mi01Ny03NS04NC5ldS1jZW50
cmFsLTEuY29tcHV0ZS5hbWF6b25hd3MuY29tMB0GA1UdDgQWBBTMEVIROSHwpHXk
eUonjFRmuFKzADCBuQYDVR0jBIGxMIGugBTWiPGqwSsJjLhcnc7fVzliJhAgkKGB
iqSBhzCBhDELMAkGA1UEBhMCQ0gxEDAOBgNVBAgTB1RodXJnYXUxEDAOBgNVBAcT
B0tlZmlrb24xEzARBgNVBAoTCmd1ZW5nZWwuY2gxFjAUBgNVBAMTDUNBIGd1ZW5n
ZWwuY2gxJDAiBgkqhkiG9w0BCQEWFXBvc3RtYXN0ZXJAZ3VlbmdlbC5jaIIJAOUl
O6Z3vcv/MA0GCSqGSIb3DQEBCwUAA4ICAQAf2Aixdj/MgQPEqfdzYcRFqh9UcQHz
iKQYmPL+k3kzhDmxhiIqKEuHJqHQiL7xYD79mhRxxLSCxh9QVrfDDDrAi4RSzkFJ
dgGyOb2K5tmIU4FOC5QSsC3FaVxg85WUaqfHl9JAflMsB1e51JX+sBzt6kft/iV5
ESyMjcxfTIpaboEipwsqYBFIQBPf2XGcGRD55JO8f9E/JCl4PueBUSm1nCTK4hED
u0WvIrupJhZZ7MY/EzLNG9z7YQFQsVU1no3HeBBrLKzKwaqHyoB0HuGZEMP79rAQ
MM3oR+zK43clUMEKq/M1a+sP2Yb4JPrJJ5NNd+wNtjeCQCvnfRTfLVCX0RJngwEY
Foes4Re+7BC1V9d2jrrJDItAu++AtQS8ZVtcaBuukXup88DH+7g6iHPWyINI10YD
GckskeHsTmOzCybymtTxNMIFDkITNWacgcufQ8piJYbJJbBFrmYXc6I9QYlBTTU3
x1o0+2JsUIqjEZjFM0jLLUbwhx5bkvpRutTg1ZwEuJTuLrClSRzfIcTfXqyobKU1
2aSXqjzoQQzphsBeR1t7gqrxTPzsgK/ptCehu24QYuwsjTGk8nXlCT5XzZeqfWFN
HgNQ2FJQ0sYprCADwdzCOPkn+dxF0qrvRD4XgQq5dJkMvM+fsgnzOu4mQ2BgL2G7
m3oUuY3eWIjyBw==
-----END CERTIFICATE-----
