Certificate:
    Data:
        Version: 3 (0x2)
        Serial Number:
            55:dc:e7:98:8f:ac:fb:54:bb:94:44:c4:2f:01:4f:4c:b3:5b:2d:23
        Signature Algorithm: sha256WithRSAEncryption
        Issuer: C=CH, ST=Thurgau, L=Kefikon, O=guengel.ch, CN=CA 2022/emailAddress=postmaster@guengel.ch
        Validity
            Not Before: Dec 30 08:45:53 2023 GMT
            Not After : Feb  2 08:45:53 2025 GMT
        Subject: C=CH, ST=Thurgau, O=guengel.ch, CN=ec2-54-93-164-159.eu-central-1.compute.amazonaws.com/emailAddress=postmaster@guengel.ch
        Subject Public Key Info:
            Public Key Algorithm: rsaEncryption
                RSA Public-Key: (2048 bit)
                Modulus:
                    00:c4:0c:ca:0d:f6:3e:cb:dc:c1:c3:67:aa:86:61:
                    fd:23:03:1d:57:50:76:34:0e:31:ca:62:2c:a1:74:
                    d5:15:53:8e:14:58:4f:80:db:57:49:55:60:ca:9d:
                    66:c9:2c:f0:ac:62:6e:8a:b1:df:41:34:ff:e8:76:
                    84:f7:2f:83:7c:7f:a4:8d:9b:e3:42:e0:36:43:04:
                    8c:53:c9:ed:8a:7a:14:b9:5a:e4:43:0d:d1:81:e7:
                    a1:bb:73:61:44:04:dc:1b:2d:74:c1:40:84:9c:95:
                    16:a7:44:23:cc:d8:54:43:28:db:00:3f:ca:8d:2f:
                    a2:5b:0f:e9:bd:77:fe:a7:1e:30:30:7f:47:70:75:
                    97:09:38:29:42:91:d4:49:3c:cd:5b:e7:a4:0c:1f:
                    da:79:06:06:be:08:1c:cd:53:dd:c9:df:7c:f9:61:
                    ec:37:26:cf:bd:bc:e3:15:4a:0e:93:3f:1e:07:4c:
                    73:ef:e2:d9:e8:c0:1b:be:5d:68:2d:70:4e:ee:c1:
                    af:ff:20:20:68:e4:96:da:2c:c3:b6:39:22:e1:c4:
                    d6:71:9f:dd:e5:72:d2:1f:c8:01:70:42:b0:57:22:
                    9f:28:5d:b2:45:90:40:bc:83:0a:77:e6:de:ca:af:
                    2d:96:6e:16:a6:87:b5:ce:a3:f0:e5:e0:d7:a0:cd:
                    d3:1d
                Exponent: 65537 (0x10001)
        X509v3 extensions:
            X509v3 Basic Constraints: critical
                CA:FALSE
            X509v3 Key Usage: 
                Digital Signature, Key Encipherment, Key Agreement
            X509v3 Subject Key Identifier: 
                71:64:AA:9D:E5:7B:69:B7:F4:82:F7:05:75:3F:2F:72:7A:C3:27:B7
            X509v3 Authority Key Identifier: 
                keyid:22:20:0D:51:40:61:42:BE:DD:BA:D9:C9:C1:77:B6:93:28:C3:99:EC
                DirName:/C=CH/ST=Thurgau/L=Kefikon/O=guengel.ch/CN=CA 2022/emailAddress=postmaster@guengel.ch
                serial:6D:29:90:54:E9:17:E9:C2:6A:E6:52:AD:84:4E:30:8E:6E:57:FB:1C

            Netscape Cert Type: 
                SSL Client, SSL Server
            X509v3 Extended Key Usage: 
                TLS Web Server Authentication, TLS Web Client Authentication
            X509v3 Subject Alternative Name: 
                DNS:ec2-54-93-164-159.eu-central-1.compute.amazonaws.com
    Signature Algorithm: sha256WithRSAEncryption
         c3:b8:2d:64:b5:59:25:0a:8a:e0:54:52:28:c7:d9:84:7f:ee:
         20:b1:43:26:96:d1:77:e1:5a:02:87:20:5f:8e:93:3f:4d:49:
         be:01:19:52:4f:8e:0a:90:f9:1c:e2:06:56:5b:2c:e4:57:e2:
         ec:d1:ae:99:8a:1f:6b:b1:3a:88:95:30:e6:86:9d:bd:ab:8f:
         27:d7:52:47:b4:bb:2a:62:65:9b:8d:1d:af:4b:15:42:90:f6:
         45:54:e8:9e:0d:72:8a:3d:1a:c7:82:54:04:37:cb:4e:bf:55:
         f8:9c:dd:05:7e:d5:8b:6a:3f:5a:9a:d1:d7:74:7c:c4:11:e5:
         30:95:76:32:08:cc:a7:1a:ed:f4:ef:35:81:e2:3c:ba:ac:5d:
         15:ea:cf:00:4b:c1:d4:eb:e0:8e:87:d3:59:01:2d:1c:05:9d:
         9e:18:ea:17:a1:80:be:fe:18:a5:fe:2e:22:13:ab:0d:bb:d5:
         04:6a:9e:c9:6d:19:14:68:4d:83:76:e6:65:82:21:87:7f:50:
         e4:ed:2b:3a:06:e1:d7:2c:9e:94:3a:06:1f:29:20:cd:f4:14:
         f9:12:f1:f9:40:1a:06:48:06:00:59:82:5d:61:3f:b3:20:1f:
         e9:49:58:37:c7:13:29:b4:55:eb:82:e8:e3:ca:30:6e:b8:dd:
         10:55:c1:5d:f5:09:9e:b6:f8:5c:b1:20:70:4e:1c:9a:9d:0e:
         10:70:77:61:27:12:90:96:95:df:ea:44:71:1d:dc:34:5d:56:
         7d:de:b2:cc:47:f6:39:1b:b0:76:b2:5c:7c:e3:eb:cb:ae:27:
         7e:6d:ee:e3:1c:3c:70:1b:f5:6c:05:11:f4:c6:01:2f:1f:d7:
         34:02:ff:38:d8:88:50:9e:6a:6e:62:57:26:3a:8a:2a:3a:77:
         b8:92:aa:4d:26:1e:50:3f:55:4c:c9:f9:59:2d:3d:89:5c:a0:
         9b:0e:9d:78:8e:59:22:9c:b9:06:41:23:e7:b9:e1:6c:24:b8:
         a8:a6:92:5b:0e:f4:c8:56:d8:0d:96:14:e3:51:ac:3e:f2:04:
         ec:65:c1:8f:fa:a4:96:6d:8d:39:b0:de:89:e1:eb:05:08:28:
         64:06:c3:9a:1a:ef:0b:2f:f6:31:d6:4d:00:54:9f:86:fb:f0:
         2e:28:a6:18:b9:90:93:d4:a2:6f:90:48:cd:c8:b3:fc:53:2a:
         0e:6c:5c:30:90:1c:69:87:24:82:c1:37:a6:a5:be:bf:90:66:
         29:9e:c3:ee:3c:3e:7a:87:a0:20:32:a4:e6:e3:2d:b3:d7:12:
         f0:37:a7:bb:b7:9c:3d:b5:16:cd:70:13:ae:21:08:a4:ad:01:
         00:19:ac:94:21:14:42:22
-----BEGIN CERTIFICATE-----
MIIGGTCCBAGgAwIBAgIUVdznmI+s+1S7lETELwFPTLNbLSMwDQYJKoZIhvcNAQEL
BQAwfjELMAkGA1UEBhMCQ0gxEDAOBgNVBAgTB1RodXJnYXUxEDAOBgNVBAcTB0tl
Zmlrb24xEzARBgNVBAoTCmd1ZW5nZWwuY2gxEDAOBgNVBAMTB0NBIDIwMjIxJDAi
BgkqhkiG9w0BCQEWFXBvc3RtYXN0ZXJAZ3VlbmdlbC5jaDAeFw0yMzEyMzAwODQ1
NTNaFw0yNTAyMDIwODQ1NTNaMIGZMQswCQYDVQQGEwJDSDEQMA4GA1UECBMHVGh1
cmdhdTETMBEGA1UEChMKZ3VlbmdlbC5jaDE9MDsGA1UEAxM0ZWMyLTU0LTkzLTE2
NC0xNTkuZXUtY2VudHJhbC0xLmNvbXB1dGUuYW1hem9uYXdzLmNvbTEkMCIGCSqG
SIb3DQEJARYVcG9zdG1hc3RlckBndWVuZ2VsLmNoMIIBIjANBgkqhkiG9w0BAQEF
AAOCAQ8AMIIBCgKCAQEAxAzKDfY+y9zBw2eqhmH9IwMdV1B2NA4xymIsoXTVFVOO
FFhPgNtXSVVgyp1mySzwrGJuirHfQTT/6HaE9y+DfH+kjZvjQuA2QwSMU8ntinoU
uVrkQw3Rgeehu3NhRATcGy10wUCEnJUWp0QjzNhUQyjbAD/KjS+iWw/pvXf+px4w
MH9HcHWXCTgpQpHUSTzNW+ekDB/aeQYGvggczVPdyd98+WHsNybPvbzjFUoOkz8e
B0xz7+LZ6MAbvl1oLXBO7sGv/yAgaOSW2izDtjki4cTWcZ/d5XLSH8gBcEKwVyKf
KF2yRZBAvIMKd+beyq8tlm4Wpoe1zqPw5eDXoM3THQIDAQABo4IBcTCCAW0wDAYD
VR0TAQH/BAIwADALBgNVHQ8EBAMCA6gwHQYDVR0OBBYEFHFkqp3le2m39IL3BXU/
L3J6wye3MIG9BgNVHSMEgbUwgbKAFCIgDVFAYUK+3brZycF3tpMow5nsoYGDpIGA
MH4xCzAJBgNVBAYTAkNIMRAwDgYDVQQIEwdUaHVyZ2F1MRAwDgYDVQQHEwdLZWZp
a29uMRMwEQYDVQQKEwpndWVuZ2VsLmNoMRAwDgYDVQQDEwdDQSAyMDIyMSQwIgYJ
KoZIhvcNAQkBFhVwb3N0bWFzdGVyQGd1ZW5nZWwuY2iCFG0pkFTpF+nCauZSrYRO
MI5uV/scMBEGCWCGSAGG+EIBAQQEAwIGwDAdBgNVHSUEFjAUBggrBgEFBQcDAQYI
KwYBBQUHAwIwPwYDVR0RBDgwNoI0ZWMyLTU0LTkzLTE2NC0xNTkuZXUtY2VudHJh
bC0xLmNvbXB1dGUuYW1hem9uYXdzLmNvbTANBgkqhkiG9w0BAQsFAAOCAgEAw7gt
ZLVZJQqK4FRSKMfZhH/uILFDJpbRd+FaAocgX46TP01JvgEZUk+OCpD5HOIGVlss
5Ffi7NGumYofa7E6iJUw5oadvauPJ9dSR7S7KmJlm40dr0sVQpD2RVTong1yij0a
x4JUBDfLTr9V+JzdBX7Vi2o/WprR13R8xBHlMJV2MgjMpxrt9O81geI8uqxdFerP
AEvB1OvgjofTWQEtHAWdnhjqF6GAvv4Ypf4uIhOrDbvVBGqeyW0ZFGhNg3bmZYIh
h39Q5O0rOgbh1yyelDoGHykgzfQU+RLx+UAaBkgGAFmCXWE/syAf6UlYN8cTKbRV
64Lo48owbrjdEFXBXfUJnrb4XLEgcE4cmp0OEHB3YScSkJaV3+pEcR3cNF1Wfd6y
zEf2ORuwdrJcfOPry64nfm3u4xw8cBv1bAUR9MYBLx/XNAL/ONiIUJ5qbmJXJjqK
Kjp3uJKqTSYeUD9VTMn5WS09iVygmw6deI5ZIpy5BkEj57nhbCS4qKaSWw70yFbY
DZYU41GsPvIE7GXBj/qklm2NObDeieHrBQgoZAbDmhrvCy/2MdZNAFSfhvvwLiim
GLmQk9Sib5BIzciz/FMqDmxcMJAcaYckgsE3pqW+v5BmKZ7D7jw+eoegIDKk5uMt
s9cS8Denu7ecPbUWzXATriEIpK0BABmslCEUQiI=
-----END CERTIFICATE-----
