Certificate:
    Data:
        Version: 3 (0x2)
        Serial Number: 405 (0x195)
        Signature Algorithm: sha256WithRSAEncryption
        Issuer: C=CH, ST=Thurgau, L=Kefikon, O=guengel.ch, CN=CA guengel.ch/emailAddress=postmaster@guengel.ch
        Validity
            Not Before: Aug 16 08:27:49 2020 GMT
            Not After : Sep 20 08:27:49 2021 GMT
        Subject: C=CH, ST=Thurgau, O=guengel.ch, CN=ec2-52-57-75-84.eu-central-1.compute.amazonaws.com/emailAddress=postmaster@guengel.ch
        Subject Public Key Info:
            Public Key Algorithm: rsaEncryption
                RSA Public-Key: (2048 bit)
                Modulus:
                    00:96:3a:03:2c:d7:c7:27:0c:87:4e:e7:9a:03:a7:
                    2d:34:3a:24:19:ba:7c:ef:5d:09:e5:f7:b3:7b:c1:
                    7a:13:4e:8a:9f:0d:28:31:5d:93:0b:7d:3b:ce:bc:
                    8e:d0:66:af:a7:ed:e8:9a:6f:bc:57:93:e9:5b:14:
                    71:ac:54:36:72:be:fe:8b:51:93:01:f8:ac:65:de:
                    06:ee:26:76:13:1b:ee:61:b3:e7:3b:dd:0d:c7:56:
                    e9:4b:a2:f0:a7:5d:fc:0a:61:f0:35:c7:81:01:d5:
                    17:0b:a7:10:73:d8:1a:41:b2:10:d5:ff:25:d1:16:
                    08:e1:08:8c:c3:da:67:a8:41:26:1c:31:fb:33:0a:
                    75:ac:2f:54:c9:7b:3e:41:f9:62:78:b8:72:9d:8a:
                    cd:3b:c6:18:e8:d8:4b:6c:a0:06:7d:09:9c:ac:ee:
                    c4:f4:c5:da:e9:7f:f6:07:00:69:6e:e9:3a:5f:08:
                    c9:8b:7f:c1:bf:5d:04:5f:a0:42:d2:2a:68:d1:f1:
                    c5:78:3a:e9:c5:c0:51:d8:46:39:0d:46:96:89:4a:
                    9a:23:42:bf:a5:b4:e0:80:4e:96:21:b3:95:77:1f:
                    dd:55:c1:82:fa:c5:29:27:0b:ac:3e:10:10:4b:6d:
                    d2:6c:3a:12:a9:63:d9:56:77:fd:97:4a:e4:65:24:
                    6a:99
                Exponent: 65537 (0x10001)
        X509v3 extensions:
            X509v3 Basic Constraints: 
                CA:FALSE
            X509v3 Key Usage: 
                Digital Signature, Key Agreement
            Netscape Cert Type: 
                SSL Client, SSL Server
            X509v3 Extended Key Usage: 
                TLS Web Server Authentication, TLS Web Client Authentication
            X509v3 Subject Alternative Name: 
                DNS:ec2-52-57-75-84.eu-central-1.compute.amazonaws.com
    Signature Algorithm: sha256WithRSAEncryption
         6e:d6:78:21:3d:18:c8:00:55:5b:78:ef:3d:85:f4:dd:a1:b5:
         82:ae:82:39:63:b1:a4:31:3d:b1:6e:db:70:ee:78:98:aa:2f:
         93:54:a8:e2:6f:b5:fd:54:57:8c:50:15:f8:cf:17:26:c9:8f:
         5b:d3:bd:9b:7c:eb:c3:f3:dd:fe:0c:40:9e:f1:a1:9a:09:27:
         1e:ad:bf:ee:d4:1a:1a:be:9d:70:7b:af:d4:91:00:9e:4f:09:
         eb:12:a4:a9:c1:38:a5:b0:c0:9a:65:cd:1c:11:d0:f5:f9:85:
         96:ac:98:00:7b:2b:ff:77:5c:fb:80:c1:3b:46:46:98:08:d7:
         c1:12:9f:b9:70:25:95:7d:24:89:1d:97:26:64:cc:00:8a:45:
         39:98:7d:d9:8d:b0:7a:5d:b1:f8:c2:86:09:02:64:d2:00:65:
         cb:d2:c9:45:be:c2:14:32:93:e1:0b:55:ef:81:cd:b2:2e:92:
         00:e6:6f:c0:0c:81:39:e9:7d:e0:40:ec:c8:47:ea:b9:5a:91:
         61:06:ef:48:2d:c2:b8:75:f1:d6:47:c1:82:09:c9:e9:e8:4c:
         7b:0e:25:77:5c:09:be:f9:58:e8:fe:65:f7:78:93:60:52:31:
         ff:ed:52:f8:a8:b7:d1:fd:2f:38:5e:5b:41:49:eb:21:5b:75:
         cc:55:59:c7:51:8a:33:53:2d:8c:5d:3c:16:87:b0:88:06:74:
         07:51:19:9d:4c:24:fd:1e:03:a0:62:09:33:47:75:8c:c9:bd:
         a2:9e:fe:61:b8:fc:72:a2:1b:cb:13:a6:5d:4f:ef:7d:a8:f0:
         36:83:f3:db:5d:bc:31:00:32:99:61:d1:69:8a:61:dc:f7:a6:
         11:d7:d1:e7:d8:f3:73:b8:4b:54:be:82:3c:d9:b1:52:30:5c:
         7a:84:b4:ea:57:b3:47:ac:42:4b:15:a8:68:29:2d:25:3b:32:
         90:a3:98:9a:b7:d7:c3:a4:e4:4e:20:47:27:e9:83:a9:b4:ff:
         3e:54:fd:70:96:16:a4:d1:97:c1:29:a0:a3:ef:7e:30:99:9f:
         d2:c0:43:35:29:43:e6:da:1e:e0:79:37:46:47:ea:c5:f1:50:
         15:aa:2f:b4:78:01:a9:bf:80:3f:d4:56:ea:4a:ad:e3:6d:9c:
         40:0c:5c:8b:ff:3a:60:86:e7:4f:d0:af:bd:b8:57:5f:31:df:
         c3:e0:09:0c:b1:de:75:ca:5a:cf:25:dc:b7:e9:a5:b2:b1:a1:
         46:50:89:8b:b4:4e:f7:91:97:1e:37:f9:df:dc:37:0e:03:cf:
         ab:ea:37:c9:71:51:db:13:da:9a:86:ab:24:95:87:a5:68:eb:
         85:12:18:4f:d9:93:31:a3
-----BEGIN CERTIFICATE-----
MIIFJjCCAw6gAwIBAgICAZUwDQYJKoZIhvcNAQELBQAwgYQxCzAJBgNVBAYTAkNI
MRAwDgYDVQQIEwdUaHVyZ2F1MRAwDgYDVQQHEwdLZWZpa29uMRMwEQYDVQQKEwpn
dWVuZ2VsLmNoMRYwFAYDVQQDEw1DQSBndWVuZ2VsLmNoMSQwIgYJKoZIhvcNAQkB
FhVwb3N0bWFzdGVyQGd1ZW5nZWwuY2gwHhcNMjAwODE2MDgyNzQ5WhcNMjEwOTIw
MDgyNzQ5WjCBlzELMAkGA1UEBhMCQ0gxEDAOBgNVBAgTB1RodXJnYXUxEzARBgNV
BAoTCmd1ZW5nZWwuY2gxOzA5BgNVBAMTMmVjMi01Mi01Ny03NS04NC5ldS1jZW50
cmFsLTEuY29tcHV0ZS5hbWF6b25hd3MuY29tMSQwIgYJKoZIhvcNAQkBFhVwb3N0
bWFzdGVyQGd1ZW5nZWwuY2gwggEiMA0GCSqGSIb3DQEBAQUAA4IBDwAwggEKAoIB
AQCWOgMs18cnDIdO55oDpy00OiQZunzvXQnl97N7wXoTToqfDSgxXZMLfTvOvI7Q
Zq+n7eiab7xXk+lbFHGsVDZyvv6LUZMB+Kxl3gbuJnYTG+5hs+c73Q3HVulLovCn
XfwKYfA1x4EB1RcLpxBz2BpBshDV/yXRFgjhCIzD2meoQSYcMfszCnWsL1TJez5B
+WJ4uHKdis07xhjo2EtsoAZ9CZys7sT0xdrpf/YHAGlu6TpfCMmLf8G/XQRfoELS
KmjR8cV4OunFwFHYRjkNRpaJSpojQr+ltOCATpYhs5V3H91VwYL6xSknC6w+EBBL
bdJsOhKpY9lWd/2XSuRlJGqZAgMBAAGjgYwwgYkwCQYDVR0TBAIwADALBgNVHQ8E
BAMCA4gwEQYJYIZIAYb4QgEBBAQDAgbAMB0GA1UdJQQWMBQGCCsGAQUFBwMBBggr
BgEFBQcDAjA9BgNVHREENjA0gjJlYzItNTItNTctNzUtODQuZXUtY2VudHJhbC0x
LmNvbXB1dGUuYW1hem9uYXdzLmNvbTANBgkqhkiG9w0BAQsFAAOCAgEAbtZ4IT0Y
yABVW3jvPYX03aG1gq6COWOxpDE9sW7bcO54mKovk1So4m+1/VRXjFAV+M8XJsmP
W9O9m3zrw/Pd/gxAnvGhmgknHq2/7tQaGr6dcHuv1JEAnk8J6xKkqcE4pbDAmmXN
HBHQ9fmFlqyYAHsr/3dc+4DBO0ZGmAjXwRKfuXAllX0kiR2XJmTMAIpFOZh92Y2w
el2x+MKGCQJk0gBly9LJRb7CFDKT4QtV74HNsi6SAOZvwAyBOel94EDsyEfquVqR
YQbvSC3CuHXx1kfBggnJ6ehMew4ld1wJvvlY6P5l93iTYFIx/+1S+Ki30f0vOF5b
QUnrIVt1zFVZx1GKM1MtjF08FoewiAZ0B1EZnUwk/R4DoGIJM0d1jMm9op7+Ybj8
cqIbyxOmXU/vfajwNoPz2128MQAymWHRaYph3PemEdfR59jzc7hLVL6CPNmxUjBc
eoS06lezR6xCSxWoaCktJTsykKOYmrfXw6TkTiBHJ+mDqbT/PlT9cJYWpNGXwSmg
o+9+MJmf0sBDNSlD5toe4Hk3RkfqxfFQFaovtHgBqb+AP9RW6kqt422cQAxci/86
YIbnT9CvvbhXXzHfw+AJDLHedcpazyXct+mlsrGhRlCJi7RO95GXHjf539w3DgPP
q+o3yXFR2xPamoarJJWHpWjrhRIYT9mTMaM=
-----END CERTIFICATE-----
