Certificate:
    Data:
        Version: 3 (0x2)
        Serial Number: 393 (0x189)
        Signature Algorithm: sha256WithRSAEncryption
        Issuer: C=CH, ST=Thurgau, L=Kefikon, O=guengel.ch, CN=CA guengel.ch/emailAddress=postmaster@guengel.ch
        Validity
            Not Before: Aug 15 20:59:06 2020 GMT
            Not After : Aug 30 20:59:06 2021 GMT
        Subject: C=CH, ST=Thurgau, O=guengel.ch, CN=ec2-3-123-24-250.eu-central-1.compute.amazonaws.com/emailAddress=postmaster@guengel.ch
        Subject Public Key Info:
            Public Key Algorithm: rsaEncryption
                RSA Public-Key: (2048 bit)
                Modulus:
                    00:d6:f6:82:c1:35:6c:83:c0:07:46:10:67:fd:01:
                    17:6c:56:21:c4:36:3d:b8:ea:a6:97:4e:89:20:72:
                    82:0d:a8:26:c0:e5:d2:76:e6:60:17:54:76:15:92:
                    f9:05:71:dd:7d:5f:3c:60:a7:b2:11:52:e0:77:bb:
                    c6:ae:32:8b:ae:81:57:b7:b4:b6:2c:5f:af:48:f5:
                    8b:d8:6a:71:d8:cc:6a:08:d7:59:d8:0d:d5:e7:a2:
                    fc:4e:67:85:e8:65:49:19:01:8e:4f:9e:9e:d4:73:
                    33:76:ff:52:33:1e:e2:0a:6c:5b:d7:90:c4:4c:60:
                    4f:2f:ed:1c:e2:a2:71:07:7c:79:e2:10:e3:e8:71:
                    8a:90:c5:fb:b0:c0:ea:9a:70:45:03:87:7b:11:75:
                    8d:64:27:4a:db:1b:b9:93:60:cb:ee:88:9a:81:cf:
                    7d:e3:2c:5a:0d:d0:d0:f6:18:63:69:22:91:c4:d0:
                    39:90:bf:96:15:d7:b2:87:2d:6d:33:93:cb:b7:ec:
                    56:3a:5e:72:58:5f:c2:df:8a:9f:95:e8:51:7f:34:
                    b3:c7:c5:b3:0e:c7:36:e1:ed:a3:0c:a4:e0:6d:ff:
                    d5:3c:ba:89:2c:bd:aa:4e:5f:32:66:c2:bf:a3:df:
                    93:1c:5a:f4:77:53:65:99:b2:71:92:d9:fb:59:4a:
                    0f:b5
                Exponent: 65537 (0x10001)
        X509v3 extensions:
            X509v3 Basic Constraints: 
                CA:FALSE
            Netscape Comment: 
                OpenSSL Generated Certificate
            X509v3 Subject Key Identifier: 
                6E:6B:1D:E7:6C:1D:90:E6:75:C8:C2:47:7C:C2:3B:EF:FF:DA:D8:CC
            X509v3 Authority Key Identifier: 
                keyid:D6:88:F1:AA:C1:2B:09:8C:B8:5C:9D:CE:DF:57:39:62:26:10:20:90
                DirName:/C=CH/ST=Thurgau/L=Kefikon/O=guengel.ch/CN=CA guengel.ch/emailAddress=postmaster@guengel.ch
                serial:E5:25:3B:A6:77:BD:CB:FF

    Signature Algorithm: sha256WithRSAEncryption
         54:21:eb:4e:e0:00:f2:2a:6f:4e:70:80:a3:72:4c:5b:f1:f9:
         52:fb:1e:9d:3c:a3:dd:77:f6:71:65:41:de:4f:73:d1:02:ef:
         1c:60:cb:2c:e1:90:54:d5:30:e7:d6:70:c4:9f:8c:24:26:7b:
         17:af:b3:fc:5a:1f:5a:f7:e5:e3:c8:df:34:49:b3:4a:fe:4b:
         28:43:b4:e9:ca:0c:95:83:f7:6b:07:f9:39:6d:6c:7e:e0:dd:
         ba:d4:29:22:1e:d7:f9:b0:73:4b:4d:3a:3a:4b:5d:54:e5:00:
         ce:f2:1d:eb:dc:8f:f9:7c:13:73:7e:2d:f5:5e:e1:3d:b7:28:
         bb:e4:24:1f:24:a5:d1:49:b2:ff:18:78:e5:dd:bf:ad:8c:86:
         c7:d3:2f:79:11:ec:42:fa:2d:ee:97:7d:b2:32:a7:6d:2d:5b:
         24:4b:36:f4:56:72:43:90:ec:1f:be:12:4f:c1:a2:9d:9f:1e:
         5d:85:94:6f:97:12:18:ff:1e:af:3e:a3:11:00:38:2e:34:95:
         c3:45:b0:9e:ad:1c:9a:0b:2f:fe:73:4f:bd:07:09:c3:dc:b6:
         d5:26:69:09:17:bb:18:61:78:79:82:13:cf:fc:79:8d:ad:bc:
         10:a5:0c:7a:20:74:ea:bf:c2:3a:c2:30:0c:36:49:50:c9:31:
         38:30:03:56:5c:0a:61:b1:0e:99:7d:c4:80:0d:88:75:79:97:
         7f:fe:71:6b:fc:fb:78:22:d6:45:d2:e4:35:03:7f:54:53:a7:
         f0:f7:55:e3:3b:f9:f4:ed:52:32:58:86:56:c5:18:8a:72:fb:
         c6:13:a5:88:2f:2c:3d:c5:d0:46:7a:fc:3d:d2:60:80:7f:b1:
         8a:68:51:e3:04:81:95:b3:0a:6e:ea:6a:6e:8b:7d:57:86:69:
         a8:59:5a:41:3d:14:68:ea:fc:80:f0:06:47:b9:b5:db:34:e6:
         3f:47:d0:b8:d3:99:c7:d3:73:6e:c6:21:3e:69:7c:bd:1a:5d:
         55:e2:f7:b3:b4:15:ae:fd:f6:ac:88:d9:f4:92:25:30:f5:ba:
         26:c0:c7:ae:48:9f:e1:01:b0:6d:d2:dd:eb:13:0d:1c:83:f0:
         db:36:ad:c7:f8:ac:3c:26:d9:55:d9:0f:ac:85:c0:90:7e:31:
         67:24:cf:73:3c:7b:9e:d9:bd:bb:28:3b:1f:4f:b7:9a:d2:c6:
         64:a0:eb:7d:14:28:b1:cc:95:a3:8f:47:21:d0:b9:3d:c7:33:
         db:d8:d8:33:72:7d:bb:78:04:7b:04:56:0c:ca:83:35:cb:66:
         1f:ef:2f:46:5f:8f:43:37:8f:76:2f:fd:47:5c:3a:30:f3:83:
         87:e5:37:cb:71:8d:6b:64
-----BEGIN CERTIFICATE-----
MIIFtDCCA5ygAwIBAgICAYkwDQYJKoZIhvcNAQELBQAwgYQxCzAJBgNVBAYTAkNI
MRAwDgYDVQQIEwdUaHVyZ2F1MRAwDgYDVQQHEwdLZWZpa29uMRMwEQYDVQQKEwpn
dWVuZ2VsLmNoMRYwFAYDVQQDEw1DQSBndWVuZ2VsLmNoMSQwIgYJKoZIhvcNAQkB
FhVwb3N0bWFzdGVyQGd1ZW5nZWwuY2gwHhcNMjAwODE1MjA1OTA2WhcNMjEwODMw
MjA1OTA2WjCBmDELMAkGA1UEBhMCQ0gxEDAOBgNVBAgTB1RodXJnYXUxEzARBgNV
BAoTCmd1ZW5nZWwuY2gxPDA6BgNVBAMTM2VjMi0zLTEyMy0yNC0yNTAuZXUtY2Vu
dHJhbC0xLmNvbXB1dGUuYW1hem9uYXdzLmNvbTEkMCIGCSqGSIb3DQEJARYVcG9z
dG1hc3RlckBndWVuZ2VsLmNoMIIBIjANBgkqhkiG9w0BAQEFAAOCAQ8AMIIBCgKC
AQEA1vaCwTVsg8AHRhBn/QEXbFYhxDY9uOqml06JIHKCDagmwOXSduZgF1R2FZL5
BXHdfV88YKeyEVLgd7vGrjKLroFXt7S2LF+vSPWL2Gpx2MxqCNdZ2A3V56L8TmeF
6GVJGQGOT56e1HMzdv9SMx7iCmxb15DETGBPL+0c4qJxB3x54hDj6HGKkMX7sMDq
mnBFA4d7EXWNZCdK2xu5k2DL7oiagc994yxaDdDQ9hhjaSKRxNA5kL+WFdeyhy1t
M5PLt+xWOl5yWF/C34qflehRfzSzx8WzDsc24e2jDKTgbf/VPLqJLL2qTl8yZsK/
o9+THFr0d1NlmbJxktn7WUoPtQIDAQABo4IBGDCCARQwCQYDVR0TBAIwADAsBglg
hkgBhvhCAQ0EHxYdT3BlblNTTCBHZW5lcmF0ZWQgQ2VydGlmaWNhdGUwHQYDVR0O
BBYEFG5rHedsHZDmdcjCR3zCO+//2tjMMIG5BgNVHSMEgbEwga6AFNaI8arBKwmM
uFydzt9XOWImECCQoYGKpIGHMIGEMQswCQYDVQQGEwJDSDEQMA4GA1UECBMHVGh1
cmdhdTEQMA4GA1UEBxMHS2VmaWtvbjETMBEGA1UEChMKZ3VlbmdlbC5jaDEWMBQG
A1UEAxMNQ0EgZ3VlbmdlbC5jaDEkMCIGCSqGSIb3DQEJARYVcG9zdG1hc3RlckBn
dWVuZ2VsLmNoggkA5SU7pne9y/8wDQYJKoZIhvcNAQELBQADggIBAFQh607gAPIq
b05wgKNyTFvx+VL7Hp08o9139nFlQd5Pc9EC7xxgyyzhkFTVMOfWcMSfjCQmexev
s/xaH1r35ePI3zRJs0r+SyhDtOnKDJWD92sH+TltbH7g3brUKSIe1/mwc0tNOjpL
XVTlAM7yHevcj/l8E3N+LfVe4T23KLvkJB8kpdFJsv8YeOXdv62MhsfTL3kR7EL6
Le6XfbIyp20tWyRLNvRWckOQ7B++Ek/Bop2fHl2FlG+XEhj/Hq8+oxEAOC40lcNF
sJ6tHJoLL/5zT70HCcPcttUmaQkXuxhheHmCE8/8eY2tvBClDHogdOq/wjrCMAw2
SVDJMTgwA1ZcCmGxDpl9xIANiHV5l3/+cWv8+3gi1kXS5DUDf1RTp/D3VeM7+fTt
UjJYhlbFGIpy+8YTpYgvLD3F0EZ6/D3SYIB/sYpoUeMEgZWzCm7qam6LfVeGaahZ
WkE9FGjq/IDwBke5tds05j9H0LjTmcfTc27GIT5pfL0aXVXi97O0Fa799qyI2fSS
JTD1uibAx65In+EBsG3S3esTDRyD8Ns2rcf4rDwm2VXZD6yFwJB+MWckz3M8e57Z
vbsoOx9Pt5rSxmSg630UKLHMlaOPRyHQuT3HM9vY2DNyfbt4BHsEVgzKgzXLZh/v
L0Zfj0M3j3Yv/UdcOjDzg4flN8txjWtk
-----END CERTIFICATE-----
