Certificate:
    Data:
        Version: 3 (0x2)
        Serial Number:
            41:3c:b0:1f:63:bb:d7:d4:7c:55:98:53:1e:f6:9a:85:72:41:e2:08
        Signature Algorithm: sha256WithRSAEncryption
        Issuer: C=CH, ST=Thurgau, L=Kefikon, O=guengel.ch, CN=CA 2022/emailAddress=postmaster@guengel.ch
        Validity
            Not Before: Dec 30 08:45:46 2023 GMT
            Not After : Feb  2 08:45:46 2025 GMT
        Subject: C=CH, ST=Thurgau, O=guengel.ch, CN=ec2-35-156-183-108.eu-central-1.compute.amazonaws.com/emailAddress=postmaster@guengel.ch
        Subject Public Key Info:
            Public Key Algorithm: rsaEncryption
                RSA Public-Key: (2048 bit)
                Modulus:
                    00:9e:57:4f:39:55:f9:a8:1a:1a:57:8f:06:40:3b:
                    ef:e2:a5:13:fb:37:f5:26:d1:46:bc:4a:dd:b0:e8:
                    61:05:9a:c9:85:58:37:d2:76:df:e8:5d:55:d6:ef:
                    0f:15:d7:55:0e:88:08:9f:88:56:15:73:df:99:e6:
                    fd:44:0b:bb:07:ba:30:f5:ae:51:e8:80:fd:30:e7:
                    37:29:9a:08:64:23:af:e0:db:65:60:df:26:98:a5:
                    a6:19:b7:08:d6:67:26:98:0e:97:1a:82:53:8a:f0:
                    7c:12:5d:ed:68:33:3d:c1:a8:7f:d0:65:e7:d2:26:
                    7e:da:4e:cc:8e:9c:0a:d8:9d:aa:fe:eb:06:49:cb:
                    9e:32:8f:a2:2a:19:87:b8:dc:13:bd:5c:0f:d9:a6:
                    c3:ad:56:2c:68:7c:70:70:09:6e:2f:27:f6:4b:11:
                    03:cf:78:ae:da:8f:94:99:23:a4:78:38:cf:8d:13:
                    3b:d4:a5:75:c1:bd:3c:af:f5:b6:93:b9:16:dd:bc:
                    27:54:cf:37:31:0d:b6:f6:a2:4d:01:9c:85:db:c2:
                    7a:b3:a4:37:5c:55:89:84:34:00:1b:d8:26:e9:c4:
                    04:49:6a:05:79:21:aa:9c:a7:28:31:8f:93:8e:67:
                    01:f3:7c:81:ca:59:a2:1c:ad:a7:6e:00:b8:40:ad:
                    d2:03
                Exponent: 65537 (0x10001)
        X509v3 extensions:
            X509v3 Basic Constraints: critical
                CA:FALSE
            X509v3 Key Usage: 
                Digital Signature, Key Encipherment, Key Agreement
            X509v3 Subject Key Identifier: 
                9F:C2:BB:B2:24:54:A1:BA:CD:70:8A:3F:70:02:B8:51:F2:53:F2:00
            X509v3 Authority Key Identifier: 
                keyid:22:20:0D:51:40:61:42:BE:DD:BA:D9:C9:C1:77:B6:93:28:C3:99:EC
                DirName:/C=CH/ST=Thurgau/L=Kefikon/O=guengel.ch/CN=CA 2022/emailAddress=postmaster@guengel.ch
                serial:6D:29:90:54:E9:17:E9:C2:6A:E6:52:AD:84:4E:30:8E:6E:57:FB:1C

            Netscape Cert Type: 
                SSL Client, SSL Server
            X509v3 Extended Key Usage: 
                TLS Web Server Authentication, TLS Web Client Authentication
            X509v3 Subject Alternative Name: 
                DNS:ec2-35-156-183-108.eu-central-1.compute.amazonaws.com
    Signature Algorithm: sha256WithRSAEncryption
         3b:95:38:05:72:38:32:12:4d:26:59:e0:f8:35:f2:b3:8b:63:
         d8:68:ef:e6:63:74:62:bb:3e:00:89:8a:23:ed:63:c4:be:14:
         cc:30:9b:11:c8:44:14:c1:d6:7c:74:00:92:ac:04:7f:cf:c0:
         af:ac:72:38:68:fa:c7:31:0f:6d:2a:f7:bf:14:c9:28:0b:b6:
         aa:02:60:9c:99:b4:71:af:21:fb:db:8e:27:c7:55:17:43:80:
         d4:01:58:ab:2b:d4:ac:f8:dc:bc:44:e4:ec:e8:3e:99:60:42:
         24:d6:41:70:cf:1f:0e:3a:be:6b:44:85:97:5d:1f:a6:61:12:
         3c:58:6a:b0:16:32:4d:52:dc:ed:2c:ee:86:a7:10:2b:45:9b:
         c9:98:d1:e6:cd:f4:59:6d:17:8d:86:a1:d8:4e:0a:c9:4a:01:
         1f:53:b1:26:9f:a8:17:56:20:b2:39:d6:3a:d0:65:9c:29:8f:
         70:47:7d:16:0e:86:67:d1:8f:6b:51:d6:ee:17:fd:b5:f5:c6:
         bf:59:e5:ac:43:1c:6f:57:cf:c1:82:ce:5d:ec:27:b6:06:64:
         25:13:e1:b0:d1:b6:4d:d5:99:14:1f:da:6f:6f:7d:ec:46:75:
         37:d6:35:a0:57:22:7b:6a:c2:94:0e:80:75:98:f6:c5:df:9e:
         bd:e4:72:4f:1d:d8:bf:2a:36:a3:ea:5a:06:4c:f3:0e:ea:7d:
         2c:31:93:0e:39:11:4f:3b:cf:47:a7:38:30:79:c0:1b:4e:12:
         e6:b7:80:3b:bf:2d:ee:dc:2c:30:41:2c:76:5c:a3:50:04:0c:
         52:2d:e8:9f:60:a7:82:4b:d3:0d:87:97:21:31:ec:bc:8a:93:
         5c:86:7e:fe:58:27:40:75:9a:66:c2:41:44:da:c2:8c:75:50:
         6b:50:89:3b:00:4a:63:34:bb:15:f8:88:e5:c2:97:82:8d:7e:
         bc:68:36:c6:f9:9c:43:be:07:aa:91:9e:b7:4a:01:ba:34:f8:
         5a:21:d2:e5:75:e8:0e:79:b6:b5:c6:1c:03:68:8d:f7:e2:cd:
         32:a5:c1:94:3d:ec:99:cd:5c:65:01:41:30:b3:69:48:75:99:
         99:83:62:a3:d0:19:e7:f7:60:6a:25:6f:fd:7f:ce:58:7c:e4:
         2c:6d:00:b6:49:ed:14:7d:27:32:c9:e1:d8:80:67:4c:b3:2c:
         bf:16:8b:01:41:64:91:b2:76:6e:30:54:9d:53:67:ba:4e:13:
         df:7e:21:97:2a:3c:10:eb:08:60:64:d2:45:a0:51:7a:43:a0:
         6d:51:f3:cb:ce:5e:58:ea:d8:30:cd:69:ab:e4:c7:49:ff:ca:
         bb:e4:5a:9d:8f:e9:4b:cf
-----BEGIN CERTIFICATE-----
MIIGGzCCBAOgAwIBAgIUQTywH2O719R8VZhTHvaahXJB4ggwDQYJKoZIhvcNAQEL
BQAwfjELMAkGA1UEBhMCQ0gxEDAOBgNVBAgTB1RodXJnYXUxEDAOBgNVBAcTB0tl
Zmlrb24xEzARBgNVBAoTCmd1ZW5nZWwuY2gxEDAOBgNVBAMTB0NBIDIwMjIxJDAi
BgkqhkiG9w0BCQEWFXBvc3RtYXN0ZXJAZ3VlbmdlbC5jaDAeFw0yMzEyMzAwODQ1
NDZaFw0yNTAyMDIwODQ1NDZaMIGaMQswCQYDVQQGEwJDSDEQMA4GA1UECBMHVGh1
cmdhdTETMBEGA1UEChMKZ3VlbmdlbC5jaDE+MDwGA1UEAxM1ZWMyLTM1LTE1Ni0x
ODMtMTA4LmV1LWNlbnRyYWwtMS5jb21wdXRlLmFtYXpvbmF3cy5jb20xJDAiBgkq
hkiG9w0BCQEWFXBvc3RtYXN0ZXJAZ3VlbmdlbC5jaDCCASIwDQYJKoZIhvcNAQEB
BQADggEPADCCAQoCggEBAJ5XTzlV+agaGlePBkA77+KlE/s39SbRRrxK3bDoYQWa
yYVYN9J23+hdVdbvDxXXVQ6ICJ+IVhVz35nm/UQLuwe6MPWuUeiA/TDnNymaCGQj
r+DbZWDfJpilphm3CNZnJpgOlxqCU4rwfBJd7WgzPcGof9Bl59ImftpOzI6cCtid
qv7rBknLnjKPoioZh7jcE71cD9mmw61WLGh8cHAJbi8n9ksRA894rtqPlJkjpHg4
z40TO9SldcG9PK/1tpO5Ft28J1TPNzENtvaiTQGchdvCerOkN1xViYQ0ABvYJunE
BElqBXkhqpynKDGPk45nAfN8gcpZohytp24AuECt0gMCAwEAAaOCAXIwggFuMAwG
A1UdEwEB/wQCMAAwCwYDVR0PBAQDAgOoMB0GA1UdDgQWBBSfwruyJFShus1wij9w
ArhR8lPyADCBvQYDVR0jBIG1MIGygBQiIA1RQGFCvt262cnBd7aTKMOZ7KGBg6SB
gDB+MQswCQYDVQQGEwJDSDEQMA4GA1UECBMHVGh1cmdhdTEQMA4GA1UEBxMHS2Vm
aWtvbjETMBEGA1UEChMKZ3VlbmdlbC5jaDEQMA4GA1UEAxMHQ0EgMjAyMjEkMCIG
CSqGSIb3DQEJARYVcG9zdG1hc3RlckBndWVuZ2VsLmNoghRtKZBU6RfpwmrmUq2E
TjCOblf7HDARBglghkgBhvhCAQEEBAMCBsAwHQYDVR0lBBYwFAYIKwYBBQUHAwEG
CCsGAQUFBwMCMEAGA1UdEQQ5MDeCNWVjMi0zNS0xNTYtMTgzLTEwOC5ldS1jZW50
cmFsLTEuY29tcHV0ZS5hbWF6b25hd3MuY29tMA0GCSqGSIb3DQEBCwUAA4ICAQA7
lTgFcjgyEk0mWeD4NfKzi2PYaO/mY3Riuz4AiYoj7WPEvhTMMJsRyEQUwdZ8dACS
rAR/z8CvrHI4aPrHMQ9tKve/FMkoC7aqAmCcmbRxryH7244nx1UXQ4DUAVirK9Ss
+Ny8ROTs6D6ZYEIk1kFwzx8OOr5rRIWXXR+mYRI8WGqwFjJNUtztLO6GpxArRZvJ
mNHmzfRZbReNhqHYTgrJSgEfU7Emn6gXViCyOdY60GWcKY9wR30WDoZn0Y9rUdbu
F/219ca/WeWsQxxvV8/Bgs5d7Ce2BmQlE+Gw0bZN1ZkUH9pvb33sRnU31jWgVyJ7
asKUDoB1mPbF35695HJPHdi/Kjaj6loGTPMO6n0sMZMOORFPO89HpzgwecAbThLm
t4A7vy3u3CwwQSx2XKNQBAxSLeifYKeCS9MNh5chMey8ipNchn7+WCdAdZpmwkFE
2sKMdVBrUIk7AEpjNLsV+IjlwpeCjX68aDbG+ZxDvgeqkZ63SgG6NPhaIdLldegO
eba1xhwDaI334s0ypcGUPeyZzVxlAUEws2lIdZmZg2Kj0Bnn92BqJW/9f85YfOQs
bQC2Se0UfScyyeHYgGdMsyy/FosBQWSRsnZuMFSdU2e6ThPffiGXKjwQ6whgZNJF
oFF6Q6BtUfPLzl5Y6tgwzWmr5MdJ/8q75Fqdj+lLzw==
-----END CERTIFICATE-----
