Certificate:
    Data:
        Version: 3 (0x2)
        Serial Number: 441 (0x1b9)
        Signature Algorithm: sha256WithRSAEncryption
        Issuer: C=CH, ST=Thurgau, L=Kefikon, O=guengel.ch, CN=CA guengel.ch/emailAddress=postmaster@guengel.ch
        Validity
            Not Before: Feb  6 15:19:56 2021 GMT
            Not After : Mar 13 15:19:56 2022 GMT
        Subject: C=CH, ST=Thurgau, O=guengel.ch, CN=ec2-3-123-24-250.eu-central-1.compute.amazonaws.com/emailAddress=postmaster@guengel.ch
        Subject Public Key Info:
            Public Key Algorithm: rsaEncryption
                RSA Public-Key: (2048 bit)
                Modulus:
                    00:d6:f6:82:c1:35:6c:83:c0:07:46:10:67:fd:01:
                    17:6c:56:21:c4:36:3d:b8:ea:a6:97:4e:89:20:72:
                    82:0d:a8:26:c0:e5:d2:76:e6:60:17:54:76:15:92:
                    f9:05:71:dd:7d:5f:3c:60:a7:b2:11:52:e0:77:bb:
                    c6:ae:32:8b:ae:81:57:b7:b4:b6:2c:5f:af:48:f5:
                    8b:d8:6a:71:d8:cc:6a:08:d7:59:d8:0d:d5:e7:a2:
                    fc:4e:67:85:e8:65:49:19:01:8e:4f:9e:9e:d4:73:
                    33:76:ff:52:33:1e:e2:0a:6c:5b:d7:90:c4:4c:60:
                    4f:2f:ed:1c:e2:a2:71:07:7c:79:e2:10:e3:e8:71:
                    8a:90:c5:fb:b0:c0:ea:9a:70:45:03:87:7b:11:75:
                    8d:64:27:4a:db:1b:b9:93:60:cb:ee:88:9a:81:cf:
                    7d:e3:2c:5a:0d:d0:d0:f6:18:63:69:22:91:c4:d0:
                    39:90:bf:96:15:d7:b2:87:2d:6d:33:93:cb:b7:ec:
                    56:3a:5e:72:58:5f:c2:df:8a:9f:95:e8:51:7f:34:
                    b3:c7:c5:b3:0e:c7:36:e1:ed:a3:0c:a4:e0:6d:ff:
                    d5:3c:ba:89:2c:bd:aa:4e:5f:32:66:c2:bf:a3:df:
                    93:1c:5a:f4:77:53:65:99:b2:71:92:d9:fb:59:4a:
                    0f:b5
                Exponent: 65537 (0x10001)
        X509v3 extensions:
            X509v3 Key Usage: 
                Digital Signature, Key Encipherment, Key Agreement
            X509v3 Basic Constraints: critical
                CA:FALSE
            Netscape Cert Type: 
                SSL Client, SSL Server
            X509v3 Extended Key Usage: 
                TLS Web Server Authentication, TLS Web Client Authentication
            X509v3 Subject Alternative Name: 
                DNS:ec2-3-123-24-250.eu-central-1.compute.amazonaws.com
            X509v3 Subject Key Identifier: 
                6E:6B:1D:E7:6C:1D:90:E6:75:C8:C2:47:7C:C2:3B:EF:FF:DA:D8:CC
            X509v3 Authority Key Identifier: 
                keyid:D6:88:F1:AA:C1:2B:09:8C:B8:5C:9D:CE:DF:57:39:62:26:10:20:90
                DirName:/C=CH/ST=Thurgau/L=Kefikon/O=guengel.ch/CN=CA guengel.ch/emailAddress=postmaster@guengel.ch
                serial:E5:25:3B:A6:77:BD:CB:FF

    Signature Algorithm: sha256WithRSAEncryption
         22:d8:a6:71:3d:09:cc:64:7e:dc:cb:5b:27:b1:cd:3a:1d:40:
         a1:14:5f:d6:d4:88:80:f0:22:d1:4c:71:96:5e:95:d0:4c:a6:
         c2:58:ff:c8:8f:50:e7:0d:99:53:31:a9:94:40:d6:7d:02:ac:
         ed:2d:4f:58:ab:05:eb:8e:60:fc:9d:e7:90:18:a0:66:a3:ac:
         3e:80:6d:7c:5a:24:2b:98:54:5b:e2:08:8f:f6:b4:02:31:5e:
         5a:7a:88:4e:cf:a7:0c:b4:2e:18:97:97:24:20:cc:e8:6e:53:
         b1:74:d5:ce:83:f8:23:e4:6a:f9:94:a0:aa:b7:5b:cd:2e:a8:
         96:0e:2f:d5:42:7c:16:66:5b:ea:6a:4e:7d:45:6f:65:6a:67:
         dd:2e:8d:56:ce:d8:44:b7:b5:1b:8b:7f:30:01:0f:a4:38:87:
         e8:dd:20:06:6d:ff:56:f5:8f:07:25:c7:23:81:1f:55:1d:55:
         61:2c:34:f2:87:43:6f:bd:79:1f:fe:df:32:3d:51:e9:17:2a:
         e4:27:e2:62:b9:52:ae:e6:d5:a4:82:4c:ab:89:c1:4a:bf:53:
         d8:98:07:f2:a2:c2:60:0f:2e:71:c3:6c:9e:b5:8b:07:d1:f1:
         8e:7c:7d:cb:51:c1:ee:3a:b8:8c:99:e9:84:7f:f8:f7:ca:ba:
         32:21:32:89:97:0a:45:cb:eb:df:4c:a0:e9:17:a6:55:cd:fa:
         e0:df:e8:a7:66:98:b3:d3:2f:3d:11:84:77:c2:30:3b:80:49:
         7d:39:f2:45:3d:de:e3:e4:f1:0a:65:57:ab:d1:a3:44:0f:fd:
         0f:02:96:88:2f:62:d7:45:4c:b8:6d:3f:d9:01:57:9e:54:9e:
         e8:93:eb:ad:e2:fc:a3:12:dc:6b:d3:25:b7:32:5b:66:bb:8a:
         61:90:f6:06:52:d4:1c:09:69:c1:b0:d1:37:ea:8d:79:ae:7c:
         bc:1e:fb:9d:74:df:34:c0:c8:94:c8:92:bd:ab:93:5f:c1:db:
         1f:a8:48:5b:12:43:31:99:a2:e6:81:6d:d8:68:d4:b3:df:74:
         19:1e:73:c8:f3:3a:fd:98:97:b9:8b:c0:ed:3d:82:de:7b:11:
         be:cf:73:7b:8a:68:6e:9a:c6:1e:cf:83:83:71:e7:02:17:39:
         05:eb:db:97:7f:8b:fb:44:93:04:6b:e1:8a:f6:7b:a5:b1:53:
         a9:d6:d9:f0:38:0f:48:59:d6:2d:d4:11:8a:b1:33:49:7b:ae:
         94:64:46:41:06:0a:70:f3:f0:8e:99:57:34:2a:c4:dc:46:a5:
         7c:0c:aa:98:e9:12:31:18:bc:e1:59:23:54:3b:58:be:26:f1:
         fe:b5:3a:15:e2:62:df:ba
-----BEGIN CERTIFICATE-----
MIIGCDCCA/CgAwIBAgICAbkwDQYJKoZIhvcNAQELBQAwgYQxCzAJBgNVBAYTAkNI
MRAwDgYDVQQIEwdUaHVyZ2F1MRAwDgYDVQQHEwdLZWZpa29uMRMwEQYDVQQKEwpn
dWVuZ2VsLmNoMRYwFAYDVQQDEw1DQSBndWVuZ2VsLmNoMSQwIgYJKoZIhvcNAQkB
FhVwb3N0bWFzdGVyQGd1ZW5nZWwuY2gwHhcNMjEwMjA2MTUxOTU2WhcNMjIwMzEz
MTUxOTU2WjCBmDELMAkGA1UEBhMCQ0gxEDAOBgNVBAgTB1RodXJnYXUxEzARBgNV
BAoTCmd1ZW5nZWwuY2gxPDA6BgNVBAMTM2VjMi0zLTEyMy0yNC0yNTAuZXUtY2Vu
dHJhbC0xLmNvbXB1dGUuYW1hem9uYXdzLmNvbTEkMCIGCSqGSIb3DQEJARYVcG9z
dG1hc3RlckBndWVuZ2VsLmNoMIIBIjANBgkqhkiG9w0BAQEFAAOCAQ8AMIIBCgKC
AQEA1vaCwTVsg8AHRhBn/QEXbFYhxDY9uOqml06JIHKCDagmwOXSduZgF1R2FZL5
BXHdfV88YKeyEVLgd7vGrjKLroFXt7S2LF+vSPWL2Gpx2MxqCNdZ2A3V56L8TmeF
6GVJGQGOT56e1HMzdv9SMx7iCmxb15DETGBPL+0c4qJxB3x54hDj6HGKkMX7sMDq
mnBFA4d7EXWNZCdK2xu5k2DL7oiagc994yxaDdDQ9hhjaSKRxNA5kL+WFdeyhy1t
M5PLt+xWOl5yWF/C34qflehRfzSzx8WzDsc24e2jDKTgbf/VPLqJLL2qTl8yZsK/
o9+THFr0d1NlmbJxktn7WUoPtQIDAQABo4IBbDCCAWgwCwYDVR0PBAQDAgOoMAwG
A1UdEwEB/wQCMAAwEQYJYIZIAYb4QgEBBAQDAgbAMB0GA1UdJQQWMBQGCCsGAQUF
BwMBBggrBgEFBQcDAjA+BgNVHREENzA1gjNlYzItMy0xMjMtMjQtMjUwLmV1LWNl
bnRyYWwtMS5jb21wdXRlLmFtYXpvbmF3cy5jb20wHQYDVR0OBBYEFG5rHedsHZDm
dcjCR3zCO+//2tjMMIG5BgNVHSMEgbEwga6AFNaI8arBKwmMuFydzt9XOWImECCQ
oYGKpIGHMIGEMQswCQYDVQQGEwJDSDEQMA4GA1UECBMHVGh1cmdhdTEQMA4GA1UE
BxMHS2VmaWtvbjETMBEGA1UEChMKZ3VlbmdlbC5jaDEWMBQGA1UEAxMNQ0EgZ3Vl
bmdlbC5jaDEkMCIGCSqGSIb3DQEJARYVcG9zdG1hc3RlckBndWVuZ2VsLmNoggkA
5SU7pne9y/8wDQYJKoZIhvcNAQELBQADggIBACLYpnE9CcxkftzLWyexzTodQKEU
X9bUiIDwItFMcZZeldBMpsJY/8iPUOcNmVMxqZRA1n0CrO0tT1irBeuOYPyd55AY
oGajrD6AbXxaJCuYVFviCI/2tAIxXlp6iE7Ppwy0LhiXlyQgzOhuU7F01c6D+CPk
avmUoKq3W80uqJYOL9VCfBZmW+pqTn1Fb2VqZ90ujVbO2ES3tRuLfzABD6Q4h+jd
IAZt/1b1jwclxyOBH1UdVWEsNPKHQ2+9eR/+3zI9UekXKuQn4mK5Uq7m1aSCTKuJ
wUq/U9iYB/KiwmAPLnHDbJ61iwfR8Y58fctRwe46uIyZ6YR/+PfKujIhMomXCkXL
699MoOkXplXN+uDf6KdmmLPTLz0RhHfCMDuASX058kU93uPk8QplV6vRo0QP/Q8C
logvYtdFTLhtP9kBV55UnuiT663i/KMS3GvTJbcyW2a7imGQ9gZS1BwJacGw0Tfq
jXmufLwe+5103zTAyJTIkr2rk1/B2x+oSFsSQzGZouaBbdho1LPfdBkec8jzOv2Y
l7mLwO09gt57Eb7Pc3uKaG6axh7Pg4Nx5wIXOQXr25d/i/tEkwRr4Yr2e6WxU6nW
2fA4D0hZ1i3UEYqxM0l7rpRkRkEGCnDz8I6ZVzQqxNxGpXwMqpjpEjEYvOFZI1Q7
WL4m8f61OhXiYt+6
-----END CERTIFICATE-----
