Certificate:
    Data:
        Version: 3 (0x2)
        Serial Number: 406 (0x196)
        Signature Algorithm: sha256WithRSAEncryption
        Issuer: C=CH, ST=Thurgau, L=Kefikon, O=guengel.ch, CN=CA guengel.ch/emailAddress=postmaster@guengel.ch
        Validity
            Not Before: Aug 16 08:27:52 2020 GMT
            Not After : Sep 20 08:27:52 2021 GMT
        Subject: C=CH, ST=Thurgau, O=guengel.ch, CN=ec2-54-93-164-159.eu-central-1.compute.amazonaws.com/emailAddress=postmaster@guengel.ch
        Subject Public Key Info:
            Public Key Algorithm: rsaEncryption
                RSA Public-Key: (2048 bit)
                Modulus:
                    00:ac:fc:9c:fb:c2:bb:e5:63:93:98:30:21:da:6a:
                    70:0b:ec:84:93:45:e2:79:4d:d0:b4:73:35:8d:45:
                    50:65:21:a0:81:7a:84:0c:28:81:4c:26:8e:41:a2:
                    56:d8:d6:98:21:4a:dc:9c:c6:76:3a:3f:36:2b:72:
                    8f:72:38:d8:2b:e2:6c:7c:49:2e:61:d5:d7:c2:e8:
                    06:56:2a:63:e4:4b:6c:a8:4b:bb:77:e9:dd:b2:7d:
                    dd:31:88:06:b5:b3:f9:5a:18:21:44:4d:9d:0d:95:
                    76:88:be:db:ff:18:c6:b1:97:1c:b2:6c:d6:d0:80:
                    d3:19:8a:8c:85:f9:8d:ff:c2:c3:39:08:20:20:fd:
                    1f:4b:44:cb:51:50:9d:d5:4f:49:ed:0c:70:1f:5e:
                    d0:d0:71:87:47:94:fc:69:85:98:af:9a:ba:a2:e1:
                    31:1e:a8:4c:97:b7:53:09:b1:5b:ee:35:06:9b:0d:
                    ba:92:dd:7f:a2:2f:d4:42:e2:e2:e8:75:c6:5e:07:
                    6b:b5:cc:db:8d:64:71:2f:d0:d2:83:c2:92:2d:ab:
                    8e:6a:11:6b:42:cf:07:d4:b5:a2:c5:4f:05:e4:d8:
                    b8:18:21:3d:9e:8a:e7:7a:6d:e8:43:ef:d8:94:1f:
                    ed:a0:42:2c:a2:a0:fd:73:25:6e:ef:ba:40:9a:65:
                    c6:a9
                Exponent: 65537 (0x10001)
        X509v3 extensions:
            X509v3 Basic Constraints: 
                CA:FALSE
            X509v3 Key Usage: 
                Digital Signature, Key Agreement
            Netscape Cert Type: 
                SSL Client, SSL Server
            X509v3 Extended Key Usage: 
                TLS Web Server Authentication, TLS Web Client Authentication
            X509v3 Subject Alternative Name: 
                DNS:ec2-54-93-164-159.eu-central-1.compute.amazonaws.com
    Signature Algorithm: sha256WithRSAEncryption
         05:3f:da:4c:40:68:b7:3e:9a:10:a2:ff:70:3c:fb:52:8e:0d:
         9c:06:0f:b7:3e:82:b3:46:7c:d8:fb:09:1d:57:02:96:38:06:
         2a:93:d7:f8:b8:9f:de:15:25:1d:2a:12:24:2b:6a:27:53:c4:
         c8:0d:05:fd:2f:77:86:4d:e9:73:96:f9:52:57:4a:c4:29:0e:
         a0:4e:c6:90:93:a3:71:ea:74:fd:0a:f4:a1:73:c7:a0:6c:d2:
         af:dc:54:32:6b:83:e8:56:33:9a:08:97:1b:55:20:21:4c:2f:
         e2:1b:88:6f:e0:73:3c:ae:af:e3:5e:97:a2:ad:46:89:50:99:
         a1:98:97:f8:a4:55:d7:52:9f:42:04:0a:0b:49:36:27:fc:9c:
         6b:47:8e:bd:87:ea:a3:a6:0f:19:0e:20:94:bf:90:fc:a0:5a:
         4d:8f:9d:5b:ab:36:87:c9:b9:08:92:89:7b:17:37:7f:c5:7e:
         05:33:c4:8a:29:6a:64:1d:4d:2c:a8:07:9f:ec:ed:e5:66:6a:
         90:b8:c0:8c:55:33:0c:7e:27:de:2b:1d:f7:f8:47:c9:a8:aa:
         36:49:2b:e9:62:13:f5:46:2a:12:04:4e:f5:36:6e:7b:9e:7c:
         15:e3:26:27:e6:fc:c2:b9:11:54:f7:92:58:df:f9:b8:ff:51:
         04:ee:f5:3c:fd:b4:f1:78:a2:02:bb:44:46:32:24:3f:12:19:
         43:a3:b8:bf:8d:c6:5c:5e:74:cc:18:08:f6:b0:c1:35:59:65:
         fa:82:c6:eb:62:b0:15:63:14:2c:b6:74:dc:1a:04:17:0c:ae:
         54:28:0f:23:b7:55:ab:75:69:f2:2c:6c:49:d9:27:b6:51:36:
         41:29:d6:2f:57:b4:c7:af:62:8a:20:30:66:10:f9:dc:87:2e:
         88:f3:e6:58:e4:9d:0d:77:2e:84:29:e6:62:9f:34:c6:29:91:
         92:4e:0f:93:4f:bf:34:76:00:aa:c8:88:61:38:c8:97:dc:57:
         d1:dc:54:fd:12:53:e7:03:f0:8d:8b:30:22:ab:7d:26:c0:0e:
         02:9a:aa:0a:6e:50:3e:dc:52:54:5e:64:7b:13:00:d8:1f:ed:
         b1:37:7b:60:b7:f0:b1:76:cb:20:52:13:c3:64:78:e7:3a:0b:
         20:31:33:42:a3:53:c2:41:5f:b4:35:a9:e9:d3:38:d3:42:68:
         72:0a:78:6e:39:7a:ac:0a:4c:d2:13:f0:6c:f5:0f:74:e7:df:
         1f:32:1c:0b:42:0a:14:61:dd:03:5a:38:b7:5d:61:94:f9:8e:
         2c:c7:45:f5:b5:b2:f2:dc:1d:92:d1:61:02:25:56:17:ac:63:
         f5:fe:cd:3c:eb:a2:4e:60
-----BEGIN CERTIFICATE-----
MIIFKjCCAxKgAwIBAgICAZYwDQYJKoZIhvcNAQELBQAwgYQxCzAJBgNVBAYTAkNI
MRAwDgYDVQQIEwdUaHVyZ2F1MRAwDgYDVQQHEwdLZWZpa29uMRMwEQYDVQQKEwpn
dWVuZ2VsLmNoMRYwFAYDVQQDEw1DQSBndWVuZ2VsLmNoMSQwIgYJKoZIhvcNAQkB
FhVwb3N0bWFzdGVyQGd1ZW5nZWwuY2gwHhcNMjAwODE2MDgyNzUyWhcNMjEwOTIw
MDgyNzUyWjCBmTELMAkGA1UEBhMCQ0gxEDAOBgNVBAgTB1RodXJnYXUxEzARBgNV
BAoTCmd1ZW5nZWwuY2gxPTA7BgNVBAMTNGVjMi01NC05My0xNjQtMTU5LmV1LWNl
bnRyYWwtMS5jb21wdXRlLmFtYXpvbmF3cy5jb20xJDAiBgkqhkiG9w0BCQEWFXBv
c3RtYXN0ZXJAZ3VlbmdlbC5jaDCCASIwDQYJKoZIhvcNAQEBBQADggEPADCCAQoC
ggEBAKz8nPvCu+Vjk5gwIdpqcAvshJNF4nlN0LRzNY1FUGUhoIF6hAwogUwmjkGi
VtjWmCFK3JzGdjo/Nityj3I42CvibHxJLmHV18LoBlYqY+RLbKhLu3fp3bJ93TGI
BrWz+VoYIURNnQ2Vdoi+2/8YxrGXHLJs1tCA0xmKjIX5jf/CwzkIICD9H0tEy1FQ
ndVPSe0McB9e0NBxh0eU/GmFmK+auqLhMR6oTJe3UwmxW+41BpsNupLdf6Iv1ELi
4uh1xl4Ha7XM241kcS/Q0oPCki2rjmoRa0LPB9S1osVPBeTYuBghPZ6K53pt6EPv
2JQf7aBCLKKg/XMlbu+6QJplxqkCAwEAAaOBjjCBizAJBgNVHRMEAjAAMAsGA1Ud
DwQEAwIDiDARBglghkgBhvhCAQEEBAMCBsAwHQYDVR0lBBYwFAYIKwYBBQUHAwEG
CCsGAQUFBwMCMD8GA1UdEQQ4MDaCNGVjMi01NC05My0xNjQtMTU5LmV1LWNlbnRy
YWwtMS5jb21wdXRlLmFtYXpvbmF3cy5jb20wDQYJKoZIhvcNAQELBQADggIBAAU/
2kxAaLc+mhCi/3A8+1KODZwGD7c+grNGfNj7CR1XApY4BiqT1/i4n94VJR0qEiQr
aidTxMgNBf0vd4ZN6XOW+VJXSsQpDqBOxpCTo3HqdP0K9KFzx6Bs0q/cVDJrg+hW
M5oIlxtVICFML+IbiG/gczyur+Nel6KtRolQmaGYl/ikVddSn0IECgtJNif8nGtH
jr2H6qOmDxkOIJS/kPygWk2PnVurNofJuQiSiXsXN3/FfgUzxIopamQdTSyoB5/s
7eVmapC4wIxVMwx+J94rHff4R8moqjZJK+liE/VGKhIETvU2bnuefBXjJifm/MK5
EVT3kljf+bj/UQTu9Tz9tPF4ogK7REYyJD8SGUOjuL+NxlxedMwYCPawwTVZZfqC
xutisBVjFCy2dNwaBBcMrlQoDyO3Vat1afIsbEnZJ7ZRNkEp1i9XtMevYoogMGYQ
+dyHLojz5ljknQ13LoQp5mKfNMYpkZJOD5NPvzR2AKrIiGE4yJfcV9HcVP0SU+cD
8I2LMCKrfSbADgKaqgpuUD7cUlReZHsTANgf7bE3e2C38LF2yyBSE8NkeOc6CyAx
M0KjU8JBX7Q1qenTONNCaHIKeG45eqwKTNIT8Gz1D3Tn3x8yHAtCChRh3QNaOLdd
YZT5jizHRfW1svLcHZLRYQIlVhesY/X+zTzrok5g
-----END CERTIFICATE-----
