Certificate:
    Data:
        Version: 3 (0x2)
        Serial Number:
            08:d0:3b:9b:b1:02:b9:d9:cb:c0:09:7b:91:01:d7:80:1a:6e:53:61
        Signature Algorithm: sha256WithRSAEncryption
        Issuer: C=CH, ST=Thurgau, L=Kefikon, O=guengel.ch, CN=CA 2022/emailAddress=postmaster@guengel.ch
        Validity
            Not Before: Dec 30 08:45:50 2023 GMT
            Not After : Feb  2 08:45:50 2025 GMT
        Subject: C=CH, ST=Thurgau, O=guengel.ch, CN=ec2-52-57-75-84.eu-central-1.compute.amazonaws.com/emailAddress=postmaster@guengel.ch
        Subject Public Key Info:
            Public Key Algorithm: rsaEncryption
                RSA Public-Key: (2048 bit)
                Modulus:
                    00:bf:ec:26:1b:e2:f7:23:0c:c9:e0:df:4a:aa:dc:
                    b9:e5:0c:b0:25:32:57:09:80:b3:95:f2:cf:b6:af:
                    41:46:cf:04:1f:9e:97:d5:0d:2a:28:c4:56:4f:d7:
                    16:6c:c8:fa:4e:ea:d8:86:74:f7:d9:9d:93:66:79:
                    f8:f6:e8:24:18:65:64:ef:0d:02:0a:e2:2e:ad:5a:
                    d1:23:e8:62:65:53:3d:f9:1a:81:89:ae:00:f9:0c:
                    e3:06:f8:45:06:58:db:d2:fc:28:f9:86:f2:cb:44:
                    e3:8b:4e:52:3d:79:ab:a1:15:65:09:68:10:43:47:
                    ba:f1:d6:6a:fd:52:17:11:38:3e:4c:b0:7a:73:50:
                    0f:f4:6f:a9:0b:53:ad:b4:57:05:4f:49:12:65:80:
                    51:98:81:b9:44:e6:f3:d7:a6:4b:76:c8:88:c6:28:
                    d4:ec:6a:98:d8:7b:78:fa:cf:54:8d:17:a5:5a:c9:
                    3a:4d:94:c3:00:9e:fe:43:89:18:c8:ff:92:6c:ab:
                    77:8a:ae:59:0e:be:bc:9b:84:46:a8:b9:b8:f8:cf:
                    87:b4:22:5c:8e:80:7f:40:93:09:e8:3a:d0:e0:3f:
                    5b:1a:a5:66:00:25:83:b8:0e:bf:de:d8:13:ad:0f:
                    de:41:cc:3e:43:96:f4:43:d5:87:49:33:fb:97:46:
                    d4:b7
                Exponent: 65537 (0x10001)
        X509v3 extensions:
            X509v3 Basic Constraints: critical
                CA:FALSE
            X509v3 Key Usage: 
                Digital Signature, Key Encipherment, Key Agreement
            X509v3 Subject Key Identifier: 
                E1:69:AE:85:76:72:AE:12:FA:6F:01:D5:29:D7:97:6E:AC:57:68:EC
            X509v3 Authority Key Identifier: 
                keyid:22:20:0D:51:40:61:42:BE:DD:BA:D9:C9:C1:77:B6:93:28:C3:99:EC
                DirName:/C=CH/ST=Thurgau/L=Kefikon/O=guengel.ch/CN=CA 2022/emailAddress=postmaster@guengel.ch
                serial:6D:29:90:54:E9:17:E9:C2:6A:E6:52:AD:84:4E:30:8E:6E:57:FB:1C

            Netscape Cert Type: 
                SSL Client, SSL Server
            X509v3 Extended Key Usage: 
                TLS Web Server Authentication, TLS Web Client Authentication
            X509v3 Subject Alternative Name: 
                DNS:ec2-52-57-75-84.eu-central-1.compute.amazonaws.com
    Signature Algorithm: sha256WithRSAEncryption
         74:f6:63:91:30:d7:e6:9b:e6:d4:af:e3:c4:f8:bb:7d:c7:10:
         0e:a3:c4:4a:b7:4b:61:85:be:06:68:e0:e9:68:3f:45:17:a0:
         22:9b:00:18:6e:5d:f3:73:5b:fb:c3:08:39:c4:17:90:d1:a2:
         4c:e4:6f:9c:3f:c3:e8:db:a5:2f:bb:b0:04:8e:33:99:bf:d8:
         6d:20:12:f6:ad:c3:30:af:68:93:8a:a2:fd:fb:44:2e:ee:2d:
         60:e6:58:d9:05:20:1f:9e:17:5b:03:52:75:b2:ac:55:1e:12:
         8a:a0:67:97:90:e6:a3:a6:3b:09:12:90:d7:2c:eb:3c:b8:32:
         4d:49:81:bf:5a:8b:b3:c0:fa:5f:2c:cf:96:3c:e0:f6:cb:63:
         e4:32:24:08:09:d1:81:f4:5f:f4:38:b6:62:16:b8:ad:14:00:
         94:de:0d:be:09:fc:b1:ef:6b:ae:1b:1a:1e:56:8e:97:66:27:
         33:c7:6b:3b:67:86:f1:df:e1:bf:6b:7a:2e:fc:4f:66:42:a2:
         75:27:32:a1:fe:0b:ad:24:ee:97:21:40:83:68:5d:1d:d3:64:
         16:49:53:1d:cb:9d:bb:fd:28:50:c4:98:86:f7:bc:d9:b4:fc:
         58:ef:e5:7e:10:da:cc:e8:a7:7f:f0:8e:22:00:95:09:d7:89:
         4f:f6:ce:92:4c:5c:34:f8:c6:09:47:24:d4:83:87:53:92:da:
         48:97:63:70:bf:51:52:24:e8:25:e3:7a:a4:c0:9d:b5:89:20:
         e5:cb:a0:dc:43:06:ee:66:e3:80:13:7c:61:af:61:84:33:f1:
         cb:6a:b5:d7:b6:63:97:d3:7f:5f:cc:4b:1e:89:f1:c8:19:49:
         6d:d7:e7:4c:73:40:ae:10:14:b4:54:6a:9b:0a:3e:6e:bc:2d:
         2c:96:89:70:cf:ab:45:44:ca:39:c5:0f:59:f6:b0:01:09:d0:
         5c:ad:c9:65:ea:03:06:18:04:21:3c:f8:83:f2:8f:a7:ce:f9:
         58:da:da:60:93:7e:f7:a6:4c:ea:e7:96:3f:b6:3b:53:8d:92:
         69:5e:45:16:7e:e5:5f:f1:4f:83:89:04:58:b9:dd:f5:ee:44:
         5c:36:11:6c:1e:f5:f4:23:50:cd:59:ab:34:5f:90:2d:6a:e6:
         b6:28:4f:64:66:c7:37:3d:59:00:87:be:bb:37:61:96:2e:2b:
         dc:f1:b7:e9:ce:a8:62:a1:5c:4b:16:cd:84:01:0d:2e:9e:4b:
         b0:1d:26:2c:a6:b6:d0:ff:b9:04:61:b9:b8:e7:d7:9b:86:cb:
         0c:d1:4e:5e:59:31:e1:31:37:62:08:0c:25:a9:af:6e:33:e3:
         d0:21:a8:0f:7a:be:15:30
-----BEGIN CERTIFICATE-----
MIIGFTCCA/2gAwIBAgIUCNA7m7ECudnLwAl7kQHXgBpuU2EwDQYJKoZIhvcNAQEL
BQAwfjELMAkGA1UEBhMCQ0gxEDAOBgNVBAgTB1RodXJnYXUxEDAOBgNVBAcTB0tl
Zmlrb24xEzARBgNVBAoTCmd1ZW5nZWwuY2gxEDAOBgNVBAMTB0NBIDIwMjIxJDAi
BgkqhkiG9w0BCQEWFXBvc3RtYXN0ZXJAZ3VlbmdlbC5jaDAeFw0yMzEyMzAwODQ1
NTBaFw0yNTAyMDIwODQ1NTBaMIGXMQswCQYDVQQGEwJDSDEQMA4GA1UECBMHVGh1
cmdhdTETMBEGA1UEChMKZ3VlbmdlbC5jaDE7MDkGA1UEAxMyZWMyLTUyLTU3LTc1
LTg0LmV1LWNlbnRyYWwtMS5jb21wdXRlLmFtYXpvbmF3cy5jb20xJDAiBgkqhkiG
9w0BCQEWFXBvc3RtYXN0ZXJAZ3VlbmdlbC5jaDCCASIwDQYJKoZIhvcNAQEBBQAD
ggEPADCCAQoCggEBAL/sJhvi9yMMyeDfSqrcueUMsCUyVwmAs5Xyz7avQUbPBB+e
l9UNKijEVk/XFmzI+k7q2IZ099mdk2Z5+PboJBhlZO8NAgriLq1a0SPoYmVTPfka
gYmuAPkM4wb4RQZY29L8KPmG8stE44tOUj15q6EVZQloEENHuvHWav1SFxE4Pkyw
enNQD/RvqQtTrbRXBU9JEmWAUZiBuUTm89emS3bIiMYo1OxqmNh7ePrPVI0XpVrJ
Ok2UwwCe/kOJGMj/kmyrd4quWQ6+vJuERqi5uPjPh7QiXI6Af0CTCeg60OA/Wxql
ZgAlg7gOv97YE60P3kHMPkOW9EPVh0kz+5dG1LcCAwEAAaOCAW8wggFrMAwGA1Ud
EwEB/wQCMAAwCwYDVR0PBAQDAgOoMB0GA1UdDgQWBBThaa6FdnKuEvpvAdUp15du
rFdo7DCBvQYDVR0jBIG1MIGygBQiIA1RQGFCvt262cnBd7aTKMOZ7KGBg6SBgDB+
MQswCQYDVQQGEwJDSDEQMA4GA1UECBMHVGh1cmdhdTEQMA4GA1UEBxMHS2VmaWtv
bjETMBEGA1UEChMKZ3VlbmdlbC5jaDEQMA4GA1UEAxMHQ0EgMjAyMjEkMCIGCSqG
SIb3DQEJARYVcG9zdG1hc3RlckBndWVuZ2VsLmNoghRtKZBU6RfpwmrmUq2ETjCO
blf7HDARBglghkgBhvhCAQEEBAMCBsAwHQYDVR0lBBYwFAYIKwYBBQUHAwEGCCsG
AQUFBwMCMD0GA1UdEQQ2MDSCMmVjMi01Mi01Ny03NS04NC5ldS1jZW50cmFsLTEu
Y29tcHV0ZS5hbWF6b25hd3MuY29tMA0GCSqGSIb3DQEBCwUAA4ICAQB09mORMNfm
m+bUr+PE+Lt9xxAOo8RKt0thhb4GaODpaD9FF6AimwAYbl3zc1v7wwg5xBeQ0aJM
5G+cP8Po26Uvu7AEjjOZv9htIBL2rcMwr2iTiqL9+0Qu7i1g5ljZBSAfnhdbA1J1
sqxVHhKKoGeXkOajpjsJEpDXLOs8uDJNSYG/WouzwPpfLM+WPOD2y2PkMiQICdGB
9F/0OLZiFritFACU3g2+Cfyx72uuGxoeVo6XZiczx2s7Z4bx3+G/a3ou/E9mQqJ1
JzKh/gutJO6XIUCDaF0d02QWSVMdy527/ShQxJiG97zZtPxY7+V+ENrM6Kd/8I4i
AJUJ14lP9s6STFw0+MYJRyTUg4dTktpIl2Nwv1FSJOgl43qkwJ21iSDly6DcQwbu
ZuOAE3xhr2GEM/HLarXXtmOX039fzEseifHIGUlt1+dMc0CuEBS0VGqbCj5uvC0s
lolwz6tFRMo5xQ9Z9rABCdBcrcll6gMGGAQhPPiD8o+nzvlY2tpgk373pkzq55Y/
tjtTjZJpXkUWfuVf8U+DiQRYud317kRcNhFsHvX0I1DNWas0X5Ataua2KE9kZsc3
PVkAh767N2GWLivc8bfpzqhioVxLFs2EAQ0unkuwHSYsprbQ/7kEYbm459ebhssM
0U5eWTHhMTdiCAwlqa9uM+PQIagPer4VMA==
-----END CERTIFICATE-----
