Certificate:
    Data:
        Version: 3 (0x2)
        Serial Number: 442 (0x1ba)
        Signature Algorithm: sha256WithRSAEncryption
        Issuer: C=CH, ST=Thurgau, L=Kefikon, O=guengel.ch, CN=CA guengel.ch/emailAddress=postmaster@guengel.ch
        Validity
            Not Before: Feb  6 15:20:00 2021 GMT
            Not After : Mar 13 15:20:00 2022 GMT
        Subject: C=CH, ST=Thurgau, O=guengel.ch, CN=ec2-35-156-183-108.eu-central-1.compute.amazonaws.com/emailAddress=postmaster@guengel.ch
        Subject Public Key Info:
            Public Key Algorithm: rsaEncryption
                RSA Public-Key: (2048 bit)
                Modulus:
                    00:bb:69:57:7a:46:1a:c0:c1:60:0c:2a:20:07:82:
                    a0:ca:c7:1b:f8:e6:00:c3:79:a2:e3:5b:2e:42:0a:
                    33:e3:d3:60:f5:3f:97:8c:c8:1c:76:9a:cc:1a:b1:
                    14:53:f1:fc:cf:94:f1:f0:77:ca:2c:71:ac:d6:16:
                    e3:c1:e7:3f:60:47:62:8b:75:6e:23:88:c2:a5:e1:
                    8e:99:f6:52:83:ef:70:2e:74:88:cc:3c:7c:86:b7:
                    af:f2:83:45:51:d5:e5:45:11:52:4d:fc:a5:0c:64:
                    81:c1:0e:40:42:c1:30:6b:57:95:d2:4b:2c:21:59:
                    36:1c:33:0d:1f:df:0a:df:30:13:16:c1:e6:65:f2:
                    c1:d4:da:dc:ad:60:02:58:2a:2b:78:fb:66:02:25:
                    18:14:89:ce:e9:81:46:10:2b:2b:4f:47:d0:34:f3:
                    0b:bc:a2:12:83:30:bd:26:ff:a8:49:11:b2:40:d8:
                    be:bb:6b:bb:45:89:5e:b9:7e:29:94:0e:c2:d6:b1:
                    d0:f0:90:54:20:ef:e3:4a:c3:0d:dd:6f:65:ff:52:
                    c9:46:10:97:1f:bc:c9:e7:ef:56:2d:aa:46:90:73:
                    3f:b3:1f:a7:38:6f:2d:3c:e8:f8:54:49:2c:9e:ef:
                    8f:ad:6b:45:3d:de:5a:68:c7:60:96:6f:f1:52:e3:
                    4b:f3
                Exponent: 65537 (0x10001)
        X509v3 extensions:
            X509v3 Key Usage: 
                Digital Signature, Key Encipherment, Key Agreement
            X509v3 Basic Constraints: critical
                CA:FALSE
            Netscape Cert Type: 
                SSL Client, SSL Server
            X509v3 Extended Key Usage: 
                TLS Web Server Authentication, TLS Web Client Authentication
            X509v3 Subject Alternative Name: 
                DNS:ec2-35-156-183-108.eu-central-1.compute.amazonaws.com
            X509v3 Subject Key Identifier: 
                31:26:21:72:B0:BF:44:6D:24:F6:7F:29:BC:7A:85:CB:64:78:B6:C3
            X509v3 Authority Key Identifier: 
                keyid:D6:88:F1:AA:C1:2B:09:8C:B8:5C:9D:CE:DF:57:39:62:26:10:20:90
                DirName:/C=CH/ST=Thurgau/L=Kefikon/O=guengel.ch/CN=CA guengel.ch/emailAddress=postmaster@guengel.ch
                serial:E5:25:3B:A6:77:BD:CB:FF

    Signature Algorithm: sha256WithRSAEncryption
         13:a9:8b:84:40:4d:60:34:0a:5e:21:19:c1:73:54:bf:9b:6a:
         8a:4a:22:0f:40:43:21:9a:63:f9:78:c0:01:40:f6:92:46:81:
         7c:0f:72:1d:22:36:2f:ca:be:b8:b7:e8:e8:1a:5b:8f:7c:af:
         f0:5d:ce:d1:a8:55:22:94:6c:7d:3e:6b:a0:93:a5:13:48:d8:
         24:e6:09:d6:26:be:6c:8e:b3:b1:d4:00:6d:25:f2:ae:a4:a4:
         04:67:1f:89:74:37:17:4c:3a:d0:b8:de:22:f4:03:6c:e9:4d:
         3a:42:f1:82:b0:02:ac:92:7b:3f:d6:46:d7:9b:d9:a8:2e:b7:
         29:0b:2e:b5:55:b4:b8:6d:eb:66:99:23:ec:91:0d:94:20:59:
         7f:82:8d:44:91:72:f1:0e:89:7d:77:9b:0c:7c:e1:f9:4c:50:
         fe:52:84:b8:81:ea:5b:4b:71:83:29:55:ea:d9:49:c9:4c:68:
         72:f7:0e:19:c9:a6:05:2c:c1:be:bd:f8:aa:82:04:91:ec:66:
         dc:ec:db:ad:29:c4:e7:1a:5d:89:e1:ee:70:fb:6e:c7:b4:3e:
         53:32:d1:57:fd:d3:26:33:73:73:d2:5c:50:15:88:3c:bc:1b:
         54:59:56:d9:3b:ce:06:83:44:60:fd:64:30:4a:60:0e:13:5b:
         53:aa:4f:e1:e5:2d:51:21:76:d7:a9:be:48:1e:2f:d2:9d:5d:
         71:c6:8c:1f:20:68:f8:44:86:a2:c8:78:02:3a:ce:23:4e:50:
         13:eb:84:b2:e7:76:c6:e0:24:6d:66:42:47:0a:59:3f:35:05:
         65:93:aa:f5:83:0f:96:97:d8:0b:0a:71:92:70:19:fe:06:48:
         5d:67:c0:9a:84:25:8c:ac:9c:2b:0a:5c:8d:b6:05:85:7f:7c:
         e0:09:9e:87:03:d4:b8:92:35:37:d6:81:76:f4:a5:c3:bd:24:
         ba:dc:08:3f:ec:2e:e1:78:c9:cf:1c:10:5d:a2:c2:ca:6b:bf:
         ab:e9:65:ea:a9:15:c3:e8:00:a1:8e:d9:9e:b9:df:36:30:4f:
         4a:c5:ef:fb:26:51:e5:76:d1:30:5e:7f:3e:f3:aa:af:8b:89:
         3c:79:b5:52:dd:57:47:a5:c1:fa:68:6d:ef:fa:88:c2:05:fc:
         02:7b:d8:59:1f:a1:c7:ec:3c:88:8a:d4:00:64:ea:40:69:3b:
         03:00:c9:98:88:ff:64:b5:eb:71:5c:a5:98:f5:d1:b7:cb:f9:
         76:87:71:d1:05:df:70:6a:ca:38:70:b3:12:ca:5c:e4:ab:97:
         10:f9:e2:9f:c4:43:e0:b8:c6:de:bd:c4:b3:43:fa:b6:4e:03:
         94:7e:0e:2b:49:9b:85:e6
-----BEGIN CERTIFICATE-----
MIIGDDCCA/SgAwIBAgICAbowDQYJKoZIhvcNAQELBQAwgYQxCzAJBgNVBAYTAkNI
MRAwDgYDVQQIEwdUaHVyZ2F1MRAwDgYDVQQHEwdLZWZpa29uMRMwEQYDVQQKEwpn
dWVuZ2VsLmNoMRYwFAYDVQQDEw1DQSBndWVuZ2VsLmNoMSQwIgYJKoZIhvcNAQkB
FhVwb3N0bWFzdGVyQGd1ZW5nZWwuY2gwHhcNMjEwMjA2MTUyMDAwWhcNMjIwMzEz
MTUyMDAwWjCBmjELMAkGA1UEBhMCQ0gxEDAOBgNVBAgTB1RodXJnYXUxEzARBgNV
BAoTCmd1ZW5nZWwuY2gxPjA8BgNVBAMTNWVjMi0zNS0xNTYtMTgzLTEwOC5ldS1j
ZW50cmFsLTEuY29tcHV0ZS5hbWF6b25hd3MuY29tMSQwIgYJKoZIhvcNAQkBFhVw
b3N0bWFzdGVyQGd1ZW5nZWwuY2gwggEiMA0GCSqGSIb3DQEBAQUAA4IBDwAwggEK
AoIBAQC7aVd6RhrAwWAMKiAHgqDKxxv45gDDeaLjWy5CCjPj02D1P5eMyBx2mswa
sRRT8fzPlPHwd8oscazWFuPB5z9gR2KLdW4jiMKl4Y6Z9lKD73AudIjMPHyGt6/y
g0VR1eVFEVJN/KUMZIHBDkBCwTBrV5XSSywhWTYcMw0f3wrfMBMWweZl8sHU2tyt
YAJYKit4+2YCJRgUic7pgUYQKytPR9A08wu8ohKDML0m/6hJEbJA2L67a7tFiV65
fimUDsLWsdDwkFQg7+NKww3db2X/UslGEJcfvMnn71YtqkaQcz+zH6c4by086PhU
SSye74+ta0U93lpox2CWb/FS40vzAgMBAAGjggFuMIIBajALBgNVHQ8EBAMCA6gw
DAYDVR0TAQH/BAIwADARBglghkgBhvhCAQEEBAMCBsAwHQYDVR0lBBYwFAYIKwYB
BQUHAwEGCCsGAQUFBwMCMEAGA1UdEQQ5MDeCNWVjMi0zNS0xNTYtMTgzLTEwOC5l
dS1jZW50cmFsLTEuY29tcHV0ZS5hbWF6b25hd3MuY29tMB0GA1UdDgQWBBQxJiFy
sL9EbST2fym8eoXLZHi2wzCBuQYDVR0jBIGxMIGugBTWiPGqwSsJjLhcnc7fVzli
JhAgkKGBiqSBhzCBhDELMAkGA1UEBhMCQ0gxEDAOBgNVBAgTB1RodXJnYXUxEDAO
BgNVBAcTB0tlZmlrb24xEzARBgNVBAoTCmd1ZW5nZWwuY2gxFjAUBgNVBAMTDUNB
IGd1ZW5nZWwuY2gxJDAiBgkqhkiG9w0BCQEWFXBvc3RtYXN0ZXJAZ3VlbmdlbC5j
aIIJAOUlO6Z3vcv/MA0GCSqGSIb3DQEBCwUAA4ICAQATqYuEQE1gNApeIRnBc1S/
m2qKSiIPQEMhmmP5eMABQPaSRoF8D3IdIjYvyr64t+joGluPfK/wXc7RqFUilGx9
Pmugk6UTSNgk5gnWJr5sjrOx1ABtJfKupKQEZx+JdDcXTDrQuN4i9ANs6U06QvGC
sAKskns/1kbXm9moLrcpCy61VbS4betmmSPskQ2UIFl/go1EkXLxDol9d5sMfOH5
TFD+UoS4gepbS3GDKVXq2UnJTGhy9w4ZyaYFLMG+vfiqggSR7Gbc7NutKcTnGl2J
4e5w+27HtD5TMtFX/dMmM3Nz0lxQFYg8vBtUWVbZO84Gg0Rg/WQwSmAOE1tTqk/h
5S1RIXbXqb5IHi/SnV1xxowfIGj4RIaiyHgCOs4jTlAT64Sy53bG4CRtZkJHClk/
NQVlk6r1gw+Wl9gLCnGScBn+BkhdZ8CahCWMrJwrClyNtgWFf3zgCZ6HA9S4kjU3
1oF29KXDvSS63Ag/7C7heMnPHBBdosLKa7+r6WXqqRXD6AChjtmeud82ME9Kxe/7
JlHldtEwXn8+86qvi4k8ebVS3VdHpcH6aG3v+ojCBfwCe9hZH6HH7DyIitQAZOpA
aTsDAMmYiP9ktetxXKWY9dG3y/l2h3HRBd9waso4cLMSylzkq5cQ+eKfxEPguMbe
vcSzQ/q2TgOUfg4rSZuF5g==
-----END CERTIFICATE-----
