Certificate:
    Data:
        Version: 3 (0x2)
        Serial Number:
            7c:16:23:ef:6b:43:c7:16:31:8b:83:f6:f7:23:b7:c8:25:77:ed:be
        Signature Algorithm: sha256WithRSAEncryption
        Issuer: C=CH, ST=Thurgau, L=Kefikon, O=guengel.ch, CN=CA 2022/emailAddress=postmaster@guengel.ch
        Validity
            Not Before: Feb 11 15:42:29 2022 GMT
            Not After : Mar 18 15:42:29 2023 GMT
        Subject: C=CH, ST=Thurgau, O=guengel.ch, CN=ec2-3-123-24-250.eu-central-1.compute.amazonaws.com/emailAddress=postmaster@guengel.ch
        Subject Public Key Info:
            Public Key Algorithm: rsaEncryption
                RSA Public-Key: (2048 bit)
                Modulus:
                    00:bf:ec:4c:4a:3c:c3:72:ba:33:47:01:b1:a0:17:
                    b2:18:e5:37:eb:c3:80:d4:d0:0b:00:2c:89:48:60:
                    a6:d9:82:a6:02:dd:22:6a:43:58:f3:e3:23:ea:b4:
                    f7:b2:68:92:4c:9c:52:ff:7a:38:36:da:8a:61:a3:
                    91:b3:cf:70:49:ff:c1:91:90:ca:0f:06:99:d4:58:
                    69:7e:b5:f4:82:98:d5:c6:26:7b:b1:ec:be:3d:e6:
                    07:60:00:32:c0:12:13:27:cc:9a:b8:32:a8:ca:52:
                    3a:53:ee:04:35:9f:b1:42:d6:e4:f1:51:df:c0:e6:
                    6a:ed:31:b4:6a:25:46:8d:0a:ca:f5:fa:c9:56:9d:
                    8c:35:7d:ef:c3:7c:9a:6a:c5:b6:53:4b:aa:de:5e:
                    ac:67:3b:b2:3f:ad:39:f0:c8:c5:25:b4:7f:5d:06:
                    a7:02:24:29:74:0e:8e:75:bf:59:2f:5e:7d:0c:0b:
                    cc:3e:d8:83:9a:42:10:d7:90:db:5c:f1:b3:36:8e:
                    8b:d1:f9:a4:c8:ae:ce:09:1b:d8:79:bc:6c:8f:8b:
                    be:0d:69:36:a6:07:c9:c3:f1:87:a9:d8:bf:41:76:
                    56:69:18:20:67:6c:0a:b2:c4:c2:cd:ea:7f:54:25:
                    69:ec:b8:2e:56:02:25:ba:c9:22:53:ee:f3:61:61:
                    8e:8b
                Exponent: 65537 (0x10001)
        X509v3 extensions:
            X509v3 Basic Constraints: critical
                CA:FALSE
            X509v3 Key Usage: 
                Digital Signature, Key Encipherment, Key Agreement
            X509v3 Subject Key Identifier: 
                66:84:91:B8:61:40:A3:92:8F:B1:27:96:4C:5D:CB:FA:D6:6E:7F:F4
            X509v3 Authority Key Identifier: 
                keyid:22:20:0D:51:40:61:42:BE:DD:BA:D9:C9:C1:77:B6:93:28:C3:99:EC
                DirName:/C=CH/ST=Thurgau/L=Kefikon/O=guengel.ch/CN=CA 2022/emailAddress=postmaster@guengel.ch
                serial:6D:29:90:54:E9:17:E9:C2:6A:E6:52:AD:84:4E:30:8E:6E:57:FB:1C

            Netscape Cert Type: 
                SSL Client, SSL Server
            X509v3 Extended Key Usage: 
                TLS Web Server Authentication, TLS Web Client Authentication
            X509v3 Subject Alternative Name: 
                DNS:ec2-3-123-24-250.eu-central-1.compute.amazonaws.com
    Signature Algorithm: sha256WithRSAEncryption
         84:e9:0a:f1:c3:ee:2c:17:0c:90:2a:97:8d:1f:23:71:94:4a:
         88:51:96:29:21:c7:d8:9e:ef:ce:3e:33:6f:cd:f3:62:9b:f6:
         17:aa:64:57:36:ed:9c:d3:a3:b0:0a:55:9d:9d:9b:2a:f8:da:
         13:ce:2c:bd:c4:58:5c:50:54:a7:ca:f4:5c:e6:48:44:da:91:
         a4:40:37:3a:5f:f1:92:22:a2:4d:81:fc:ea:3d:56:d9:46:22:
         1e:ca:82:75:db:39:91:06:6b:43:e2:0e:f1:17:35:ef:05:5e:
         9d:98:0d:20:b0:0e:ae:0f:5a:69:16:9a:96:3c:fb:a7:ba:dd:
         d7:0b:55:6f:48:4f:af:70:26:f0:92:88:fb:30:f7:f1:4c:4c:
         4e:89:dc:16:2c:a4:a0:eb:f5:27:a0:6e:4a:03:af:ac:d0:e9:
         9a:fc:31:e0:18:65:eb:7d:49:b3:15:17:a5:2b:e2:78:15:4f:
         f7:c5:eb:0a:71:f6:12:2f:5e:5d:9d:86:53:bc:50:fe:68:b6:
         55:35:f7:ea:c5:48:0e:eb:e8:27:19:4a:35:a9:dd:3b:05:72:
         91:dc:90:c8:3b:82:ce:af:de:2a:d6:82:0c:d5:54:d3:21:5b:
         25:cf:42:51:d5:60:2f:51:55:ff:5a:74:fc:98:33:ca:e8:05:
         11:dc:36:9e:70:cc:c1:be:80:58:fc:81:0a:51:69:77:6a:6d:
         0f:19:0a:e8:b7:02:bd:b9:48:b6:6d:53:b5:2c:c2:52:12:5b:
         99:73:1b:b8:7a:7e:5a:4a:ee:48:cd:17:9b:81:be:da:3a:e8:
         2f:97:e1:be:b6:cb:c8:0f:00:99:37:9f:ae:dc:38:42:1e:1e:
         d2:1e:70:78:41:7a:55:0f:a6:3a:23:b3:1f:30:ef:55:de:c1:
         1c:95:b6:e5:41:a7:31:bb:3d:6e:61:52:d7:27:a9:25:52:dd:
         a6:2f:bf:71:fa:82:81:09:16:24:38:4f:55:6d:b3:de:05:fa:
         b5:9d:13:72:b3:cb:77:6e:1a:cc:3f:d9:d2:86:f4:b9:2b:d5:
         c2:e5:3d:d0:f5:2e:35:73:a6:0b:a1:70:b9:81:e8:03:75:ec:
         01:0a:86:98:97:22:be:68:4c:78:46:93:1a:ce:77:c5:f6:aa:
         78:7f:7d:85:88:f7:c7:17:18:2e:0b:d1:c1:49:5e:24:26:7e:
         9d:fe:1b:78:d7:e2:d7:93:6d:75:de:bf:1f:61:1e:5a:96:86:
         fc:b0:59:cf:23:bc:76:41:2b:c4:55:a9:8e:37:57:44:ef:ff:
         75:7b:43:86:ac:ab:20:bd:4d:09:ab:92:3e:91:0f:5a:4e:85:
         51:35:76:4e:f2:11:27:e7
-----BEGIN CERTIFICATE-----
MIIGFzCCA/+gAwIBAgIUfBYj72tDxxYxi4P29yO3yCV37b4wDQYJKoZIhvcNAQEL
BQAwfjELMAkGA1UEBhMCQ0gxEDAOBgNVBAgTB1RodXJnYXUxEDAOBgNVBAcTB0tl
Zmlrb24xEzARBgNVBAoTCmd1ZW5nZWwuY2gxEDAOBgNVBAMTB0NBIDIwMjIxJDAi
BgkqhkiG9w0BCQEWFXBvc3RtYXN0ZXJAZ3VlbmdlbC5jaDAeFw0yMjAyMTExNTQy
MjlaFw0yMzAzMTgxNTQyMjlaMIGYMQswCQYDVQQGEwJDSDEQMA4GA1UECBMHVGh1
cmdhdTETMBEGA1UEChMKZ3VlbmdlbC5jaDE8MDoGA1UEAxMzZWMyLTMtMTIzLTI0
LTI1MC5ldS1jZW50cmFsLTEuY29tcHV0ZS5hbWF6b25hd3MuY29tMSQwIgYJKoZI
hvcNAQkBFhVwb3N0bWFzdGVyQGd1ZW5nZWwuY2gwggEiMA0GCSqGSIb3DQEBAQUA
A4IBDwAwggEKAoIBAQC/7ExKPMNyujNHAbGgF7IY5Tfrw4DU0AsALIlIYKbZgqYC
3SJqQ1jz4yPqtPeyaJJMnFL/ejg22opho5Gzz3BJ/8GRkMoPBpnUWGl+tfSCmNXG
Jnux7L495gdgADLAEhMnzJq4MqjKUjpT7gQ1n7FC1uTxUd/A5mrtMbRqJUaNCsr1
+slWnYw1fe/DfJpqxbZTS6reXqxnO7I/rTnwyMUltH9dBqcCJCl0Do51v1kvXn0M
C8w+2IOaQhDXkNtc8bM2jovR+aTIrs4JG9h5vGyPi74NaTamB8nD8Yep2L9BdlZp
GCBnbAqyxMLN6n9UJWnsuC5WAiW6ySJT7vNhYY6LAgMBAAGjggFwMIIBbDAMBgNV
HRMBAf8EAjAAMAsGA1UdDwQEAwIDqDAdBgNVHQ4EFgQUZoSRuGFAo5KPsSeWTF3L
+tZuf/Qwgb0GA1UdIwSBtTCBsoAUIiANUUBhQr7dutnJwXe2kyjDmeyhgYOkgYAw
fjELMAkGA1UEBhMCQ0gxEDAOBgNVBAgTB1RodXJnYXUxEDAOBgNVBAcTB0tlZmlr
b24xEzARBgNVBAoTCmd1ZW5nZWwuY2gxEDAOBgNVBAMTB0NBIDIwMjIxJDAiBgkq
hkiG9w0BCQEWFXBvc3RtYXN0ZXJAZ3VlbmdlbC5jaIIUbSmQVOkX6cJq5lKthE4w
jm5X+xwwEQYJYIZIAYb4QgEBBAQDAgbAMB0GA1UdJQQWMBQGCCsGAQUFBwMBBggr
BgEFBQcDAjA+BgNVHREENzA1gjNlYzItMy0xMjMtMjQtMjUwLmV1LWNlbnRyYWwt
MS5jb21wdXRlLmFtYXpvbmF3cy5jb20wDQYJKoZIhvcNAQELBQADggIBAITpCvHD
7iwXDJAql40fI3GUSohRlikhx9ie784+M2/N82Kb9heqZFc27ZzTo7AKVZ2dmyr4
2hPOLL3EWFxQVKfK9FzmSETakaRANzpf8ZIiok2B/Oo9VtlGIh7KgnXbOZEGa0Pi
DvEXNe8FXp2YDSCwDq4PWmkWmpY8+6e63dcLVW9IT69wJvCSiPsw9/FMTE6J3BYs
pKDr9SegbkoDr6zQ6Zr8MeAYZet9SbMVF6Ur4ngVT/fF6wpx9hIvXl2dhlO8UP5o
tlU19+rFSA7r6CcZSjWp3TsFcpHckMg7gs6v3irWggzVVNMhWyXPQlHVYC9RVf9a
dPyYM8roBRHcNp5wzMG+gFj8gQpRaXdqbQ8ZCui3Ar25SLZtU7UswlISW5lzG7h6
flpK7kjNF5uBvto66C+X4b62y8gPAJk3n67cOEIeHtIecHhBelUPpjojsx8w71Xe
wRyVtuVBpzG7PW5hUtcnqSVS3aYvv3H6goEJFiQ4T1Vts94F+rWdE3Kzy3duGsw/
2dKG9Lkr1cLlPdD1LjVzpguhcLmB6AN17AEKhpiXIr5oTHhGkxrOd8X2qnh/fYWI
98cXGC4L0cFJXiQmfp3+G3jX4teTbXXevx9hHlqWhvywWc8jvHZBK8RVqY43V0Tv
/3V7Q4asqyC9TQmrkj6RD1pOhVE1dk7yESfn
-----END CERTIFICATE-----
