Certificate:
    Data:
        Version: 3 (0x2)
        Serial Number:
            01:7f:c7:4e:65:ea:21:49:e7:0f:e3:3f:27:1e:99:fa:75:b7:12:00
        Signature Algorithm: sha256WithRSAEncryption
        Issuer: C=CH, ST=Thurgau, L=Kefikon, O=guengel.ch, CN=CA 2022/emailAddress=postmaster@guengel.ch
        Validity
            Not Before: Feb 11 15:37:01 2022 GMT
            Not After : Mar 18 15:37:01 2023 GMT
        Subject: C=CH, ST=Thurgau, O=guengel.ch, CN=ec2-52-57-75-84.eu-central-1.compute.amazonaws.com/emailAddress=postmaster@guengel.ch
        Subject Public Key Info:
            Public Key Algorithm: rsaEncryption
                RSA Public-Key: (2048 bit)
                Modulus:
                    00:bf:ec:26:1b:e2:f7:23:0c:c9:e0:df:4a:aa:dc:
                    b9:e5:0c:b0:25:32:57:09:80:b3:95:f2:cf:b6:af:
                    41:46:cf:04:1f:9e:97:d5:0d:2a:28:c4:56:4f:d7:
                    16:6c:c8:fa:4e:ea:d8:86:74:f7:d9:9d:93:66:79:
                    f8:f6:e8:24:18:65:64:ef:0d:02:0a:e2:2e:ad:5a:
                    d1:23:e8:62:65:53:3d:f9:1a:81:89:ae:00:f9:0c:
                    e3:06:f8:45:06:58:db:d2:fc:28:f9:86:f2:cb:44:
                    e3:8b:4e:52:3d:79:ab:a1:15:65:09:68:10:43:47:
                    ba:f1:d6:6a:fd:52:17:11:38:3e:4c:b0:7a:73:50:
                    0f:f4:6f:a9:0b:53:ad:b4:57:05:4f:49:12:65:80:
                    51:98:81:b9:44:e6:f3:d7:a6:4b:76:c8:88:c6:28:
                    d4:ec:6a:98:d8:7b:78:fa:cf:54:8d:17:a5:5a:c9:
                    3a:4d:94:c3:00:9e:fe:43:89:18:c8:ff:92:6c:ab:
                    77:8a:ae:59:0e:be:bc:9b:84:46:a8:b9:b8:f8:cf:
                    87:b4:22:5c:8e:80:7f:40:93:09:e8:3a:d0:e0:3f:
                    5b:1a:a5:66:00:25:83:b8:0e:bf:de:d8:13:ad:0f:
                    de:41:cc:3e:43:96:f4:43:d5:87:49:33:fb:97:46:
                    d4:b7
                Exponent: 65537 (0x10001)
        X509v3 extensions:
            X509v3 Basic Constraints: critical
                CA:FALSE
            X509v3 Key Usage: 
                Digital Signature, Key Encipherment, Key Agreement
            X509v3 Subject Key Identifier: 
                E1:69:AE:85:76:72:AE:12:FA:6F:01:D5:29:D7:97:6E:AC:57:68:EC
            X509v3 Authority Key Identifier: 
                keyid:22:20:0D:51:40:61:42:BE:DD:BA:D9:C9:C1:77:B6:93:28:C3:99:EC
                DirName:/C=CH/ST=Thurgau/L=Kefikon/O=guengel.ch/CN=CA 2022/emailAddress=postmaster@guengel.ch
                serial:6D:29:90:54:E9:17:E9:C2:6A:E6:52:AD:84:4E:30:8E:6E:57:FB:1C

            Netscape Cert Type: 
                SSL Client, SSL Server
            X509v3 Extended Key Usage: 
                TLS Web Server Authentication, TLS Web Client Authentication
            X509v3 Subject Alternative Name: 
                DNS:ec2-52-57-75-84.eu-central-1.compute.amazonaws.com
    Signature Algorithm: sha256WithRSAEncryption
         4e:f2:2e:81:53:96:18:63:12:ff:2b:9d:12:ee:a8:f2:15:77:
         7e:43:26:f3:82:7d:fc:77:7f:b8:74:55:30:84:53:b1:90:6e:
         c3:d7:d2:c1:dd:c7:f1:51:fc:8c:a5:da:36:91:f6:54:8a:c9:
         76:eb:68:0e:c7:56:66:cb:fc:4b:ea:14:03:22:d1:d2:fa:ed:
         98:ec:1b:26:ee:bc:8c:72:31:d7:ec:38:f4:2a:2c:8e:76:f5:
         f8:5f:39:82:a6:d2:44:4b:7a:f6:a8:81:0e:31:0b:56:ca:56:
         b0:05:d7:f5:e0:4e:d6:21:5f:00:c5:57:a9:05:54:89:a8:ad:
         6b:fa:08:f4:1c:05:c4:d8:34:34:85:31:4c:66:b2:ea:3e:b0:
         f7:d6:ab:78:ed:06:4f:9a:9a:2a:10:22:6a:c4:5e:c9:85:c5:
         a4:9e:9a:28:ed:6b:82:a1:43:49:07:72:07:09:9f:2b:36:10:
         1e:32:c6:e0:a2:2c:94:f3:82:a5:f5:a3:6f:9f:de:9e:bc:d8:
         dd:d3:4e:0c:79:c3:f0:2b:e4:7e:b2:e6:92:9e:0f:c3:09:32:
         00:23:b1:8e:8b:e5:58:f3:75:fd:1b:e6:14:06:88:20:93:39:
         73:30:c2:97:2a:5e:e0:04:2e:93:c9:18:02:04:0c:ea:a7:da:
         1f:b7:6f:9a:a7:29:b2:36:e5:56:61:54:7d:e6:ea:d1:3f:ec:
         9d:61:32:64:0b:b4:af:54:58:b2:2e:d2:77:dd:c4:60:11:69:
         f9:52:87:97:84:e3:11:50:72:17:64:a9:03:64:5a:48:eb:26:
         1e:2f:55:f0:36:d0:5e:27:67:29:6e:e8:26:4a:4c:99:be:a4:
         47:b0:14:41:46:30:19:02:75:46:d8:5f:f9:62:ce:59:4e:d1:
         4a:53:94:a5:de:88:58:d7:0d:45:cf:c5:b0:7b:80:7d:b9:da:
         a8:de:e2:83:b1:46:b4:93:23:bc:93:9b:82:43:95:cf:3b:52:
         39:ad:d9:25:de:53:1d:17:00:ed:b7:4c:ca:a7:6e:fb:2d:fc:
         ca:a9:2a:6b:1b:34:1b:a5:87:c4:66:a4:35:fe:25:42:c9:b0:
         5d:73:17:eb:5b:d5:a1:43:18:37:c2:17:45:93:5f:bd:8b:1a:
         a7:be:30:8f:18:e4:63:81:0b:00:77:45:fa:f4:a8:53:e1:76:
         f4:29:41:80:4a:4e:eb:77:f1:21:cd:73:24:03:43:a3:79:d1:
         e7:19:ea:30:b6:f2:6c:64:85:78:4a:4d:5d:f9:ee:a9:7c:d6:
         f2:d4:6a:16:29:10:4a:de:86:26:8a:5d:1f:3c:03:7b:bc:71:
         b7:d7:5d:90:96:1c:40:d2
-----BEGIN CERTIFICATE-----
MIIGFTCCA/2gAwIBAgIUAX/HTmXqIUnnD+M/Jx6Z+nW3EgAwDQYJKoZIhvcNAQEL
BQAwfjELMAkGA1UEBhMCQ0gxEDAOBgNVBAgTB1RodXJnYXUxEDAOBgNVBAcTB0tl
Zmlrb24xEzARBgNVBAoTCmd1ZW5nZWwuY2gxEDAOBgNVBAMTB0NBIDIwMjIxJDAi
BgkqhkiG9w0BCQEWFXBvc3RtYXN0ZXJAZ3VlbmdlbC5jaDAeFw0yMjAyMTExNTM3
MDFaFw0yMzAzMTgxNTM3MDFaMIGXMQswCQYDVQQGEwJDSDEQMA4GA1UECBMHVGh1
cmdhdTETMBEGA1UEChMKZ3VlbmdlbC5jaDE7MDkGA1UEAxMyZWMyLTUyLTU3LTc1
LTg0LmV1LWNlbnRyYWwtMS5jb21wdXRlLmFtYXpvbmF3cy5jb20xJDAiBgkqhkiG
9w0BCQEWFXBvc3RtYXN0ZXJAZ3VlbmdlbC5jaDCCASIwDQYJKoZIhvcNAQEBBQAD
ggEPADCCAQoCggEBAL/sJhvi9yMMyeDfSqrcueUMsCUyVwmAs5Xyz7avQUbPBB+e
l9UNKijEVk/XFmzI+k7q2IZ099mdk2Z5+PboJBhlZO8NAgriLq1a0SPoYmVTPfka
gYmuAPkM4wb4RQZY29L8KPmG8stE44tOUj15q6EVZQloEENHuvHWav1SFxE4Pkyw
enNQD/RvqQtTrbRXBU9JEmWAUZiBuUTm89emS3bIiMYo1OxqmNh7ePrPVI0XpVrJ
Ok2UwwCe/kOJGMj/kmyrd4quWQ6+vJuERqi5uPjPh7QiXI6Af0CTCeg60OA/Wxql
ZgAlg7gOv97YE60P3kHMPkOW9EPVh0kz+5dG1LcCAwEAAaOCAW8wggFrMAwGA1Ud
EwEB/wQCMAAwCwYDVR0PBAQDAgOoMB0GA1UdDgQWBBThaa6FdnKuEvpvAdUp15du
rFdo7DCBvQYDVR0jBIG1MIGygBQiIA1RQGFCvt262cnBd7aTKMOZ7KGBg6SBgDB+
MQswCQYDVQQGEwJDSDEQMA4GA1UECBMHVGh1cmdhdTEQMA4GA1UEBxMHS2VmaWtv
bjETMBEGA1UEChMKZ3VlbmdlbC5jaDEQMA4GA1UEAxMHQ0EgMjAyMjEkMCIGCSqG
SIb3DQEJARYVcG9zdG1hc3RlckBndWVuZ2VsLmNoghRtKZBU6RfpwmrmUq2ETjCO
blf7HDARBglghkgBhvhCAQEEBAMCBsAwHQYDVR0lBBYwFAYIKwYBBQUHAwEGCCsG
AQUFBwMCMD0GA1UdEQQ2MDSCMmVjMi01Mi01Ny03NS04NC5ldS1jZW50cmFsLTEu
Y29tcHV0ZS5hbWF6b25hd3MuY29tMA0GCSqGSIb3DQEBCwUAA4ICAQBO8i6BU5YY
YxL/K50S7qjyFXd+Qybzgn38d3+4dFUwhFOxkG7D19LB3cfxUfyMpdo2kfZUisl2
62gOx1Zmy/xL6hQDItHS+u2Y7Bsm7ryMcjHX7Dj0KiyOdvX4XzmCptJES3r2qIEO
MQtWylawBdf14E7WIV8AxVepBVSJqK1r+gj0HAXE2DQ0hTFMZrLqPrD31qt47QZP
mpoqECJqxF7JhcWknpoo7WuCoUNJB3IHCZ8rNhAeMsbgoiyU84Kl9aNvn96evNjd
004MecPwK+R+suaSng/DCTIAI7GOi+VY83X9G+YUBoggkzlzMMKXKl7gBC6TyRgC
BAzqp9oft2+apymyNuVWYVR95urRP+ydYTJkC7SvVFiyLtJ33cRgEWn5UoeXhOMR
UHIXZKkDZFpI6yYeL1XwNtBeJ2cpbugmSkyZvqRHsBRBRjAZAnVG2F/5Ys5ZTtFK
U5Sl3ohY1w1Fz8Wwe4B9udqo3uKDsUa0kyO8k5uCQ5XPO1I5rdkl3lMdFwDtt0zK
p277LfzKqSprGzQbpYfEZqQ1/iVCybBdcxfrW9WhQxg3whdFk1+9ixqnvjCPGORj
gQsAd0X69KhT4Xb0KUGASk7rd/EhzXMkA0OjedHnGeowtvJsZIV4Sk1d+e6pfNby
1GoWKRBK3oYmil0fPAN7vHG3112QlhxA0g==
-----END CERTIFICATE-----
