Certificate:
    Data:
        Version: 3 (0x2)
        Serial Number:
            06:3a:b9:30:a7:10:15:1c:6c:83:47:ee:a7:8a:7f:6e:df:54:93:b4
        Signature Algorithm: sha256WithRSAEncryption
        Issuer: C=CH, ST=Thurgau, L=Kefikon, O=guengel.ch, CN=CA 2022/emailAddress=postmaster@guengel.ch
        Validity
            Not Before: Feb 28 06:39:24 2023 GMT
            Not After : Apr  3 06:39:24 2024 GMT
        Subject: C=CH, ST=Thurgau, O=guengel.ch, CN=ec2-3-123-24-250.eu-central-1.compute.amazonaws.com/emailAddress=postmaster@guengel.ch
        Subject Public Key Info:
            Public Key Algorithm: rsaEncryption
                RSA Public-Key: (2048 bit)
                Modulus:
                    00:bf:ec:4c:4a:3c:c3:72:ba:33:47:01:b1:a0:17:
                    b2:18:e5:37:eb:c3:80:d4:d0:0b:00:2c:89:48:60:
                    a6:d9:82:a6:02:dd:22:6a:43:58:f3:e3:23:ea:b4:
                    f7:b2:68:92:4c:9c:52:ff:7a:38:36:da:8a:61:a3:
                    91:b3:cf:70:49:ff:c1:91:90:ca:0f:06:99:d4:58:
                    69:7e:b5:f4:82:98:d5:c6:26:7b:b1:ec:be:3d:e6:
                    07:60:00:32:c0:12:13:27:cc:9a:b8:32:a8:ca:52:
                    3a:53:ee:04:35:9f:b1:42:d6:e4:f1:51:df:c0:e6:
                    6a:ed:31:b4:6a:25:46:8d:0a:ca:f5:fa:c9:56:9d:
                    8c:35:7d:ef:c3:7c:9a:6a:c5:b6:53:4b:aa:de:5e:
                    ac:67:3b:b2:3f:ad:39:f0:c8:c5:25:b4:7f:5d:06:
                    a7:02:24:29:74:0e:8e:75:bf:59:2f:5e:7d:0c:0b:
                    cc:3e:d8:83:9a:42:10:d7:90:db:5c:f1:b3:36:8e:
                    8b:d1:f9:a4:c8:ae:ce:09:1b:d8:79:bc:6c:8f:8b:
                    be:0d:69:36:a6:07:c9:c3:f1:87:a9:d8:bf:41:76:
                    56:69:18:20:67:6c:0a:b2:c4:c2:cd:ea:7f:54:25:
                    69:ec:b8:2e:56:02:25:ba:c9:22:53:ee:f3:61:61:
                    8e:8b
                Exponent: 65537 (0x10001)
        X509v3 extensions:
            X509v3 Basic Constraints: critical
                CA:FALSE
            X509v3 Key Usage: 
                Digital Signature, Key Encipherment, Key Agreement
            X509v3 Subject Key Identifier: 
                66:84:91:B8:61:40:A3:92:8F:B1:27:96:4C:5D:CB:FA:D6:6E:7F:F4
            X509v3 Authority Key Identifier: 
                keyid:22:20:0D:51:40:61:42:BE:DD:BA:D9:C9:C1:77:B6:93:28:C3:99:EC
                DirName:/C=CH/ST=Thurgau/L=Kefikon/O=guengel.ch/CN=CA 2022/emailAddress=postmaster@guengel.ch
                serial:6D:29:90:54:E9:17:E9:C2:6A:E6:52:AD:84:4E:30:8E:6E:57:FB:1C

            Netscape Cert Type: 
                SSL Client, SSL Server
            X509v3 Extended Key Usage: 
                TLS Web Server Authentication, TLS Web Client Authentication
            X509v3 Subject Alternative Name: 
                DNS:ec2-3-123-24-250.eu-central-1.compute.amazonaws.com
    Signature Algorithm: sha256WithRSAEncryption
         9c:04:0e:69:f9:be:6a:d6:7c:4f:be:c8:04:13:56:67:f3:aa:
         ab:b8:e3:59:e4:98:19:25:87:31:c9:f9:1e:df:24:b5:a8:1c:
         81:aa:2c:f2:c2:82:7b:94:e5:d2:bf:89:ab:c4:c4:a1:56:5e:
         5a:83:46:15:0c:29:b7:30:f8:4c:bc:03:f2:6b:8c:33:aa:cf:
         6d:86:b3:9e:f2:03:bc:60:5a:73:15:f0:f0:7e:48:b0:ac:55:
         31:b7:1c:7d:69:f5:85:19:97:30:bf:71:8e:bc:e7:20:02:ad:
         e6:43:ef:89:0d:29:43:1f:24:b3:d2:5e:94:92:42:dd:83:1b:
         36:3c:60:10:35:71:a2:cf:b6:ec:9d:a1:ba:ff:8a:80:14:05:
         6c:9a:e4:9b:79:a3:b7:18:93:1a:e3:37:60:a4:fb:7d:6d:e5:
         7f:a5:ce:1e:cc:99:2e:1d:ea:e9:4b:f0:74:50:5a:8f:e2:ed:
         c6:c6:9a:56:e6:9e:13:ed:94:d0:f4:2f:5f:57:8e:bc:d5:80:
         31:e1:fc:08:7f:1a:98:55:93:21:cf:4e:70:61:10:ce:a4:6b:
         80:54:73:78:a9:74:5d:b9:f1:cb:7b:13:f6:d1:97:04:f1:dc:
         54:72:6e:b9:20:71:ae:4f:78:95:25:0b:21:34:65:2b:ab:73:
         fa:04:9d:fc:b7:c2:02:a4:13:d7:b1:d5:92:12:9f:66:98:c8:
         eb:86:94:a2:7a:e5:49:3e:36:37:2c:62:a2:1c:ad:b2:9c:69:
         be:8e:dc:f3:6b:b7:20:d6:06:b5:c4:6c:d4:5c:97:50:9a:ec:
         d3:83:13:9f:17:33:6d:ff:13:82:65:b0:6e:c4:45:bf:4a:64:
         d0:ec:47:98:f9:59:3f:d7:86:5a:e6:b0:f0:93:a0:3e:1c:70:
         38:be:d9:20:45:20:5d:cc:72:ab:b5:2b:56:3b:c4:8d:3b:4e:
         7c:bb:f5:f2:21:cc:28:65:23:08:42:12:62:ad:a5:e6:4a:9e:
         3e:89:bc:a7:33:e5:c3:a5:96:6a:dd:c8:62:7a:16:98:c4:54:
         5a:f9:ae:d5:64:32:7d:a4:42:d7:16:25:ea:09:12:3f:84:82:
         21:e6:48:a2:0d:66:67:48:72:a4:bb:81:0e:70:59:98:99:c7:
         a3:3b:d2:fd:28:6d:04:cb:d0:8c:e9:0a:4f:b4:ac:e9:1e:7b:
         33:e4:67:e8:b3:e4:81:dc:67:6e:72:90:3a:09:8b:b6:ff:c0:
         e2:f2:50:e7:a7:4d:22:aa:d5:e4:20:8b:ca:ab:d1:d5:b4:c7:
         79:ce:55:54:df:7a:43:86:82:1f:e6:8d:c5:c1:82:d5:82:c2:
         87:0b:e9:65:f7:68:0c:4c
-----BEGIN CERTIFICATE-----
MIIGFzCCA/+gAwIBAgIUBjq5MKcQFRxsg0fup4p/bt9Uk7QwDQYJKoZIhvcNAQEL
BQAwfjELMAkGA1UEBhMCQ0gxEDAOBgNVBAgTB1RodXJnYXUxEDAOBgNVBAcTB0tl
Zmlrb24xEzARBgNVBAoTCmd1ZW5nZWwuY2gxEDAOBgNVBAMTB0NBIDIwMjIxJDAi
BgkqhkiG9w0BCQEWFXBvc3RtYXN0ZXJAZ3VlbmdlbC5jaDAeFw0yMzAyMjgwNjM5
MjRaFw0yNDA0MDMwNjM5MjRaMIGYMQswCQYDVQQGEwJDSDEQMA4GA1UECBMHVGh1
cmdhdTETMBEGA1UEChMKZ3VlbmdlbC5jaDE8MDoGA1UEAxMzZWMyLTMtMTIzLTI0
LTI1MC5ldS1jZW50cmFsLTEuY29tcHV0ZS5hbWF6b25hd3MuY29tMSQwIgYJKoZI
hvcNAQkBFhVwb3N0bWFzdGVyQGd1ZW5nZWwuY2gwggEiMA0GCSqGSIb3DQEBAQUA
A4IBDwAwggEKAoIBAQC/7ExKPMNyujNHAbGgF7IY5Tfrw4DU0AsALIlIYKbZgqYC
3SJqQ1jz4yPqtPeyaJJMnFL/ejg22opho5Gzz3BJ/8GRkMoPBpnUWGl+tfSCmNXG
Jnux7L495gdgADLAEhMnzJq4MqjKUjpT7gQ1n7FC1uTxUd/A5mrtMbRqJUaNCsr1
+slWnYw1fe/DfJpqxbZTS6reXqxnO7I/rTnwyMUltH9dBqcCJCl0Do51v1kvXn0M
C8w+2IOaQhDXkNtc8bM2jovR+aTIrs4JG9h5vGyPi74NaTamB8nD8Yep2L9BdlZp
GCBnbAqyxMLN6n9UJWnsuC5WAiW6ySJT7vNhYY6LAgMBAAGjggFwMIIBbDAMBgNV
HRMBAf8EAjAAMAsGA1UdDwQEAwIDqDAdBgNVHQ4EFgQUZoSRuGFAo5KPsSeWTF3L
+tZuf/Qwgb0GA1UdIwSBtTCBsoAUIiANUUBhQr7dutnJwXe2kyjDmeyhgYOkgYAw
fjELMAkGA1UEBhMCQ0gxEDAOBgNVBAgTB1RodXJnYXUxEDAOBgNVBAcTB0tlZmlr
b24xEzARBgNVBAoTCmd1ZW5nZWwuY2gxEDAOBgNVBAMTB0NBIDIwMjIxJDAiBgkq
hkiG9w0BCQEWFXBvc3RtYXN0ZXJAZ3VlbmdlbC5jaIIUbSmQVOkX6cJq5lKthE4w
jm5X+xwwEQYJYIZIAYb4QgEBBAQDAgbAMB0GA1UdJQQWMBQGCCsGAQUFBwMBBggr
BgEFBQcDAjA+BgNVHREENzA1gjNlYzItMy0xMjMtMjQtMjUwLmV1LWNlbnRyYWwt
MS5jb21wdXRlLmFtYXpvbmF3cy5jb20wDQYJKoZIhvcNAQELBQADggIBAJwEDmn5
vmrWfE++yAQTVmfzqqu441nkmBklhzHJ+R7fJLWoHIGqLPLCgnuU5dK/iavExKFW
XlqDRhUMKbcw+Ey8A/JrjDOqz22Gs57yA7xgWnMV8PB+SLCsVTG3HH1p9YUZlzC/
cY685yACreZD74kNKUMfJLPSXpSSQt2DGzY8YBA1caLPtuydobr/ioAUBWya5Jt5
o7cYkxrjN2Ck+31t5X+lzh7MmS4d6ulL8HRQWo/i7cbGmlbmnhPtlND0L19XjrzV
gDHh/Ah/GphVkyHPTnBhEM6ka4BUc3ipdF258ct7E/bRlwTx3FRybrkgca5PeJUl
CyE0ZSurc/oEnfy3wgKkE9ex1ZISn2aYyOuGlKJ65Uk+NjcsYqIcrbKcab6O3PNr
tyDWBrXEbNRcl1Ca7NODE58XM23/E4JlsG7ERb9KZNDsR5j5WT/XhlrmsPCToD4c
cDi+2SBFIF3Mcqu1K1Y7xI07Tny79fIhzChlIwhCEmKtpeZKnj6JvKcz5cOllmrd
yGJ6FpjEVFr5rtVkMn2kQtcWJeoJEj+EgiHmSKINZmdIcqS7gQ5wWZiZx6M70v0o
bQTL0IzpCk+0rOkeezPkZ+iz5IHcZ25ykDoJi7b/wOLyUOenTSKq1eQgi8qr0dW0
x3nOVVTfekOGgh/mjcXBgtWCwocL6WX3aAxM
-----END CERTIFICATE-----
