Certificate:
    Data:
        Version: 3 (0x2)
        Serial Number: 404 (0x194)
        Signature Algorithm: sha256WithRSAEncryption
        Issuer: C=CH, ST=Thurgau, L=Kefikon, O=guengel.ch, CN=CA guengel.ch/emailAddress=postmaster@guengel.ch
        Validity
            Not Before: Aug 16 08:27:48 2020 GMT
            Not After : Sep 20 08:27:48 2021 GMT
        Subject: C=CH, ST=Thurgau, O=guengel.ch, CN=ec2-52-29-59-221.eu-central-1.compute.amazonaws.com/emailAddress=postmaster@guengel.ch
        Subject Public Key Info:
            Public Key Algorithm: rsaEncryption
                RSA Public-Key: (2048 bit)
                Modulus:
                    00:cf:e5:ac:e9:88:ad:c5:73:70:51:03:58:30:86:
                    2d:45:dc:99:70:93:7d:56:7c:5f:d6:59:bd:ce:9b:
                    c3:e4:e2:43:b2:72:20:63:be:09:30:29:52:5d:4f:
                    79:eb:1d:db:b9:b8:23:fb:43:08:6f:1b:78:bc:41:
                    eb:71:cc:b8:e1:16:9c:ae:4e:dc:ba:d6:37:f1:68:
                    f5:c1:7a:84:d7:8e:de:95:38:79:ec:ab:ef:75:bb:
                    15:db:b3:20:f6:1c:ad:e7:6b:c1:53:8e:c0:8e:e9:
                    56:71:7e:74:77:cc:a4:45:40:a1:af:b8:f4:4e:3b:
                    f2:a5:0d:dc:21:00:24:4d:ef:5f:4b:2b:d4:72:82:
                    77:ed:ce:88:27:84:ca:28:f3:a5:68:28:96:98:b9:
                    07:03:c9:91:e1:12:ad:47:a7:37:df:da:b2:f2:5b:
                    86:7d:7b:5a:a0:0f:40:05:e0:8f:68:b6:27:c9:fa:
                    fd:b3:e8:8c:e5:d1:5e:1e:b3:6b:a9:d6:a0:e6:ee:
                    c5:2f:d2:20:34:fd:ea:7f:a4:c8:20:63:82:36:9d:
                    da:3b:7c:da:b7:47:4b:8e:4e:3d:fc:1b:9a:bd:1f:
                    c1:c6:d2:4b:ea:3f:ee:dc:60:f4:09:84:f1:9c:33:
                    7b:7f:7c:96:2d:68:65:2a:77:39:90:b2:89:9b:34:
                    b2:c1
                Exponent: 65537 (0x10001)
        X509v3 extensions:
            X509v3 Basic Constraints: 
                CA:FALSE
            X509v3 Key Usage: 
                Digital Signature, Key Agreement
            Netscape Cert Type: 
                SSL Client, SSL Server
            X509v3 Extended Key Usage: 
                TLS Web Server Authentication, TLS Web Client Authentication
            X509v3 Subject Alternative Name: 
                DNS:ec2-52-29-59-221.eu-central-1.compute.amazonaws.com
    Signature Algorithm: sha256WithRSAEncryption
         90:91:54:1c:f3:c2:83:90:4f:36:9f:ec:09:28:80:9f:41:bc:
         be:ea:73:cc:ef:8f:c7:ea:af:82:4f:52:f7:5f:e8:03:cc:cf:
         32:f9:f1:cd:54:05:4c:f7:fa:ec:c6:43:a5:de:bb:56:4b:e2:
         3f:af:8b:1a:0b:57:f7:81:e5:72:ab:80:e9:b2:f6:78:3c:0b:
         27:8e:0e:c1:e0:b7:91:3e:f6:40:7f:1f:32:7a:dd:9b:6e:b6:
         ca:25:ff:08:55:b3:eb:c4:75:69:cd:d5:cf:5d:82:5c:7e:56:
         80:02:ef:c6:d3:dd:01:48:d5:a7:90:7b:ab:a6:2c:3d:19:9e:
         20:6f:76:b7:1b:40:76:cb:15:c7:62:9b:3b:aa:7a:b5:d7:97:
         b6:dc:61:b4:b9:5f:1b:1e:b7:6b:53:40:b7:45:a3:68:7a:f9:
         ab:65:9e:3e:a9:7a:46:48:e5:8e:80:b0:f2:4e:66:50:9a:06:
         8d:c4:73:db:c8:4c:72:ed:6d:30:9c:f0:52:f3:7f:52:4c:00:
         ab:41:b0:ee:cd:33:f5:96:11:dc:d2:c6:ed:f8:ec:56:83:e5:
         fe:59:e1:56:cf:ad:c6:42:39:d5:e9:95:5b:0e:1f:72:5d:c6:
         ab:a4:71:bc:af:5e:9f:76:39:16:8a:30:96:f7:ac:eb:6e:36:
         51:d0:dd:a7:10:4f:8b:c9:72:63:5e:c6:a5:07:40:c4:24:88:
         21:9d:8c:fd:4c:39:a5:8f:7a:55:75:22:89:5a:71:e7:0e:63:
         05:09:95:e8:95:78:8a:e8:47:b7:05:09:82:3c:68:61:85:bb:
         25:6a:f5:b8:b3:62:01:15:06:19:1f:6c:27:43:46:e7:7d:41:
         6a:d1:b7:4b:5b:7c:37:f0:bf:62:59:d5:13:92:c4:97:46:c1:
         44:b0:27:e3:0e:25:20:93:b9:50:c4:24:a4:6c:4a:e2:4b:54:
         df:58:20:2d:6f:e9:73:df:a3:93:1f:83:49:3d:f8:23:db:4d:
         35:1d:23:06:11:93:70:90:71:22:bf:df:6b:08:4b:3e:b1:7b:
         38:7e:21:a3:df:27:9a:91:be:ed:46:0f:53:f7:ea:b2:00:75:
         60:cb:9d:42:c0:25:69:b2:3f:cd:cd:f9:3b:17:a1:74:f1:ba:
         08:ee:0a:8c:79:9d:53:ab:f9:ff:fe:ca:96:a2:ef:8d:8b:59:
         8c:ae:77:24:55:c5:6f:1f:81:1f:d1:1f:9e:77:49:9c:5c:bb:
         f9:38:3e:45:fb:fc:e6:78:8d:07:39:8a:96:14:9f:7f:91:57:
         39:a0:7b:3f:3b:82:a3:63:18:ba:9b:31:05:ca:ed:f7:06:23:
         c6:7b:3e:f3:73:ad:d5:e1
-----BEGIN CERTIFICATE-----
MIIFKDCCAxCgAwIBAgICAZQwDQYJKoZIhvcNAQELBQAwgYQxCzAJBgNVBAYTAkNI
MRAwDgYDVQQIEwdUaHVyZ2F1MRAwDgYDVQQHEwdLZWZpa29uMRMwEQYDVQQKEwpn
dWVuZ2VsLmNoMRYwFAYDVQQDEw1DQSBndWVuZ2VsLmNoMSQwIgYJKoZIhvcNAQkB
FhVwb3N0bWFzdGVyQGd1ZW5nZWwuY2gwHhcNMjAwODE2MDgyNzQ4WhcNMjEwOTIw
MDgyNzQ4WjCBmDELMAkGA1UEBhMCQ0gxEDAOBgNVBAgTB1RodXJnYXUxEzARBgNV
BAoTCmd1ZW5nZWwuY2gxPDA6BgNVBAMTM2VjMi01Mi0yOS01OS0yMjEuZXUtY2Vu
dHJhbC0xLmNvbXB1dGUuYW1hem9uYXdzLmNvbTEkMCIGCSqGSIb3DQEJARYVcG9z
dG1hc3RlckBndWVuZ2VsLmNoMIIBIjANBgkqhkiG9w0BAQEFAAOCAQ8AMIIBCgKC
AQEAz+Ws6YitxXNwUQNYMIYtRdyZcJN9Vnxf1lm9zpvD5OJDsnIgY74JMClSXU95
6x3bubgj+0MIbxt4vEHrccy44Racrk7cutY38Wj1wXqE147elTh57KvvdbsV27Mg
9hyt52vBU47AjulWcX50d8ykRUChr7j0TjvypQ3cIQAkTe9fSyvUcoJ37c6IJ4TK
KPOlaCiWmLkHA8mR4RKtR6c339qy8luGfXtaoA9ABeCPaLYnyfr9s+iM5dFeHrNr
qdag5u7FL9IgNP3qf6TIIGOCNp3aO3zat0dLjk49/BuavR/BxtJL6j/u3GD0CYTx
nDN7f3yWLWhlKnc5kLKJmzSywQIDAQABo4GNMIGKMAkGA1UdEwQCMAAwCwYDVR0P
BAQDAgOIMBEGCWCGSAGG+EIBAQQEAwIGwDAdBgNVHSUEFjAUBggrBgEFBQcDAQYI
KwYBBQUHAwIwPgYDVR0RBDcwNYIzZWMyLTUyLTI5LTU5LTIyMS5ldS1jZW50cmFs
LTEuY29tcHV0ZS5hbWF6b25hd3MuY29tMA0GCSqGSIb3DQEBCwUAA4ICAQCQkVQc
88KDkE82n+wJKICfQby+6nPM74/H6q+CT1L3X+gDzM8y+fHNVAVM9/rsxkOl3rtW
S+I/r4saC1f3geVyq4DpsvZ4PAsnjg7B4LeRPvZAfx8yet2bbrbKJf8IVbPrxHVp
zdXPXYJcflaAAu/G090BSNWnkHurpiw9GZ4gb3a3G0B2yxXHYps7qnq115e23GG0
uV8bHrdrU0C3RaNoevmrZZ4+qXpGSOWOgLDyTmZQmgaNxHPbyExy7W0wnPBS839S
TACrQbDuzTP1lhHc0sbt+OxWg+X+WeFWz63GQjnV6ZVbDh9yXcarpHG8r16fdjkW
ijCW96zrbjZR0N2nEE+LyXJjXsalB0DEJIghnYz9TDmlj3pVdSKJWnHnDmMFCZXo
lXiK6Ee3BQmCPGhhhbslavW4s2IBFQYZH2wnQ0bnfUFq0bdLW3w38L9iWdUTksSX
RsFEsCfjDiUgk7lQxCSkbEriS1TfWCAtb+lz36OTH4NJPfgj2001HSMGEZNwkHEi
v99rCEs+sXs4fiGj3yeakb7tRg9T9+qyAHVgy51CwCVpsj/Nzfk7F6F08boI7gqM
eZ1Tq/n//sqWou+Ni1mMrnckVcVvH4Ef0R+ed0mcXLv5OD5F+/zmeI0HOYqWFJ9/
kVc5oHs/O4KjYxi6mzEFyu33BiPGez7zc63V4Q==
-----END CERTIFICATE-----
