Certificate:
    Data:
        Version: 3 (0x2)
        Serial Number: 401 (0x191)
        Signature Algorithm: sha256WithRSAEncryption
        Issuer: C=CH, ST=Thurgau, L=Kefikon, O=guengel.ch, CN=CA guengel.ch/emailAddress=postmaster@guengel.ch
        Validity
            Not Before: Aug 16 08:27:45 2020 GMT
            Not After : Sep 20 08:27:45 2021 GMT
        Subject: C=CH, ST=Thurgau, O=guengel.ch, CN=ec2-18-157-49-147.eu-central-1.compute.amazonaws.com/emailAddress=postmaster@guengel.ch
        Subject Public Key Info:
            Public Key Algorithm: rsaEncryption
                RSA Public-Key: (2048 bit)
                Modulus:
                    00:a5:62:a6:76:d9:bd:8e:83:5e:ff:af:7f:34:e1:
                    01:e4:aa:cc:65:7e:df:d9:63:81:d1:3d:f3:ea:c7:
                    a6:16:65:79:77:cb:3f:e5:2e:e4:bd:ce:73:8c:0a:
                    59:7f:3c:1a:e4:46:b0:ba:2f:7a:bc:e0:7c:d2:10:
                    02:b6:26:6d:fa:0c:bc:97:e6:5a:73:ee:7f:b2:e2:
                    45:bc:9d:00:4b:9b:f7:83:dc:f6:ac:50:8f:ae:cb:
                    7c:27:01:88:5d:57:8c:da:b5:b6:a6:85:ee:3a:cf:
                    3a:57:0f:16:cf:2d:01:76:28:50:3b:eb:b2:47:2c:
                    73:85:3c:b4:10:68:c5:1c:6e:6d:29:81:a9:f1:08:
                    33:01:e1:ef:d4:0c:58:65:c7:cd:0a:c7:11:f7:73:
                    20:69:6e:18:2b:b8:82:ad:09:9d:0b:ce:1e:04:a8:
                    b5:b3:d8:82:1c:57:79:d4:f7:f4:22:b3:cf:4f:b4:
                    97:f4:bc:3b:33:10:59:12:c1:ac:48:26:96:dc:cc:
                    bf:16:17:20:31:62:b4:15:7a:31:60:81:09:6e:06:
                    e6:5c:d8:61:92:67:42:a7:a7:8b:0d:e0:3a:b7:65:
                    f0:d7:b6:10:e7:4f:b6:08:43:ac:a5:b0:32:c4:0b:
                    27:5e:62:f9:53:67:90:cb:b9:af:d8:68:00:cb:72:
                    d8:09
                Exponent: 65537 (0x10001)
        X509v3 extensions:
            X509v3 Basic Constraints: 
                CA:FALSE
            X509v3 Key Usage: 
                Digital Signature, Key Agreement
            Netscape Cert Type: 
                SSL Client, SSL Server
            X509v3 Extended Key Usage: 
                TLS Web Server Authentication, TLS Web Client Authentication
            X509v3 Subject Alternative Name: 
                DNS:ec2-18-157-49-147.eu-central-1.compute.amazonaws.com
    Signature Algorithm: sha256WithRSAEncryption
         0b:82:9c:d1:14:c9:6d:cc:cb:e7:01:b0:bb:60:a7:9d:43:3c:
         dd:a3:48:7e:75:a3:08:3c:47:7e:ba:ac:ae:86:5a:3d:3e:41:
         79:1a:8f:a2:7a:00:cd:46:d0:70:2a:2b:ee:0d:c5:35:0f:3a:
         28:f1:0b:c3:ec:b7:d3:9b:9f:f1:4b:37:4b:28:66:45:92:4b:
         b5:59:3f:d4:01:9d:3c:0a:c1:c8:b8:c5:f4:d8:1b:ff:a6:6d:
         ee:eb:9a:dc:d3:9a:27:92:81:13:79:64:e2:0f:ad:f2:28:e2:
         dd:72:10:13:8f:72:13:a3:7e:1e:80:ac:c5:1b:51:8e:f9:87:
         0b:e6:1c:d5:b1:f3:27:b0:91:cc:40:6a:77:07:69:a0:f1:a8:
         c6:fd:65:41:4e:1c:25:cb:4b:24:e3:90:35:a5:5b:f0:f4:b3:
         69:57:2e:c8:3d:fc:55:d9:af:da:50:61:79:d4:29:65:ce:a2:
         53:4d:58:ff:23:bf:2c:fa:0f:06:42:b2:ee:87:8c:82:8b:28:
         5e:72:90:57:ae:f7:34:e0:c2:b3:d2:7a:ca:c0:83:34:b8:d9:
         bd:8c:ba:45:b5:16:da:b6:2c:21:11:61:8f:4e:16:df:9c:97:
         6b:45:63:91:43:8d:15:b1:08:c4:11:3b:34:bf:ad:37:a8:69:
         80:30:36:76:2e:99:2a:b1:59:90:6e:6b:bb:e6:0c:06:5e:94:
         62:9d:e8:66:57:4d:ec:de:25:64:56:39:30:f9:c8:9e:29:56:
         a2:54:40:a5:b5:9f:4c:cf:c8:c5:d8:66:8a:38:c6:38:6f:79:
         ad:a5:72:67:ef:52:fc:85:3b:3b:51:2a:3a:78:7d:79:45:98:
         5b:d5:dd:f5:68:a9:57:a8:b9:d7:09:52:94:b6:8c:b5:7e:cb:
         3d:c0:b0:65:06:b6:c9:32:a8:c1:e0:4d:f0:a6:af:b6:c2:8d:
         86:bf:07:73:b3:5c:1b:d1:e8:b1:0b:df:90:ba:6f:98:71:d1:
         3e:56:6d:78:d3:fc:de:9a:21:24:8d:3d:b0:1d:5b:ef:89:4d:
         df:3b:61:dc:0d:13:29:03:a7:60:45:5c:2f:84:a0:09:5f:9c:
         cf:bf:4a:ad:38:4f:9e:20:dc:0d:76:b2:5c:bf:fe:15:61:26:
         5f:f4:40:fc:2f:ed:a1:20:16:9e:95:31:9c:a3:60:22:2a:e0:
         7a:3a:83:fa:b1:3d:f5:66:22:fd:a8:b3:85:63:8c:b3:0e:53:
         01:a9:89:7a:8b:0a:ba:5f:e5:47:dd:f6:ae:ac:ba:e9:2c:4b:
         d5:1e:95:c3:8d:89:d4:71:1e:1b:e4:23:48:4a:21:09:d7:66:
         cf:ac:f1:14:8d:5c:59:6e
-----BEGIN CERTIFICATE-----
MIIFKjCCAxKgAwIBAgICAZEwDQYJKoZIhvcNAQELBQAwgYQxCzAJBgNVBAYTAkNI
MRAwDgYDVQQIEwdUaHVyZ2F1MRAwDgYDVQQHEwdLZWZpa29uMRMwEQYDVQQKEwpn
dWVuZ2VsLmNoMRYwFAYDVQQDEw1DQSBndWVuZ2VsLmNoMSQwIgYJKoZIhvcNAQkB
FhVwb3N0bWFzdGVyQGd1ZW5nZWwuY2gwHhcNMjAwODE2MDgyNzQ1WhcNMjEwOTIw
MDgyNzQ1WjCBmTELMAkGA1UEBhMCQ0gxEDAOBgNVBAgTB1RodXJnYXUxEzARBgNV
BAoTCmd1ZW5nZWwuY2gxPTA7BgNVBAMTNGVjMi0xOC0xNTctNDktMTQ3LmV1LWNl
bnRyYWwtMS5jb21wdXRlLmFtYXpvbmF3cy5jb20xJDAiBgkqhkiG9w0BCQEWFXBv
c3RtYXN0ZXJAZ3VlbmdlbC5jaDCCASIwDQYJKoZIhvcNAQEBBQADggEPADCCAQoC
ggEBAKVipnbZvY6DXv+vfzThAeSqzGV+39ljgdE98+rHphZleXfLP+Uu5L3Oc4wK
WX88GuRGsLoverzgfNIQArYmbfoMvJfmWnPuf7LiRbydAEub94Pc9qxQj67LfCcB
iF1XjNq1tqaF7jrPOlcPFs8tAXYoUDvrskcsc4U8tBBoxRxubSmBqfEIMwHh79QM
WGXHzQrHEfdzIGluGCu4gq0JnQvOHgSotbPYghxXedT39CKzz0+0l/S8OzMQWRLB
rEgmltzMvxYXIDFitBV6MWCBCW4G5lzYYZJnQqeniw3gOrdl8Ne2EOdPtghDrKWw
MsQLJ15i+VNnkMu5r9hoAMty2AkCAwEAAaOBjjCBizAJBgNVHRMEAjAAMAsGA1Ud
DwQEAwIDiDARBglghkgBhvhCAQEEBAMCBsAwHQYDVR0lBBYwFAYIKwYBBQUHAwEG
CCsGAQUFBwMCMD8GA1UdEQQ4MDaCNGVjMi0xOC0xNTctNDktMTQ3LmV1LWNlbnRy
YWwtMS5jb21wdXRlLmFtYXpvbmF3cy5jb20wDQYJKoZIhvcNAQELBQADggIBAAuC
nNEUyW3My+cBsLtgp51DPN2jSH51owg8R366rK6GWj0+QXkaj6J6AM1G0HAqK+4N
xTUPOijxC8Pst9Obn/FLN0soZkWSS7VZP9QBnTwKwci4xfTYG/+mbe7rmtzTmieS
gRN5ZOIPrfIo4t1yEBOPchOjfh6ArMUbUY75hwvmHNWx8yewkcxAancHaaDxqMb9
ZUFOHCXLSyTjkDWlW/D0s2lXLsg9/FXZr9pQYXnUKWXOolNNWP8jvyz6DwZCsu6H
jIKLKF5ykFeu9zTgwrPSesrAgzS42b2MukW1Ftq2LCERYY9OFt+cl2tFY5FDjRWx
CMQROzS/rTeoaYAwNnYumSqxWZBua7vmDAZelGKd6GZXTezeJWRWOTD5yJ4pVqJU
QKW1n0zPyMXYZoo4xjhvea2lcmfvUvyFOztRKjp4fXlFmFvV3fVoqVeoudcJUpS2
jLV+yz3AsGUGtskyqMHgTfCmr7bCjYa/B3OzXBvR6LEL35C6b5hx0T5WbXjT/N6a
ISSNPbAdW++JTd87YdwNEykDp2BFXC+EoAlfnM+/Sq04T54g3A12sly//hVhJl/0
QPwv7aEgFp6VMZyjYCIq4Ho6g/qxPfVmIv2os4VjjLMOUwGpiXqLCrpf5Ufd9q6s
uuksS9UelcONidRxHhvkI0hKIQnXZs+s8RSNXFlu
-----END CERTIFICATE-----
