Certificate:
    Data:
        Version: 3 (0x2)
        Serial Number:
            30:45:d3:f5:af:67:1b:0b:cc:59:ea:dc:dd:f7:f3:93:ee:48:55:8c
        Signature Algorithm: sha256WithRSAEncryption
        Issuer: C=CH, ST=Thurgau, L=Kefikon, O=guengel.ch, CN=CA 2022/emailAddress=postmaster@guengel.ch
        Validity
            Not Before: Dec 30 08:45:48 2023 GMT
            Not After : Feb  2 08:45:48 2025 GMT
        Subject: C=CH, ST=Thurgau, O=guengel.ch, CN=ec2-52-29-59-221.eu-central-1.compute.amazonaws.com/emailAddress=postmaster@guengel.ch
        Subject Public Key Info:
            Public Key Algorithm: rsaEncryption
                RSA Public-Key: (2048 bit)
                Modulus:
                    00:c6:0d:14:d1:65:0c:a5:4f:c1:42:82:af:84:a6:
                    ad:d6:f4:84:a2:df:af:b1:46:7d:ca:46:ab:50:80:
                    17:02:97:c7:d8:50:f4:97:30:36:68:2a:e1:18:15:
                    e5:32:97:a7:10:f2:57:f8:2b:65:45:6b:2c:37:09:
                    88:c7:07:f7:3a:1d:ee:88:8f:27:a9:ff:53:26:e5:
                    5b:b5:27:df:3f:d0:3c:1b:af:97:e5:0e:0f:83:f9:
                    37:49:ca:4c:2a:e4:96:d7:6b:fd:e5:66:e3:70:9b:
                    5f:47:df:46:fb:6a:27:e4:99:19:0f:81:0e:73:76:
                    df:37:20:e2:c9:d3:2c:af:e2:d8:a9:d6:7c:2a:48:
                    55:25:df:3f:ac:ff:34:3d:3a:1c:57:9f:dc:43:7c:
                    53:8e:03:a5:16:cd:60:9e:16:9d:b2:1c:06:c4:94:
                    27:3a:2f:27:c2:8e:c9:52:f5:bb:a4:cf:57:d5:e5:
                    89:8b:13:3f:1e:d9:71:92:92:51:5a:f2:a6:18:e5:
                    76:3f:83:6e:1e:35:6b:72:dd:04:fb:4d:28:96:fc:
                    4b:30:08:19:d1:77:23:96:6e:7f:ee:7d:d9:fc:56:
                    97:42:c8:2b:31:df:0c:70:35:67:4f:80:4a:dd:06:
                    e3:f8:67:ec:1d:e8:e3:4a:ad:83:0c:d7:c5:70:48:
                    6f:37
                Exponent: 65537 (0x10001)
        X509v3 extensions:
            X509v3 Basic Constraints: critical
                CA:FALSE
            X509v3 Key Usage: 
                Digital Signature, Key Encipherment, Key Agreement
            X509v3 Subject Key Identifier: 
                42:AC:BC:3D:24:ED:7D:C7:3D:C5:DB:0A:47:5E:93:E5:6A:87:DF:E5
            X509v3 Authority Key Identifier: 
                keyid:22:20:0D:51:40:61:42:BE:DD:BA:D9:C9:C1:77:B6:93:28:C3:99:EC
                DirName:/C=CH/ST=Thurgau/L=Kefikon/O=guengel.ch/CN=CA 2022/emailAddress=postmaster@guengel.ch
                serial:6D:29:90:54:E9:17:E9:C2:6A:E6:52:AD:84:4E:30:8E:6E:57:FB:1C

            Netscape Cert Type: 
                SSL Client, SSL Server
            X509v3 Extended Key Usage: 
                TLS Web Server Authentication, TLS Web Client Authentication
            X509v3 Subject Alternative Name: 
                DNS:ec2-52-29-59-221.eu-central-1.compute.amazonaws.com
    Signature Algorithm: sha256WithRSAEncryption
         9b:15:22:71:00:69:d5:92:a7:ee:d0:80:7d:57:ba:ec:25:c2:
         3d:8e:c7:8f:94:6d:f0:d6:93:bd:f1:84:9f:8f:fa:95:42:0f:
         c8:d7:ca:ad:0e:e7:a3:8e:43:93:62:fd:9d:8f:e8:df:cb:74:
         63:9a:f6:5a:5c:36:75:e7:eb:71:47:12:16:2e:db:b1:13:b5:
         dd:57:d7:14:28:11:ff:30:7c:d9:57:af:ce:fe:cb:35:96:08:
         d0:a4:30:83:d5:58:c7:d6:55:f3:e7:b8:17:f2:fa:fb:c2:e2:
         95:df:c5:d6:58:b6:ea:19:09:72:3c:2f:36:ee:48:67:b2:88:
         c8:a3:ef:1c:e4:ad:69:af:d7:be:5b:d2:d0:e4:5a:ff:c0:39:
         46:96:a3:3c:2d:d7:91:5c:72:c6:d8:24:dc:ef:fe:f5:0f:58:
         8a:87:ec:4d:64:39:2b:4d:ac:c4:ff:49:b4:06:3e:85:b7:af:
         22:1f:9f:af:d5:46:3f:54:3d:19:2a:58:6e:b4:1d:0c:c3:82:
         56:26:5a:df:ea:56:d9:d1:3e:5d:67:4f:9f:96:55:b7:7a:cc:
         48:a2:73:c2:8d:a8:1f:1a:7c:7f:33:02:6c:da:c0:1f:e4:40:
         85:7f:7c:1f:4f:93:9b:21:94:b9:ed:a4:2b:22:a6:7e:0e:dc:
         06:27:5e:e9:03:01:98:4b:73:9d:ce:71:4d:89:7e:db:5b:80:
         3b:f4:00:dd:15:19:2e:3e:cf:ab:dc:55:3f:5a:31:31:7f:91:
         74:2c:7f:30:35:99:01:97:b4:a0:a9:d2:95:1c:56:69:14:33:
         e8:79:32:ed:38:f7:c5:64:08:94:41:ce:74:38:a4:22:7d:93:
         d2:73:eb:07:2d:6e:79:bd:26:ae:65:e1:05:96:19:aa:d3:f6:
         02:95:96:14:f8:c8:d5:0d:69:ee:bd:d5:d6:57:39:d3:c6:e2:
         4c:a3:d0:17:cd:fd:4e:6f:9d:6f:62:09:d1:22:9c:26:c2:86:
         f6:d7:1e:07:8b:91:67:32:c5:ea:57:60:2f:eb:9f:19:c8:f2:
         5d:45:b5:86:d0:19:19:71:b2:d4:ea:6f:61:67:1b:99:55:d2:
         21:4d:4a:2d:9a:b6:56:f1:69:dc:de:2e:4e:87:fc:bd:75:b9:
         b0:db:8b:f4:b2:20:de:12:e3:73:b7:6d:fb:3b:a2:87:1a:13:
         1e:d7:f5:5f:bf:17:78:cf:12:db:4b:b3:ae:02:a0:e2:5f:68:
         81:74:4d:5c:e4:1d:38:83:1a:94:d1:88:0b:e9:7c:3a:c0:3d:
         ba:74:13:c5:4e:fe:0c:67:a1:8b:ef:54:61:a9:b9:57:8a:ca:
         1c:92:d7:29:b3:17:fd:88
-----BEGIN CERTIFICATE-----
MIIGFzCCA/+gAwIBAgIUMEXT9a9nGwvMWerc3ffzk+5IVYwwDQYJKoZIhvcNAQEL
BQAwfjELMAkGA1UEBhMCQ0gxEDAOBgNVBAgTB1RodXJnYXUxEDAOBgNVBAcTB0tl
Zmlrb24xEzARBgNVBAoTCmd1ZW5nZWwuY2gxEDAOBgNVBAMTB0NBIDIwMjIxJDAi
BgkqhkiG9w0BCQEWFXBvc3RtYXN0ZXJAZ3VlbmdlbC5jaDAeFw0yMzEyMzAwODQ1
NDhaFw0yNTAyMDIwODQ1NDhaMIGYMQswCQYDVQQGEwJDSDEQMA4GA1UECBMHVGh1
cmdhdTETMBEGA1UEChMKZ3VlbmdlbC5jaDE8MDoGA1UEAxMzZWMyLTUyLTI5LTU5
LTIyMS5ldS1jZW50cmFsLTEuY29tcHV0ZS5hbWF6b25hd3MuY29tMSQwIgYJKoZI
hvcNAQkBFhVwb3N0bWFzdGVyQGd1ZW5nZWwuY2gwggEiMA0GCSqGSIb3DQEBAQUA
A4IBDwAwggEKAoIBAQDGDRTRZQylT8FCgq+Epq3W9ISi36+xRn3KRqtQgBcCl8fY
UPSXMDZoKuEYFeUyl6cQ8lf4K2VFayw3CYjHB/c6He6Ijyep/1Mm5Vu1J98/0Dwb
r5flDg+D+TdJykwq5JbXa/3lZuNwm19H30b7aifkmRkPgQ5zdt83IOLJ0yyv4tip
1nwqSFUl3z+s/zQ9OhxXn9xDfFOOA6UWzWCeFp2yHAbElCc6LyfCjslS9bukz1fV
5YmLEz8e2XGSklFa8qYY5XY/g24eNWty3QT7TSiW/EswCBnRdyOWbn/ufdn8VpdC
yCsx3wxwNWdPgErdBuP4Z+wd6ONKrYMM18VwSG83AgMBAAGjggFwMIIBbDAMBgNV
HRMBAf8EAjAAMAsGA1UdDwQEAwIDqDAdBgNVHQ4EFgQUQqy8PSTtfcc9xdsKR16T
5WqH3+Uwgb0GA1UdIwSBtTCBsoAUIiANUUBhQr7dutnJwXe2kyjDmeyhgYOkgYAw
fjELMAkGA1UEBhMCQ0gxEDAOBgNVBAgTB1RodXJnYXUxEDAOBgNVBAcTB0tlZmlr
b24xEzARBgNVBAoTCmd1ZW5nZWwuY2gxEDAOBgNVBAMTB0NBIDIwMjIxJDAiBgkq
hkiG9w0BCQEWFXBvc3RtYXN0ZXJAZ3VlbmdlbC5jaIIUbSmQVOkX6cJq5lKthE4w
jm5X+xwwEQYJYIZIAYb4QgEBBAQDAgbAMB0GA1UdJQQWMBQGCCsGAQUFBwMBBggr
BgEFBQcDAjA+BgNVHREENzA1gjNlYzItNTItMjktNTktMjIxLmV1LWNlbnRyYWwt
MS5jb21wdXRlLmFtYXpvbmF3cy5jb20wDQYJKoZIhvcNAQELBQADggIBAJsVInEA
adWSp+7QgH1Xuuwlwj2Ox4+UbfDWk73xhJ+P+pVCD8jXyq0O56OOQ5Ni/Z2P6N/L
dGOa9lpcNnXn63FHEhYu27ETtd1X1xQoEf8wfNlXr87+yzWWCNCkMIPVWMfWVfPn
uBfy+vvC4pXfxdZYtuoZCXI8LzbuSGeyiMij7xzkrWmv175b0tDkWv/AOUaWozwt
15FccsbYJNzv/vUPWIqH7E1kOStNrMT/SbQGPoW3ryIfn6/VRj9UPRkqWG60HQzD
glYmWt/qVtnRPl1nT5+WVbd6zEiic8KNqB8afH8zAmzawB/kQIV/fB9Pk5shlLnt
pCsipn4O3AYnXukDAZhLc53OcU2JfttbgDv0AN0VGS4+z6vcVT9aMTF/kXQsfzA1
mQGXtKCp0pUcVmkUM+h5Mu0498VkCJRBznQ4pCJ9k9Jz6wctbnm9Jq5l4QWWGarT
9gKVlhT4yNUNae691dZXOdPG4kyj0BfN/U5vnW9iCdEinCbChvbXHgeLkWcyxepX
YC/rnxnI8l1FtYbQGRlxstTqb2FnG5lV0iFNSi2atlbxadzeLk6H/L11ubDbi/Sy
IN4S43O3bfs7oocaEx7X9V+/F3jPEttLs64CoOJfaIF0TVzkHTiDGpTRiAvpfDrA
Pbp0E8VO/gxnoYvvVGGpuVeKyhyS1ymzF/2I
-----END CERTIFICATE-----
