Certificate:
    Data:
        Version: 3 (0x2)
        Serial Number: 394 (0x18a)
        Signature Algorithm: sha256WithRSAEncryption
        Issuer: C=CH, ST=Thurgau, L=Kefikon, O=guengel.ch, CN=CA guengel.ch/emailAddress=postmaster@guengel.ch
        Validity
            Not Before: Aug 15 20:59:33 2020 GMT
            Not After : Aug 30 20:59:33 2021 GMT
        Subject: C=CH, ST=Thurgau, O=guengel.ch, CN=ec2-18-157-49-147.eu-central-1.compute.amazonaws.com/emailAddress=postmaster@guengel.ch
        Subject Public Key Info:
            Public Key Algorithm: rsaEncryption
                RSA Public-Key: (2048 bit)
                Modulus:
                    00:a5:62:a6:76:d9:bd:8e:83:5e:ff:af:7f:34:e1:
                    01:e4:aa:cc:65:7e:df:d9:63:81:d1:3d:f3:ea:c7:
                    a6:16:65:79:77:cb:3f:e5:2e:e4:bd:ce:73:8c:0a:
                    59:7f:3c:1a:e4:46:b0:ba:2f:7a:bc:e0:7c:d2:10:
                    02:b6:26:6d:fa:0c:bc:97:e6:5a:73:ee:7f:b2:e2:
                    45:bc:9d:00:4b:9b:f7:83:dc:f6:ac:50:8f:ae:cb:
                    7c:27:01:88:5d:57:8c:da:b5:b6:a6:85:ee:3a:cf:
                    3a:57:0f:16:cf:2d:01:76:28:50:3b:eb:b2:47:2c:
                    73:85:3c:b4:10:68:c5:1c:6e:6d:29:81:a9:f1:08:
                    33:01:e1:ef:d4:0c:58:65:c7:cd:0a:c7:11:f7:73:
                    20:69:6e:18:2b:b8:82:ad:09:9d:0b:ce:1e:04:a8:
                    b5:b3:d8:82:1c:57:79:d4:f7:f4:22:b3:cf:4f:b4:
                    97:f4:bc:3b:33:10:59:12:c1:ac:48:26:96:dc:cc:
                    bf:16:17:20:31:62:b4:15:7a:31:60:81:09:6e:06:
                    e6:5c:d8:61:92:67:42:a7:a7:8b:0d:e0:3a:b7:65:
                    f0:d7:b6:10:e7:4f:b6:08:43:ac:a5:b0:32:c4:0b:
                    27:5e:62:f9:53:67:90:cb:b9:af:d8:68:00:cb:72:
                    d8:09
                Exponent: 65537 (0x10001)
        X509v3 extensions:
            X509v3 Basic Constraints: 
                CA:FALSE
            Netscape Comment: 
                OpenSSL Generated Certificate
            X509v3 Subject Key Identifier: 
                A7:8E:DA:7F:B6:37:40:86:7A:0A:67:F6:5A:68:CA:1B:8E:D3:C6:47
            X509v3 Authority Key Identifier: 
                keyid:D6:88:F1:AA:C1:2B:09:8C:B8:5C:9D:CE:DF:57:39:62:26:10:20:90
                DirName:/C=CH/ST=Thurgau/L=Kefikon/O=guengel.ch/CN=CA guengel.ch/emailAddress=postmaster@guengel.ch
                serial:E5:25:3B:A6:77:BD:CB:FF

    Signature Algorithm: sha256WithRSAEncryption
         3e:7d:b1:55:ca:aa:47:7c:0c:7a:95:61:cb:20:17:27:55:97:
         61:ce:0c:7f:dc:9e:30:02:27:06:79:74:10:f9:e7:38:f5:60:
         3d:c1:41:1c:8a:9c:1b:d8:fa:ba:22:14:f4:34:50:84:bb:f7:
         cc:de:9d:ac:5e:70:bb:ad:9a:68:d0:72:db:da:72:24:99:24:
         ca:fe:f8:af:b0:37:0d:ac:c8:e5:03:2f:8c:b9:9e:90:88:8f:
         37:f1:e3:89:85:ec:1a:62:9c:a7:f9:9b:41:ef:a6:78:c6:0a:
         94:18:1c:15:43:ec:88:27:42:25:3b:60:0d:fe:87:7a:a5:91:
         1d:3b:30:1c:8c:da:69:9e:0c:df:5c:62:ef:ed:09:03:d1:af:
         b7:30:10:48:d9:7d:39:4a:24:49:60:88:fd:23:4e:01:fb:5f:
         5e:c3:a2:19:c1:fb:e4:8d:b5:29:09:63:83:64:d3:c1:55:28:
         b5:23:7c:0f:d7:bc:28:34:e9:23:e8:e6:35:2b:e8:fb:6f:b9:
         11:7e:ae:ab:12:fe:58:07:cd:80:02:79:19:bc:a6:40:00:0d:
         87:22:52:de:a8:4d:af:d4:34:0c:28:b0:bb:60:21:fd:cb:a1:
         31:ba:1e:af:6e:6f:1d:70:c2:e0:18:c4:c7:f4:68:fc:7f:7f:
         fb:3d:cb:c8:7b:43:72:68:46:54:cd:01:1d:11:9e:6a:3e:9e:
         47:4e:bb:0b:5f:db:91:43:4a:99:ac:15:2d:dc:00:dc:83:a5:
         4e:04:3b:e5:65:39:1a:c6:c5:11:6a:92:81:eb:ed:54:8d:91:
         c9:af:c7:71:25:91:b1:ef:15:89:6c:b6:95:da:4f:95:70:a8:
         07:e0:66:af:ae:ae:a0:23:3f:a7:8b:b0:d7:91:a4:ee:ae:34:
         02:8f:65:7d:27:39:3b:b4:8c:27:08:0d:e2:18:a2:42:dc:53:
         91:0d:9d:62:f5:61:38:01:39:83:a7:c3:53:96:20:12:5d:2c:
         a8:97:29:88:8e:af:5f:3b:30:66:41:db:a9:99:70:aa:61:c4:
         e8:bf:16:67:cf:a0:30:09:cb:de:df:56:cf:37:d5:7c:3b:51:
         78:15:c6:48:46:57:01:1c:bb:49:b9:d5:15:08:d3:60:a0:4e:
         ec:ee:69:02:f0:b8:68:35:71:59:03:51:00:fd:7a:9c:bb:0a:
         36:b3:0d:71:28:f8:66:42:16:49:75:db:cd:8b:f7:a7:e0:c9:
         a8:72:35:cc:15:ca:af:a3:c5:a1:12:b6:b0:05:db:50:62:c5:
         d4:e7:f7:55:af:c2:e7:f0:77:1c:29:82:0d:b4:03:95:32:49:
         13:f1:b2:9d:8d:1d:81:d8
-----BEGIN CERTIFICATE-----
MIIFtTCCA52gAwIBAgICAYowDQYJKoZIhvcNAQELBQAwgYQxCzAJBgNVBAYTAkNI
MRAwDgYDVQQIEwdUaHVyZ2F1MRAwDgYDVQQHEwdLZWZpa29uMRMwEQYDVQQKEwpn
dWVuZ2VsLmNoMRYwFAYDVQQDEw1DQSBndWVuZ2VsLmNoMSQwIgYJKoZIhvcNAQkB
FhVwb3N0bWFzdGVyQGd1ZW5nZWwuY2gwHhcNMjAwODE1MjA1OTMzWhcNMjEwODMw
MjA1OTMzWjCBmTELMAkGA1UEBhMCQ0gxEDAOBgNVBAgTB1RodXJnYXUxEzARBgNV
BAoTCmd1ZW5nZWwuY2gxPTA7BgNVBAMTNGVjMi0xOC0xNTctNDktMTQ3LmV1LWNl
bnRyYWwtMS5jb21wdXRlLmFtYXpvbmF3cy5jb20xJDAiBgkqhkiG9w0BCQEWFXBv
c3RtYXN0ZXJAZ3VlbmdlbC5jaDCCASIwDQYJKoZIhvcNAQEBBQADggEPADCCAQoC
ggEBAKVipnbZvY6DXv+vfzThAeSqzGV+39ljgdE98+rHphZleXfLP+Uu5L3Oc4wK
WX88GuRGsLoverzgfNIQArYmbfoMvJfmWnPuf7LiRbydAEub94Pc9qxQj67LfCcB
iF1XjNq1tqaF7jrPOlcPFs8tAXYoUDvrskcsc4U8tBBoxRxubSmBqfEIMwHh79QM
WGXHzQrHEfdzIGluGCu4gq0JnQvOHgSotbPYghxXedT39CKzz0+0l/S8OzMQWRLB
rEgmltzMvxYXIDFitBV6MWCBCW4G5lzYYZJnQqeniw3gOrdl8Ne2EOdPtghDrKWw
MsQLJ15i+VNnkMu5r9hoAMty2AkCAwEAAaOCARgwggEUMAkGA1UdEwQCMAAwLAYJ
YIZIAYb4QgENBB8WHU9wZW5TU0wgR2VuZXJhdGVkIENlcnRpZmljYXRlMB0GA1Ud
DgQWBBSnjtp/tjdAhnoKZ/ZaaMobjtPGRzCBuQYDVR0jBIGxMIGugBTWiPGqwSsJ
jLhcnc7fVzliJhAgkKGBiqSBhzCBhDELMAkGA1UEBhMCQ0gxEDAOBgNVBAgTB1Ro
dXJnYXUxEDAOBgNVBAcTB0tlZmlrb24xEzARBgNVBAoTCmd1ZW5nZWwuY2gxFjAU
BgNVBAMTDUNBIGd1ZW5nZWwuY2gxJDAiBgkqhkiG9w0BCQEWFXBvc3RtYXN0ZXJA
Z3VlbmdlbC5jaIIJAOUlO6Z3vcv/MA0GCSqGSIb3DQEBCwUAA4ICAQA+fbFVyqpH
fAx6lWHLIBcnVZdhzgx/3J4wAicGeXQQ+ec49WA9wUEcipwb2Pq6IhT0NFCEu/fM
3p2sXnC7rZpo0HLb2nIkmSTK/vivsDcNrMjlAy+MuZ6QiI838eOJhewaYpyn+ZtB
76Z4xgqUGBwVQ+yIJ0IlO2AN/od6pZEdOzAcjNppngzfXGLv7QkD0a+3MBBI2X05
SiRJYIj9I04B+19ew6IZwfvkjbUpCWODZNPBVSi1I3wP17woNOkj6OY1K+j7b7kR
fq6rEv5YB82AAnkZvKZAAA2HIlLeqE2v1DQMKLC7YCH9y6Exuh6vbm8dcMLgGMTH
9Gj8f3/7PcvIe0NyaEZUzQEdEZ5qPp5HTrsLX9uRQ0qZrBUt3ADcg6VOBDvlZTka
xsURapKB6+1UjZHJr8dxJZGx7xWJbLaV2k+VcKgH4Gavrq6gIz+ni7DXkaTurjQC
j2V9Jzk7tIwnCA3iGKJC3FORDZ1i9WE4ATmDp8NTliASXSyolymIjq9fOzBmQdup
mXCqYcTovxZnz6AwCcve31bPN9V8O1F4FcZIRlcBHLtJudUVCNNgoE7s7mkC8Lho
NXFZA1EA/Xqcuwo2sw1xKPhmQhZJddvNi/en4MmocjXMFcqvo8WhErawBdtQYsXU
5/dVr8Ln8HccKYINtAOVMkkT8bKdjR2B2A==
-----END CERTIFICATE-----
