Certificate:
    Data:
        Version: 3 (0x2)
        Serial Number: 298 (0x12a)
    Signature Algorithm: sha256WithRSAEncryption
        Issuer: C=CH, ST=Thurgau, L=Kefikon, O=guengel.ch, CN=CA guengel.ch/emailAddress=postmaster@guengel.ch
        Validity
            Not Before: Jan  6 18:02:55 2018 GMT
            Not After : Feb 10 18:02:55 2019 GMT
        Subject: C=CH, ST=Thurgau, O=guengel.ch, CN=eventhorizon.dmz.kruemel.home/emailAddress=postmaster@guengel.ch
        Subject Public Key Info:
            Public Key Algorithm: rsaEncryption
                Public-Key: (2048 bit)
                Modulus:
                    00:f1:83:00:be:f3:93:32:66:4b:0a:28:3b:49:2d:
                    3d:40:e2:b5:f8:11:18:a0:d5:28:e8:16:50:d4:fd:
                    53:70:9d:da:da:87:f0:7f:a6:40:a1:2d:4f:7d:d1:
                    3a:a8:2e:db:7f:07:6d:5c:27:bc:9f:08:a6:e6:bf:
                    f4:d6:48:89:95:ba:84:a0:14:e0:89:66:9a:8f:48:
                    e8:c2:69:44:a2:ea:56:8d:04:25:4c:33:a6:65:ec:
                    b8:81:df:40:51:6a:86:d8:db:30:4f:43:ba:63:cf:
                    9f:66:b9:a7:43:e5:62:ce:fd:c9:9d:41:31:e5:0d:
                    78:c7:39:f8:21:4a:09:4a:84:15:7a:ab:7e:db:8e:
                    d1:8b:c2:6f:f0:00:ed:ef:8a:f7:da:fc:bb:36:fd:
                    62:ca:1f:88:9a:5a:fe:09:30:73:69:3a:12:aa:68:
                    ee:ed:51:7c:58:ac:4f:93:a4:19:a3:de:e3:1f:d5:
                    ed:eb:65:c1:6e:5f:51:5a:be:47:c1:6e:f9:fc:a7:
                    54:2e:0b:5e:d0:0f:c9:3f:82:8a:bf:57:4f:5d:0c:
                    61:96:ec:53:5c:59:5b:ba:cc:1e:77:6f:44:f7:e2:
                    b3:ca:49:b5:b3:ef:a5:2c:e9:f3:ab:35:82:4e:d0:
                    ce:98:04:f9:f9:c7:23:06:b4:14:13:40:a9:2e:aa:
                    42:a3
                Exponent: 65537 (0x10001)
        X509v3 extensions:
            X509v3 Basic Constraints: 
                CA:FALSE
            Netscape Comment: 
                OpenSSL Generated Certificate
            X509v3 Subject Key Identifier: 
                B0:5A:A2:8A:EA:BF:B9:20:B6:FC:E2:01:94:18:43:44:CD:0C:62:71
            X509v3 Authority Key Identifier: 
                keyid:D6:88:F1:AA:C1:2B:09:8C:B8:5C:9D:CE:DF:57:39:62:26:10:20:90
                DirName:/C=CH/ST=Thurgau/L=Kefikon/O=guengel.ch/CN=CA guengel.ch/emailAddress=postmaster@guengel.ch
                serial:E5:25:3B:A6:77:BD:CB:FF

    Signature Algorithm: sha256WithRSAEncryption
         7e:14:2b:82:0d:07:1a:3c:1d:06:a6:b3:9b:85:c6:11:94:a5:
         d3:47:9e:97:9b:8f:e3:b0:ae:b7:d4:5c:3f:97:97:12:02:2d:
         38:78:7c:62:f4:31:a2:9b:74:33:82:db:56:4f:0f:0d:ba:ba:
         93:1b:a9:c3:e6:20:30:5c:fc:00:eb:7d:30:db:f4:f0:de:c0:
         bf:ce:12:98:1d:8c:c1:a9:58:36:80:82:d8:a3:a4:4e:dc:45:
         29:8a:a4:b4:98:d0:2f:b9:5e:e9:f8:f0:7f:a7:af:02:7d:81:
         98:95:8c:f6:0d:09:f5:7d:93:ee:9c:72:01:69:f2:a3:07:4c:
         e7:63:8e:dd:57:14:ec:f2:6f:3f:48:a8:eb:21:60:d9:e6:0c:
         06:c3:cd:cf:db:3e:37:57:9b:1a:71:80:65:06:52:8d:9d:86:
         74:59:d0:d8:3e:44:e3:6c:e6:67:43:b5:3b:02:a3:60:ee:5b:
         f4:5c:7d:07:6a:3a:17:49:e9:b1:c7:a5:ba:21:9b:22:f4:91:
         8c:3a:3e:c2:bf:8f:42:a5:8d:c8:a5:11:47:6d:b5:d1:49:99:
         47:ee:bc:b4:99:c1:b0:76:23:2c:dc:bf:c3:b8:49:4d:3f:80:
         b1:2b:02:68:d0:0a:d9:75:fc:31:63:ac:91:02:6b:23:63:fb:
         4a:c8:50:5d:75:bb:10:9e:23:30:91:85:cf:ff:65:7b:4d:a2:
         04:16:22:56:69:ce:14:0d:f2:b6:8c:7a:5f:47:a0:35:29:1f:
         ba:2f:5c:b8:f4:d0:1a:e6:af:42:8f:3c:93:ab:f6:61:cd:53:
         ad:af:8d:d2:d6:21:06:6c:3b:b0:50:66:a9:ec:a7:44:14:47:
         bc:c0:8f:4e:9d:d1:98:ea:1e:03:e9:ba:2f:47:a2:77:fd:d6:
         fd:d4:c5:fc:5a:46:7d:b0:9d:f8:33:6e:bb:4f:05:2a:fe:4b:
         b9:0f:10:85:dd:d1:f4:a6:70:3a:6d:80:f3:fb:ca:03:e5:26:
         33:a5:5d:9f:20:c9:14:72:90:71:db:4d:86:ee:cc:51:a1:bc:
         87:cb:8e:c6:79:53:b0:ed:06:c0:ad:92:ca:2c:0a:2d:63:86:
         a2:9d:06:5a:5c:b5:c0:ec:fd:20:af:a6:79:62:69:dc:cf:5d:
         07:c7:7a:77:bb:ac:00:b3:ec:75:19:de:1e:da:7d:c0:aa:c3:
         55:35:de:ae:d9:1b:38:97:5b:41:6e:5e:42:8e:79:57:06:c9:
         86:a9:8a:93:c7:ec:c5:18:a3:73:4d:af:ad:72:6e:84:bb:d8:
         2a:2c:2b:00:77:4e:0e:a5:9c:22:ff:3a:5b:3e:07:2a:db:c9:
         51:e7:1d:63:a0:d4:13:20
-----BEGIN CERTIFICATE-----
MIIFnjCCA4agAwIBAgICASowDQYJKoZIhvcNAQELBQAwgYQxCzAJBgNVBAYTAkNI
MRAwDgYDVQQIEwdUaHVyZ2F1MRAwDgYDVQQHEwdLZWZpa29uMRMwEQYDVQQKEwpn
dWVuZ2VsLmNoMRYwFAYDVQQDEw1DQSBndWVuZ2VsLmNoMSQwIgYJKoZIhvcNAQkB
FhVwb3N0bWFzdGVyQGd1ZW5nZWwuY2gwHhcNMTgwMTA2MTgwMjU1WhcNMTkwMjEw
MTgwMjU1WjCBgjELMAkGA1UEBhMCQ0gxEDAOBgNVBAgTB1RodXJnYXUxEzARBgNV
BAoTCmd1ZW5nZWwuY2gxJjAkBgNVBAMTHWV2ZW50aG9yaXpvbi5kbXoua3J1ZW1l
bC5ob21lMSQwIgYJKoZIhvcNAQkBFhVwb3N0bWFzdGVyQGd1ZW5nZWwuY2gwggEi
MA0GCSqGSIb3DQEBAQUAA4IBDwAwggEKAoIBAQDxgwC+85MyZksKKDtJLT1A4rX4
ERig1SjoFlDU/VNwndrah/B/pkChLU990TqoLtt/B21cJ7yfCKbmv/TWSImVuoSg
FOCJZpqPSOjCaUSi6laNBCVMM6Zl7LiB30BRaobY2zBPQ7pjz59muadD5WLO/cmd
QTHlDXjHOfghSglKhBV6q37bjtGLwm/wAO3vivfa/Ls2/WLKH4iaWv4JMHNpOhKq
aO7tUXxYrE+TpBmj3uMf1e3rZcFuX1FavkfBbvn8p1QuC17QD8k/goq/V09dDGGW
7FNcWVu6zB53b0T34rPKSbWz76Us6fOrNYJO0M6YBPn5xyMGtBQTQKkuqkKjAgMB
AAGjggEYMIIBFDAJBgNVHRMEAjAAMCwGCWCGSAGG+EIBDQQfFh1PcGVuU1NMIEdl
bmVyYXRlZCBDZXJ0aWZpY2F0ZTAdBgNVHQ4EFgQUsFqiiuq/uSC2/OIBlBhDRM0M
YnEwgbkGA1UdIwSBsTCBroAU1ojxqsErCYy4XJ3O31c5YiYQIJChgYqkgYcwgYQx
CzAJBgNVBAYTAkNIMRAwDgYDVQQIEwdUaHVyZ2F1MRAwDgYDVQQHEwdLZWZpa29u
MRMwEQYDVQQKEwpndWVuZ2VsLmNoMRYwFAYDVQQDEw1DQSBndWVuZ2VsLmNoMSQw
IgYJKoZIhvcNAQkBFhVwb3N0bWFzdGVyQGd1ZW5nZWwuY2iCCQDlJTumd73L/zAN
BgkqhkiG9w0BAQsFAAOCAgEAfhQrgg0HGjwdBqazm4XGEZSl00eel5uP47Cut9Rc
P5eXEgItOHh8YvQxopt0M4LbVk8PDbq6kxupw+YgMFz8AOt9MNv08N7Av84SmB2M
walYNoCC2KOkTtxFKYqktJjQL7le6fjwf6evAn2BmJWM9g0J9X2T7pxyAWnyowdM
52OO3VcU7PJvP0io6yFg2eYMBsPNz9s+N1ebGnGAZQZSjZ2GdFnQ2D5E42zmZ0O1
OwKjYO5b9Fx9B2o6F0npsceluiGbIvSRjDo+wr+PQqWNyKURR2210UmZR+68tJnB
sHYjLNy/w7hJTT+AsSsCaNAK2XX8MWOskQJrI2P7SshQXXW7EJ4jMJGFz/9le02i
BBYiVmnOFA3ytox6X0egNSkfui9cuPTQGuavQo88k6v2Yc1Tra+N0tYhBmw7sFBm
qeynRBRHvMCPTp3RmOoeA+m6L0eid/3W/dTF/FpGfbCd+DNuu08FKv5LuQ8Qhd3R
9KZwOm2A8/vKA+UmM6VdnyDJFHKQcdtNhu7MUaG8h8uOxnlTsO0GwK2SyiwKLWOG
op0GWly1wOz9IK+meWJp3M9dB8d6d7usALPsdRneHtp9wKrDVTXertkbOJdbQW5e
Qo55VwbJhqmKk8fsxRijc02vrXJuhLvYKiwrAHdODqWcIv86Wz4HKtvJUecdY6DU
EyA=
-----END CERTIFICATE-----
