Certificate:
    Data:
        Version: 3 (0x2)
        Serial Number: 337 (0x151)
    Signature Algorithm: sha256WithRSAEncryption
        Issuer: C=CH, ST=Thurgau, L=Kefikon, O=guengel.ch, CN=CA guengel.ch/emailAddress=postmaster@guengel.ch
        Validity
            Not Before: Dec 29 14:39:58 2018 GMT
            Not After : Feb  2 14:39:58 2020 GMT
        Subject: C=CH, ST=Thurgau, O=guengel.ch, CN=eventhorizon.dmz.kruemel.home/emailAddress=postmaster@guengel.ch
        Subject Public Key Info:
            Public Key Algorithm: rsaEncryption
                Public-Key: (2048 bit)
                Modulus:
                    00:f1:83:00:be:f3:93:32:66:4b:0a:28:3b:49:2d:
                    3d:40:e2:b5:f8:11:18:a0:d5:28:e8:16:50:d4:fd:
                    53:70:9d:da:da:87:f0:7f:a6:40:a1:2d:4f:7d:d1:
                    3a:a8:2e:db:7f:07:6d:5c:27:bc:9f:08:a6:e6:bf:
                    f4:d6:48:89:95:ba:84:a0:14:e0:89:66:9a:8f:48:
                    e8:c2:69:44:a2:ea:56:8d:04:25:4c:33:a6:65:ec:
                    b8:81:df:40:51:6a:86:d8:db:30:4f:43:ba:63:cf:
                    9f:66:b9:a7:43:e5:62:ce:fd:c9:9d:41:31:e5:0d:
                    78:c7:39:f8:21:4a:09:4a:84:15:7a:ab:7e:db:8e:
                    d1:8b:c2:6f:f0:00:ed:ef:8a:f7:da:fc:bb:36:fd:
                    62:ca:1f:88:9a:5a:fe:09:30:73:69:3a:12:aa:68:
                    ee:ed:51:7c:58:ac:4f:93:a4:19:a3:de:e3:1f:d5:
                    ed:eb:65:c1:6e:5f:51:5a:be:47:c1:6e:f9:fc:a7:
                    54:2e:0b:5e:d0:0f:c9:3f:82:8a:bf:57:4f:5d:0c:
                    61:96:ec:53:5c:59:5b:ba:cc:1e:77:6f:44:f7:e2:
                    b3:ca:49:b5:b3:ef:a5:2c:e9:f3:ab:35:82:4e:d0:
                    ce:98:04:f9:f9:c7:23:06:b4:14:13:40:a9:2e:aa:
                    42:a3
                Exponent: 65537 (0x10001)
        X509v3 extensions:
            X509v3 Basic Constraints: 
                CA:FALSE
            Netscape Comment: 
                OpenSSL Generated Certificate
            X509v3 Subject Key Identifier: 
                B0:5A:A2:8A:EA:BF:B9:20:B6:FC:E2:01:94:18:43:44:CD:0C:62:71
            X509v3 Authority Key Identifier: 
                keyid:D6:88:F1:AA:C1:2B:09:8C:B8:5C:9D:CE:DF:57:39:62:26:10:20:90
                DirName:/C=CH/ST=Thurgau/L=Kefikon/O=guengel.ch/CN=CA guengel.ch/emailAddress=postmaster@guengel.ch
                serial:E5:25:3B:A6:77:BD:CB:FF

    Signature Algorithm: sha256WithRSAEncryption
         6f:fb:4a:9d:3f:44:60:dd:fc:47:f5:a6:af:f0:a1:59:e4:af:
         5b:e5:24:ca:3b:9b:5a:58:30:91:2f:ab:05:5e:fa:9d:c5:6c:
         84:30:ff:5d:06:c7:cc:21:65:95:67:64:19:fe:17:81:80:db:
         1c:2a:ed:5c:0f:2e:b5:2f:fc:fd:ad:b4:16:fe:ef:26:14:f4:
         f4:fa:ce:1a:00:2d:b6:da:63:45:8a:2c:bc:d4:ef:1e:32:d8:
         6d:d2:9b:1f:49:66:e1:e0:3a:15:e3:61:6d:c4:c1:6d:81:76:
         36:fa:94:2a:f7:21:c2:80:28:d6:1a:bc:5a:f6:04:17:f9:92:
         e2:e3:60:25:83:f3:ad:32:66:20:aa:dc:e1:66:f1:48:b3:0e:
         e4:65:36:ca:92:3c:d7:df:5b:3a:d9:a2:6b:7a:da:8c:7f:1c:
         0f:90:f8:db:1a:67:fa:12:b9:a8:bc:4c:07:00:26:6b:f3:64:
         96:22:2c:ad:ba:68:2c:77:12:39:ce:e6:98:a8:6d:19:60:69:
         8e:86:c6:be:4e:ad:fb:a7:a3:9c:33:82:84:34:19:83:a3:60:
         08:97:49:4e:35:e0:65:7d:23:a7:70:58:85:b3:d8:e9:9b:4a:
         6c:ac:01:55:f8:b4:a9:d7:74:41:0c:aa:66:f9:77:e2:2e:c3:
         56:ad:78:1c:d2:ec:f6:3e:d2:fa:ed:4c:4a:c2:c0:23:81:f2:
         3c:bf:25:93:f1:8f:88:17:30:fd:6c:2f:fd:b1:83:4b:df:00:
         1a:35:d1:fe:c7:f8:7e:bb:9d:f6:cb:39:ce:03:5f:9f:5d:6c:
         13:75:06:07:6c:4d:14:dd:b4:6a:4a:e3:a1:ec:1a:56:ec:88:
         22:57:99:73:4d:a2:31:e4:60:1f:23:32:92:f7:44:23:58:67:
         13:5c:93:e7:81:36:cf:a1:63:02:88:b7:b4:c9:ef:34:5d:81:
         f4:00:f4:3b:07:da:ae:27:d2:b0:a0:29:f0:cd:9f:62:1e:41:
         61:7d:1e:06:56:96:c8:98:05:ac:1f:ee:92:62:39:a9:b5:f4:
         6d:42:12:23:9a:ff:1d:d1:64:8e:59:c6:d4:e7:29:76:68:98:
         67:62:0f:db:59:a9:62:1c:14:cb:32:e3:cb:97:bc:01:58:64:
         eb:fb:d0:45:7f:a4:a2:d9:96:c2:db:d7:ba:12:76:db:96:b0:
         5e:6c:8f:e1:c9:e1:eb:0c:81:c0:87:44:a0:1c:b3:5f:ec:69:
         ca:65:4e:35:91:7d:80:e7:1b:97:1d:db:08:90:4d:fe:9b:fd:
         6f:06:cd:7f:7f:6d:bb:19:5c:1b:51:12:98:e8:8f:19:dc:a5:
         9b:cc:3f:95:3d:cd:b0:07
-----BEGIN CERTIFICATE-----
MIIFnjCCA4agAwIBAgICAVEwDQYJKoZIhvcNAQELBQAwgYQxCzAJBgNVBAYTAkNI
MRAwDgYDVQQIEwdUaHVyZ2F1MRAwDgYDVQQHEwdLZWZpa29uMRMwEQYDVQQKEwpn
dWVuZ2VsLmNoMRYwFAYDVQQDEw1DQSBndWVuZ2VsLmNoMSQwIgYJKoZIhvcNAQkB
FhVwb3N0bWFzdGVyQGd1ZW5nZWwuY2gwHhcNMTgxMjI5MTQzOTU4WhcNMjAwMjAy
MTQzOTU4WjCBgjELMAkGA1UEBhMCQ0gxEDAOBgNVBAgTB1RodXJnYXUxEzARBgNV
BAoTCmd1ZW5nZWwuY2gxJjAkBgNVBAMTHWV2ZW50aG9yaXpvbi5kbXoua3J1ZW1l
bC5ob21lMSQwIgYJKoZIhvcNAQkBFhVwb3N0bWFzdGVyQGd1ZW5nZWwuY2gwggEi
MA0GCSqGSIb3DQEBAQUAA4IBDwAwggEKAoIBAQDxgwC+85MyZksKKDtJLT1A4rX4
ERig1SjoFlDU/VNwndrah/B/pkChLU990TqoLtt/B21cJ7yfCKbmv/TWSImVuoSg
FOCJZpqPSOjCaUSi6laNBCVMM6Zl7LiB30BRaobY2zBPQ7pjz59muadD5WLO/cmd
QTHlDXjHOfghSglKhBV6q37bjtGLwm/wAO3vivfa/Ls2/WLKH4iaWv4JMHNpOhKq
aO7tUXxYrE+TpBmj3uMf1e3rZcFuX1FavkfBbvn8p1QuC17QD8k/goq/V09dDGGW
7FNcWVu6zB53b0T34rPKSbWz76Us6fOrNYJO0M6YBPn5xyMGtBQTQKkuqkKjAgMB
AAGjggEYMIIBFDAJBgNVHRMEAjAAMCwGCWCGSAGG+EIBDQQfFh1PcGVuU1NMIEdl
bmVyYXRlZCBDZXJ0aWZpY2F0ZTAdBgNVHQ4EFgQUsFqiiuq/uSC2/OIBlBhDRM0M
YnEwgbkGA1UdIwSBsTCBroAU1ojxqsErCYy4XJ3O31c5YiYQIJChgYqkgYcwgYQx
CzAJBgNVBAYTAkNIMRAwDgYDVQQIEwdUaHVyZ2F1MRAwDgYDVQQHEwdLZWZpa29u
MRMwEQYDVQQKEwpndWVuZ2VsLmNoMRYwFAYDVQQDEw1DQSBndWVuZ2VsLmNoMSQw
IgYJKoZIhvcNAQkBFhVwb3N0bWFzdGVyQGd1ZW5nZWwuY2iCCQDlJTumd73L/zAN
BgkqhkiG9w0BAQsFAAOCAgEAb/tKnT9EYN38R/Wmr/ChWeSvW+UkyjubWlgwkS+r
BV76ncVshDD/XQbHzCFllWdkGf4XgYDbHCrtXA8utS/8/a20Fv7vJhT09PrOGgAt
ttpjRYosvNTvHjLYbdKbH0lm4eA6FeNhbcTBbYF2NvqUKvchwoAo1hq8WvYEF/mS
4uNgJYPzrTJmIKrc4WbxSLMO5GU2ypI8199bOtmia3rajH8cD5D42xpn+hK5qLxM
BwAma/NkliIsrbpoLHcSOc7mmKhtGWBpjobGvk6t+6ejnDOChDQZg6NgCJdJTjXg
ZX0jp3BYhbPY6ZtKbKwBVfi0qdd0QQyqZvl34i7DVq14HNLs9j7S+u1MSsLAI4Hy
PL8lk/GPiBcw/Wwv/bGDS98AGjXR/sf4frud9ss5zgNfn11sE3UGB2xNFN20akrj
oewaVuyIIleZc02iMeRgHyMykvdEI1hnE1yT54E2z6FjAoi3tMnvNF2B9AD0Owfa
rifSsKAp8M2fYh5BYX0eBlaWyJgFrB/ukmI5qbX0bUISI5r/HdFkjlnG1OcpdmiY
Z2IP21mpYhwUyzLjy5e8AVhk6/vQRX+kotmWwtvXuhJ225awXmyP4cnh6wyBwIdE
oByzX+xpymVONZF9gOcblx3bCJBN/pv9bwbNf39tuxlcG1ESmOiPGdylm8w/lT3N
sAc=
-----END CERTIFICATE-----
