Certificate:
    Data:
        Version: 3 (0x2)
        Serial Number: 242 (0xf2)
    Signature Algorithm: sha256WithRSAEncryption
        Issuer: C=CH, ST=Thurgau, L=Kefikon, O=guengel.ch, CN=CA guengel.ch/emailAddress=postmaster@guengel.ch
        Validity
            Not Before: Nov 20 09:17:16 2016 GMT
            Not After : Apr  4 09:17:16 2018 GMT
        Subject: C=CH, ST=Thurgau, O=guengel.ch, CN=foehammer.virtual.kruemel.home/emailAddress=postmaster@guengel.ch
        Subject Public Key Info:
            Public Key Algorithm: rsaEncryption
                Public-Key: (2048 bit)
                Modulus:
                    00:d7:cb:5f:8d:b6:b3:06:e1:dc:f8:d9:da:78:9d:
                    98:6b:15:ea:df:94:ed:8a:ea:25:a9:39:22:6e:51:
                    a1:99:54:f7:be:33:34:49:56:95:e0:e9:7c:14:60:
                    8f:e7:8b:64:f0:c7:5b:7c:6a:c1:c8:6e:24:55:f0:
                    ba:b7:31:23:07:3a:e7:17:f0:21:bb:d6:4d:bb:21:
                    df:a5:bb:e9:7e:67:92:97:2e:57:cc:bd:2b:0a:5e:
                    8e:e8:3d:35:c1:3b:50:02:c7:6b:2b:32:b6:f0:66:
                    59:48:b6:5a:8f:a5:1d:80:46:f0:37:d0:83:24:ff:
                    54:1e:cb:0a:83:5e:29:8a:46:6e:a5:ed:85:e8:9d:
                    68:2d:01:85:34:15:55:70:96:6f:0a:b3:23:eb:39:
                    e6:33:65:b9:b5:13:4b:09:09:2c:91:92:de:e5:9a:
                    32:07:83:67:58:3c:2d:22:01:83:29:eb:59:c2:42:
                    cd:fd:26:a5:10:bb:15:dc:4f:60:bc:7b:e1:0f:c8:
                    04:37:f3:2f:85:68:08:87:f6:6e:92:cc:c9:8d:55:
                    cf:22:f1:43:e0:d1:28:e4:68:c8:49:80:04:38:9f:
                    bd:5e:a2:56:98:f7:31:3f:f1:2e:f5:d9:18:95:f5:
                    1c:0d:37:c7:08:a2:8e:01:cf:65:ad:b7:0f:c5:5a:
                    5f:2f
                Exponent: 65537 (0x10001)
        X509v3 extensions:
            X509v3 Basic Constraints: 
                CA:FALSE
            Netscape Comment: 
                OpenSSL Generated Certificate
            X509v3 Subject Key Identifier: 
                D4:30:5A:0A:72:60:58:37:08:33:78:5E:D4:92:2B:33:01:D3:D0:3A
            X509v3 Authority Key Identifier: 
                keyid:D6:88:F1:AA:C1:2B:09:8C:B8:5C:9D:CE:DF:57:39:62:26:10:20:90
                DirName:/C=CH/ST=Thurgau/L=Kefikon/O=guengel.ch/CN=CA guengel.ch/emailAddress=postmaster@guengel.ch
                serial:E5:25:3B:A6:77:BD:CB:FF

    Signature Algorithm: sha256WithRSAEncryption
         27:2f:eb:7e:a7:d3:7c:9b:40:9d:a8:42:ff:d3:23:31:f3:81:
         71:c3:5b:84:96:22:ef:ce:a3:65:83:16:8b:48:e5:09:93:20:
         34:4e:fe:eb:78:e5:19:43:74:b1:85:40:5c:5c:52:2c:61:5f:
         58:4b:4e:dc:e8:33:c3:0d:b9:eb:a1:66:67:62:db:d7:8b:74:
         e7:3b:12:0b:65:95:be:f5:ef:9c:c3:10:3e:29:86:19:59:b3:
         cf:79:56:c6:f5:83:a9:04:7d:c5:d9:05:6f:06:99:bd:5c:13:
         50:04:37:0d:3a:55:81:5f:13:cd:5d:57:c9:7a:d8:25:9e:c3:
         9b:aa:da:3b:27:a1:e4:8b:8f:5f:b5:ac:ae:fb:4a:db:8d:ab:
         02:ba:7b:65:3b:1c:f3:bf:b7:d5:c5:53:52:35:d3:6a:10:a3:
         ee:db:62:e2:08:ab:a3:7b:5e:6c:9a:2d:5e:9d:fb:67:0e:71:
         1a:01:1e:33:f3:fd:67:ca:d0:95:c2:48:41:10:0a:ee:0b:87:
         5b:fe:0c:a4:59:d0:6b:29:6d:52:a3:c4:3a:51:8a:f0:70:3c:
         61:b4:40:3c:10:8e:a4:42:8c:53:23:6b:94:5c:70:84:79:e6:
         3c:44:ca:0e:a6:ba:24:0d:e9:70:72:12:4f:3b:09:de:64:e2:
         c8:f4:29:0e:2e:79:2d:2d:b0:4f:64:47:43:1c:1a:aa:c4:fa:
         c6:dc:f9:ad:b7:42:e9:36:72:08:3b:37:64:08:94:e5:10:44:
         b2:23:0e:48:0c:87:b8:24:79:17:50:01:d4:f9:48:e7:91:a1:
         8b:63:73:0d:9f:53:ec:0b:b9:cd:4b:f7:3c:58:93:a8:60:18:
         5c:4c:e3:c5:a4:98:55:e0:47:e0:68:12:82:9f:1b:b9:24:3a:
         e3:20:10:94:02:31:65:42:16:c5:b5:c3:d9:5e:f0:2b:83:5a:
         04:ed:b4:4b:26:f3:e7:71:59:a7:95:bd:d2:c6:30:a0:98:cd:
         b0:31:47:12:93:51:a3:9d:98:89:06:88:92:52:07:11:d0:18:
         dd:43:63:07:41:dc:a5:28:1c:dc:33:c4:b9:f7:35:a6:27:88:
         e8:7f:84:85:24:43:60:00:b1:b4:8a:63:c9:cf:a0:88:b1:5a:
         91:d7:69:df:07:bd:55:8d:2a:9f:ed:73:89:98:fd:ad:80:09:
         6a:21:e3:6e:ef:21:ba:69:7b:3a:98:0a:1b:24:81:bb:27:b1:
         9f:c6:de:0f:0a:04:51:3a:d3:96:f2:e7:08:3f:80:7e:80:cc:
         77:7a:f2:ce:98:ac:a5:54:62:14:60:75:44:88:f4:7b:c8:53:
         dc:b2:28:f0:f1:1e:f1:e3
-----BEGIN CERTIFICATE-----
MIIFnzCCA4egAwIBAgICAPIwDQYJKoZIhvcNAQELBQAwgYQxCzAJBgNVBAYTAkNI
MRAwDgYDVQQIEwdUaHVyZ2F1MRAwDgYDVQQHEwdLZWZpa29uMRMwEQYDVQQKEwpn
dWVuZ2VsLmNoMRYwFAYDVQQDEw1DQSBndWVuZ2VsLmNoMSQwIgYJKoZIhvcNAQkB
FhVwb3N0bWFzdGVyQGd1ZW5nZWwuY2gwHhcNMTYxMTIwMDkxNzE2WhcNMTgwNDA0
MDkxNzE2WjCBgzELMAkGA1UEBhMCQ0gxEDAOBgNVBAgTB1RodXJnYXUxEzARBgNV
BAoTCmd1ZW5nZWwuY2gxJzAlBgNVBAMTHmZvZWhhbW1lci52aXJ0dWFsLmtydWVt
ZWwuaG9tZTEkMCIGCSqGSIb3DQEJARYVcG9zdG1hc3RlckBndWVuZ2VsLmNoMIIB
IjANBgkqhkiG9w0BAQEFAAOCAQ8AMIIBCgKCAQEA18tfjbazBuHc+NnaeJ2YaxXq
35TtiuolqTkiblGhmVT3vjM0SVaV4Ol8FGCP54tk8MdbfGrByG4kVfC6tzEjBzrn
F/Ahu9ZNuyHfpbvpfmeSly5XzL0rCl6O6D01wTtQAsdrKzK28GZZSLZaj6UdgEbw
N9CDJP9UHssKg14pikZupe2F6J1oLQGFNBVVcJZvCrMj6znmM2W5tRNLCQkskZLe
5ZoyB4NnWDwtIgGDKetZwkLN/SalELsV3E9gvHvhD8gEN/MvhWgIh/ZukszJjVXP
IvFD4NEo5GjISYAEOJ+9XqJWmPcxP/Eu9dkYlfUcDTfHCKKOAc9lrbcPxVpfLwID
AQABo4IBGDCCARQwCQYDVR0TBAIwADAsBglghkgBhvhCAQ0EHxYdT3BlblNTTCBH
ZW5lcmF0ZWQgQ2VydGlmaWNhdGUwHQYDVR0OBBYEFNQwWgpyYFg3CDN4XtSSKzMB
09A6MIG5BgNVHSMEgbEwga6AFNaI8arBKwmMuFydzt9XOWImECCQoYGKpIGHMIGE
MQswCQYDVQQGEwJDSDEQMA4GA1UECBMHVGh1cmdhdTEQMA4GA1UEBxMHS2VmaWtv
bjETMBEGA1UEChMKZ3VlbmdlbC5jaDEWMBQGA1UEAxMNQ0EgZ3VlbmdlbC5jaDEk
MCIGCSqGSIb3DQEJARYVcG9zdG1hc3RlckBndWVuZ2VsLmNoggkA5SU7pne9y/8w
DQYJKoZIhvcNAQELBQADggIBACcv636n03ybQJ2oQv/TIzHzgXHDW4SWIu/Oo2WD
FotI5QmTIDRO/ut45RlDdLGFQFxcUixhX1hLTtzoM8MNueuhZmdi29eLdOc7Egtl
lb7175zDED4phhlZs895Vsb1g6kEfcXZBW8Gmb1cE1AENw06VYFfE81dV8l62CWe
w5uq2jsnoeSLj1+1rK77StuNqwK6e2U7HPO/t9XFU1I102oQo+7bYuIIq6N7Xmya
LV6d+2cOcRoBHjPz/WfK0JXCSEEQCu4Lh1v+DKRZ0GspbVKjxDpRivBwPGG0QDwQ
jqRCjFMja5RccIR55jxEyg6muiQN6XByEk87Cd5k4sj0KQ4ueS0tsE9kR0McGqrE
+sbc+a23Quk2cgg7N2QIlOUQRLIjDkgMh7gkeRdQAdT5SOeRoYtjcw2fU+wLuc1L
9zxYk6hgGFxM48WkmFXgR+BoEoKfG7kkOuMgEJQCMWVCFsW1w9le8CuDWgTttEsm
8+dxWaeVvdLGMKCYzbAxRxKTUaOdmIkGiJJSBxHQGN1DYwdB3KUoHNwzxLn3NaYn
iOh/hIUkQ2AAsbSKY8nPoIixWpHXad8HvVWNKp/tc4mY/a2ACWoh427vIbppezqY
ChskgbsnsZ/G3g8KBFE605by5wg/gH6AzHd68s6YrKVUYhRgdUSI9HvIU9yyKPDx
HvHj
-----END CERTIFICATE-----
