Certificate:
    Data:
        Version: 3 (0x2)
        Serial Number: 338 (0x152)
    Signature Algorithm: sha256WithRSAEncryption
        Issuer: C=CH, ST=Thurgau, L=Kefikon, O=guengel.ch, CN=CA guengel.ch/emailAddress=postmaster@guengel.ch
        Validity
            Not Before: Dec 29 14:39:58 2018 GMT
            Not After : Feb  2 14:39:58 2020 GMT
        Subject: C=CH, ST=Thurgau, O=guengel.ch, CN=freebsd32.virtual.kruemel.home/emailAddress=postmaster@guengel.ch
        Subject Public Key Info:
            Public Key Algorithm: rsaEncryption
                Public-Key: (2048 bit)
                Modulus:
                    00:ee:94:68:9f:71:96:08:c3:cd:c1:3a:86:64:60:
                    1b:c1:ed:65:0d:a3:6c:55:6b:d9:d9:c7:25:2b:5d:
                    d3:e2:d4:29:b3:32:4b:e6:bd:52:80:93:76:52:67:
                    2e:94:16:33:24:32:66:4d:a2:3f:7d:a5:39:85:8f:
                    17:05:71:62:b8:d3:e4:bb:63:29:39:0b:bd:88:23:
                    d4:6e:27:19:9d:1d:7b:1b:15:88:2d:af:d6:b5:11:
                    ce:e9:0b:ec:2c:fc:83:f6:69:13:f8:95:c4:60:76:
                    52:9b:3d:80:6b:b4:66:8d:0c:59:e6:cb:42:31:8b:
                    aa:7e:4e:06:8e:c6:58:a5:dc:6e:ce:40:1b:31:06:
                    7b:e9:6a:25:58:94:30:15:bf:f0:0a:e6:01:94:84:
                    5d:37:a6:21:5e:79:9f:87:51:aa:e5:0c:b5:4d:0f:
                    aa:56:ef:f9:db:8f:b2:8c:8c:96:73:7f:10:62:8b:
                    9b:77:ed:73:5d:1c:81:15:39:3a:c6:21:45:4a:e0:
                    92:7a:12:c2:1b:7d:a1:39:78:06:f9:14:5f:12:28:
                    1b:29:f0:39:58:36:c6:d6:3a:5a:f3:18:4f:f1:16:
                    85:1d:2d:c3:f0:8e:5e:35:66:73:8f:88:18:cf:c0:
                    23:fb:75:aa:68:d4:de:2a:1c:5a:f6:be:73:da:d3:
                    88:53
                Exponent: 65537 (0x10001)
        X509v3 extensions:
            X509v3 Basic Constraints: 
                CA:FALSE
            Netscape Comment: 
                OpenSSL Generated Certificate
            X509v3 Subject Key Identifier: 
                E1:77:3E:C0:7A:ED:99:AB:91:F8:1E:E4:3E:8A:E4:5F:89:AE:23:8A
            X509v3 Authority Key Identifier: 
                keyid:D6:88:F1:AA:C1:2B:09:8C:B8:5C:9D:CE:DF:57:39:62:26:10:20:90
                DirName:/C=CH/ST=Thurgau/L=Kefikon/O=guengel.ch/CN=CA guengel.ch/emailAddress=postmaster@guengel.ch
                serial:E5:25:3B:A6:77:BD:CB:FF

    Signature Algorithm: sha256WithRSAEncryption
         17:31:1b:57:6f:3a:2d:97:58:73:ff:ad:6e:cf:32:f6:90:32:
         21:f3:dd:e5:cc:24:69:e9:8a:b7:ba:8a:f8:1d:e5:bd:c6:d7:
         de:3a:b5:b2:76:44:5f:5b:95:40:9a:e6:9b:4b:13:d0:ae:a4:
         11:59:ec:57:25:20:b8:70:32:41:6c:40:0d:fc:07:23:09:dc:
         3e:3a:6d:12:1d:b9:c7:30:37:cb:f3:43:23:06:0c:6e:a0:cc:
         58:b4:ad:52:96:f4:94:53:5f:78:c3:2e:a5:db:45:66:a6:84:
         1e:2f:2c:4a:1b:f8:8a:3e:e4:04:80:5e:22:ab:5f:fc:05:e7:
         de:dc:47:0c:af:0c:61:0d:44:64:14:66:d9:4b:1f:6d:33:67:
         39:a0:6f:6e:0e:fa:4e:1d:48:87:d8:6d:e1:86:5f:06:1d:b6:
         ce:1d:0a:ce:04:8a:72:64:c4:ad:3b:37:44:9a:fd:88:b5:e5:
         33:94:3b:62:30:cf:4c:bc:5d:15:35:8b:8f:6c:a1:cf:89:db:
         6a:87:68:eb:68:c8:0a:bf:77:03:a8:18:21:16:fd:d1:53:4b:
         fb:2c:19:d0:60:ec:2f:c1:6c:0d:ab:c4:a2:eb:da:0d:fa:16:
         40:31:a6:75:54:b9:08:18:58:9b:82:d8:71:34:1c:3b:52:15:
         4c:5d:f7:d6:b8:e3:fb:1a:67:c0:ab:13:a3:d7:f3:df:44:14:
         18:a5:97:bf:75:43:05:f7:17:e9:dc:aa:42:15:3f:11:2a:ed:
         87:ff:0b:3a:1a:9a:e2:bf:1d:af:af:0d:84:c5:aa:3e:ff:3f:
         57:be:76:58:61:5a:2b:2c:4e:cf:17:1c:7f:e4:af:fd:6e:6d:
         6f:64:50:47:81:f4:96:e0:80:9c:d7:5c:e4:69:83:0f:dd:a2:
         3e:65:45:58:23:2d:bc:e5:a0:7e:a1:8e:fe:3f:9e:a3:26:75:
         9b:0d:bf:a1:43:42:08:62:5c:b2:78:4c:30:18:df:a5:cc:55:
         b6:df:6b:63:80:fa:59:96:65:86:99:1e:d2:1f:d1:58:a6:7f:
         cb:09:46:f6:cf:91:9a:01:cb:54:e8:d9:da:06:5c:9b:93:16:
         c4:ff:46:55:00:2d:34:ad:84:f2:a5:05:c2:80:2a:bd:c8:53:
         1a:4a:69:17:06:4b:53:d8:cd:4e:69:69:07:07:5c:02:92:86:
         40:5c:cc:97:8d:04:27:15:90:fd:91:83:72:83:91:49:69:02:
         d4:55:a4:44:ef:07:aa:e0:19:b1:1b:d5:3a:1f:ed:bd:b4:c3:
         bc:c7:e8:b8:ca:a5:99:33:13:6b:54:10:30:c3:81:21:9d:8e:
         c0:c1:69:bc:78:3e:62:e9
-----BEGIN CERTIFICATE-----
MIIFnzCCA4egAwIBAgICAVIwDQYJKoZIhvcNAQELBQAwgYQxCzAJBgNVBAYTAkNI
MRAwDgYDVQQIEwdUaHVyZ2F1MRAwDgYDVQQHEwdLZWZpa29uMRMwEQYDVQQKEwpn
dWVuZ2VsLmNoMRYwFAYDVQQDEw1DQSBndWVuZ2VsLmNoMSQwIgYJKoZIhvcNAQkB
FhVwb3N0bWFzdGVyQGd1ZW5nZWwuY2gwHhcNMTgxMjI5MTQzOTU4WhcNMjAwMjAy
MTQzOTU4WjCBgzELMAkGA1UEBhMCQ0gxEDAOBgNVBAgTB1RodXJnYXUxEzARBgNV
BAoTCmd1ZW5nZWwuY2gxJzAlBgNVBAMTHmZyZWVic2QzMi52aXJ0dWFsLmtydWVt
ZWwuaG9tZTEkMCIGCSqGSIb3DQEJARYVcG9zdG1hc3RlckBndWVuZ2VsLmNoMIIB
IjANBgkqhkiG9w0BAQEFAAOCAQ8AMIIBCgKCAQEA7pRon3GWCMPNwTqGZGAbwe1l
DaNsVWvZ2cclK13T4tQpszJL5r1SgJN2UmculBYzJDJmTaI/faU5hY8XBXFiuNPk
u2MpOQu9iCPUbicZnR17GxWILa/WtRHO6QvsLPyD9mkT+JXEYHZSmz2Aa7RmjQxZ
5stCMYuqfk4GjsZYpdxuzkAbMQZ76WolWJQwFb/wCuYBlIRdN6YhXnmfh1Gq5Qy1
TQ+qVu/524+yjIyWc38QYoubd+1zXRyBFTk6xiFFSuCSehLCG32hOXgG+RRfEigb
KfA5WDbG1jpa8xhP8RaFHS3D8I5eNWZzj4gYz8Aj+3WqaNTeKhxa9r5z2tOIUwID
AQABo4IBGDCCARQwCQYDVR0TBAIwADAsBglghkgBhvhCAQ0EHxYdT3BlblNTTCBH
ZW5lcmF0ZWQgQ2VydGlmaWNhdGUwHQYDVR0OBBYEFOF3PsB67Zmrkfge5D6K5F+J
riOKMIG5BgNVHSMEgbEwga6AFNaI8arBKwmMuFydzt9XOWImECCQoYGKpIGHMIGE
MQswCQYDVQQGEwJDSDEQMA4GA1UECBMHVGh1cmdhdTEQMA4GA1UEBxMHS2VmaWtv
bjETMBEGA1UEChMKZ3VlbmdlbC5jaDEWMBQGA1UEAxMNQ0EgZ3VlbmdlbC5jaDEk
MCIGCSqGSIb3DQEJARYVcG9zdG1hc3RlckBndWVuZ2VsLmNoggkA5SU7pne9y/8w
DQYJKoZIhvcNAQELBQADggIBABcxG1dvOi2XWHP/rW7PMvaQMiHz3eXMJGnpire6
ivgd5b3G1946tbJ2RF9blUCa5ptLE9CupBFZ7FclILhwMkFsQA38ByMJ3D46bRId
uccwN8vzQyMGDG6gzFi0rVKW9JRTX3jDLqXbRWamhB4vLEob+Io+5ASAXiKrX/wF
597cRwyvDGENRGQUZtlLH20zZzmgb24O+k4dSIfYbeGGXwYdts4dCs4EinJkxK07
N0Sa/Yi15TOUO2Iwz0y8XRU1i49soc+J22qHaOtoyAq/dwOoGCEW/dFTS/ssGdBg
7C/BbA2rxKLr2g36FkAxpnVUuQgYWJuC2HE0HDtSFUxd99a44/saZ8CrE6PX899E
FBill791QwX3F+ncqkIVPxEq7Yf/CzoamuK/Ha+vDYTFqj7/P1e+dlhhWissTs8X
HH/kr/1ubW9kUEeB9JbggJzXXORpgw/doj5lRVgjLbzloH6hjv4/nqMmdZsNv6FD
QghiXLJ4TDAY36XMVbbfa2OA+lmWZYaZHtIf0Vimf8sJRvbPkZoBy1To2doGXJuT
FsT/RlUALTSthPKlBcKAKr3IUxpKaRcGS1PYzU5paQcHXAKShkBczJeNBCcVkP2R
g3KDkUlpAtRVpETvB6rgGbEb1Tof7b20w7zH6LjKpZkzE2tUEDDDgSGdjsDBabx4
PmLp
-----END CERTIFICATE-----
