Certificate:
    Data:
        Version: 3 (0x2)
        Serial Number: 243 (0xf3)
    Signature Algorithm: sha256WithRSAEncryption
        Issuer: C=CH, ST=Thurgau, L=Kefikon, O=guengel.ch, CN=CA guengel.ch/emailAddress=postmaster@guengel.ch
        Validity
            Not Before: Nov 20 09:17:17 2016 GMT
            Not After : Apr  4 09:17:17 2018 GMT
        Subject: C=CH, ST=Thurgau, O=guengel.ch, CN=freebsd32.virtual.kruemel.home/emailAddress=postmaster@guengel.ch
        Subject Public Key Info:
            Public Key Algorithm: rsaEncryption
                Public-Key: (2048 bit)
                Modulus:
                    00:ee:94:68:9f:71:96:08:c3:cd:c1:3a:86:64:60:
                    1b:c1:ed:65:0d:a3:6c:55:6b:d9:d9:c7:25:2b:5d:
                    d3:e2:d4:29:b3:32:4b:e6:bd:52:80:93:76:52:67:
                    2e:94:16:33:24:32:66:4d:a2:3f:7d:a5:39:85:8f:
                    17:05:71:62:b8:d3:e4:bb:63:29:39:0b:bd:88:23:
                    d4:6e:27:19:9d:1d:7b:1b:15:88:2d:af:d6:b5:11:
                    ce:e9:0b:ec:2c:fc:83:f6:69:13:f8:95:c4:60:76:
                    52:9b:3d:80:6b:b4:66:8d:0c:59:e6:cb:42:31:8b:
                    aa:7e:4e:06:8e:c6:58:a5:dc:6e:ce:40:1b:31:06:
                    7b:e9:6a:25:58:94:30:15:bf:f0:0a:e6:01:94:84:
                    5d:37:a6:21:5e:79:9f:87:51:aa:e5:0c:b5:4d:0f:
                    aa:56:ef:f9:db:8f:b2:8c:8c:96:73:7f:10:62:8b:
                    9b:77:ed:73:5d:1c:81:15:39:3a:c6:21:45:4a:e0:
                    92:7a:12:c2:1b:7d:a1:39:78:06:f9:14:5f:12:28:
                    1b:29:f0:39:58:36:c6:d6:3a:5a:f3:18:4f:f1:16:
                    85:1d:2d:c3:f0:8e:5e:35:66:73:8f:88:18:cf:c0:
                    23:fb:75:aa:68:d4:de:2a:1c:5a:f6:be:73:da:d3:
                    88:53
                Exponent: 65537 (0x10001)
        X509v3 extensions:
            X509v3 Basic Constraints: 
                CA:FALSE
            Netscape Comment: 
                OpenSSL Generated Certificate
            X509v3 Subject Key Identifier: 
                E1:77:3E:C0:7A:ED:99:AB:91:F8:1E:E4:3E:8A:E4:5F:89:AE:23:8A
            X509v3 Authority Key Identifier: 
                keyid:D6:88:F1:AA:C1:2B:09:8C:B8:5C:9D:CE:DF:57:39:62:26:10:20:90
                DirName:/C=CH/ST=Thurgau/L=Kefikon/O=guengel.ch/CN=CA guengel.ch/emailAddress=postmaster@guengel.ch
                serial:E5:25:3B:A6:77:BD:CB:FF

    Signature Algorithm: sha256WithRSAEncryption
         58:1d:73:e4:a8:7d:68:a3:0b:1e:96:ba:e0:66:d4:53:b7:6c:
         90:47:30:6e:96:31:d4:59:e4:ed:f6:8c:47:de:d2:58:71:9c:
         ea:4b:9f:e1:cf:54:cb:a0:e6:20:a8:d4:96:3b:87:43:b7:0c:
         23:b1:89:9c:4e:dd:e7:c1:50:4c:0e:55:4b:0e:16:8e:30:c6:
         39:bd:6b:1f:9d:25:88:4e:52:a4:eb:a8:7d:9a:75:81:69:cd:
         2c:45:e4:4a:e8:10:21:11:e9:7e:a5:4d:8e:e8:12:82:7d:23:
         ca:dc:8d:91:18:9a:98:54:94:37:a0:06:46:96:db:c2:91:0f:
         5b:f0:54:f0:7f:b4:06:fe:1c:f3:80:9d:ac:18:9e:87:f9:70:
         57:51:0c:04:04:00:31:cd:1a:4c:90:95:56:f3:de:d8:1b:05:
         e2:1c:a9:fc:d1:27:24:ef:29:c8:50:a2:0d:07:6f:bd:59:2e:
         7b:5a:b3:62:e4:24:23:29:1c:74:22:72:6f:46:4b:25:e1:4a:
         cb:c8:2b:f8:0c:db:3d:2f:5f:75:35:5f:41:73:18:7e:4f:2c:
         20:71:c8:6a:f7:ca:a7:32:83:70:21:76:ff:aa:ed:b3:6c:b5:
         4a:f3:c3:27:f4:0c:0a:74:41:2a:5e:71:e8:fc:a6:f2:90:04:
         2c:9c:44:7f:ce:37:2b:15:97:18:d4:da:1a:b9:8d:b9:fe:29:
         26:2e:e7:d6:a1:23:ef:22:c6:ac:e4:d4:da:2d:af:ff:51:ab:
         e5:9f:2c:57:7e:5c:62:0c:28:34:90:f3:74:35:13:be:3c:2b:
         5c:ab:a5:de:18:d2:db:a2:e9:30:d5:80:b5:ac:67:e2:21:f9:
         1d:58:b6:d6:8b:e8:8e:2d:f1:4c:b3:74:b2:22:ea:d7:17:50:
         e2:ff:39:24:d1:72:dc:79:00:ab:b2:8d:82:2a:50:d6:62:d4:
         25:2c:9a:71:25:a6:c0:fa:2c:93:7f:eb:90:fa:6d:04:cc:29:
         0c:1d:3f:44:75:fd:5d:1d:ef:b8:ac:81:bf:e3:57:a1:0b:89:
         dc:a9:8a:fc:85:19:8c:0b:cb:1e:6d:f6:58:5a:01:e1:b5:07:
         e1:df:5a:22:dd:43:47:a8:4e:0a:be:4b:f6:4d:ae:31:f7:f7:
         7a:4d:ec:ce:b8:a5:7a:98:95:54:6e:1f:ee:fe:6b:f8:83:d5:
         29:e8:81:95:99:9e:13:19:db:86:79:19:4b:5c:27:7d:a2:d2:
         26:a9:99:c7:7f:6e:77:01:b5:d4:18:ef:fa:fa:35:71:f9:cd:
         8b:f8:4d:da:29:d7:b4:0d:40:57:e0:64:70:a2:2c:a0:7d:c2:
         ed:ae:a3:2d:aa:bb:7b:4b
-----BEGIN CERTIFICATE-----
MIIFnzCCA4egAwIBAgICAPMwDQYJKoZIhvcNAQELBQAwgYQxCzAJBgNVBAYTAkNI
MRAwDgYDVQQIEwdUaHVyZ2F1MRAwDgYDVQQHEwdLZWZpa29uMRMwEQYDVQQKEwpn
dWVuZ2VsLmNoMRYwFAYDVQQDEw1DQSBndWVuZ2VsLmNoMSQwIgYJKoZIhvcNAQkB
FhVwb3N0bWFzdGVyQGd1ZW5nZWwuY2gwHhcNMTYxMTIwMDkxNzE3WhcNMTgwNDA0
MDkxNzE3WjCBgzELMAkGA1UEBhMCQ0gxEDAOBgNVBAgTB1RodXJnYXUxEzARBgNV
BAoTCmd1ZW5nZWwuY2gxJzAlBgNVBAMTHmZyZWVic2QzMi52aXJ0dWFsLmtydWVt
ZWwuaG9tZTEkMCIGCSqGSIb3DQEJARYVcG9zdG1hc3RlckBndWVuZ2VsLmNoMIIB
IjANBgkqhkiG9w0BAQEFAAOCAQ8AMIIBCgKCAQEA7pRon3GWCMPNwTqGZGAbwe1l
DaNsVWvZ2cclK13T4tQpszJL5r1SgJN2UmculBYzJDJmTaI/faU5hY8XBXFiuNPk
u2MpOQu9iCPUbicZnR17GxWILa/WtRHO6QvsLPyD9mkT+JXEYHZSmz2Aa7RmjQxZ
5stCMYuqfk4GjsZYpdxuzkAbMQZ76WolWJQwFb/wCuYBlIRdN6YhXnmfh1Gq5Qy1
TQ+qVu/524+yjIyWc38QYoubd+1zXRyBFTk6xiFFSuCSehLCG32hOXgG+RRfEigb
KfA5WDbG1jpa8xhP8RaFHS3D8I5eNWZzj4gYz8Aj+3WqaNTeKhxa9r5z2tOIUwID
AQABo4IBGDCCARQwCQYDVR0TBAIwADAsBglghkgBhvhCAQ0EHxYdT3BlblNTTCBH
ZW5lcmF0ZWQgQ2VydGlmaWNhdGUwHQYDVR0OBBYEFOF3PsB67Zmrkfge5D6K5F+J
riOKMIG5BgNVHSMEgbEwga6AFNaI8arBKwmMuFydzt9XOWImECCQoYGKpIGHMIGE
MQswCQYDVQQGEwJDSDEQMA4GA1UECBMHVGh1cmdhdTEQMA4GA1UEBxMHS2VmaWtv
bjETMBEGA1UEChMKZ3VlbmdlbC5jaDEWMBQGA1UEAxMNQ0EgZ3VlbmdlbC5jaDEk
MCIGCSqGSIb3DQEJARYVcG9zdG1hc3RlckBndWVuZ2VsLmNoggkA5SU7pne9y/8w
DQYJKoZIhvcNAQELBQADggIBAFgdc+SofWijCx6WuuBm1FO3bJBHMG6WMdRZ5O32
jEfe0lhxnOpLn+HPVMug5iCo1JY7h0O3DCOxiZxO3efBUEwOVUsOFo4wxjm9ax+d
JYhOUqTrqH2adYFpzSxF5EroECER6X6lTY7oEoJ9I8rcjZEYmphUlDegBkaW28KR
D1vwVPB/tAb+HPOAnawYnof5cFdRDAQEADHNGkyQlVbz3tgbBeIcqfzRJyTvKchQ
og0Hb71ZLntas2LkJCMpHHQicm9GSyXhSsvIK/gM2z0vX3U1X0FzGH5PLCBxyGr3
yqcyg3Ahdv+q7bNstUrzwyf0DAp0QSpecej8pvKQBCycRH/ONysVlxjU2hq5jbn+
KSYu59ahI+8ixqzk1Notr/9Rq+WfLFd+XGIMKDSQ83Q1E748K1yrpd4Y0tui6TDV
gLWsZ+Ih+R1YttaL6I4t8UyzdLIi6tcXUOL/OSTRctx5AKuyjYIqUNZi1CUsmnEl
psD6LJN/65D6bQTMKQwdP0R1/V0d77isgb/jV6ELidypivyFGYwLyx5t9lhaAeG1
B+HfWiLdQ0eoTgq+S/ZNrjH393pN7M64pXqYlVRuH+7+a/iD1SnogZWZnhMZ24Z5
GUtcJ32i0iapmcd/bncBtdQY7/r6NXH5zYv4Tdop17QNQFfgZHCiLKB9wu2uoy2q
u3tL
-----END CERTIFICATE-----
