Certificate:
    Data:
        Version: 3 (0x2)
        Serial Number: 299 (0x12b)
    Signature Algorithm: sha256WithRSAEncryption
        Issuer: C=CH, ST=Thurgau, L=Kefikon, O=guengel.ch, CN=CA guengel.ch/emailAddress=postmaster@guengel.ch
        Validity
            Not Before: Jan  6 18:02:56 2018 GMT
            Not After : Feb 10 18:02:56 2019 GMT
        Subject: C=CH, ST=Thurgau, O=guengel.ch, CN=freebsd32.virtual.kruemel.home/emailAddress=postmaster@guengel.ch
        Subject Public Key Info:
            Public Key Algorithm: rsaEncryption
                Public-Key: (2048 bit)
                Modulus:
                    00:ee:94:68:9f:71:96:08:c3:cd:c1:3a:86:64:60:
                    1b:c1:ed:65:0d:a3:6c:55:6b:d9:d9:c7:25:2b:5d:
                    d3:e2:d4:29:b3:32:4b:e6:bd:52:80:93:76:52:67:
                    2e:94:16:33:24:32:66:4d:a2:3f:7d:a5:39:85:8f:
                    17:05:71:62:b8:d3:e4:bb:63:29:39:0b:bd:88:23:
                    d4:6e:27:19:9d:1d:7b:1b:15:88:2d:af:d6:b5:11:
                    ce:e9:0b:ec:2c:fc:83:f6:69:13:f8:95:c4:60:76:
                    52:9b:3d:80:6b:b4:66:8d:0c:59:e6:cb:42:31:8b:
                    aa:7e:4e:06:8e:c6:58:a5:dc:6e:ce:40:1b:31:06:
                    7b:e9:6a:25:58:94:30:15:bf:f0:0a:e6:01:94:84:
                    5d:37:a6:21:5e:79:9f:87:51:aa:e5:0c:b5:4d:0f:
                    aa:56:ef:f9:db:8f:b2:8c:8c:96:73:7f:10:62:8b:
                    9b:77:ed:73:5d:1c:81:15:39:3a:c6:21:45:4a:e0:
                    92:7a:12:c2:1b:7d:a1:39:78:06:f9:14:5f:12:28:
                    1b:29:f0:39:58:36:c6:d6:3a:5a:f3:18:4f:f1:16:
                    85:1d:2d:c3:f0:8e:5e:35:66:73:8f:88:18:cf:c0:
                    23:fb:75:aa:68:d4:de:2a:1c:5a:f6:be:73:da:d3:
                    88:53
                Exponent: 65537 (0x10001)
        X509v3 extensions:
            X509v3 Basic Constraints: 
                CA:FALSE
            Netscape Comment: 
                OpenSSL Generated Certificate
            X509v3 Subject Key Identifier: 
                E1:77:3E:C0:7A:ED:99:AB:91:F8:1E:E4:3E:8A:E4:5F:89:AE:23:8A
            X509v3 Authority Key Identifier: 
                keyid:D6:88:F1:AA:C1:2B:09:8C:B8:5C:9D:CE:DF:57:39:62:26:10:20:90
                DirName:/C=CH/ST=Thurgau/L=Kefikon/O=guengel.ch/CN=CA guengel.ch/emailAddress=postmaster@guengel.ch
                serial:E5:25:3B:A6:77:BD:CB:FF

    Signature Algorithm: sha256WithRSAEncryption
         af:94:f6:9d:0a:ab:9a:f5:8f:db:2b:ef:28:41:3f:2d:01:cc:
         74:4c:3e:b1:9d:f7:0e:34:28:c6:22:24:c8:2f:36:32:ab:90:
         44:ce:a0:aa:d3:cf:69:5e:21:4e:aa:b9:83:da:a0:81:51:0e:
         82:0b:dd:83:47:53:68:04:05:45:5f:88:23:90:bc:5d:c8:0f:
         9a:c7:3a:15:07:3b:24:17:fa:86:0a:62:c6:6e:af:7f:8d:87:
         c6:33:8c:1e:64:a8:36:bd:b6:af:4a:f4:5f:9b:ba:89:66:e0:
         05:b7:07:53:fd:3a:c4:f0:13:12:b1:15:6c:b9:bf:be:41:ac:
         0c:b6:34:b0:bc:af:0f:9e:6e:e6:0e:eb:c5:df:5b:43:6d:d2:
         e2:10:a6:97:98:ee:57:2b:2c:27:9b:b9:d3:e5:d7:61:0d:08:
         ea:49:fa:21:65:51:00:ad:7d:9f:b7:37:35:a7:7d:22:e0:eb:
         92:ef:eb:3d:b7:09:5a:90:5f:91:cd:96:32:2d:e3:b5:55:ff:
         9b:69:63:bd:e7:94:fe:d3:21:a0:d2:7e:69:db:d4:53:5a:8c:
         79:30:ac:5a:c4:49:4c:3a:52:4f:75:c5:97:d2:ec:cb:59:f9:
         72:15:c4:2f:9a:41:1b:39:7b:ed:d1:21:56:4f:0f:5c:32:a1:
         da:6d:ac:61:81:4a:1c:39:a4:d7:a0:6d:de:c6:45:01:bd:0d:
         ee:c7:2d:3b:5c:04:cf:7f:cd:9d:6e:d1:86:4f:f6:40:9c:ff:
         2e:e1:4b:45:63:b2:3e:f6:1a:28:6b:59:76:a1:3a:e6:e4:1a:
         c2:02:8a:5d:08:0b:d9:6b:3f:4a:51:cb:77:79:53:10:93:cd:
         a0:fa:b6:1e:5a:c8:74:2b:ed:a7:58:b6:25:a0:ce:15:ca:9a:
         c4:10:c8:70:d8:02:65:e2:d5:56:15:e9:1e:30:10:26:16:f6:
         db:e6:3a:21:7d:7f:2a:30:85:ca:ba:1b:13:dd:7f:d7:cb:ef:
         f0:98:47:bc:78:63:c7:eb:7b:bb:29:01:41:48:78:38:d7:2c:
         16:65:00:1e:e0:92:92:c0:5f:60:25:6e:45:0e:bd:05:34:e1:
         83:e8:6e:33:e9:d8:1e:85:cf:7d:27:3e:18:e2:33:5b:1b:d3:
         3e:53:36:cc:d4:f7:de:7b:85:e5:40:97:2d:e6:3f:9f:27:0a:
         8d:f1:a1:45:4b:1d:ed:0e:59:84:52:b8:73:7a:21:d1:46:38:
         83:e8:87:b7:2d:1d:fc:92:12:7c:a5:f8:da:3a:4c:af:aa:61:
         a9:de:b4:02:29:0a:41:66:c9:cb:cd:37:37:21:5d:07:0d:01:
         9b:9f:5b:53:c9:7e:c7:5a
-----BEGIN CERTIFICATE-----
MIIFnzCCA4egAwIBAgICASswDQYJKoZIhvcNAQELBQAwgYQxCzAJBgNVBAYTAkNI
MRAwDgYDVQQIEwdUaHVyZ2F1MRAwDgYDVQQHEwdLZWZpa29uMRMwEQYDVQQKEwpn
dWVuZ2VsLmNoMRYwFAYDVQQDEw1DQSBndWVuZ2VsLmNoMSQwIgYJKoZIhvcNAQkB
FhVwb3N0bWFzdGVyQGd1ZW5nZWwuY2gwHhcNMTgwMTA2MTgwMjU2WhcNMTkwMjEw
MTgwMjU2WjCBgzELMAkGA1UEBhMCQ0gxEDAOBgNVBAgTB1RodXJnYXUxEzARBgNV
BAoTCmd1ZW5nZWwuY2gxJzAlBgNVBAMTHmZyZWVic2QzMi52aXJ0dWFsLmtydWVt
ZWwuaG9tZTEkMCIGCSqGSIb3DQEJARYVcG9zdG1hc3RlckBndWVuZ2VsLmNoMIIB
IjANBgkqhkiG9w0BAQEFAAOCAQ8AMIIBCgKCAQEA7pRon3GWCMPNwTqGZGAbwe1l
DaNsVWvZ2cclK13T4tQpszJL5r1SgJN2UmculBYzJDJmTaI/faU5hY8XBXFiuNPk
u2MpOQu9iCPUbicZnR17GxWILa/WtRHO6QvsLPyD9mkT+JXEYHZSmz2Aa7RmjQxZ
5stCMYuqfk4GjsZYpdxuzkAbMQZ76WolWJQwFb/wCuYBlIRdN6YhXnmfh1Gq5Qy1
TQ+qVu/524+yjIyWc38QYoubd+1zXRyBFTk6xiFFSuCSehLCG32hOXgG+RRfEigb
KfA5WDbG1jpa8xhP8RaFHS3D8I5eNWZzj4gYz8Aj+3WqaNTeKhxa9r5z2tOIUwID
AQABo4IBGDCCARQwCQYDVR0TBAIwADAsBglghkgBhvhCAQ0EHxYdT3BlblNTTCBH
ZW5lcmF0ZWQgQ2VydGlmaWNhdGUwHQYDVR0OBBYEFOF3PsB67Zmrkfge5D6K5F+J
riOKMIG5BgNVHSMEgbEwga6AFNaI8arBKwmMuFydzt9XOWImECCQoYGKpIGHMIGE
MQswCQYDVQQGEwJDSDEQMA4GA1UECBMHVGh1cmdhdTEQMA4GA1UEBxMHS2VmaWtv
bjETMBEGA1UEChMKZ3VlbmdlbC5jaDEWMBQGA1UEAxMNQ0EgZ3VlbmdlbC5jaDEk
MCIGCSqGSIb3DQEJARYVcG9zdG1hc3RlckBndWVuZ2VsLmNoggkA5SU7pne9y/8w
DQYJKoZIhvcNAQELBQADggIBAK+U9p0Kq5r1j9sr7yhBPy0BzHRMPrGd9w40KMYi
JMgvNjKrkETOoKrTz2leIU6quYPaoIFRDoIL3YNHU2gEBUVfiCOQvF3ID5rHOhUH
OyQX+oYKYsZur3+Nh8YzjB5kqDa9tq9K9F+buolm4AW3B1P9OsTwExKxFWy5v75B
rAy2NLC8rw+ebuYO68XfW0Nt0uIQppeY7lcrLCebudPl12ENCOpJ+iFlUQCtfZ+3
NzWnfSLg65Lv6z23CVqQX5HNljIt47VV/5tpY73nlP7TIaDSfmnb1FNajHkwrFrE
SUw6Uk91xZfS7MtZ+XIVxC+aQRs5e+3RIVZPD1wyodptrGGBShw5pNegbd7GRQG9
De7HLTtcBM9/zZ1u0YZP9kCc/y7hS0Vjsj72GihrWXahOubkGsICil0IC9lrP0pR
y3d5UxCTzaD6th5ayHQr7adYtiWgzhXKmsQQyHDYAmXi1VYV6R4wECYW9tvmOiF9
fyowhcq6GxPdf9fL7/CYR7x4Y8fre7spAUFIeDjXLBZlAB7gkpLAX2AlbkUOvQU0
4YPobjPp2B6Fz30nPhjiM1sb0z5TNszU9957heVAly3mP58nCo3xoUVLHe0OWYRS
uHN6IdFGOIPoh7ctHfySEnyl+No6TK+qYanetAIpCkFmycvNNzchXQcNAZufW1PJ
fsda
-----END CERTIFICATE-----
