Certificate:
    Data:
        Version: 3 (0x2)
        Serial Number: 400 (0x190)
        Signature Algorithm: sha256WithRSAEncryption
        Issuer: C=CH, ST=Thurgau, L=Kefikon, O=guengel.ch, CN=CA guengel.ch/emailAddress=postmaster@guengel.ch
        Validity
            Not Before: Aug 16 07:35:58 2020 GMT
            Not After : Sep 20 07:35:58 2021 GMT
        Subject: C=CH, ST=Thurgau, O=guengel.ch, CN=gargoyle.kruemel.home/emailAddress=postmaster@guengel.ch
        Subject Public Key Info:
            Public Key Algorithm: rsaEncryption
                RSA Public-Key: (2048 bit)
                Modulus:
                    00:c5:b7:d2:26:17:f0:0a:b1:80:6f:d6:df:e5:2e:
                    cf:2e:e8:c3:b4:85:02:f3:d2:ef:b7:f0:29:60:fc:
                    73:b7:2a:f4:a8:b2:cc:98:dc:33:e9:e7:69:0b:12:
                    5e:e6:02:da:03:ac:e9:63:7b:a4:cd:4c:78:ac:82:
                    3c:89:d1:6f:6f:0c:ed:1f:b2:5a:6a:0b:8a:36:89:
                    05:59:31:3e:0b:66:2b:19:b8:2b:cb:88:c3:b6:c0:
                    9a:88:f9:69:cf:6c:45:60:a8:92:ca:01:3a:d8:d0:
                    aa:60:a8:1c:99:81:07:a6:23:d4:f1:ac:49:32:02:
                    02:a0:1e:4e:dc:90:b9:3c:81:83:b5:63:14:a3:90:
                    50:f4:e2:de:43:2f:a0:46:13:84:82:34:eb:d1:10:
                    38:5b:98:0b:d8:a9:3b:20:87:17:59:2c:56:b4:c1:
                    08:db:90:2e:31:e4:f9:51:a4:e4:46:04:ae:7d:9f:
                    9c:0d:eb:53:f2:39:33:93:78:36:16:a1:7b:a8:4d:
                    91:06:07:1f:85:8b:00:76:02:3f:40:34:1c:33:97:
                    73:5c:e3:58:09:43:c6:03:fb:26:c7:db:a6:32:05:
                    e5:fa:fe:93:55:f8:16:9e:9f:4c:83:ed:ed:80:79:
                    42:b1:0b:d2:46:26:84:85:12:2c:e5:56:23:46:08:
                    4b:87
                Exponent: 65537 (0x10001)
        X509v3 extensions:
            X509v3 Basic Constraints: 
                CA:FALSE
            X509v3 Key Usage: 
                Digital Signature, Key Agreement
            Netscape Cert Type: 
                SSL Client, SSL Server
            X509v3 Extended Key Usage: 
                TLS Web Server Authentication, TLS Web Client Authentication
            X509v3 Subject Alternative Name: 
                DNS:gargoyle.kruemel.home
    Signature Algorithm: sha256WithRSAEncryption
         18:e0:85:11:93:7a:54:f9:a1:79:2e:1e:ce:43:3f:85:d6:5c:
         d3:4b:bd:fa:df:7f:74:54:5a:25:7c:d3:17:28:d7:aa:f2:44:
         17:19:52:c2:21:ae:4f:3f:ec:fa:3a:8d:54:d2:b5:bb:08:ae:
         c4:77:39:e1:88:68:22:eb:09:43:e6:de:b7:e0:e6:b4:e4:bd:
         f0:42:7d:94:4b:e6:ae:de:7d:6f:be:66:7e:18:48:b8:1f:c1:
         0e:30:bf:29:78:97:ee:34:ea:12:fd:c6:14:9b:b5:c4:3e:4e:
         42:1b:1d:05:46:a2:0c:50:0c:69:1f:fa:0a:1f:d7:ee:f3:bc:
         24:61:4b:c5:f9:9c:c6:2f:73:b8:76:77:79:87:cd:78:02:70:
         db:01:fb:b0:45:be:78:5a:60:55:b8:7b:a7:b4:22:ed:7a:b0:
         e8:3f:eb:25:31:19:cf:ea:d6:dc:bc:aa:5a:4c:4f:67:93:29:
         d7:c1:d4:75:53:9e:96:97:00:76:41:62:91:6f:7d:e3:5d:7d:
         2b:a8:f7:df:1b:e8:e2:cd:a5:5c:65:68:4b:ec:25:23:48:17:
         71:ca:df:b7:d3:a3:75:de:22:ee:e7:fa:43:f2:6d:3c:e0:c6:
         41:40:ef:c5:e3:f4:f5:ba:a8:31:d7:3d:78:db:79:4b:f7:29:
         47:2c:15:0a:fd:65:ce:af:48:51:24:3c:4d:12:8c:1e:4c:b5:
         41:79:9b:37:3b:9a:bb:3a:48:4f:88:9a:d6:f5:8d:a9:8c:e9:
         ad:f5:bd:e2:b8:11:de:cb:6b:12:a5:e7:61:ed:f5:58:1f:ee:
         36:71:0b:53:f6:ad:a4:02:6d:e4:58:04:77:fc:5e:34:d5:99:
         6e:0b:c9:e1:a7:aa:91:b3:0e:47:0a:cd:27:7f:5b:1c:9f:29:
         d7:67:c2:ff:00:ec:14:c3:66:9a:ab:0f:23:16:07:ce:1d:8c:
         62:6b:bf:7b:fd:e9:be:5b:23:9b:42:51:04:66:d9:a1:cf:b6:
         b0:1a:54:a0:72:a7:12:f5:f8:92:49:3b:c9:86:a9:89:b9:a2:
         ce:26:b0:7d:dc:3c:03:73:a1:f3:bf:19:b0:0e:19:bb:30:73:
         18:59:40:ed:3d:ad:04:36:d7:35:9f:df:60:42:95:ef:bd:02:
         1f:5e:c8:01:d8:74:cc:62:96:a1:86:a9:74:5b:43:51:42:ad:
         04:0d:14:7f:63:8b:39:16:0f:27:b8:2c:90:bd:5a:5f:79:71:
         25:8f:32:c6:9e:42:39:94:48:b3:cb:69:6b:51:01:86:cf:1c:
         27:f4:1a:3c:67:18:8c:e3:42:9f:13:6c:b9:43:7d:a6:fd:cd:
         ca:ff:44:76:f7:85:49:eb
-----BEGIN CERTIFICATE-----
MIIE6TCCAtGgAwIBAgICAZAwDQYJKoZIhvcNAQELBQAwgYQxCzAJBgNVBAYTAkNI
MRAwDgYDVQQIEwdUaHVyZ2F1MRAwDgYDVQQHEwdLZWZpa29uMRMwEQYDVQQKEwpn
dWVuZ2VsLmNoMRYwFAYDVQQDEw1DQSBndWVuZ2VsLmNoMSQwIgYJKoZIhvcNAQkB
FhVwb3N0bWFzdGVyQGd1ZW5nZWwuY2gwHhcNMjAwODE2MDczNTU4WhcNMjEwOTIw
MDczNTU4WjB6MQswCQYDVQQGEwJDSDEQMA4GA1UECBMHVGh1cmdhdTETMBEGA1UE
ChMKZ3VlbmdlbC5jaDEeMBwGA1UEAxMVZ2FyZ295bGUua3J1ZW1lbC5ob21lMSQw
IgYJKoZIhvcNAQkBFhVwb3N0bWFzdGVyQGd1ZW5nZWwuY2gwggEiMA0GCSqGSIb3
DQEBAQUAA4IBDwAwggEKAoIBAQDFt9ImF/AKsYBv1t/lLs8u6MO0hQLz0u+38Clg
/HO3KvSossyY3DPp52kLEl7mAtoDrOlje6TNTHisgjyJ0W9vDO0fslpqC4o2iQVZ
MT4LZisZuCvLiMO2wJqI+WnPbEVgqJLKATrY0KpgqByZgQemI9TxrEkyAgKgHk7c
kLk8gYO1YxSjkFD04t5DL6BGE4SCNOvREDhbmAvYqTsghxdZLFa0wQjbkC4x5PlR
pORGBK59n5wN61PyOTOTeDYWoXuoTZEGBx+FiwB2Aj9ANBwzl3Nc41gJQ8YD+ybH
26YyBeX6/pNV+Baen0yD7e2AeUKxC9JGJoSFEizlViNGCEuHAgMBAAGjbjBsMAkG
A1UdEwQCMAAwCwYDVR0PBAQDAgOIMBEGCWCGSAGG+EIBAQQEAwIGwDAdBgNVHSUE
FjAUBggrBgEFBQcDAQYIKwYBBQUHAwIwIAYDVR0RBBkwF4IVZ2FyZ295bGUua3J1
ZW1lbC5ob21lMA0GCSqGSIb3DQEBCwUAA4ICAQAY4IURk3pU+aF5Lh7OQz+F1lzT
S7363390VFolfNMXKNeq8kQXGVLCIa5PP+z6Oo1U0rW7CK7EdznhiGgi6wlD5t63
4Oa05L3wQn2US+au3n1vvmZ+GEi4H8EOML8peJfuNOoS/cYUm7XEPk5CGx0FRqIM
UAxpH/oKH9fu87wkYUvF+ZzGL3O4dnd5h814AnDbAfuwRb54WmBVuHuntCLterDo
P+slMRnP6tbcvKpaTE9nkynXwdR1U56WlwB2QWKRb33jXX0rqPffG+jizaVcZWhL
7CUjSBdxyt+306N13iLu5/pD8m084MZBQO/F4/T1uqgx1z1423lL9ylHLBUK/WXO
r0hRJDxNEoweTLVBeZs3O5q7OkhPiJrW9Y2pjOmt9b3iuBHey2sSpedh7fVYH+42
cQtT9q2kAm3kWAR3/F401ZluC8nhp6qRsw5HCs0nf1scnynXZ8L/AOwUw2aaqw8j
FgfOHYxia797/em+WyObQlEEZtmhz7awGlSgcqcS9fiSSTvJhqmJuaLOJrB93DwD
c6HzvxmwDhm7MHMYWUDtPa0ENtc1n99gQpXvvQIfXsgB2HTMYpahhql0W0NRQq0E
DRR/Y4s5Fg8nuCyQvVpfeXEljzLGnkI5lEizy2lrUQGGzxwn9Bo8ZxiM40KfE2y5
Q32m/c3K/0R294VJ6w==
-----END CERTIFICATE-----
