Certificate:
    Data:
        Version: 3 (0x2)
        Serial Number:
            6d:ec:3c:72:52:7c:12:73:c0:d9:64:5d:e1:fe:09:40:25:7e:ff:2e
        Signature Algorithm: sha256WithRSAEncryption
        Issuer: C=CH, ST=Thurgau, L=Kefikon, O=guengel.ch, CN=CA 2022/emailAddress=postmaster@guengel.ch
        Validity
            Not Before: Feb 28 06:41:14 2023 GMT
            Not After : Apr  3 06:41:14 2024 GMT
        Subject: C=CH, ST=Thurgau, O=guengel.ch, CN=gargoyle.kruemel.home/emailAddress=postmaster@guengel.ch
        Subject Public Key Info:
            Public Key Algorithm: rsaEncryption
                RSA Public-Key: (2048 bit)
                Modulus:
                    00:d6:5c:b1:ab:b6:cc:bf:fb:8b:45:1b:17:ce:fe:
                    94:ee:3b:cd:af:7f:7a:e0:c8:a8:08:07:69:db:1b:
                    b4:a3:8b:f5:e7:8f:34:b6:ee:32:31:66:ff:6d:b2:
                    42:31:5f:de:55:00:b6:bb:09:c2:f2:1b:bf:75:d2:
                    19:91:e4:28:86:90:9c:31:b3:0f:f0:7e:81:9a:b4:
                    6a:1c:62:dd:b9:e5:48:4f:ce:d6:b3:b2:9d:70:bb:
                    7c:84:22:97:77:45:60:c7:af:b4:b4:2b:2f:9d:a7:
                    57:c1:ff:49:33:6a:8a:e5:99:8f:3b:78:2a:6c:0d:
                    26:d2:f8:75:5d:d6:ce:04:f6:1c:57:4a:84:c5:76:
                    6e:db:31:c6:1b:38:68:76:f3:9f:a5:ad:97:86:37:
                    2a:b9:e4:41:e1:85:ef:84:c4:5d:c5:63:68:7a:97:
                    3e:0c:d3:32:82:74:c7:96:8e:da:04:1f:ab:54:71:
                    53:4a:bb:3e:54:23:15:e5:21:18:fd:2e:a9:29:1b:
                    0e:17:f6:cc:62:b6:75:a6:96:72:74:29:dc:38:f5:
                    8d:fe:1b:e7:68:a0:1a:ae:8e:72:36:d6:93:75:1c:
                    96:06:66:3d:16:7f:77:9e:3e:ed:1d:c4:04:16:5f:
                    4b:b6:87:79:bd:4c:ba:81:0c:b1:67:ad:ad:1c:4f:
                    2b:c7
                Exponent: 65537 (0x10001)
        X509v3 extensions:
            X509v3 Basic Constraints: critical
                CA:FALSE
            X509v3 Key Usage: 
                Digital Signature, Key Encipherment, Key Agreement
            X509v3 Subject Key Identifier: 
                14:55:91:68:2F:C3:67:A9:DC:33:06:66:A3:84:72:6B:4C:1B:75:C9
            X509v3 Authority Key Identifier: 
                keyid:22:20:0D:51:40:61:42:BE:DD:BA:D9:C9:C1:77:B6:93:28:C3:99:EC
                DirName:/C=CH/ST=Thurgau/L=Kefikon/O=guengel.ch/CN=CA 2022/emailAddress=postmaster@guengel.ch
                serial:6D:29:90:54:E9:17:E9:C2:6A:E6:52:AD:84:4E:30:8E:6E:57:FB:1C

            Netscape Cert Type: 
                SSL Client, SSL Server
            X509v3 Extended Key Usage: 
                TLS Web Server Authentication, TLS Web Client Authentication
            X509v3 Subject Alternative Name: 
                DNS:gargoyle.kruemel.home
    Signature Algorithm: sha256WithRSAEncryption
         9a:89:30:9b:cf:07:b7:d3:00:47:6e:d3:b3:0e:9c:ba:a0:79:
         52:11:73:54:47:8d:a7:8c:74:36:88:5a:da:52:a8:ff:65:f0:
         3c:3e:90:6e:ef:dd:18:75:58:c9:d8:56:64:bf:40:51:96:52:
         b4:c9:91:04:93:26:62:9c:75:13:15:1d:4c:2b:32:41:b5:55:
         8f:2e:13:9f:14:f9:8a:81:78:7a:84:df:bc:9a:a0:f5:13:c9:
         b9:93:0f:be:be:0b:f2:55:c1:1c:12:f3:16:4d:cf:05:2d:45:
         27:6d:58:02:82:0c:99:40:99:b7:17:d0:d6:5e:79:64:6b:90:
         05:11:a2:70:bc:ff:b0:7a:e8:cd:ea:48:85:11:28:01:d6:fe:
         62:fc:59:db:1f:77:13:40:99:a5:61:62:07:fd:da:c1:fe:6c:
         cf:d0:9e:93:83:1d:7a:1c:21:62:3c:21:33:b4:89:08:46:5b:
         69:25:6f:92:f3:c2:86:c2:d2:3a:fe:32:b5:21:2f:e5:db:9d:
         a7:b5:1d:e1:f4:18:53:ed:ff:46:0c:51:b2:06:47:7d:25:89:
         cb:a2:72:21:40:97:f3:1f:5a:35:98:e1:f2:83:00:2f:46:9a:
         54:a9:d3:e8:2e:95:77:bf:66:b9:a1:58:00:6f:23:51:5e:8a:
         df:2d:14:6f:10:69:af:bd:d9:bd:f3:2c:86:4a:ba:e0:57:fc:
         c4:3b:8e:a2:18:d5:9d:b7:38:81:2a:4a:80:4a:ca:fd:f4:77:
         dd:67:b2:66:2b:c3:24:6a:cc:46:c6:b8:fb:2b:4a:22:20:87:
         e8:66:93:9e:62:9f:2b:18:c8:4e:26:29:d0:fa:55:63:56:a7:
         68:ad:bd:c0:08:c7:31:36:86:3e:8e:a2:b3:d8:a2:e4:c7:d2:
         f6:1a:14:a3:47:e1:1b:9b:55:c9:0e:9e:2f:d1:60:ef:8c:ae:
         76:8b:c7:cd:13:e8:df:6a:ef:16:9b:41:b9:f8:06:e4:bd:e8:
         5b:20:84:19:b9:5b:d1:05:ea:c0:05:22:60:18:b8:a9:ae:a9:
         63:20:1c:e4:c7:44:60:ea:86:61:0a:62:65:34:41:e7:1c:6b:
         c8:0a:fe:67:20:13:a5:71:2e:24:d3:fd:08:39:6e:4c:6d:4b:
         3d:fd:f1:c5:ea:9d:26:a8:d2:18:4d:f3:1b:7d:8a:fd:7d:da:
         2c:5b:b9:17:fc:81:ae:4d:f4:59:7b:ae:93:d9:cb:15:2c:fd:
         5d:84:db:ef:ba:1c:19:7c:9e:4b:8f:38:51:2d:ec:92:9e:78:
         9e:d9:e3:c8:ca:fe:8a:17:62:47:68:52:23:4f:56:e9:07:68:
         7b:66:21:39:75:4f:da:74
-----BEGIN CERTIFICATE-----
MIIF2jCCA8KgAwIBAgIUbew8clJ8EnPA2WRd4f4JQCV+/y4wDQYJKoZIhvcNAQEL
BQAwfjELMAkGA1UEBhMCQ0gxEDAOBgNVBAgTB1RodXJnYXUxEDAOBgNVBAcTB0tl
Zmlrb24xEzARBgNVBAoTCmd1ZW5nZWwuY2gxEDAOBgNVBAMTB0NBIDIwMjIxJDAi
BgkqhkiG9w0BCQEWFXBvc3RtYXN0ZXJAZ3VlbmdlbC5jaDAeFw0yMzAyMjgwNjQx
MTRaFw0yNDA0MDMwNjQxMTRaMHoxCzAJBgNVBAYTAkNIMRAwDgYDVQQIEwdUaHVy
Z2F1MRMwEQYDVQQKEwpndWVuZ2VsLmNoMR4wHAYDVQQDExVnYXJnb3lsZS5rcnVl
bWVsLmhvbWUxJDAiBgkqhkiG9w0BCQEWFXBvc3RtYXN0ZXJAZ3VlbmdlbC5jaDCC
ASIwDQYJKoZIhvcNAQEBBQADggEPADCCAQoCggEBANZcsau2zL/7i0UbF87+lO47
za9/euDIqAgHadsbtKOL9eePNLbuMjFm/22yQjFf3lUAtrsJwvIbv3XSGZHkKIaQ
nDGzD/B+gZq0ahxi3bnlSE/O1rOynXC7fIQil3dFYMevtLQrL52nV8H/STNqiuWZ
jzt4KmwNJtL4dV3WzgT2HFdKhMV2btsxxhs4aHbzn6Wtl4Y3KrnkQeGF74TEXcVj
aHqXPgzTMoJ0x5aO2gQfq1RxU0q7PlQjFeUhGP0uqSkbDhf2zGK2daaWcnQp3Dj1
jf4b52igGq6OcjbWk3UclgZmPRZ/d54+7R3EBBZfS7aHeb1MuoEMsWetrRxPK8cC
AwEAAaOCAVIwggFOMAwGA1UdEwEB/wQCMAAwCwYDVR0PBAQDAgOoMB0GA1UdDgQW
BBQUVZFoL8NnqdwzBmajhHJrTBt1yTCBvQYDVR0jBIG1MIGygBQiIA1RQGFCvt26
2cnBd7aTKMOZ7KGBg6SBgDB+MQswCQYDVQQGEwJDSDEQMA4GA1UECBMHVGh1cmdh
dTEQMA4GA1UEBxMHS2VmaWtvbjETMBEGA1UEChMKZ3VlbmdlbC5jaDEQMA4GA1UE
AxMHQ0EgMjAyMjEkMCIGCSqGSIb3DQEJARYVcG9zdG1hc3RlckBndWVuZ2VsLmNo
ghRtKZBU6RfpwmrmUq2ETjCOblf7HDARBglghkgBhvhCAQEEBAMCBsAwHQYDVR0l
BBYwFAYIKwYBBQUHAwEGCCsGAQUFBwMCMCAGA1UdEQQZMBeCFWdhcmdveWxlLmty
dWVtZWwuaG9tZTANBgkqhkiG9w0BAQsFAAOCAgEAmokwm88Ht9MAR27Tsw6cuqB5
UhFzVEeNp4x0Noha2lKo/2XwPD6Qbu/dGHVYydhWZL9AUZZStMmRBJMmYpx1ExUd
TCsyQbVVjy4TnxT5ioF4eoTfvJqg9RPJuZMPvr4L8lXBHBLzFk3PBS1FJ21YAoIM
mUCZtxfQ1l55ZGuQBRGicLz/sHrozepIhREoAdb+YvxZ2x93E0CZpWFiB/3awf5s
z9Cek4MdehwhYjwhM7SJCEZbaSVvkvPChsLSOv4ytSEv5dudp7Ud4fQYU+3/RgxR
sgZHfSWJy6JyIUCX8x9aNZjh8oMAL0aaVKnT6C6Vd79muaFYAG8jUV6K3y0UbxBp
r73ZvfMshkq64Ff8xDuOohjVnbc4gSpKgErK/fR33WeyZivDJGrMRsa4+ytKIiCH
6GaTnmKfKxjITiYp0PpVY1anaK29wAjHMTaGPo6is9ii5MfS9hoUo0fhG5tVyQ6e
L9Fg74yudovHzRPo32rvFptBufgG5L3oWyCEGblb0QXqwAUiYBi4qa6pYyAc5MdE
YOqGYQpiZTRB5xxryAr+ZyATpXEuJNP9CDluTG1LPf3xxeqdJqjSGE3zG32K/X3a
LFu5F/yBrk30WXuuk9nLFSz9XYTb77ocGXyeS484US3skp54ntnjyMr+ihdiR2hS
I09W6Qdoe2YhOXVP2nQ=
-----END CERTIFICATE-----
