Certificate:
    Data:
        Version: 3 (0x2)
        Serial Number:
            6f:9c:4c:22:dc:6e:64:32:c4:25:8f:48:15:23:b9:31:ad:a5:7e:7c
        Signature Algorithm: sha256WithRSAEncryption
        Issuer: C=CH, ST=Thurgau, L=Kefikon, O=guengel.ch, CN=CA 2022/emailAddress=postmaster@guengel.ch
        Validity
            Not Before: Feb 11 15:54:28 2022 GMT
            Not After : Mar 18 15:54:28 2023 GMT
        Subject: C=CH, ST=Thurgau, O=guengel.ch, CN=gargoyle.kruemel.home/emailAddress=postmaster@guengel.ch
        Subject Public Key Info:
            Public Key Algorithm: rsaEncryption
                RSA Public-Key: (2048 bit)
                Modulus:
                    00:d6:5c:b1:ab:b6:cc:bf:fb:8b:45:1b:17:ce:fe:
                    94:ee:3b:cd:af:7f:7a:e0:c8:a8:08:07:69:db:1b:
                    b4:a3:8b:f5:e7:8f:34:b6:ee:32:31:66:ff:6d:b2:
                    42:31:5f:de:55:00:b6:bb:09:c2:f2:1b:bf:75:d2:
                    19:91:e4:28:86:90:9c:31:b3:0f:f0:7e:81:9a:b4:
                    6a:1c:62:dd:b9:e5:48:4f:ce:d6:b3:b2:9d:70:bb:
                    7c:84:22:97:77:45:60:c7:af:b4:b4:2b:2f:9d:a7:
                    57:c1:ff:49:33:6a:8a:e5:99:8f:3b:78:2a:6c:0d:
                    26:d2:f8:75:5d:d6:ce:04:f6:1c:57:4a:84:c5:76:
                    6e:db:31:c6:1b:38:68:76:f3:9f:a5:ad:97:86:37:
                    2a:b9:e4:41:e1:85:ef:84:c4:5d:c5:63:68:7a:97:
                    3e:0c:d3:32:82:74:c7:96:8e:da:04:1f:ab:54:71:
                    53:4a:bb:3e:54:23:15:e5:21:18:fd:2e:a9:29:1b:
                    0e:17:f6:cc:62:b6:75:a6:96:72:74:29:dc:38:f5:
                    8d:fe:1b:e7:68:a0:1a:ae:8e:72:36:d6:93:75:1c:
                    96:06:66:3d:16:7f:77:9e:3e:ed:1d:c4:04:16:5f:
                    4b:b6:87:79:bd:4c:ba:81:0c:b1:67:ad:ad:1c:4f:
                    2b:c7
                Exponent: 65537 (0x10001)
        X509v3 extensions:
            X509v3 Basic Constraints: critical
                CA:FALSE
            X509v3 Key Usage: 
                Digital Signature, Key Encipherment, Key Agreement
            X509v3 Subject Key Identifier: 
                14:55:91:68:2F:C3:67:A9:DC:33:06:66:A3:84:72:6B:4C:1B:75:C9
            X509v3 Authority Key Identifier: 
                keyid:22:20:0D:51:40:61:42:BE:DD:BA:D9:C9:C1:77:B6:93:28:C3:99:EC
                DirName:/C=CH/ST=Thurgau/L=Kefikon/O=guengel.ch/CN=CA 2022/emailAddress=postmaster@guengel.ch
                serial:6D:29:90:54:E9:17:E9:C2:6A:E6:52:AD:84:4E:30:8E:6E:57:FB:1C

            Netscape Cert Type: 
                SSL Client, SSL Server
            X509v3 Extended Key Usage: 
                TLS Web Server Authentication, TLS Web Client Authentication
            X509v3 Subject Alternative Name: 
                DNS:gargoyle.kruemel.home
    Signature Algorithm: sha256WithRSAEncryption
         2d:60:2f:be:59:5f:d3:22:11:eb:13:a1:db:3d:6b:47:a1:11:
         6f:e8:89:be:92:35:b1:64:4c:d0:8e:33:53:60:6c:c6:fb:b9:
         0a:0b:5a:fd:05:46:8c:6a:c3:f5:5d:a2:c4:a5:4c:3b:e4:9a:
         5f:b9:34:6c:a5:61:9b:c4:ef:53:1e:95:0a:fe:a0:0d:5e:6d:
         d0:5f:d2:e1:20:ea:9a:ea:6e:6d:a0:83:cb:3d:39:e2:96:54:
         b5:b0:1f:70:a1:cc:2a:5e:df:88:a7:ef:25:1b:0b:bc:c4:ad:
         ae:9d:b4:e5:bd:57:17:50:e8:96:33:d6:ed:5b:e1:f2:18:e3:
         01:14:29:a2:6e:ab:1b:23:42:07:81:f3:0f:9c:74:c0:b2:09:
         af:98:ec:ba:61:b1:db:4f:27:c2:c5:2e:b4:5b:76:46:bb:21:
         c2:db:d5:10:eb:d4:fa:1d:60:a2:15:63:14:27:d9:53:f7:58:
         e6:95:6e:98:db:39:0c:47:95:45:76:30:0e:c8:0b:b0:52:e6:
         14:61:97:d1:c7:2a:23:c2:45:73:8f:4a:a3:0f:16:76:37:ab:
         3c:ec:0d:4d:1e:df:65:f4:42:a4:52:c4:17:b9:b6:ff:60:72:
         54:01:d9:b8:54:82:e7:b6:83:c9:a6:c4:61:fc:1d:30:63:4c:
         58:fa:c1:58:9e:21:f6:77:c2:bb:a0:cd:26:25:ad:12:20:2e:
         bd:72:55:7d:61:cb:9c:78:4e:0a:58:57:3c:ee:a2:79:57:bd:
         14:c8:80:b9:a3:f3:d6:4a:3f:c5:00:7b:a2:68:32:6c:f6:88:
         5a:e8:a4:54:61:01:b2:af:8f:e4:8f:da:8e:12:51:39:a9:3b:
         42:ac:65:a3:52:d7:bf:1c:4b:12:fa:01:fa:47:f3:00:3f:e8:
         37:75:97:f1:cd:48:67:0e:b5:7e:81:a3:05:f2:3e:69:ff:47:
         2f:8e:9e:4e:58:51:06:97:6a:22:51:11:c2:97:49:28:71:44:
         a6:a2:c6:6f:77:d4:38:39:6f:7e:6d:39:8b:63:1d:d4:4c:e0:
         a4:8c:49:14:b0:c5:93:e5:08:9e:e9:d7:6e:f9:b4:70:7a:73:
         8d:00:3b:3f:1a:e4:96:a2:35:4c:dc:a3:e5:92:5f:df:52:f9:
         23:6e:81:ed:eb:07:fd:f7:4c:d4:e6:05:7c:76:bc:70:12:8e:
         87:29:ee:1b:27:20:12:2e:45:19:89:d5:fe:13:3c:a6:dd:fc:
         5b:5a:80:b7:3d:ce:16:ba:a8:2a:52:e4:17:ea:0b:ac:90:47:
         92:3f:ed:00:7f:35:61:ff:4e:8a:93:3e:49:5a:74:5f:7d:d2:
         c2:72:c0:4f:4f:54:00:99
-----BEGIN CERTIFICATE-----
MIIF2jCCA8KgAwIBAgIUb5xMItxuZDLEJY9IFSO5Ma2lfnwwDQYJKoZIhvcNAQEL
BQAwfjELMAkGA1UEBhMCQ0gxEDAOBgNVBAgTB1RodXJnYXUxEDAOBgNVBAcTB0tl
Zmlrb24xEzARBgNVBAoTCmd1ZW5nZWwuY2gxEDAOBgNVBAMTB0NBIDIwMjIxJDAi
BgkqhkiG9w0BCQEWFXBvc3RtYXN0ZXJAZ3VlbmdlbC5jaDAeFw0yMjAyMTExNTU0
MjhaFw0yMzAzMTgxNTU0MjhaMHoxCzAJBgNVBAYTAkNIMRAwDgYDVQQIEwdUaHVy
Z2F1MRMwEQYDVQQKEwpndWVuZ2VsLmNoMR4wHAYDVQQDExVnYXJnb3lsZS5rcnVl
bWVsLmhvbWUxJDAiBgkqhkiG9w0BCQEWFXBvc3RtYXN0ZXJAZ3VlbmdlbC5jaDCC
ASIwDQYJKoZIhvcNAQEBBQADggEPADCCAQoCggEBANZcsau2zL/7i0UbF87+lO47
za9/euDIqAgHadsbtKOL9eePNLbuMjFm/22yQjFf3lUAtrsJwvIbv3XSGZHkKIaQ
nDGzD/B+gZq0ahxi3bnlSE/O1rOynXC7fIQil3dFYMevtLQrL52nV8H/STNqiuWZ
jzt4KmwNJtL4dV3WzgT2HFdKhMV2btsxxhs4aHbzn6Wtl4Y3KrnkQeGF74TEXcVj
aHqXPgzTMoJ0x5aO2gQfq1RxU0q7PlQjFeUhGP0uqSkbDhf2zGK2daaWcnQp3Dj1
jf4b52igGq6OcjbWk3UclgZmPRZ/d54+7R3EBBZfS7aHeb1MuoEMsWetrRxPK8cC
AwEAAaOCAVIwggFOMAwGA1UdEwEB/wQCMAAwCwYDVR0PBAQDAgOoMB0GA1UdDgQW
BBQUVZFoL8NnqdwzBmajhHJrTBt1yTCBvQYDVR0jBIG1MIGygBQiIA1RQGFCvt26
2cnBd7aTKMOZ7KGBg6SBgDB+MQswCQYDVQQGEwJDSDEQMA4GA1UECBMHVGh1cmdh
dTEQMA4GA1UEBxMHS2VmaWtvbjETMBEGA1UEChMKZ3VlbmdlbC5jaDEQMA4GA1UE
AxMHQ0EgMjAyMjEkMCIGCSqGSIb3DQEJARYVcG9zdG1hc3RlckBndWVuZ2VsLmNo
ghRtKZBU6RfpwmrmUq2ETjCOblf7HDARBglghkgBhvhCAQEEBAMCBsAwHQYDVR0l
BBYwFAYIKwYBBQUHAwEGCCsGAQUFBwMCMCAGA1UdEQQZMBeCFWdhcmdveWxlLmty
dWVtZWwuaG9tZTANBgkqhkiG9w0BAQsFAAOCAgEALWAvvllf0yIR6xOh2z1rR6ER
b+iJvpI1sWRM0I4zU2Bsxvu5Cgta/QVGjGrD9V2ixKVMO+SaX7k0bKVhm8TvUx6V
Cv6gDV5t0F/S4SDqmupubaCDyz054pZUtbAfcKHMKl7fiKfvJRsLvMStrp205b1X
F1DoljPW7Vvh8hjjARQpom6rGyNCB4HzD5x0wLIJr5jsumGx208nwsUutFt2Rrsh
wtvVEOvU+h1gohVjFCfZU/dY5pVumNs5DEeVRXYwDsgLsFLmFGGX0ccqI8JFc49K
ow8WdjerPOwNTR7fZfRCpFLEF7m2/2ByVAHZuFSC57aDyabEYfwdMGNMWPrBWJ4h
9nfCu6DNJiWtEiAuvXJVfWHLnHhOClhXPO6ieVe9FMiAuaPz1ko/xQB7omgybPaI
WuikVGEBsq+P5I/ajhJROak7Qqxlo1LXvxxLEvoB+kfzAD/oN3WX8c1IZw61foGj
BfI+af9HL46eTlhRBpdqIlERwpdJKHFEpqLGb3fUODlvfm05i2Md1EzgpIxJFLDF
k+UInunXbvm0cHpzjQA7PxrklqI1TNyj5ZJf31L5I26B7esH/fdM1OYFfHa8cBKO
hynuGycgEi5FGYnV/hM8pt38W1qAtz3OFrqoKlLkF+oLrJBHkj/tAH81Yf9OipM+
SVp0X33SwnLAT09UAJk=
-----END CERTIFICATE-----
