Certificate:
    Data:
        Version: 3 (0x2)
        Serial Number:
            5d:cc:fd:02:0c:da:3b:9f:b2:f5:f6:66:ff:31:f6:fd:ac:55:e8:1a
        Signature Algorithm: sha256WithRSAEncryption
        Issuer: C=CH, ST=Thurgau, L=Kefikon, O=guengel.ch, CN=CA 2022/emailAddress=postmaster@guengel.ch
        Validity
            Not Before: Jan  3 14:04:21 2025 GMT
            Not After : Feb  7 14:04:21 2026 GMT
        Subject: C=CH, ST=Thurgau, O=guengel.ch, CN=gargoyle.kruemel.home/emailAddress=postmaster@guengel.ch
        Subject Public Key Info:
            Public Key Algorithm: rsaEncryption
                Public-Key: (2048 bit)
                Modulus:
                    00:d6:5c:b1:ab:b6:cc:bf:fb:8b:45:1b:17:ce:fe:
                    94:ee:3b:cd:af:7f:7a:e0:c8:a8:08:07:69:db:1b:
                    b4:a3:8b:f5:e7:8f:34:b6:ee:32:31:66:ff:6d:b2:
                    42:31:5f:de:55:00:b6:bb:09:c2:f2:1b:bf:75:d2:
                    19:91:e4:28:86:90:9c:31:b3:0f:f0:7e:81:9a:b4:
                    6a:1c:62:dd:b9:e5:48:4f:ce:d6:b3:b2:9d:70:bb:
                    7c:84:22:97:77:45:60:c7:af:b4:b4:2b:2f:9d:a7:
                    57:c1:ff:49:33:6a:8a:e5:99:8f:3b:78:2a:6c:0d:
                    26:d2:f8:75:5d:d6:ce:04:f6:1c:57:4a:84:c5:76:
                    6e:db:31:c6:1b:38:68:76:f3:9f:a5:ad:97:86:37:
                    2a:b9:e4:41:e1:85:ef:84:c4:5d:c5:63:68:7a:97:
                    3e:0c:d3:32:82:74:c7:96:8e:da:04:1f:ab:54:71:
                    53:4a:bb:3e:54:23:15:e5:21:18:fd:2e:a9:29:1b:
                    0e:17:f6:cc:62:b6:75:a6:96:72:74:29:dc:38:f5:
                    8d:fe:1b:e7:68:a0:1a:ae:8e:72:36:d6:93:75:1c:
                    96:06:66:3d:16:7f:77:9e:3e:ed:1d:c4:04:16:5f:
                    4b:b6:87:79:bd:4c:ba:81:0c:b1:67:ad:ad:1c:4f:
                    2b:c7
                Exponent: 65537 (0x10001)
        X509v3 extensions:
            X509v3 Basic Constraints: critical
                CA:FALSE
            X509v3 Key Usage: 
                Digital Signature, Key Encipherment, Key Agreement
            X509v3 Subject Key Identifier: 
                14:55:91:68:2F:C3:67:A9:DC:33:06:66:A3:84:72:6B:4C:1B:75:C9
            X509v3 Authority Key Identifier: 
                keyid:22:20:0D:51:40:61:42:BE:DD:BA:D9:C9:C1:77:B6:93:28:C3:99:EC
                DirName:/C=CH/ST=Thurgau/L=Kefikon/O=guengel.ch/CN=CA 2022/emailAddress=postmaster@guengel.ch
                serial:6D:29:90:54:E9:17:E9:C2:6A:E6:52:AD:84:4E:30:8E:6E:57:FB:1C
            Netscape Cert Type: 
                SSL Client, SSL Server
            X509v3 Extended Key Usage: 
                TLS Web Server Authentication, TLS Web Client Authentication
            X509v3 Subject Alternative Name: 
                DNS:gargoyle.kruemel.home
    Signature Algorithm: sha256WithRSAEncryption
    Signature Value:
        9d:09:4b:79:f1:a8:2a:1e:8a:95:7f:89:56:52:de:39:16:42:
        f5:b5:21:5d:38:d6:1c:b8:a7:87:a3:a2:24:d4:54:9b:1d:e3:
        6c:d6:67:59:e5:90:af:4c:c2:6b:1e:ba:e5:80:da:27:74:53:
        06:be:65:0c:72:98:2c:9a:f4:cb:18:99:00:1b:be:19:d7:04:
        ec:7a:85:6a:c1:fa:e9:d4:70:dc:6a:37:73:a9:36:b1:6a:b8:
        35:33:d9:8c:56:24:98:e0:72:43:c5:01:ea:cc:80:a0:8b:34:
        11:0c:65:84:6a:f3:75:ad:60:77:ac:58:77:e0:ff:3f:cb:8b:
        33:c5:37:6d:02:8c:4c:f0:3f:79:2b:71:cb:ae:57:9d:d7:d4:
        65:fc:85:99:0d:14:ff:b8:4b:9b:81:38:12:06:17:05:09:2c:
        f8:58:dd:93:02:c6:f4:73:9c:c7:8d:54:68:86:fc:e4:b0:e4:
        4f:ce:bb:52:f8:a5:fa:e8:03:da:06:1e:6a:a4:64:e4:ed:6a:
        a6:d8:9f:49:73:1e:0c:33:e7:53:c5:1b:84:81:00:02:19:bf:
        8e:82:dd:af:38:6a:17:4d:a3:10:d3:10:ce:78:53:bc:9d:c5:
        ed:76:7b:bb:49:48:71:55:5f:6d:65:10:26:ef:09:ab:d3:bb:
        f0:e2:cb:3d:2c:84:e4:46:0e:d1:c5:9c:e0:e5:73:cb:40:34:
        75:ee:88:3a:36:f4:e6:c7:f1:69:24:34:78:a0:ed:67:a2:7e:
        92:58:58:0f:81:65:76:19:44:20:0d:ed:77:da:95:d2:4f:a0:
        d4:37:a2:76:dd:19:90:18:66:7a:75:2e:4c:98:17:b1:47:9c:
        eb:1d:ac:a8:3d:f6:aa:eb:7c:df:b3:f6:df:bf:86:01:37:5e:
        48:94:b5:70:39:41:e1:c9:50:e7:d1:06:9a:57:55:de:22:5b:
        05:24:6c:31:91:57:51:a6:ee:55:cb:39:be:ab:e1:bb:1e:c7:
        f6:00:58:1b:53:01:e8:a8:2f:2b:c7:f4:0b:77:e2:20:2b:7e:
        50:b0:5a:aa:79:1f:3e:64:e8:4a:f2:6b:bb:ff:35:94:a1:da:
        14:df:3e:2e:44:8e:be:bf:0b:d7:8c:2c:b7:5b:ea:11:f1:f4:
        95:a5:ab:d6:4c:3a:a4:64:bc:03:e4:ec:81:ba:e0:81:8b:e7:
        4d:06:6e:3c:fa:5f:2a:3f:4e:ee:25:ce:98:42:b3:cf:25:03:
        ec:fc:84:09:e0:0c:0a:e9:6d:8a:af:fe:9e:5f:32:0b:4f:07:
        6b:ba:7f:f3:73:fa:9d:54:8a:e4:d5:34:d6:34:8b:9b:26:12:
        fb:39:a6:5c:33:e1:b7:87
-----BEGIN CERTIFICATE-----
MIIF2jCCA8KgAwIBAgIUXcz9AgzaO5+y9fZm/zH2/axV6BowDQYJKoZIhvcNAQEL
BQAwfjELMAkGA1UEBhMCQ0gxEDAOBgNVBAgTB1RodXJnYXUxEDAOBgNVBAcTB0tl
Zmlrb24xEzARBgNVBAoTCmd1ZW5nZWwuY2gxEDAOBgNVBAMTB0NBIDIwMjIxJDAi
BgkqhkiG9w0BCQEWFXBvc3RtYXN0ZXJAZ3VlbmdlbC5jaDAeFw0yNTAxMDMxNDA0
MjFaFw0yNjAyMDcxNDA0MjFaMHoxCzAJBgNVBAYTAkNIMRAwDgYDVQQIEwdUaHVy
Z2F1MRMwEQYDVQQKEwpndWVuZ2VsLmNoMR4wHAYDVQQDExVnYXJnb3lsZS5rcnVl
bWVsLmhvbWUxJDAiBgkqhkiG9w0BCQEWFXBvc3RtYXN0ZXJAZ3VlbmdlbC5jaDCC
ASIwDQYJKoZIhvcNAQEBBQADggEPADCCAQoCggEBANZcsau2zL/7i0UbF87+lO47
za9/euDIqAgHadsbtKOL9eePNLbuMjFm/22yQjFf3lUAtrsJwvIbv3XSGZHkKIaQ
nDGzD/B+gZq0ahxi3bnlSE/O1rOynXC7fIQil3dFYMevtLQrL52nV8H/STNqiuWZ
jzt4KmwNJtL4dV3WzgT2HFdKhMV2btsxxhs4aHbzn6Wtl4Y3KrnkQeGF74TEXcVj
aHqXPgzTMoJ0x5aO2gQfq1RxU0q7PlQjFeUhGP0uqSkbDhf2zGK2daaWcnQp3Dj1
jf4b52igGq6OcjbWk3UclgZmPRZ/d54+7R3EBBZfS7aHeb1MuoEMsWetrRxPK8cC
AwEAAaOCAVIwggFOMAwGA1UdEwEB/wQCMAAwCwYDVR0PBAQDAgOoMB0GA1UdDgQW
BBQUVZFoL8NnqdwzBmajhHJrTBt1yTCBvQYDVR0jBIG1MIGygBQiIA1RQGFCvt26
2cnBd7aTKMOZ7KGBg6SBgDB+MQswCQYDVQQGEwJDSDEQMA4GA1UECBMHVGh1cmdh
dTEQMA4GA1UEBxMHS2VmaWtvbjETMBEGA1UEChMKZ3VlbmdlbC5jaDEQMA4GA1UE
AxMHQ0EgMjAyMjEkMCIGCSqGSIb3DQEJARYVcG9zdG1hc3RlckBndWVuZ2VsLmNo
ghRtKZBU6RfpwmrmUq2ETjCOblf7HDARBglghkgBhvhCAQEEBAMCBsAwHQYDVR0l
BBYwFAYIKwYBBQUHAwEGCCsGAQUFBwMCMCAGA1UdEQQZMBeCFWdhcmdveWxlLmty
dWVtZWwuaG9tZTANBgkqhkiG9w0BAQsFAAOCAgEAnQlLefGoKh6KlX+JVlLeORZC
9bUhXTjWHLinh6OiJNRUmx3jbNZnWeWQr0zCax665YDaJ3RTBr5lDHKYLJr0yxiZ
ABu+GdcE7HqFasH66dRw3Go3c6k2sWq4NTPZjFYkmOByQ8UB6syAoIs0EQxlhGrz
da1gd6xYd+D/P8uLM8U3bQKMTPA/eStxy65XndfUZfyFmQ0U/7hLm4E4EgYXBQks
+FjdkwLG9HOcx41UaIb85LDkT867Uvil+ugD2gYeaqRk5O1qptifSXMeDDPnU8Ub
hIEAAhm/joLdrzhqF02jENMQznhTvJ3F7XZ7u0lIcVVfbWUQJu8Jq9O78OLLPSyE
5EYO0cWc4OVzy0A0de6IOjb05sfxaSQ0eKDtZ6J+klhYD4FldhlEIA3td9qV0k+g
1Deidt0ZkBhmenUuTJgXsUec6x2sqD32qut837P237+GATdeSJS1cDlB4clQ59EG
mldV3iJbBSRsMZFXUabuVcs5vqvhux7H9gBYG1MB6KgvK8f0C3fiICt+ULBaqnkf
PmToSvJru/81lKHaFN8+LkSOvr8L14wst1vqEfH0laWr1kw6pGS8A+TsgbrggYvn
TQZuPPpfKj9O7iXOmEKzzyUD7PyECeAMCultiq/+nl8yC08Ha7p/83P6nVSK5NU0
1jSLmyYS+zmmXDPht4c=
-----END CERTIFICATE-----
