Certificate:
    Data:
        Version: 3 (0x2)
        Serial Number: 244 (0xf4)
    Signature Algorithm: sha256WithRSAEncryption
        Issuer: C=CH, ST=Thurgau, L=Kefikon, O=guengel.ch, CN=CA guengel.ch/emailAddress=postmaster@guengel.ch
        Validity
            Not Before: Nov 20 09:17:17 2016 GMT
            Not After : Apr  4 09:17:17 2018 GMT
        Subject: C=CH, ST=Thurgau, O=guengel.ch, CN=gargoyle.kruemel.home/emailAddress=postmaster@guengel.ch
        Subject Public Key Info:
            Public Key Algorithm: rsaEncryption
                Public-Key: (2048 bit)
                Modulus:
                    00:c5:b7:d2:26:17:f0:0a:b1:80:6f:d6:df:e5:2e:
                    cf:2e:e8:c3:b4:85:02:f3:d2:ef:b7:f0:29:60:fc:
                    73:b7:2a:f4:a8:b2:cc:98:dc:33:e9:e7:69:0b:12:
                    5e:e6:02:da:03:ac:e9:63:7b:a4:cd:4c:78:ac:82:
                    3c:89:d1:6f:6f:0c:ed:1f:b2:5a:6a:0b:8a:36:89:
                    05:59:31:3e:0b:66:2b:19:b8:2b:cb:88:c3:b6:c0:
                    9a:88:f9:69:cf:6c:45:60:a8:92:ca:01:3a:d8:d0:
                    aa:60:a8:1c:99:81:07:a6:23:d4:f1:ac:49:32:02:
                    02:a0:1e:4e:dc:90:b9:3c:81:83:b5:63:14:a3:90:
                    50:f4:e2:de:43:2f:a0:46:13:84:82:34:eb:d1:10:
                    38:5b:98:0b:d8:a9:3b:20:87:17:59:2c:56:b4:c1:
                    08:db:90:2e:31:e4:f9:51:a4:e4:46:04:ae:7d:9f:
                    9c:0d:eb:53:f2:39:33:93:78:36:16:a1:7b:a8:4d:
                    91:06:07:1f:85:8b:00:76:02:3f:40:34:1c:33:97:
                    73:5c:e3:58:09:43:c6:03:fb:26:c7:db:a6:32:05:
                    e5:fa:fe:93:55:f8:16:9e:9f:4c:83:ed:ed:80:79:
                    42:b1:0b:d2:46:26:84:85:12:2c:e5:56:23:46:08:
                    4b:87
                Exponent: 65537 (0x10001)
        X509v3 extensions:
            X509v3 Basic Constraints: 
                CA:FALSE
            Netscape Comment: 
                OpenSSL Generated Certificate
            X509v3 Subject Key Identifier: 
                73:79:A2:E5:54:B3:A6:A6:79:DE:35:33:6B:04:AD:EF:8A:E0:DC:F9
            X509v3 Authority Key Identifier: 
                keyid:D6:88:F1:AA:C1:2B:09:8C:B8:5C:9D:CE:DF:57:39:62:26:10:20:90
                DirName:/C=CH/ST=Thurgau/L=Kefikon/O=guengel.ch/CN=CA guengel.ch/emailAddress=postmaster@guengel.ch
                serial:E5:25:3B:A6:77:BD:CB:FF

    Signature Algorithm: sha256WithRSAEncryption
         90:a5:29:12:74:90:33:0c:1c:c3:a6:2a:fd:3e:76:2d:c8:2c:
         3e:2f:ea:4f:31:b5:2c:6b:18:b4:fd:f0:ab:9b:e2:ab:4c:8b:
         e8:be:9f:1b:d6:8d:71:c6:b8:cd:b0:cc:55:29:f4:09:6b:6c:
         d2:b3:fc:84:42:d5:3a:7e:a2:b9:b5:bc:cf:c8:5d:58:a3:d4:
         44:94:57:b5:8a:26:5d:78:f4:26:25:22:ee:51:77:20:28:c4:
         40:0d:dd:84:d8:bd:96:30:a0:83:a4:5e:3e:ab:35:eb:68:06:
         97:4a:c7:9d:7e:57:ea:3f:bf:d6:e2:8e:14:80:48:25:cf:82:
         cf:76:f4:1e:25:50:f2:fd:05:e3:d8:82:82:1c:12:87:4d:4b:
         75:d8:0a:07:20:e3:91:98:b2:4f:b2:ea:3c:75:d6:43:22:36:
         ec:de:98:75:78:72:ab:e8:bd:66:8f:22:ed:0b:dd:f3:02:2c:
         11:31:f5:2d:d5:98:2c:ce:2f:cc:7b:9a:22:6e:eb:cc:d5:7c:
         ec:11:67:33:50:39:9f:bb:a2:4b:f1:2c:88:86:8c:27:90:ad:
         ca:46:98:8d:d2:ac:84:53:24:b6:fb:d0:24:c3:93:00:83:ed:
         99:70:9d:d7:a8:62:3d:03:fa:e6:01:6b:64:38:1d:d1:79:f5:
         c6:69:04:6d:4c:83:d0:db:8b:75:ab:3f:35:6b:02:d4:81:97:
         50:a7:11:08:79:b5:65:dd:2f:a7:e3:a3:15:b9:45:e4:d5:ab:
         d4:a8:99:54:46:93:a1:44:ce:5b:b2:fa:95:da:01:f9:f9:c3:
         76:79:02:44:c7:90:b2:4e:68:86:75:10:19:6d:d1:49:f2:96:
         0d:19:eb:af:90:b2:b9:b1:50:5f:e9:5e:63:96:ac:94:91:a0:
         ee:01:64:66:6b:3b:f8:45:6a:76:50:82:22:f4:57:25:32:74:
         cc:86:17:f9:70:a3:13:05:b4:3e:55:94:2c:c7:0c:1c:3a:b2:
         93:09:34:9d:23:57:12:2c:29:b0:3b:44:a6:fa:94:19:ab:cd:
         d0:d7:32:07:3b:91:fb:09:84:5d:c9:83:96:22:69:7e:cc:03:
         97:72:07:88:b4:97:fa:eb:4a:7e:73:a0:47:86:83:49:c2:d0:
         19:50:76:fc:1f:c0:d9:37:63:8b:d1:d4:79:72:7a:14:ba:f4:
         17:57:98:9e:88:ed:06:6b:9b:92:ee:1e:01:51:a1:30:37:26:
         c2:1c:dc:b5:db:8e:ba:2a:38:1d:ab:a0:52:6d:ff:68:53:88:
         01:c5:d2:70:d9:c9:46:8b:87:bb:49:dd:ce:21:55:34:7b:b5:
         d1:b7:d6:83:16:dd:24:85
-----BEGIN CERTIFICATE-----
MIIFlTCCA32gAwIBAgICAPQwDQYJKoZIhvcNAQELBQAwgYQxCzAJBgNVBAYTAkNI
MRAwDgYDVQQIEwdUaHVyZ2F1MRAwDgYDVQQHEwdLZWZpa29uMRMwEQYDVQQKEwpn
dWVuZ2VsLmNoMRYwFAYDVQQDEw1DQSBndWVuZ2VsLmNoMSQwIgYJKoZIhvcNAQkB
FhVwb3N0bWFzdGVyQGd1ZW5nZWwuY2gwHhcNMTYxMTIwMDkxNzE3WhcNMTgwNDA0
MDkxNzE3WjB6MQswCQYDVQQGEwJDSDEQMA4GA1UECBMHVGh1cmdhdTETMBEGA1UE
ChMKZ3VlbmdlbC5jaDEeMBwGA1UEAxMVZ2FyZ295bGUua3J1ZW1lbC5ob21lMSQw
IgYJKoZIhvcNAQkBFhVwb3N0bWFzdGVyQGd1ZW5nZWwuY2gwggEiMA0GCSqGSIb3
DQEBAQUAA4IBDwAwggEKAoIBAQDFt9ImF/AKsYBv1t/lLs8u6MO0hQLz0u+38Clg
/HO3KvSossyY3DPp52kLEl7mAtoDrOlje6TNTHisgjyJ0W9vDO0fslpqC4o2iQVZ
MT4LZisZuCvLiMO2wJqI+WnPbEVgqJLKATrY0KpgqByZgQemI9TxrEkyAgKgHk7c
kLk8gYO1YxSjkFD04t5DL6BGE4SCNOvREDhbmAvYqTsghxdZLFa0wQjbkC4x5PlR
pORGBK59n5wN61PyOTOTeDYWoXuoTZEGBx+FiwB2Aj9ANBwzl3Nc41gJQ8YD+ybH
26YyBeX6/pNV+Baen0yD7e2AeUKxC9JGJoSFEizlViNGCEuHAgMBAAGjggEYMIIB
FDAJBgNVHRMEAjAAMCwGCWCGSAGG+EIBDQQfFh1PcGVuU1NMIEdlbmVyYXRlZCBD
ZXJ0aWZpY2F0ZTAdBgNVHQ4EFgQUc3mi5VSzpqZ53jUzawSt74rg3PkwgbkGA1Ud
IwSBsTCBroAU1ojxqsErCYy4XJ3O31c5YiYQIJChgYqkgYcwgYQxCzAJBgNVBAYT
AkNIMRAwDgYDVQQIEwdUaHVyZ2F1MRAwDgYDVQQHEwdLZWZpa29uMRMwEQYDVQQK
EwpndWVuZ2VsLmNoMRYwFAYDVQQDEw1DQSBndWVuZ2VsLmNoMSQwIgYJKoZIhvcN
AQkBFhVwb3N0bWFzdGVyQGd1ZW5nZWwuY2iCCQDlJTumd73L/zANBgkqhkiG9w0B
AQsFAAOCAgEAkKUpEnSQMwwcw6Yq/T52LcgsPi/qTzG1LGsYtP3wq5viq0yL6L6f
G9aNcca4zbDMVSn0CWts0rP8hELVOn6iubW8z8hdWKPURJRXtYomXXj0JiUi7lF3
ICjEQA3dhNi9ljCgg6RePqs162gGl0rHnX5X6j+/1uKOFIBIJc+Cz3b0HiVQ8v0F
49iCghwSh01LddgKByDjkZiyT7LqPHXWQyI27N6YdXhyq+i9Zo8i7Qvd8wIsETH1
LdWYLM4vzHuaIm7rzNV87BFnM1A5n7uiS/EsiIaMJ5CtykaYjdKshFMktvvQJMOT
AIPtmXCd16hiPQP65gFrZDgd0Xn1xmkEbUyD0NuLdas/NWsC1IGXUKcRCHm1Zd0v
p+OjFblF5NWr1KiZVEaToUTOW7L6ldoB+fnDdnkCRMeQsk5ohnUQGW3RSfKWDRnr
r5CyubFQX+leY5aslJGg7gFkZms7+EVqdlCCIvRXJTJ0zIYX+XCjEwW0PlWULMcM
HDqykwk0nSNXEiwpsDtEpvqUGavN0NcyBzuR+wmEXcmDliJpfswDl3IHiLSX+utK
fnOgR4aDScLQGVB2/B/A2Tdji9HUeXJ6FLr0F1eYnojtBmubku4eAVGhMDcmwhzc
tduOuio4HaugUm3/aFOIAcXScNnJRouHu0ndziFVNHu10bfWgxbdJIU=
-----END CERTIFICATE-----
