Certificate:
    Data:
        Version: 3 (0x2)
        Serial Number: 374 (0x176)
        Signature Algorithm: sha256WithRSAEncryption
        Issuer: C=CH, ST=Thurgau, L=Kefikon, O=guengel.ch, CN=CA guengel.ch/emailAddress=postmaster@guengel.ch
        Validity
            Not Before: Jan  3 10:08:48 2020 GMT
            Not After : Feb  6 10:08:48 2021 GMT
        Subject: C=CH, ST=Thurgau, O=guengel.ch, CN=gargoyle.kruemel.home/emailAddress=postmaster@guengel.ch
        Subject Public Key Info:
            Public Key Algorithm: rsaEncryption
                RSA Public-Key: (2048 bit)
                Modulus:
                    00:c5:b7:d2:26:17:f0:0a:b1:80:6f:d6:df:e5:2e:
                    cf:2e:e8:c3:b4:85:02:f3:d2:ef:b7:f0:29:60:fc:
                    73:b7:2a:f4:a8:b2:cc:98:dc:33:e9:e7:69:0b:12:
                    5e:e6:02:da:03:ac:e9:63:7b:a4:cd:4c:78:ac:82:
                    3c:89:d1:6f:6f:0c:ed:1f:b2:5a:6a:0b:8a:36:89:
                    05:59:31:3e:0b:66:2b:19:b8:2b:cb:88:c3:b6:c0:
                    9a:88:f9:69:cf:6c:45:60:a8:92:ca:01:3a:d8:d0:
                    aa:60:a8:1c:99:81:07:a6:23:d4:f1:ac:49:32:02:
                    02:a0:1e:4e:dc:90:b9:3c:81:83:b5:63:14:a3:90:
                    50:f4:e2:de:43:2f:a0:46:13:84:82:34:eb:d1:10:
                    38:5b:98:0b:d8:a9:3b:20:87:17:59:2c:56:b4:c1:
                    08:db:90:2e:31:e4:f9:51:a4:e4:46:04:ae:7d:9f:
                    9c:0d:eb:53:f2:39:33:93:78:36:16:a1:7b:a8:4d:
                    91:06:07:1f:85:8b:00:76:02:3f:40:34:1c:33:97:
                    73:5c:e3:58:09:43:c6:03:fb:26:c7:db:a6:32:05:
                    e5:fa:fe:93:55:f8:16:9e:9f:4c:83:ed:ed:80:79:
                    42:b1:0b:d2:46:26:84:85:12:2c:e5:56:23:46:08:
                    4b:87
                Exponent: 65537 (0x10001)
        X509v3 extensions:
            X509v3 Basic Constraints: 
                CA:FALSE
            Netscape Comment: 
                OpenSSL Generated Certificate
            X509v3 Subject Key Identifier: 
                73:79:A2:E5:54:B3:A6:A6:79:DE:35:33:6B:04:AD:EF:8A:E0:DC:F9
            X509v3 Authority Key Identifier: 
                keyid:D6:88:F1:AA:C1:2B:09:8C:B8:5C:9D:CE:DF:57:39:62:26:10:20:90
                DirName:/C=CH/ST=Thurgau/L=Kefikon/O=guengel.ch/CN=CA guengel.ch/emailAddress=postmaster@guengel.ch
                serial:E5:25:3B:A6:77:BD:CB:FF

    Signature Algorithm: sha256WithRSAEncryption
         6e:b3:20:21:80:b6:b9:14:59:08:1d:e4:24:e7:11:c0:65:d7:
         8e:56:bb:3c:a1:6b:6b:82:ec:15:f2:b1:85:69:41:9e:79:b5:
         da:1d:17:6a:bb:fa:58:2f:e5:72:21:e2:13:05:8b:ea:dc:c0:
         4b:c5:88:0d:e9:fb:25:ec:c4:9d:b1:ab:d6:f6:0f:95:d8:68:
         d3:59:de:13:03:46:1b:0c:5a:c8:cc:4d:2b:f9:9b:ff:ce:a3:
         5d:aa:c9:38:e6:28:0f:aa:ab:66:57:88:da:3f:29:9d:00:87:
         ca:8a:bb:f1:0f:5c:f6:1f:93:d2:2c:6a:f5:9e:a6:0b:5d:5e:
         c3:ce:23:32:45:70:56:88:e6:68:99:7a:bb:43:02:29:71:a9:
         6e:17:0c:b5:89:72:72:f7:f9:ce:b3:9b:cd:6c:dd:de:ac:da:
         c8:43:72:69:da:f3:73:c1:b8:ef:12:bb:35:0a:10:16:db:b5:
         ad:23:69:a3:dc:04:12:87:e3:ad:0a:e2:af:a6:03:2b:cf:6b:
         a8:2a:86:ba:85:b7:de:7f:46:58:17:27:55:24:e4:d2:6a:d8:
         b3:f7:1c:24:f0:39:1c:b8:d0:02:16:b1:4f:22:ea:16:46:2c:
         df:03:cd:e5:46:59:0c:0f:b6:ef:f6:3f:60:74:67:07:a6:df:
         d3:b2:d5:d4:7c:48:08:76:aa:2f:55:58:db:56:1e:63:20:3d:
         0f:03:b7:fe:46:e5:dd:71:59:3e:19:83:ef:70:b8:30:20:2b:
         60:2e:3a:a3:ef:25:dc:27:79:2d:f7:1e:32:64:b3:e3:da:22:
         c2:23:4b:2d:3d:b1:c1:3a:47:10:1b:07:02:52:f6:e7:0e:4c:
         43:27:af:67:ee:64:b1:a7:c9:fa:43:4a:00:86:73:25:81:b9:
         70:86:ad:c2:34:5d:b9:55:9b:f2:e4:60:ed:5a:5b:e8:87:d3:
         39:83:ee:9e:a8:fb:cb:17:2e:7c:da:2a:c9:bc:e3:1e:a9:34:
         67:bf:fa:65:18:0c:27:0f:8f:3e:c9:a8:b3:bb:71:88:3b:41:
         9b:29:53:8c:22:d9:79:34:9b:fa:c7:e3:92:1b:56:b0:8d:16:
         c7:17:ea:49:47:eb:0c:e1:2d:0f:69:59:7f:19:db:d6:a2:cc:
         91:87:64:3d:db:af:13:d7:14:c7:ab:94:6b:29:eb:14:e5:41:
         6e:7b:8e:18:6b:c3:f7:45:c7:34:d8:3f:3c:f3:0f:99:fb:e0:
         eb:85:c3:ef:d8:1a:07:bc:aa:75:c0:99:72:89:a9:02:5c:34:
         8e:ff:d0:9f:72:14:50:ed:07:e3:84:ac:d6:b9:7b:4a:80:27:
         10:5e:0f:f1:8e:e3:06:66
-----BEGIN CERTIFICATE-----
MIIFlTCCA32gAwIBAgICAXYwDQYJKoZIhvcNAQELBQAwgYQxCzAJBgNVBAYTAkNI
MRAwDgYDVQQIEwdUaHVyZ2F1MRAwDgYDVQQHEwdLZWZpa29uMRMwEQYDVQQKEwpn
dWVuZ2VsLmNoMRYwFAYDVQQDEw1DQSBndWVuZ2VsLmNoMSQwIgYJKoZIhvcNAQkB
FhVwb3N0bWFzdGVyQGd1ZW5nZWwuY2gwHhcNMjAwMTAzMTAwODQ4WhcNMjEwMjA2
MTAwODQ4WjB6MQswCQYDVQQGEwJDSDEQMA4GA1UECBMHVGh1cmdhdTETMBEGA1UE
ChMKZ3VlbmdlbC5jaDEeMBwGA1UEAxMVZ2FyZ295bGUua3J1ZW1lbC5ob21lMSQw
IgYJKoZIhvcNAQkBFhVwb3N0bWFzdGVyQGd1ZW5nZWwuY2gwggEiMA0GCSqGSIb3
DQEBAQUAA4IBDwAwggEKAoIBAQDFt9ImF/AKsYBv1t/lLs8u6MO0hQLz0u+38Clg
/HO3KvSossyY3DPp52kLEl7mAtoDrOlje6TNTHisgjyJ0W9vDO0fslpqC4o2iQVZ
MT4LZisZuCvLiMO2wJqI+WnPbEVgqJLKATrY0KpgqByZgQemI9TxrEkyAgKgHk7c
kLk8gYO1YxSjkFD04t5DL6BGE4SCNOvREDhbmAvYqTsghxdZLFa0wQjbkC4x5PlR
pORGBK59n5wN61PyOTOTeDYWoXuoTZEGBx+FiwB2Aj9ANBwzl3Nc41gJQ8YD+ybH
26YyBeX6/pNV+Baen0yD7e2AeUKxC9JGJoSFEizlViNGCEuHAgMBAAGjggEYMIIB
FDAJBgNVHRMEAjAAMCwGCWCGSAGG+EIBDQQfFh1PcGVuU1NMIEdlbmVyYXRlZCBD
ZXJ0aWZpY2F0ZTAdBgNVHQ4EFgQUc3mi5VSzpqZ53jUzawSt74rg3PkwgbkGA1Ud
IwSBsTCBroAU1ojxqsErCYy4XJ3O31c5YiYQIJChgYqkgYcwgYQxCzAJBgNVBAYT
AkNIMRAwDgYDVQQIEwdUaHVyZ2F1MRAwDgYDVQQHEwdLZWZpa29uMRMwEQYDVQQK
EwpndWVuZ2VsLmNoMRYwFAYDVQQDEw1DQSBndWVuZ2VsLmNoMSQwIgYJKoZIhvcN
AQkBFhVwb3N0bWFzdGVyQGd1ZW5nZWwuY2iCCQDlJTumd73L/zANBgkqhkiG9w0B
AQsFAAOCAgEAbrMgIYC2uRRZCB3kJOcRwGXXjla7PKFra4LsFfKxhWlBnnm12h0X
arv6WC/lciHiEwWL6tzAS8WIDen7JezEnbGr1vYPldho01neEwNGGwxayMxNK/mb
/86jXarJOOYoD6qrZleI2j8pnQCHyoq78Q9c9h+T0ixq9Z6mC11ew84jMkVwVojm
aJl6u0MCKXGpbhcMtYlycvf5zrObzWzd3qzayENyadrzc8G47xK7NQoQFtu1rSNp
o9wEEofjrQrir6YDK89rqCqGuoW33n9GWBcnVSTk0mrYs/ccJPA5HLjQAhaxTyLq
FkYs3wPN5UZZDA+27/Y/YHRnB6bf07LV1HxICHaqL1VY21YeYyA9DwO3/kbl3XFZ
PhmD73C4MCArYC46o+8l3Cd5LfceMmSz49oiwiNLLT2xwTpHEBsHAlL25w5MQyev
Z+5ksafJ+kNKAIZzJYG5cIatwjRduVWb8uRg7Vpb6IfTOYPunqj7yxcufNoqybzj
Hqk0Z7/6ZRgMJw+PPsmos7txiDtBmylTjCLZeTSb+sfjkhtWsI0WxxfqSUfrDOEt
D2lZfxnb1qLMkYdkPduvE9cUx6uUaynrFOVBbnuOGGvD90XHNNg/PPMPmfvg64XD
79gaB7yqdcCZcompAlw0jv/Qn3IUUO0H44Ss1rl7SoAnEF4P8Y7jBmY=
-----END CERTIFICATE-----
