Certificate:
    Data:
        Version: 3 (0x2)
        Serial Number: 431 (0x1af)
        Signature Algorithm: sha256WithRSAEncryption
        Issuer: C=CH, ST=Thurgau, L=Kefikon, O=guengel.ch, CN=CA guengel.ch/emailAddress=postmaster@guengel.ch
        Validity
            Not Before: Feb  6 15:17:14 2021 GMT
            Not After : Mar 13 15:17:14 2022 GMT
        Subject: C=CH, ST=Thurgau, O=guengel.ch, CN=gargoyle.kruemel.home/emailAddress=postmaster@guengel.ch
        Subject Public Key Info:
            Public Key Algorithm: rsaEncryption
                RSA Public-Key: (2048 bit)
                Modulus:
                    00:c5:b7:d2:26:17:f0:0a:b1:80:6f:d6:df:e5:2e:
                    cf:2e:e8:c3:b4:85:02:f3:d2:ef:b7:f0:29:60:fc:
                    73:b7:2a:f4:a8:b2:cc:98:dc:33:e9:e7:69:0b:12:
                    5e:e6:02:da:03:ac:e9:63:7b:a4:cd:4c:78:ac:82:
                    3c:89:d1:6f:6f:0c:ed:1f:b2:5a:6a:0b:8a:36:89:
                    05:59:31:3e:0b:66:2b:19:b8:2b:cb:88:c3:b6:c0:
                    9a:88:f9:69:cf:6c:45:60:a8:92:ca:01:3a:d8:d0:
                    aa:60:a8:1c:99:81:07:a6:23:d4:f1:ac:49:32:02:
                    02:a0:1e:4e:dc:90:b9:3c:81:83:b5:63:14:a3:90:
                    50:f4:e2:de:43:2f:a0:46:13:84:82:34:eb:d1:10:
                    38:5b:98:0b:d8:a9:3b:20:87:17:59:2c:56:b4:c1:
                    08:db:90:2e:31:e4:f9:51:a4:e4:46:04:ae:7d:9f:
                    9c:0d:eb:53:f2:39:33:93:78:36:16:a1:7b:a8:4d:
                    91:06:07:1f:85:8b:00:76:02:3f:40:34:1c:33:97:
                    73:5c:e3:58:09:43:c6:03:fb:26:c7:db:a6:32:05:
                    e5:fa:fe:93:55:f8:16:9e:9f:4c:83:ed:ed:80:79:
                    42:b1:0b:d2:46:26:84:85:12:2c:e5:56:23:46:08:
                    4b:87
                Exponent: 65537 (0x10001)
        X509v3 extensions:
            X509v3 Key Usage: 
                Digital Signature, Key Encipherment, Key Agreement
            X509v3 Basic Constraints: critical
                CA:FALSE
            Netscape Cert Type: 
                SSL Client, SSL Server
            X509v3 Extended Key Usage: 
                TLS Web Server Authentication, TLS Web Client Authentication
            X509v3 Subject Alternative Name: 
                DNS:gargoyle.kruemel.home
            X509v3 Subject Key Identifier: 
                73:79:A2:E5:54:B3:A6:A6:79:DE:35:33:6B:04:AD:EF:8A:E0:DC:F9
            X509v3 Authority Key Identifier: 
                keyid:D6:88:F1:AA:C1:2B:09:8C:B8:5C:9D:CE:DF:57:39:62:26:10:20:90
                DirName:/C=CH/ST=Thurgau/L=Kefikon/O=guengel.ch/CN=CA guengel.ch/emailAddress=postmaster@guengel.ch
                serial:E5:25:3B:A6:77:BD:CB:FF

    Signature Algorithm: sha256WithRSAEncryption
         ce:a3:8f:e5:f4:90:c3:14:f6:84:71:10:d1:42:2f:f2:2f:7f:
         c7:23:18:ba:60:4e:4f:c2:b2:67:13:d5:f2:a4:6e:e2:fb:f7:
         6c:e4:79:eb:17:9a:07:3f:84:4a:f1:15:98:a6:7c:bb:3f:15:
         dd:55:9d:c7:af:db:9f:3b:3b:46:77:16:24:da:c7:d5:34:4d:
         80:9a:8e:5c:21:66:03:33:ec:7b:1a:8f:be:00:e3:78:9f:b2:
         9b:f4:78:d6:de:3a:13:60:fb:16:29:da:34:8f:e5:a2:e2:03:
         bf:9c:1f:11:af:dd:24:3f:d1:cf:99:f8:c5:de:bb:9b:10:17:
         c4:84:68:7b:23:a1:b0:36:15:9c:d8:d7:59:a1:ff:36:26:2a:
         72:62:f1:46:39:e7:03:9b:f5:60:d9:d5:71:bc:1a:64:d9:1e:
         0b:87:51:04:f1:fe:da:0a:72:88:e8:73:b3:c7:43:36:17:11:
         e5:d8:b6:af:cf:39:91:ec:95:8e:18:2f:bd:ab:b0:bf:a4:86:
         1b:26:96:e2:d9:12:66:ce:d3:c9:dc:8a:78:6f:ae:07:12:50:
         28:d6:d3:f3:df:6c:70:aa:4a:47:c0:aa:92:73:dc:b8:b2:32:
         0c:f0:32:2e:2f:70:57:23:47:02:38:01:f7:cb:af:03:08:dd:
         e8:2a:1f:1d:23:ca:3f:d6:69:da:fe:8b:86:67:02:3f:8f:0a:
         24:63:4c:1e:0e:95:5f:79:04:22:8b:2d:61:02:5e:13:f9:68:
         ec:c3:a6:c5:f8:4d:f5:d3:9b:fe:d2:c1:35:70:3a:1d:c0:2c:
         45:ff:5d:af:95:bc:c5:a8:a7:80:69:21:df:db:63:0b:da:89:
         7b:6e:c1:d8:1c:d9:fd:66:cb:15:16:75:03:0b:e6:0b:95:94:
         7b:d2:89:ed:a5:9f:80:f6:c1:37:d1:db:80:ef:e5:12:b9:de:
         67:f0:c6:72:33:fe:97:28:16:44:c5:8c:73:41:ad:e9:1f:28:
         27:33:bf:5e:92:a4:be:23:5e:99:6c:2d:ea:bc:d6:3e:44:cf:
         e7:1c:b7:eb:b3:8b:b8:1d:15:3a:72:a7:90:c3:1f:71:df:f7:
         2d:91:00:15:d1:08:43:d4:34:c5:28:c4:78:af:c8:9d:61:58:
         51:40:f3:8d:41:e2:ee:83:90:7e:34:2e:7b:a5:04:3b:b4:36:
         77:92:09:8f:61:c4:c9:37:c4:28:fc:fb:17:cd:62:59:53:f7:
         ec:42:14:3e:4f:4f:81:f0:85:ee:3c:a4:a1:12:94:64:c5:ba:
         12:d6:c2:22:d0:1b:41:65:8e:37:06:19:68:a0:ea:8f:41:dc:
         a9:13:c2:c1:d1:81:76:0e
-----BEGIN CERTIFICATE-----
MIIFyzCCA7OgAwIBAgICAa8wDQYJKoZIhvcNAQELBQAwgYQxCzAJBgNVBAYTAkNI
MRAwDgYDVQQIEwdUaHVyZ2F1MRAwDgYDVQQHEwdLZWZpa29uMRMwEQYDVQQKEwpn
dWVuZ2VsLmNoMRYwFAYDVQQDEw1DQSBndWVuZ2VsLmNoMSQwIgYJKoZIhvcNAQkB
FhVwb3N0bWFzdGVyQGd1ZW5nZWwuY2gwHhcNMjEwMjA2MTUxNzE0WhcNMjIwMzEz
MTUxNzE0WjB6MQswCQYDVQQGEwJDSDEQMA4GA1UECBMHVGh1cmdhdTETMBEGA1UE
ChMKZ3VlbmdlbC5jaDEeMBwGA1UEAxMVZ2FyZ295bGUua3J1ZW1lbC5ob21lMSQw
IgYJKoZIhvcNAQkBFhVwb3N0bWFzdGVyQGd1ZW5nZWwuY2gwggEiMA0GCSqGSIb3
DQEBAQUAA4IBDwAwggEKAoIBAQDFt9ImF/AKsYBv1t/lLs8u6MO0hQLz0u+38Clg
/HO3KvSossyY3DPp52kLEl7mAtoDrOlje6TNTHisgjyJ0W9vDO0fslpqC4o2iQVZ
MT4LZisZuCvLiMO2wJqI+WnPbEVgqJLKATrY0KpgqByZgQemI9TxrEkyAgKgHk7c
kLk8gYO1YxSjkFD04t5DL6BGE4SCNOvREDhbmAvYqTsghxdZLFa0wQjbkC4x5PlR
pORGBK59n5wN61PyOTOTeDYWoXuoTZEGBx+FiwB2Aj9ANBwzl3Nc41gJQ8YD+ybH
26YyBeX6/pNV+Baen0yD7e2AeUKxC9JGJoSFEizlViNGCEuHAgMBAAGjggFOMIIB
SjALBgNVHQ8EBAMCA6gwDAYDVR0TAQH/BAIwADARBglghkgBhvhCAQEEBAMCBsAw
HQYDVR0lBBYwFAYIKwYBBQUHAwEGCCsGAQUFBwMCMCAGA1UdEQQZMBeCFWdhcmdv
eWxlLmtydWVtZWwuaG9tZTAdBgNVHQ4EFgQUc3mi5VSzpqZ53jUzawSt74rg3Pkw
gbkGA1UdIwSBsTCBroAU1ojxqsErCYy4XJ3O31c5YiYQIJChgYqkgYcwgYQxCzAJ
BgNVBAYTAkNIMRAwDgYDVQQIEwdUaHVyZ2F1MRAwDgYDVQQHEwdLZWZpa29uMRMw
EQYDVQQKEwpndWVuZ2VsLmNoMRYwFAYDVQQDEw1DQSBndWVuZ2VsLmNoMSQwIgYJ
KoZIhvcNAQkBFhVwb3N0bWFzdGVyQGd1ZW5nZWwuY2iCCQDlJTumd73L/zANBgkq
hkiG9w0BAQsFAAOCAgEAzqOP5fSQwxT2hHEQ0UIv8i9/xyMYumBOT8KyZxPV8qRu
4vv3bOR56xeaBz+ESvEVmKZ8uz8V3VWdx6/bnzs7RncWJNrH1TRNgJqOXCFmAzPs
exqPvgDjeJ+ym/R41t46E2D7FinaNI/louIDv5wfEa/dJD/Rz5n4xd67mxAXxIRo
eyOhsDYVnNjXWaH/NiYqcmLxRjnnA5v1YNnVcbwaZNkeC4dRBPH+2gpyiOhzs8dD
NhcR5di2r885keyVjhgvvauwv6SGGyaW4tkSZs7TydyKeG+uBxJQKNbT899scKpK
R8CqknPcuLIyDPAyLi9wVyNHAjgB98uvAwjd6CofHSPKP9Zp2v6LhmcCP48KJGNM
Hg6VX3kEIostYQJeE/lo7MOmxfhN9dOb/tLBNXA6HcAsRf9dr5W8xaingGkh39tj
C9qJe27B2BzZ/WbLFRZ1AwvmC5WUe9KJ7aWfgPbBN9HbgO/lErneZ/DGcjP+lygW
RMWMc0Gt6R8oJzO/XpKkviNemWwt6rzWPkTP5xy367OLuB0VOnKnkMMfcd/3LZEA
FdEIQ9Q0xSjEeK/InWFYUUDzjUHi7oOQfjQue6UEO7Q2d5IJj2HEyTfEKPz7F81i
WVP37EIUPk9PgfCF7jykoRKUZMW6EtbCItAbQWWONwYZaKDqj0HcqRPCwdGBdg4=
-----END CERTIFICATE-----
