Certificate:
    Data:
        Version: 3 (0x2)
        Serial Number:
            32:c2:78:e2:8b:28:a3:78:9d:c3:a6:ea:90:0f:20:00:2a:b9:56:54
        Signature Algorithm: sha256WithRSAEncryption
        Issuer: C=CH, ST=Thurgau, L=Kefikon, O=guengel.ch, CN=CA 2022/emailAddress=postmaster@guengel.ch
        Validity
            Not Before: Dec 30 08:44:28 2023 GMT
            Not After : Feb  2 08:44:28 2025 GMT
        Subject: C=CH, ST=Thurgau, O=guengel.ch, CN=gargoyle.kruemel.home/emailAddress=postmaster@guengel.ch
        Subject Public Key Info:
            Public Key Algorithm: rsaEncryption
                RSA Public-Key: (2048 bit)
                Modulus:
                    00:d6:5c:b1:ab:b6:cc:bf:fb:8b:45:1b:17:ce:fe:
                    94:ee:3b:cd:af:7f:7a:e0:c8:a8:08:07:69:db:1b:
                    b4:a3:8b:f5:e7:8f:34:b6:ee:32:31:66:ff:6d:b2:
                    42:31:5f:de:55:00:b6:bb:09:c2:f2:1b:bf:75:d2:
                    19:91:e4:28:86:90:9c:31:b3:0f:f0:7e:81:9a:b4:
                    6a:1c:62:dd:b9:e5:48:4f:ce:d6:b3:b2:9d:70:bb:
                    7c:84:22:97:77:45:60:c7:af:b4:b4:2b:2f:9d:a7:
                    57:c1:ff:49:33:6a:8a:e5:99:8f:3b:78:2a:6c:0d:
                    26:d2:f8:75:5d:d6:ce:04:f6:1c:57:4a:84:c5:76:
                    6e:db:31:c6:1b:38:68:76:f3:9f:a5:ad:97:86:37:
                    2a:b9:e4:41:e1:85:ef:84:c4:5d:c5:63:68:7a:97:
                    3e:0c:d3:32:82:74:c7:96:8e:da:04:1f:ab:54:71:
                    53:4a:bb:3e:54:23:15:e5:21:18:fd:2e:a9:29:1b:
                    0e:17:f6:cc:62:b6:75:a6:96:72:74:29:dc:38:f5:
                    8d:fe:1b:e7:68:a0:1a:ae:8e:72:36:d6:93:75:1c:
                    96:06:66:3d:16:7f:77:9e:3e:ed:1d:c4:04:16:5f:
                    4b:b6:87:79:bd:4c:ba:81:0c:b1:67:ad:ad:1c:4f:
                    2b:c7
                Exponent: 65537 (0x10001)
        X509v3 extensions:
            X509v3 Basic Constraints: critical
                CA:FALSE
            X509v3 Key Usage: 
                Digital Signature, Key Encipherment, Key Agreement
            X509v3 Subject Key Identifier: 
                14:55:91:68:2F:C3:67:A9:DC:33:06:66:A3:84:72:6B:4C:1B:75:C9
            X509v3 Authority Key Identifier: 
                keyid:22:20:0D:51:40:61:42:BE:DD:BA:D9:C9:C1:77:B6:93:28:C3:99:EC
                DirName:/C=CH/ST=Thurgau/L=Kefikon/O=guengel.ch/CN=CA 2022/emailAddress=postmaster@guengel.ch
                serial:6D:29:90:54:E9:17:E9:C2:6A:E6:52:AD:84:4E:30:8E:6E:57:FB:1C

            Netscape Cert Type: 
                SSL Client, SSL Server
            X509v3 Extended Key Usage: 
                TLS Web Server Authentication, TLS Web Client Authentication
            X509v3 Subject Alternative Name: 
                DNS:gargoyle.kruemel.home
    Signature Algorithm: sha256WithRSAEncryption
         10:c9:1b:83:7b:91:43:b0:f4:92:c5:be:9e:d3:7c:95:8f:0f:
         13:8a:9f:d0:d9:b4:32:1d:d2:fa:e7:f3:e1:1c:8a:c9:b7:2e:
         a9:57:60:e5:00:2c:68:44:b2:98:5e:b9:91:5a:03:0c:0d:49:
         d2:b2:d9:b3:11:21:f2:a0:f8:b6:c3:77:e1:94:f3:ac:7b:42:
         1a:e2:7f:db:dc:42:b1:ed:9e:ce:30:cc:cf:ff:42:4e:a3:55:
         b8:11:4b:95:86:0e:51:40:1a:83:c1:42:88:be:ec:dc:cc:3c:
         37:32:86:e4:78:a2:0c:5f:13:fa:a2:a5:3e:72:15:bc:0a:1d:
         fe:cc:9f:4a:be:71:72:5c:67:2e:c3:27:75:6f:a3:52:d1:01:
         d7:dc:65:64:6b:e5:b2:d0:07:aa:04:49:8a:d2:30:63:4a:3f:
         80:8a:65:5e:8b:1b:9d:5f:e5:21:20:c3:26:c2:4e:05:90:49:
         1e:a7:cc:f8:c7:a5:fa:94:a3:6b:7a:b2:71:47:36:d5:c5:90:
         56:bc:22:6a:6a:15:5d:bb:8c:f4:cf:a4:50:79:fa:de:6d:1e:
         db:7d:1a:01:68:6c:7a:fd:e9:6b:8b:44:17:d4:ab:19:26:ad:
         4e:83:25:71:14:6f:b4:c4:63:86:2a:ca:83:b5:da:27:ab:1d:
         2c:10:dc:07:a1:48:ce:bd:17:ca:e4:bb:19:66:01:91:f2:b7:
         50:56:e5:71:18:5f:48:dc:41:06:42:ee:a9:7f:34:67:ee:b1:
         ca:ed:69:ab:0e:a5:7a:a3:a3:ab:f8:ae:6d:cd:44:51:b9:55:
         7b:ee:3a:22:84:55:52:1e:a7:21:53:e8:20:85:0e:35:38:da:
         7d:c5:4f:f9:63:ba:2e:2b:af:e5:22:2b:de:71:17:c2:df:03:
         e8:8b:9e:8c:33:d8:86:05:65:86:16:03:56:10:1c:9a:e2:3f:
         fa:30:a5:7c:99:d6:a9:1c:bb:85:dc:96:27:ce:e0:db:0c:5a:
         1d:4e:06:68:f3:20:98:43:2f:26:92:30:f0:cb:3b:dd:83:5e:
         f7:94:1f:69:fa:81:40:9d:b7:0c:d7:c8:da:8d:f4:2d:a0:a8:
         f8:d6:84:07:cc:86:be:62:f1:87:bf:d0:9d:73:52:ef:d8:43:
         26:fe:96:c2:14:64:50:f3:da:f6:06:b5:10:0e:e4:81:29:71:
         90:71:a7:0c:e5:22:c7:ad:cc:08:9e:cd:78:b8:5e:22:8f:c8:
         91:9f:c5:2a:b9:8d:db:47:5f:81:33:af:ff:3e:6b:cc:52:43:
         86:34:c0:d8:99:9d:26:82:97:c1:22:8b:f6:b9:ed:13:88:60:
         66:ac:a2:e1:dd:e2:f2:77
-----BEGIN CERTIFICATE-----
MIIF2jCCA8KgAwIBAgIUMsJ44osoo3idw6bqkA8gACq5VlQwDQYJKoZIhvcNAQEL
BQAwfjELMAkGA1UEBhMCQ0gxEDAOBgNVBAgTB1RodXJnYXUxEDAOBgNVBAcTB0tl
Zmlrb24xEzARBgNVBAoTCmd1ZW5nZWwuY2gxEDAOBgNVBAMTB0NBIDIwMjIxJDAi
BgkqhkiG9w0BCQEWFXBvc3RtYXN0ZXJAZ3VlbmdlbC5jaDAeFw0yMzEyMzAwODQ0
MjhaFw0yNTAyMDIwODQ0MjhaMHoxCzAJBgNVBAYTAkNIMRAwDgYDVQQIEwdUaHVy
Z2F1MRMwEQYDVQQKEwpndWVuZ2VsLmNoMR4wHAYDVQQDExVnYXJnb3lsZS5rcnVl
bWVsLmhvbWUxJDAiBgkqhkiG9w0BCQEWFXBvc3RtYXN0ZXJAZ3VlbmdlbC5jaDCC
ASIwDQYJKoZIhvcNAQEBBQADggEPADCCAQoCggEBANZcsau2zL/7i0UbF87+lO47
za9/euDIqAgHadsbtKOL9eePNLbuMjFm/22yQjFf3lUAtrsJwvIbv3XSGZHkKIaQ
nDGzD/B+gZq0ahxi3bnlSE/O1rOynXC7fIQil3dFYMevtLQrL52nV8H/STNqiuWZ
jzt4KmwNJtL4dV3WzgT2HFdKhMV2btsxxhs4aHbzn6Wtl4Y3KrnkQeGF74TEXcVj
aHqXPgzTMoJ0x5aO2gQfq1RxU0q7PlQjFeUhGP0uqSkbDhf2zGK2daaWcnQp3Dj1
jf4b52igGq6OcjbWk3UclgZmPRZ/d54+7R3EBBZfS7aHeb1MuoEMsWetrRxPK8cC
AwEAAaOCAVIwggFOMAwGA1UdEwEB/wQCMAAwCwYDVR0PBAQDAgOoMB0GA1UdDgQW
BBQUVZFoL8NnqdwzBmajhHJrTBt1yTCBvQYDVR0jBIG1MIGygBQiIA1RQGFCvt26
2cnBd7aTKMOZ7KGBg6SBgDB+MQswCQYDVQQGEwJDSDEQMA4GA1UECBMHVGh1cmdh
dTEQMA4GA1UEBxMHS2VmaWtvbjETMBEGA1UEChMKZ3VlbmdlbC5jaDEQMA4GA1UE
AxMHQ0EgMjAyMjEkMCIGCSqGSIb3DQEJARYVcG9zdG1hc3RlckBndWVuZ2VsLmNo
ghRtKZBU6RfpwmrmUq2ETjCOblf7HDARBglghkgBhvhCAQEEBAMCBsAwHQYDVR0l
BBYwFAYIKwYBBQUHAwEGCCsGAQUFBwMCMCAGA1UdEQQZMBeCFWdhcmdveWxlLmty
dWVtZWwuaG9tZTANBgkqhkiG9w0BAQsFAAOCAgEAEMkbg3uRQ7D0ksW+ntN8lY8P
E4qf0Nm0Mh3S+ufz4RyKybcuqVdg5QAsaESymF65kVoDDA1J0rLZsxEh8qD4tsN3
4ZTzrHtCGuJ/29xCse2ezjDMz/9CTqNVuBFLlYYOUUAag8FCiL7s3Mw8NzKG5Hii
DF8T+qKlPnIVvAod/syfSr5xclxnLsMndW+jUtEB19xlZGvlstAHqgRJitIwY0o/
gIplXosbnV/lISDDJsJOBZBJHqfM+Mel+pSja3qycUc21cWQVrwiamoVXbuM9M+k
UHn63m0e230aAWhsev3pa4tEF9SrGSatToMlcRRvtMRjhirKg7XaJ6sdLBDcB6FI
zr0XyuS7GWYBkfK3UFblcRhfSNxBBkLuqX80Z+6xyu1pqw6leqOjq/iubc1EUblV
e+46IoRVUh6nIVPoIIUONTjafcVP+WO6Liuv5SIr3nEXwt8D6IuejDPYhgVlhhYD
VhAcmuI/+jClfJnWqRy7hdyWJ87g2wxaHU4GaPMgmEMvJpIw8Ms73YNe95QfafqB
QJ23DNfI2o30LaCo+NaEB8yGvmLxh7/QnXNS79hDJv6WwhRkUPPa9ga1EA7kgSlx
kHGnDOUix63MCJ7NeLheIo/IkZ/FKrmN20dfgTOv/z5rzFJDhjTA2JmdJoKXwSKL
9rntE4hgZqyi4d3i8nc=
-----END CERTIFICATE-----
