Certificate:
    Data:
        Version: 3 (0x2)
        Serial Number: 339 (0x153)
    Signature Algorithm: sha256WithRSAEncryption
        Issuer: C=CH, ST=Thurgau, L=Kefikon, O=guengel.ch, CN=CA guengel.ch/emailAddress=postmaster@guengel.ch
        Validity
            Not Before: Dec 29 14:39:59 2018 GMT
            Not After : Feb  2 14:39:59 2020 GMT
        Subject: C=CH, ST=Thurgau, O=guengel.ch, CN=gargoyle.kruemel.home/emailAddress=postmaster@guengel.ch
        Subject Public Key Info:
            Public Key Algorithm: rsaEncryption
                Public-Key: (2048 bit)
                Modulus:
                    00:c5:b7:d2:26:17:f0:0a:b1:80:6f:d6:df:e5:2e:
                    cf:2e:e8:c3:b4:85:02:f3:d2:ef:b7:f0:29:60:fc:
                    73:b7:2a:f4:a8:b2:cc:98:dc:33:e9:e7:69:0b:12:
                    5e:e6:02:da:03:ac:e9:63:7b:a4:cd:4c:78:ac:82:
                    3c:89:d1:6f:6f:0c:ed:1f:b2:5a:6a:0b:8a:36:89:
                    05:59:31:3e:0b:66:2b:19:b8:2b:cb:88:c3:b6:c0:
                    9a:88:f9:69:cf:6c:45:60:a8:92:ca:01:3a:d8:d0:
                    aa:60:a8:1c:99:81:07:a6:23:d4:f1:ac:49:32:02:
                    02:a0:1e:4e:dc:90:b9:3c:81:83:b5:63:14:a3:90:
                    50:f4:e2:de:43:2f:a0:46:13:84:82:34:eb:d1:10:
                    38:5b:98:0b:d8:a9:3b:20:87:17:59:2c:56:b4:c1:
                    08:db:90:2e:31:e4:f9:51:a4:e4:46:04:ae:7d:9f:
                    9c:0d:eb:53:f2:39:33:93:78:36:16:a1:7b:a8:4d:
                    91:06:07:1f:85:8b:00:76:02:3f:40:34:1c:33:97:
                    73:5c:e3:58:09:43:c6:03:fb:26:c7:db:a6:32:05:
                    e5:fa:fe:93:55:f8:16:9e:9f:4c:83:ed:ed:80:79:
                    42:b1:0b:d2:46:26:84:85:12:2c:e5:56:23:46:08:
                    4b:87
                Exponent: 65537 (0x10001)
        X509v3 extensions:
            X509v3 Basic Constraints: 
                CA:FALSE
            Netscape Comment: 
                OpenSSL Generated Certificate
            X509v3 Subject Key Identifier: 
                73:79:A2:E5:54:B3:A6:A6:79:DE:35:33:6B:04:AD:EF:8A:E0:DC:F9
            X509v3 Authority Key Identifier: 
                keyid:D6:88:F1:AA:C1:2B:09:8C:B8:5C:9D:CE:DF:57:39:62:26:10:20:90
                DirName:/C=CH/ST=Thurgau/L=Kefikon/O=guengel.ch/CN=CA guengel.ch/emailAddress=postmaster@guengel.ch
                serial:E5:25:3B:A6:77:BD:CB:FF

    Signature Algorithm: sha256WithRSAEncryption
         9d:85:97:23:1e:ce:c8:d4:ab:7a:b1:1b:2c:19:3e:7b:3e:b3:
         30:f1:e7:85:85:f4:6e:e7:6d:25:ce:fe:47:c9:c6:12:62:d8:
         16:a9:57:2d:ec:d0:5a:6c:8b:d5:32:97:13:b2:95:33:08:49:
         fe:28:00:b5:7e:01:8e:1b:94:d5:e3:ce:eb:51:67:26:b4:82:
         43:43:e7:61:1a:c4:2c:ec:f7:a9:99:da:85:58:04:46:44:de:
         4e:29:99:dc:80:32:d3:53:f8:9c:4c:28:c7:4c:d7:c4:c5:41:
         41:17:15:69:7f:31:6b:e9:00:1b:92:f4:74:aa:cc:e2:1e:11:
         e5:41:d9:12:8d:fb:1e:a0:62:54:1a:ab:f3:de:9b:ae:50:77:
         98:75:13:08:27:85:1c:29:9d:73:11:00:6a:a6:f8:0d:00:6f:
         51:7c:b9:5c:33:e2:8b:be:ad:12:f4:c2:ab:f9:4d:45:96:e6:
         1c:58:26:1f:90:51:6b:4b:c1:76:2d:c5:45:fe:fb:ed:66:a6:
         3e:d7:3a:8f:41:f6:51:0c:29:fd:08:ef:e6:73:79:77:96:9b:
         39:6c:c1:f6:bc:b0:e2:09:41:25:e0:06:3e:56:1e:65:9c:4c:
         2d:45:6f:e8:a3:1a:86:bf:e3:c9:69:b0:4c:ef:df:9f:39:4b:
         57:d6:39:49:d8:3c:5c:cc:ee:2b:c2:35:db:f5:9f:c6:41:af:
         e1:3b:f6:f6:57:52:45:88:f8:73:64:05:44:3b:7a:d0:11:27:
         0f:9d:e4:d3:b4:3b:15:30:dd:3c:80:8a:6d:27:c1:4c:d3:07:
         23:73:fe:7f:2e:5e:b7:02:15:12:09:cb:31:85:67:6a:1b:8b:
         f2:d3:f5:7e:8d:6a:2c:40:ff:a8:33:bc:d3:e6:bc:11:fb:97:
         e6:f2:37:ea:f1:ec:19:1e:0b:30:42:a8:ff:33:40:78:38:25:
         4c:82:cc:b4:6c:d6:61:8d:db:b5:57:69:3b:b2:5b:43:00:27:
         2b:3c:7d:dc:5b:9a:de:c9:c2:27:47:5f:55:8b:fd:d0:7f:bc:
         25:d7:62:54:53:09:db:7c:fd:e4:c6:3d:c6:a3:b3:eb:cc:85:
         e7:f3:f2:42:e9:08:a0:c6:8a:78:26:7f:f6:a9:1f:bc:b8:3c:
         30:d7:5b:4e:8a:a2:92:fe:3b:9c:e6:1e:7f:36:c1:fe:d1:fa:
         b2:79:d1:fc:a0:8a:6c:01:5e:07:e5:e4:42:25:f8:cd:2d:06:
         74:21:39:df:b5:d9:53:f3:aa:90:b7:85:6c:b0:c4:26:e0:d5:
         d9:77:3f:2c:41:6f:ab:20:29:95:7e:27:1f:5b:71:09:a7:68:
         c4:ff:f2:f7:92:66:3e:7c
-----BEGIN CERTIFICATE-----
MIIFlTCCA32gAwIBAgICAVMwDQYJKoZIhvcNAQELBQAwgYQxCzAJBgNVBAYTAkNI
MRAwDgYDVQQIEwdUaHVyZ2F1MRAwDgYDVQQHEwdLZWZpa29uMRMwEQYDVQQKEwpn
dWVuZ2VsLmNoMRYwFAYDVQQDEw1DQSBndWVuZ2VsLmNoMSQwIgYJKoZIhvcNAQkB
FhVwb3N0bWFzdGVyQGd1ZW5nZWwuY2gwHhcNMTgxMjI5MTQzOTU5WhcNMjAwMjAy
MTQzOTU5WjB6MQswCQYDVQQGEwJDSDEQMA4GA1UECBMHVGh1cmdhdTETMBEGA1UE
ChMKZ3VlbmdlbC5jaDEeMBwGA1UEAxMVZ2FyZ295bGUua3J1ZW1lbC5ob21lMSQw
IgYJKoZIhvcNAQkBFhVwb3N0bWFzdGVyQGd1ZW5nZWwuY2gwggEiMA0GCSqGSIb3
DQEBAQUAA4IBDwAwggEKAoIBAQDFt9ImF/AKsYBv1t/lLs8u6MO0hQLz0u+38Clg
/HO3KvSossyY3DPp52kLEl7mAtoDrOlje6TNTHisgjyJ0W9vDO0fslpqC4o2iQVZ
MT4LZisZuCvLiMO2wJqI+WnPbEVgqJLKATrY0KpgqByZgQemI9TxrEkyAgKgHk7c
kLk8gYO1YxSjkFD04t5DL6BGE4SCNOvREDhbmAvYqTsghxdZLFa0wQjbkC4x5PlR
pORGBK59n5wN61PyOTOTeDYWoXuoTZEGBx+FiwB2Aj9ANBwzl3Nc41gJQ8YD+ybH
26YyBeX6/pNV+Baen0yD7e2AeUKxC9JGJoSFEizlViNGCEuHAgMBAAGjggEYMIIB
FDAJBgNVHRMEAjAAMCwGCWCGSAGG+EIBDQQfFh1PcGVuU1NMIEdlbmVyYXRlZCBD
ZXJ0aWZpY2F0ZTAdBgNVHQ4EFgQUc3mi5VSzpqZ53jUzawSt74rg3PkwgbkGA1Ud
IwSBsTCBroAU1ojxqsErCYy4XJ3O31c5YiYQIJChgYqkgYcwgYQxCzAJBgNVBAYT
AkNIMRAwDgYDVQQIEwdUaHVyZ2F1MRAwDgYDVQQHEwdLZWZpa29uMRMwEQYDVQQK
EwpndWVuZ2VsLmNoMRYwFAYDVQQDEw1DQSBndWVuZ2VsLmNoMSQwIgYJKoZIhvcN
AQkBFhVwb3N0bWFzdGVyQGd1ZW5nZWwuY2iCCQDlJTumd73L/zANBgkqhkiG9w0B
AQsFAAOCAgEAnYWXIx7OyNSrerEbLBk+ez6zMPHnhYX0budtJc7+R8nGEmLYFqlX
LezQWmyL1TKXE7KVMwhJ/igAtX4BjhuU1ePO61FnJrSCQ0PnYRrELOz3qZnahVgE
RkTeTimZ3IAy01P4nEwox0zXxMVBQRcVaX8xa+kAG5L0dKrM4h4R5UHZEo37HqBi
VBqr896brlB3mHUTCCeFHCmdcxEAaqb4DQBvUXy5XDPii76tEvTCq/lNRZbmHFgm
H5BRa0vBdi3FRf777WamPtc6j0H2UQwp/Qjv5nN5d5abOWzB9ryw4glBJeAGPlYe
ZZxMLUVv6KMahr/jyWmwTO/fnzlLV9Y5Sdg8XMzuK8I12/WfxkGv4Tv29ldSRYj4
c2QFRDt60BEnD53k07Q7FTDdPICKbSfBTNMHI3P+fy5etwIVEgnLMYVnahuL8tP1
fo1qLED/qDO80+a8EfuX5vI36vHsGR4LMEKo/zNAeDglTILMtGzWYY3btVdpO7Jb
QwAnKzx93Fua3snCJ0dfVYv90H+8JddiVFMJ23z95MY9xqOz68yF5/PyQukIoMaK
eCZ/9qkfvLg8MNdbToqikv47nOYefzbB/tH6snnR/KCKbAFeB+XkQiX4zS0GdCE5
37XZU/OqkLeFbLDEJuDV2Xc/LEFvqyAplX4nH1txCadoxP/y95JmPnw=
-----END CERTIFICATE-----
