Certificate:
    Data:
        Version: 3 (0x2)
        Serial Number: 300 (0x12c)
    Signature Algorithm: sha256WithRSAEncryption
        Issuer: C=CH, ST=Thurgau, L=Kefikon, O=guengel.ch, CN=CA guengel.ch/emailAddress=postmaster@guengel.ch
        Validity
            Not Before: Jan  6 18:02:56 2018 GMT
            Not After : Feb 10 18:02:56 2019 GMT
        Subject: C=CH, ST=Thurgau, O=guengel.ch, CN=gargoyle.kruemel.home/emailAddress=postmaster@guengel.ch
        Subject Public Key Info:
            Public Key Algorithm: rsaEncryption
                Public-Key: (2048 bit)
                Modulus:
                    00:c5:b7:d2:26:17:f0:0a:b1:80:6f:d6:df:e5:2e:
                    cf:2e:e8:c3:b4:85:02:f3:d2:ef:b7:f0:29:60:fc:
                    73:b7:2a:f4:a8:b2:cc:98:dc:33:e9:e7:69:0b:12:
                    5e:e6:02:da:03:ac:e9:63:7b:a4:cd:4c:78:ac:82:
                    3c:89:d1:6f:6f:0c:ed:1f:b2:5a:6a:0b:8a:36:89:
                    05:59:31:3e:0b:66:2b:19:b8:2b:cb:88:c3:b6:c0:
                    9a:88:f9:69:cf:6c:45:60:a8:92:ca:01:3a:d8:d0:
                    aa:60:a8:1c:99:81:07:a6:23:d4:f1:ac:49:32:02:
                    02:a0:1e:4e:dc:90:b9:3c:81:83:b5:63:14:a3:90:
                    50:f4:e2:de:43:2f:a0:46:13:84:82:34:eb:d1:10:
                    38:5b:98:0b:d8:a9:3b:20:87:17:59:2c:56:b4:c1:
                    08:db:90:2e:31:e4:f9:51:a4:e4:46:04:ae:7d:9f:
                    9c:0d:eb:53:f2:39:33:93:78:36:16:a1:7b:a8:4d:
                    91:06:07:1f:85:8b:00:76:02:3f:40:34:1c:33:97:
                    73:5c:e3:58:09:43:c6:03:fb:26:c7:db:a6:32:05:
                    e5:fa:fe:93:55:f8:16:9e:9f:4c:83:ed:ed:80:79:
                    42:b1:0b:d2:46:26:84:85:12:2c:e5:56:23:46:08:
                    4b:87
                Exponent: 65537 (0x10001)
        X509v3 extensions:
            X509v3 Basic Constraints: 
                CA:FALSE
            Netscape Comment: 
                OpenSSL Generated Certificate
            X509v3 Subject Key Identifier: 
                73:79:A2:E5:54:B3:A6:A6:79:DE:35:33:6B:04:AD:EF:8A:E0:DC:F9
            X509v3 Authority Key Identifier: 
                keyid:D6:88:F1:AA:C1:2B:09:8C:B8:5C:9D:CE:DF:57:39:62:26:10:20:90
                DirName:/C=CH/ST=Thurgau/L=Kefikon/O=guengel.ch/CN=CA guengel.ch/emailAddress=postmaster@guengel.ch
                serial:E5:25:3B:A6:77:BD:CB:FF

    Signature Algorithm: sha256WithRSAEncryption
         9f:a2:4f:29:ff:df:5f:b3:46:e5:30:5d:bf:e9:39:3c:b2:25:
         26:d0:1c:a4:f6:06:a6:aa:96:aa:2e:5c:92:2d:50:2a:98:78:
         6d:5f:9b:5f:ea:f1:45:e3:d4:5a:b4:ae:e0:8a:f8:4a:38:2b:
         8f:d0:b2:a1:da:ae:84:73:24:05:b8:3b:2e:db:f2:e2:09:e1:
         f3:a4:3d:90:bc:3e:06:b8:09:1c:9c:8d:91:bc:e1:0b:27:b7:
         74:05:dd:53:c2:bb:ef:6c:4b:bb:38:14:7f:21:1c:df:d0:b3:
         e8:90:71:de:d7:19:0b:19:5d:dc:f7:5b:0b:be:b7:d9:3a:2b:
         a7:b4:c1:12:b9:a0:db:41:e4:08:a2:2c:a4:28:64:f8:18:ed:
         e8:3e:d7:42:09:88:49:8c:b4:01:f7:c5:9b:68:13:70:11:1f:
         68:01:fc:75:18:ee:c5:82:d1:76:26:c0:7c:c5:18:f4:e9:df:
         3e:fb:08:c2:62:7d:92:b6:9f:10:a8:3b:e6:e8:14:86:9b:85:
         34:59:fd:36:d5:12:0b:78:1b:00:e8:ca:ca:11:6c:c9:cf:e0:
         e8:5b:14:ed:75:e4:24:72:f9:1a:71:10:91:c6:37:0c:d0:dd:
         1c:4f:fd:44:8b:34:74:59:14:5c:92:46:a2:59:85:f5:e4:37:
         7c:73:bc:01:aa:0b:3a:c6:16:a1:a4:ed:b8:1a:7e:09:53:34:
         26:c9:14:eb:aa:70:c6:8e:b2:0f:aa:c9:41:03:41:a6:85:da:
         2c:4f:85:b6:e1:ea:d4:47:31:01:b8:69:19:ed:2d:17:2a:1e:
         42:9b:4f:f1:51:dc:d4:b6:22:05:d7:35:18:9f:62:0d:73:bd:
         6e:a4:97:6d:3b:c2:a0:07:39:93:7f:a4:08:87:31:ec:6c:fb:
         f6:f5:86:4d:d8:b9:3d:4d:01:68:46:21:d3:35:99:90:37:cf:
         f1:5f:80:9d:57:39:fb:9a:d5:0b:92:eb:fa:4b:e4:e4:07:42:
         64:b2:82:58:7d:b1:40:0e:df:11:33:d7:19:f1:f3:d5:5c:be:
         d7:3c:26:89:47:0d:b1:ed:1d:10:77:79:78:ee:99:a2:e2:e7:
         c1:ff:ce:b3:a2:ff:fe:ae:fd:3b:bd:da:10:7a:99:96:61:ba:
         7d:5d:d0:5c:df:86:c5:14:ef:b6:48:17:e0:84:f8:57:fc:61:
         3c:62:49:99:f5:cc:56:00:ec:7a:20:03:7d:07:f7:17:13:27:
         f5:1d:87:01:f7:4a:a5:c8:ef:5e:40:0b:11:57:c5:2b:e5:54:
         bc:eb:f9:d7:5f:30:1c:59:06:2e:d9:bc:b9:2d:0b:5b:bb:dc:
         56:8e:d6:11:a7:9f:ec:86
-----BEGIN CERTIFICATE-----
MIIFlTCCA32gAwIBAgICASwwDQYJKoZIhvcNAQELBQAwgYQxCzAJBgNVBAYTAkNI
MRAwDgYDVQQIEwdUaHVyZ2F1MRAwDgYDVQQHEwdLZWZpa29uMRMwEQYDVQQKEwpn
dWVuZ2VsLmNoMRYwFAYDVQQDEw1DQSBndWVuZ2VsLmNoMSQwIgYJKoZIhvcNAQkB
FhVwb3N0bWFzdGVyQGd1ZW5nZWwuY2gwHhcNMTgwMTA2MTgwMjU2WhcNMTkwMjEw
MTgwMjU2WjB6MQswCQYDVQQGEwJDSDEQMA4GA1UECBMHVGh1cmdhdTETMBEGA1UE
ChMKZ3VlbmdlbC5jaDEeMBwGA1UEAxMVZ2FyZ295bGUua3J1ZW1lbC5ob21lMSQw
IgYJKoZIhvcNAQkBFhVwb3N0bWFzdGVyQGd1ZW5nZWwuY2gwggEiMA0GCSqGSIb3
DQEBAQUAA4IBDwAwggEKAoIBAQDFt9ImF/AKsYBv1t/lLs8u6MO0hQLz0u+38Clg
/HO3KvSossyY3DPp52kLEl7mAtoDrOlje6TNTHisgjyJ0W9vDO0fslpqC4o2iQVZ
MT4LZisZuCvLiMO2wJqI+WnPbEVgqJLKATrY0KpgqByZgQemI9TxrEkyAgKgHk7c
kLk8gYO1YxSjkFD04t5DL6BGE4SCNOvREDhbmAvYqTsghxdZLFa0wQjbkC4x5PlR
pORGBK59n5wN61PyOTOTeDYWoXuoTZEGBx+FiwB2Aj9ANBwzl3Nc41gJQ8YD+ybH
26YyBeX6/pNV+Baen0yD7e2AeUKxC9JGJoSFEizlViNGCEuHAgMBAAGjggEYMIIB
FDAJBgNVHRMEAjAAMCwGCWCGSAGG+EIBDQQfFh1PcGVuU1NMIEdlbmVyYXRlZCBD
ZXJ0aWZpY2F0ZTAdBgNVHQ4EFgQUc3mi5VSzpqZ53jUzawSt74rg3PkwgbkGA1Ud
IwSBsTCBroAU1ojxqsErCYy4XJ3O31c5YiYQIJChgYqkgYcwgYQxCzAJBgNVBAYT
AkNIMRAwDgYDVQQIEwdUaHVyZ2F1MRAwDgYDVQQHEwdLZWZpa29uMRMwEQYDVQQK
EwpndWVuZ2VsLmNoMRYwFAYDVQQDEw1DQSBndWVuZ2VsLmNoMSQwIgYJKoZIhvcN
AQkBFhVwb3N0bWFzdGVyQGd1ZW5nZWwuY2iCCQDlJTumd73L/zANBgkqhkiG9w0B
AQsFAAOCAgEAn6JPKf/fX7NG5TBdv+k5PLIlJtAcpPYGpqqWqi5cki1QKph4bV+b
X+rxRePUWrSu4Ir4Sjgrj9CyodquhHMkBbg7Ltvy4gnh86Q9kLw+BrgJHJyNkbzh
Cye3dAXdU8K772xLuzgUfyEc39Cz6JBx3tcZCxld3PdbC7632Torp7TBErmg20Hk
CKIspChk+Bjt6D7XQgmISYy0AffFm2gTcBEfaAH8dRjuxYLRdibAfMUY9OnfPvsI
wmJ9krafEKg75ugUhpuFNFn9NtUSC3gbAOjKyhFsyc/g6FsU7XXkJHL5GnEQkcY3
DNDdHE/9RIs0dFkUXJJGolmF9eQ3fHO8AaoLOsYWoaTtuBp+CVM0JskU66pwxo6y
D6rJQQNBpoXaLE+FtuHq1EcxAbhpGe0tFyoeQptP8VHc1LYiBdc1GJ9iDXO9bqSX
bTvCoAc5k3+kCIcx7Gz79vWGTdi5PU0BaEYh0zWZkDfP8V+AnVc5+5rVC5Lr+kvk
5AdCZLKCWH2xQA7fETPXGfHz1Vy+1zwmiUcNse0dEHd5eO6ZouLnwf/Os6L//q79
O73aEHqZlmG6fV3QXN+GxRTvtkgX4IT4V/xhPGJJmfXMVgDseiADfQf3FxMn9R2H
AfdKpcjvXkALEVfFK+VUvOv5118wHFkGLtm8uS0LW7vcVo7WEaef7IY=
-----END CERTIFICATE-----
