Certificate:
    Data:
        Version: 3 (0x2)
        Serial Number: 459 (0x1cb)
        Signature Algorithm: sha256WithRSAEncryption
        Issuer: C=CH, ST=Thurgau, L=Kefikon, O=guengel.ch, CN=CA guengel.ch/emailAddress=postmaster@guengel.ch
        Validity
            Not Before: Feb 11 07:07:04 2022 GMT
            Not After : Mar 18 07:07:04 2023 GMT
        Subject: C=CH, ST=Thurgau, O=guengel.ch, CN=gargoyle.kruemel.home/emailAddress=postmaster@guengel.ch
        Subject Public Key Info:
            Public Key Algorithm: rsaEncryption
                RSA Public-Key: (2048 bit)
                Modulus:
                    00:c5:b7:d2:26:17:f0:0a:b1:80:6f:d6:df:e5:2e:
                    cf:2e:e8:c3:b4:85:02:f3:d2:ef:b7:f0:29:60:fc:
                    73:b7:2a:f4:a8:b2:cc:98:dc:33:e9:e7:69:0b:12:
                    5e:e6:02:da:03:ac:e9:63:7b:a4:cd:4c:78:ac:82:
                    3c:89:d1:6f:6f:0c:ed:1f:b2:5a:6a:0b:8a:36:89:
                    05:59:31:3e:0b:66:2b:19:b8:2b:cb:88:c3:b6:c0:
                    9a:88:f9:69:cf:6c:45:60:a8:92:ca:01:3a:d8:d0:
                    aa:60:a8:1c:99:81:07:a6:23:d4:f1:ac:49:32:02:
                    02:a0:1e:4e:dc:90:b9:3c:81:83:b5:63:14:a3:90:
                    50:f4:e2:de:43:2f:a0:46:13:84:82:34:eb:d1:10:
                    38:5b:98:0b:d8:a9:3b:20:87:17:59:2c:56:b4:c1:
                    08:db:90:2e:31:e4:f9:51:a4:e4:46:04:ae:7d:9f:
                    9c:0d:eb:53:f2:39:33:93:78:36:16:a1:7b:a8:4d:
                    91:06:07:1f:85:8b:00:76:02:3f:40:34:1c:33:97:
                    73:5c:e3:58:09:43:c6:03:fb:26:c7:db:a6:32:05:
                    e5:fa:fe:93:55:f8:16:9e:9f:4c:83:ed:ed:80:79:
                    42:b1:0b:d2:46:26:84:85:12:2c:e5:56:23:46:08:
                    4b:87
                Exponent: 65537 (0x10001)
        X509v3 extensions:
            X509v3 Key Usage: 
                Digital Signature, Key Encipherment, Key Agreement
            X509v3 Basic Constraints: critical
                CA:FALSE
            Netscape Cert Type: 
                SSL Client, SSL Server
            X509v3 Extended Key Usage: 
                TLS Web Server Authentication, TLS Web Client Authentication
            X509v3 Subject Alternative Name: 
                DNS:gargoyle.kruemel.home
            X509v3 Subject Key Identifier: 
                73:79:A2:E5:54:B3:A6:A6:79:DE:35:33:6B:04:AD:EF:8A:E0:DC:F9
            X509v3 Authority Key Identifier: 
                keyid:D6:88:F1:AA:C1:2B:09:8C:B8:5C:9D:CE:DF:57:39:62:26:10:20:90
                DirName:/C=CH/ST=Thurgau/L=Kefikon/O=guengel.ch/CN=CA guengel.ch/emailAddress=postmaster@guengel.ch
                serial:E5:25:3B:A6:77:BD:CB:FF

    Signature Algorithm: sha256WithRSAEncryption
         77:64:35:7e:b4:14:b7:63:72:e6:69:75:f2:f8:90:37:e9:5e:
         37:21:f1:23:f5:7e:3f:0b:76:3c:e6:7f:7f:32:09:af:a6:4e:
         c3:b0:b3:fe:35:85:d5:2e:38:07:93:06:8c:96:58:0c:b4:7f:
         42:2b:54:0a:e2:f4:d5:c3:7a:24:1e:55:91:f4:ca:62:9c:57:
         a5:75:1f:c4:ff:ae:87:ff:3f:1b:eb:24:49:cf:f7:27:9e:15:
         9a:94:35:a8:5e:15:2f:d7:eb:8f:35:6a:02:63:f7:1f:2f:ae:
         86:ff:3a:aa:f0:e7:34:f9:c2:bf:c8:89:da:56:0d:a0:59:0c:
         78:90:c9:a7:50:0a:b3:ca:ab:3f:11:05:ed:f4:41:ea:6f:8c:
         79:6e:22:4b:b9:0c:76:29:12:08:73:b9:8c:cf:2e:0b:fc:ae:
         22:13:62:e0:92:b3:5d:41:25:e9:ee:bb:c5:c0:a0:85:dd:c9:
         53:c9:cf:92:d3:1f:d2:46:07:c7:ae:3a:24:4c:6f:ce:40:b7:
         6d:81:eb:22:8f:aa:e1:5a:22:77:47:08:90:1b:7a:48:57:db:
         6c:82:8d:e7:4d:0f:49:db:40:1a:68:56:01:19:36:ad:1e:07:
         d3:00:a4:fc:d4:95:1f:65:a3:60:23:07:e5:a3:58:7c:3c:f3:
         d5:2e:68:a3:3f:20:0b:26:88:e4:8a:6a:42:50:86:b0:29:88:
         9f:36:57:9d:0d:ae:ab:53:8f:1d:b0:de:70:52:e6:cf:3c:2b:
         92:43:4b:62:a7:0d:ef:b5:54:2b:e7:90:da:ff:7c:49:fe:41:
         fd:68:cd:1b:48:57:96:f2:92:c3:85:b2:1d:68:69:a4:82:d6:
         bb:17:ee:06:e7:6a:ce:05:5d:d0:bf:aa:ce:7e:5a:2e:2e:bc:
         fb:33:2e:d5:af:d4:f6:04:06:18:03:29:08:86:6d:69:aa:db:
         1b:99:75:f7:7d:e3:a0:62:b1:5a:61:b4:82:4f:cf:1f:f5:24:
         bd:70:76:e6:39:1c:50:60:83:45:6f:ef:da:26:b4:77:5b:76:
         0a:ef:da:60:d2:e1:cc:c3:ee:2a:b0:54:38:84:98:06:03:d2:
         1e:b3:bc:80:ec:6a:fb:0e:bb:e0:d7:76:74:42:66:aa:97:9f:
         9f:17:67:11:3c:28:e9:3f:f0:3a:cf:07:42:0a:cf:45:91:1b:
         dc:24:d3:85:5b:07:aa:6d:21:d7:77:9b:d9:b8:9c:e7:3b:71:
         a5:9b:94:2b:c8:0e:f3:dc:48:b2:3d:9a:8a:d1:62:5e:72:40:
         cf:da:bc:a0:81:f2:96:e5:ce:43:ae:27:66:fa:4e:bf:61:c1:
         55:6a:3d:5c:6d:6c:71:41
-----BEGIN CERTIFICATE-----
MIIFyzCCA7OgAwIBAgICAcswDQYJKoZIhvcNAQELBQAwgYQxCzAJBgNVBAYTAkNI
MRAwDgYDVQQIEwdUaHVyZ2F1MRAwDgYDVQQHEwdLZWZpa29uMRMwEQYDVQQKEwpn
dWVuZ2VsLmNoMRYwFAYDVQQDEw1DQSBndWVuZ2VsLmNoMSQwIgYJKoZIhvcNAQkB
FhVwb3N0bWFzdGVyQGd1ZW5nZWwuY2gwHhcNMjIwMjExMDcwNzA0WhcNMjMwMzE4
MDcwNzA0WjB6MQswCQYDVQQGEwJDSDEQMA4GA1UECBMHVGh1cmdhdTETMBEGA1UE
ChMKZ3VlbmdlbC5jaDEeMBwGA1UEAxMVZ2FyZ295bGUua3J1ZW1lbC5ob21lMSQw
IgYJKoZIhvcNAQkBFhVwb3N0bWFzdGVyQGd1ZW5nZWwuY2gwggEiMA0GCSqGSIb3
DQEBAQUAA4IBDwAwggEKAoIBAQDFt9ImF/AKsYBv1t/lLs8u6MO0hQLz0u+38Clg
/HO3KvSossyY3DPp52kLEl7mAtoDrOlje6TNTHisgjyJ0W9vDO0fslpqC4o2iQVZ
MT4LZisZuCvLiMO2wJqI+WnPbEVgqJLKATrY0KpgqByZgQemI9TxrEkyAgKgHk7c
kLk8gYO1YxSjkFD04t5DL6BGE4SCNOvREDhbmAvYqTsghxdZLFa0wQjbkC4x5PlR
pORGBK59n5wN61PyOTOTeDYWoXuoTZEGBx+FiwB2Aj9ANBwzl3Nc41gJQ8YD+ybH
26YyBeX6/pNV+Baen0yD7e2AeUKxC9JGJoSFEizlViNGCEuHAgMBAAGjggFOMIIB
SjALBgNVHQ8EBAMCA6gwDAYDVR0TAQH/BAIwADARBglghkgBhvhCAQEEBAMCBsAw
HQYDVR0lBBYwFAYIKwYBBQUHAwEGCCsGAQUFBwMCMCAGA1UdEQQZMBeCFWdhcmdv
eWxlLmtydWVtZWwuaG9tZTAdBgNVHQ4EFgQUc3mi5VSzpqZ53jUzawSt74rg3Pkw
gbkGA1UdIwSBsTCBroAU1ojxqsErCYy4XJ3O31c5YiYQIJChgYqkgYcwgYQxCzAJ
BgNVBAYTAkNIMRAwDgYDVQQIEwdUaHVyZ2F1MRAwDgYDVQQHEwdLZWZpa29uMRMw
EQYDVQQKEwpndWVuZ2VsLmNoMRYwFAYDVQQDEw1DQSBndWVuZ2VsLmNoMSQwIgYJ
KoZIhvcNAQkBFhVwb3N0bWFzdGVyQGd1ZW5nZWwuY2iCCQDlJTumd73L/zANBgkq
hkiG9w0BAQsFAAOCAgEAd2Q1frQUt2Ny5ml18viQN+leNyHxI/V+Pwt2POZ/fzIJ
r6ZOw7Cz/jWF1S44B5MGjJZYDLR/QitUCuL01cN6JB5VkfTKYpxXpXUfxP+uh/8/
G+skSc/3J54VmpQ1qF4VL9frjzVqAmP3Hy+uhv86qvDnNPnCv8iJ2lYNoFkMeJDJ
p1AKs8qrPxEF7fRB6m+MeW4iS7kMdikSCHO5jM8uC/yuIhNi4JKzXUEl6e67xcCg
hd3JU8nPktMf0kYHx646JExvzkC3bYHrIo+q4Void0cIkBt6SFfbbIKN500PSdtA
GmhWARk2rR4H0wCk/NSVH2WjYCMH5aNYfDzz1S5ooz8gCyaI5IpqQlCGsCmInzZX
nQ2uq1OPHbDecFLmzzwrkkNLYqcN77VUK+eQ2v98Sf5B/WjNG0hXlvKSw4WyHWhp
pILWuxfuBudqzgVd0L+qzn5aLi68+zMu1a/U9gQGGAMpCIZtaarbG5l1933joGKx
WmG0gk/PH/UkvXB25jkcUGCDRW/v2ia0d1t2Cu/aYNLhzMPuKrBUOISYBgPSHrO8
gOxq+w674Nd2dEJmqpefnxdnETwo6T/wOs8HQgrPRZEb3CTThVsHqm0h13eb2bic
5ztxpZuUK8gO89xIsj2aitFiXnJAz9q8oIHyluXOQ64nZvpOv2HBVWo9XG1scUE=
-----END CERTIFICATE-----
