Certificate:
    Data:
        Version: 3 (0x2)
        Serial Number: 301 (0x12d)
    Signature Algorithm: sha256WithRSAEncryption
        Issuer: C=CH, ST=Thurgau, L=Kefikon, O=guengel.ch, CN=CA guengel.ch/emailAddress=postmaster@guengel.ch
        Validity
            Not Before: Jan  6 18:02:56 2018 GMT
            Not After : Feb 10 18:02:56 2019 GMT
        Subject: C=CH, ST=Thurgau, O=guengel.ch, CN=gizmo.kruemel.home/emailAddress=postmaster@guengel.ch
        Subject Public Key Info:
            Public Key Algorithm: rsaEncryption
                Public-Key: (2048 bit)
                Modulus:
                    00:b7:1d:60:10:ea:6e:62:44:1a:ea:da:ba:2e:5a:
                    12:e4:a0:01:e2:8a:03:95:28:6a:3a:63:98:c3:57:
                    9f:cf:54:65:6c:8b:b0:f7:7f:38:80:c7:ca:c0:68:
                    f8:a1:7a:6a:5c:69:2e:f3:da:4c:cd:e4:a5:de:68:
                    45:63:3e:27:37:0a:18:9b:1d:ae:a6:8d:6a:16:f6:
                    45:df:da:a4:ae:ef:2f:65:f2:6f:bd:b1:40:75:be:
                    32:40:6d:b9:82:a0:b6:bb:73:f0:51:a8:2b:d2:dd:
                    44:63:ec:58:ec:36:b2:f8:02:c7:6c:78:7f:ac:7b:
                    3e:48:e5:20:ad:e1:36:9a:4a:f3:40:b8:f2:75:11:
                    f0:67:f2:d2:6e:10:6b:93:18:fe:74:56:f2:10:c6:
                    1e:72:62:85:59:b5:52:6e:94:47:a7:37:72:33:11:
                    e1:81:23:dd:74:bd:73:22:de:52:78:09:63:91:6f:
                    03:2c:43:4c:ca:fb:27:99:b7:e2:5e:d7:fb:fd:28:
                    93:e2:f5:13:89:36:72:0c:e8:1c:8d:63:93:c8:d2:
                    df:c4:1b:a4:c9:75:c4:88:d7:94:c2:e2:84:20:ad:
                    57:8e:d5:64:a9:31:3c:ad:55:65:2c:42:36:dc:2e:
                    f3:17:56:3b:17:10:0e:5f:ec:02:e3:d3:d1:b2:e1:
                    f5:bd
                Exponent: 65537 (0x10001)
        X509v3 extensions:
            X509v3 Basic Constraints: 
                CA:FALSE
            Netscape Comment: 
                OpenSSL Generated Certificate
            X509v3 Subject Key Identifier: 
                95:14:51:0B:8C:1C:6F:B6:E7:93:2B:C6:0D:D7:29:0D:F7:F2:BF:71
            X509v3 Authority Key Identifier: 
                keyid:D6:88:F1:AA:C1:2B:09:8C:B8:5C:9D:CE:DF:57:39:62:26:10:20:90
                DirName:/C=CH/ST=Thurgau/L=Kefikon/O=guengel.ch/CN=CA guengel.ch/emailAddress=postmaster@guengel.ch
                serial:E5:25:3B:A6:77:BD:CB:FF

    Signature Algorithm: sha256WithRSAEncryption
         ae:94:9f:c0:ae:eb:e6:74:8c:66:31:b4:f3:4c:6c:81:d6:65:
         eb:d0:dc:54:00:fa:5e:51:e0:00:75:93:99:38:58:b7:5f:86:
         68:3d:01:57:48:91:e9:fd:ff:71:f8:38:2d:bd:30:23:dd:b8:
         5e:37:1c:82:4e:ff:51:53:94:d2:eb:b6:5f:df:cf:75:8a:49:
         c2:b6:67:e9:b1:bc:a1:7c:b7:3e:ed:88:ea:d1:a3:8f:d0:e0:
         5c:73:c7:98:64:db:6a:44:d7:5e:e7:38:2f:71:40:fd:48:87:
         0e:e4:1e:a2:23:37:7d:ea:f3:ac:f6:e1:1e:3e:60:9f:44:41:
         4b:fb:5c:9a:55:95:53:1b:a0:ba:d0:64:e3:fe:83:d9:2e:28:
         b5:16:ca:0f:a0:b5:77:1d:ee:df:2a:2c:49:25:fe:e1:cb:bd:
         62:6e:dd:99:2f:ac:6c:9a:6f:61:05:21:ac:71:fa:fc:4f:df:
         79:61:47:17:e3:98:ce:c4:61:c6:e7:26:df:f8:f3:bc:63:c4:
         f7:21:a2:d6:f6:cb:a3:2e:b9:57:7e:b0:c5:4b:1b:24:c5:6c:
         07:5c:75:0b:b6:d4:7a:3a:21:c9:09:b9:56:9b:f5:e6:bf:97:
         04:21:a3:41:0a:99:ee:2e:53:40:12:0b:89:a7:45:61:14:52:
         ff:f6:af:08:6f:76:f8:2a:57:90:8b:9e:13:a8:45:70:50:e4:
         6f:42:89:e3:ec:d1:1e:79:ca:0c:6d:f6:d8:14:c0:a6:95:05:
         fd:cf:f9:28:1e:6f:51:7b:16:5d:f0:4d:4a:39:ae:5b:83:5d:
         a6:20:69:30:c4:39:8c:5c:11:48:e4:f7:13:08:d4:01:b6:43:
         f8:72:95:87:b7:97:e0:3d:f7:8b:35:2e:d7:e3:2d:b1:f2:5c:
         eb:47:0e:ab:61:f0:b0:cf:17:98:9f:f3:93:8c:e2:62:84:e8:
         15:10:6e:98:f4:45:6f:a1:33:12:95:8b:07:e8:bf:01:19:7c:
         b7:6d:97:1d:bc:80:72:39:44:15:3b:01:27:3d:99:b0:04:fa:
         9c:45:02:e9:a4:53:bc:c5:04:6b:95:32:da:b7:4a:a0:b8:77:
         8e:52:54:b6:3e:f2:90:3b:98:87:b1:49:e4:ca:ea:06:01:0a:
         65:f2:2e:7b:db:44:77:ba:12:c8:0f:6d:f9:24:29:ed:b1:db:
         fc:6b:9b:c4:24:a8:4e:3e:09:de:ea:10:d7:4a:09:99:68:97:
         80:a1:72:ff:e8:b5:20:e1:77:aa:31:51:80:97:ba:10:d9:be:
         85:22:0e:f9:69:f8:df:06:fd:b6:ae:26:1d:32:3a:90:91:1a:
         e7:13:1d:7f:e7:e6:9e:7b
-----BEGIN CERTIFICATE-----
MIIFkjCCA3qgAwIBAgICAS0wDQYJKoZIhvcNAQELBQAwgYQxCzAJBgNVBAYTAkNI
MRAwDgYDVQQIEwdUaHVyZ2F1MRAwDgYDVQQHEwdLZWZpa29uMRMwEQYDVQQKEwpn
dWVuZ2VsLmNoMRYwFAYDVQQDEw1DQSBndWVuZ2VsLmNoMSQwIgYJKoZIhvcNAQkB
FhVwb3N0bWFzdGVyQGd1ZW5nZWwuY2gwHhcNMTgwMTA2MTgwMjU2WhcNMTkwMjEw
MTgwMjU2WjB3MQswCQYDVQQGEwJDSDEQMA4GA1UECBMHVGh1cmdhdTETMBEGA1UE
ChMKZ3VlbmdlbC5jaDEbMBkGA1UEAxMSZ2l6bW8ua3J1ZW1lbC5ob21lMSQwIgYJ
KoZIhvcNAQkBFhVwb3N0bWFzdGVyQGd1ZW5nZWwuY2gwggEiMA0GCSqGSIb3DQEB
AQUAA4IBDwAwggEKAoIBAQC3HWAQ6m5iRBrq2rouWhLkoAHiigOVKGo6Y5jDV5/P
VGVsi7D3fziAx8rAaPihempcaS7z2kzN5KXeaEVjPic3ChibHa6mjWoW9kXf2qSu
7y9l8m+9sUB1vjJAbbmCoLa7c/BRqCvS3URj7FjsNrL4AsdseH+sez5I5SCt4Taa
SvNAuPJ1EfBn8tJuEGuTGP50VvIQxh5yYoVZtVJulEenN3IzEeGBI910vXMi3lJ4
CWORbwMsQ0zK+yeZt+Je1/v9KJPi9ROJNnIM6ByNY5PI0t/EG6TJdcSI15TC4oQg
rVeO1WSpMTytVWUsQjbcLvMXVjsXEA5f7ALj09Gy4fW9AgMBAAGjggEYMIIBFDAJ
BgNVHRMEAjAAMCwGCWCGSAGG+EIBDQQfFh1PcGVuU1NMIEdlbmVyYXRlZCBDZXJ0
aWZpY2F0ZTAdBgNVHQ4EFgQUlRRRC4wcb7bnkyvGDdcpDffyv3EwgbkGA1UdIwSB
sTCBroAU1ojxqsErCYy4XJ3O31c5YiYQIJChgYqkgYcwgYQxCzAJBgNVBAYTAkNI
MRAwDgYDVQQIEwdUaHVyZ2F1MRAwDgYDVQQHEwdLZWZpa29uMRMwEQYDVQQKEwpn
dWVuZ2VsLmNoMRYwFAYDVQQDEw1DQSBndWVuZ2VsLmNoMSQwIgYJKoZIhvcNAQkB
FhVwb3N0bWFzdGVyQGd1ZW5nZWwuY2iCCQDlJTumd73L/zANBgkqhkiG9w0BAQsF
AAOCAgEArpSfwK7r5nSMZjG080xsgdZl69DcVAD6XlHgAHWTmThYt1+GaD0BV0iR
6f3/cfg4Lb0wI924Xjccgk7/UVOU0uu2X9/PdYpJwrZn6bG8oXy3Pu2I6tGjj9Dg
XHPHmGTbakTXXuc4L3FA/UiHDuQeoiM3ferzrPbhHj5gn0RBS/tcmlWVUxugutBk
4/6D2S4otRbKD6C1dx3u3yosSSX+4cu9Ym7dmS+sbJpvYQUhrHH6/E/feWFHF+OY
zsRhxucm3/jzvGPE9yGi1vbLoy65V36wxUsbJMVsB1x1C7bUejohyQm5Vpv15r+X
BCGjQQqZ7i5TQBILiadFYRRS//avCG92+CpXkIueE6hFcFDkb0KJ4+zRHnnKDG32
2BTAppUF/c/5KB5vUXsWXfBNSjmuW4NdpiBpMMQ5jFwRSOT3EwjUAbZD+HKVh7eX
4D33izUu1+MtsfJc60cOq2HwsM8XmJ/zk4ziYoToFRBumPRFb6EzEpWLB+i/ARl8
t22XHbyAcjlEFTsBJz2ZsAT6nEUC6aRTvMUEa5Uy2rdKoLh3jlJUtj7ykDuYh7FJ
5MrqBgEKZfIue9tEd7oSyA9t+SQp7bHb/GubxCSoTj4J3uoQ10oJmWiXgKFy/+i1
IOF3qjFRgJe6ENm+hSIO+Wn43wb9tq4mHTI6kJEa5xMdf+fmnns=
-----END CERTIFICATE-----
