Certificate:
    Data:
        Version: 3 (0x2)
        Serial Number: 340 (0x154)
    Signature Algorithm: sha256WithRSAEncryption
        Issuer: C=CH, ST=Thurgau, L=Kefikon, O=guengel.ch, CN=CA guengel.ch/emailAddress=postmaster@guengel.ch
        Validity
            Not Before: Dec 29 14:39:59 2018 GMT
            Not After : Feb  2 14:39:59 2020 GMT
        Subject: C=CH, ST=Thurgau, O=guengel.ch, CN=gizmo.kruemel.home/emailAddress=postmaster@guengel.ch
        Subject Public Key Info:
            Public Key Algorithm: rsaEncryption
                Public-Key: (2048 bit)
                Modulus:
                    00:b7:1d:60:10:ea:6e:62:44:1a:ea:da:ba:2e:5a:
                    12:e4:a0:01:e2:8a:03:95:28:6a:3a:63:98:c3:57:
                    9f:cf:54:65:6c:8b:b0:f7:7f:38:80:c7:ca:c0:68:
                    f8:a1:7a:6a:5c:69:2e:f3:da:4c:cd:e4:a5:de:68:
                    45:63:3e:27:37:0a:18:9b:1d:ae:a6:8d:6a:16:f6:
                    45:df:da:a4:ae:ef:2f:65:f2:6f:bd:b1:40:75:be:
                    32:40:6d:b9:82:a0:b6:bb:73:f0:51:a8:2b:d2:dd:
                    44:63:ec:58:ec:36:b2:f8:02:c7:6c:78:7f:ac:7b:
                    3e:48:e5:20:ad:e1:36:9a:4a:f3:40:b8:f2:75:11:
                    f0:67:f2:d2:6e:10:6b:93:18:fe:74:56:f2:10:c6:
                    1e:72:62:85:59:b5:52:6e:94:47:a7:37:72:33:11:
                    e1:81:23:dd:74:bd:73:22:de:52:78:09:63:91:6f:
                    03:2c:43:4c:ca:fb:27:99:b7:e2:5e:d7:fb:fd:28:
                    93:e2:f5:13:89:36:72:0c:e8:1c:8d:63:93:c8:d2:
                    df:c4:1b:a4:c9:75:c4:88:d7:94:c2:e2:84:20:ad:
                    57:8e:d5:64:a9:31:3c:ad:55:65:2c:42:36:dc:2e:
                    f3:17:56:3b:17:10:0e:5f:ec:02:e3:d3:d1:b2:e1:
                    f5:bd
                Exponent: 65537 (0x10001)
        X509v3 extensions:
            X509v3 Basic Constraints: 
                CA:FALSE
            Netscape Comment: 
                OpenSSL Generated Certificate
            X509v3 Subject Key Identifier: 
                95:14:51:0B:8C:1C:6F:B6:E7:93:2B:C6:0D:D7:29:0D:F7:F2:BF:71
            X509v3 Authority Key Identifier: 
                keyid:D6:88:F1:AA:C1:2B:09:8C:B8:5C:9D:CE:DF:57:39:62:26:10:20:90
                DirName:/C=CH/ST=Thurgau/L=Kefikon/O=guengel.ch/CN=CA guengel.ch/emailAddress=postmaster@guengel.ch
                serial:E5:25:3B:A6:77:BD:CB:FF

    Signature Algorithm: sha256WithRSAEncryption
         bd:b5:f1:3c:9a:5a:3c:ad:45:67:fa:d3:91:4d:a1:6a:44:b3:
         7d:77:1e:b5:d5:5b:38:ec:5a:b4:ec:a0:03:84:5b:20:e8:9b:
         e6:b4:c7:0d:0f:2c:32:0e:60:6b:65:b7:96:5d:4b:0e:99:91:
         70:2e:34:a5:fa:9a:42:80:a7:7d:69:6c:1f:b8:8e:3c:db:2c:
         1e:b2:0c:c1:c2:5f:5a:67:e8:f3:56:73:b8:48:bb:39:4d:9d:
         49:f2:62:7b:ce:ce:78:1a:3e:17:6e:32:6a:50:f1:bd:14:d1:
         63:4e:24:54:97:df:eb:df:79:72:35:e9:11:a3:10:b8:5f:e6:
         7d:0e:5d:90:f8:4c:18:c4:f7:fa:08:ce:76:78:b7:11:61:93:
         ea:53:55:0d:52:a9:e6:ec:49:aa:ed:71:1a:34:c9:0d:99:64:
         f3:54:23:48:a0:a6:04:cb:59:c8:f5:dd:a4:ca:69:82:b4:45:
         27:e6:7e:4e:4e:09:93:1e:58:71:e0:ea:e0:4f:f7:59:76:c8:
         40:10:0b:6d:09:93:88:f5:a9:47:97:87:a1:bf:ef:4c:fe:22:
         f6:c0:72:53:de:67:71:c0:26:95:06:63:03:6b:44:18:6a:c4:
         8b:b1:e4:c6:e6:1e:7f:80:95:db:27:7c:2c:02:8e:a0:3a:5f:
         f6:ae:39:88:20:1b:93:d8:30:b3:ca:1d:9e:e6:9e:c7:6c:59:
         77:db:e7:b1:71:2e:7e:ab:4e:c5:5f:0f:08:fd:a2:77:41:b2:
         ee:13:bc:9c:74:db:da:43:03:6c:d4:b9:bd:a4:73:f7:2f:d6:
         20:a8:ea:19:e5:87:0c:e4:86:66:f9:7c:76:e9:51:94:32:7d:
         fe:37:b9:64:50:31:b6:d8:2c:bb:a2:54:6d:b6:8a:c0:52:01:
         e0:fb:55:dc:89:6e:12:46:5e:7c:b9:63:48:3a:a1:a1:9a:3d:
         65:d5:f3:3e:ec:1e:fe:68:eb:e3:b8:38:69:a3:b9:c2:10:02:
         5e:70:17:da:81:4c:d9:4a:36:48:3d:b1:e2:84:5e:89:6d:3c:
         af:8d:07:c4:18:f0:b8:9b:b7:0f:a8:56:6a:04:17:c1:2b:f7:
         25:23:3c:9d:cd:f5:36:fa:f4:d5:03:7b:b1:42:8f:54:ae:29:
         8b:d8:71:ea:4c:59:ef:ee:6a:dc:dd:01:f5:4e:ab:f4:30:b6:
         e8:1f:97:3c:dd:0c:e6:f2:25:2d:56:8f:4d:9e:d2:1d:f7:a0:
         d4:99:ed:80:a5:66:bc:cd:c2:a8:29:81:3c:84:a4:07:5d:8b:
         fb:85:d8:b4:16:10:f3:61:4c:0b:77:24:dd:6a:af:45:58:8f:
         c9:5d:2c:d2:6b:c0:84:5e
-----BEGIN CERTIFICATE-----
MIIFkjCCA3qgAwIBAgICAVQwDQYJKoZIhvcNAQELBQAwgYQxCzAJBgNVBAYTAkNI
MRAwDgYDVQQIEwdUaHVyZ2F1MRAwDgYDVQQHEwdLZWZpa29uMRMwEQYDVQQKEwpn
dWVuZ2VsLmNoMRYwFAYDVQQDEw1DQSBndWVuZ2VsLmNoMSQwIgYJKoZIhvcNAQkB
FhVwb3N0bWFzdGVyQGd1ZW5nZWwuY2gwHhcNMTgxMjI5MTQzOTU5WhcNMjAwMjAy
MTQzOTU5WjB3MQswCQYDVQQGEwJDSDEQMA4GA1UECBMHVGh1cmdhdTETMBEGA1UE
ChMKZ3VlbmdlbC5jaDEbMBkGA1UEAxMSZ2l6bW8ua3J1ZW1lbC5ob21lMSQwIgYJ
KoZIhvcNAQkBFhVwb3N0bWFzdGVyQGd1ZW5nZWwuY2gwggEiMA0GCSqGSIb3DQEB
AQUAA4IBDwAwggEKAoIBAQC3HWAQ6m5iRBrq2rouWhLkoAHiigOVKGo6Y5jDV5/P
VGVsi7D3fziAx8rAaPihempcaS7z2kzN5KXeaEVjPic3ChibHa6mjWoW9kXf2qSu
7y9l8m+9sUB1vjJAbbmCoLa7c/BRqCvS3URj7FjsNrL4AsdseH+sez5I5SCt4Taa
SvNAuPJ1EfBn8tJuEGuTGP50VvIQxh5yYoVZtVJulEenN3IzEeGBI910vXMi3lJ4
CWORbwMsQ0zK+yeZt+Je1/v9KJPi9ROJNnIM6ByNY5PI0t/EG6TJdcSI15TC4oQg
rVeO1WSpMTytVWUsQjbcLvMXVjsXEA5f7ALj09Gy4fW9AgMBAAGjggEYMIIBFDAJ
BgNVHRMEAjAAMCwGCWCGSAGG+EIBDQQfFh1PcGVuU1NMIEdlbmVyYXRlZCBDZXJ0
aWZpY2F0ZTAdBgNVHQ4EFgQUlRRRC4wcb7bnkyvGDdcpDffyv3EwgbkGA1UdIwSB
sTCBroAU1ojxqsErCYy4XJ3O31c5YiYQIJChgYqkgYcwgYQxCzAJBgNVBAYTAkNI
MRAwDgYDVQQIEwdUaHVyZ2F1MRAwDgYDVQQHEwdLZWZpa29uMRMwEQYDVQQKEwpn
dWVuZ2VsLmNoMRYwFAYDVQQDEw1DQSBndWVuZ2VsLmNoMSQwIgYJKoZIhvcNAQkB
FhVwb3N0bWFzdGVyQGd1ZW5nZWwuY2iCCQDlJTumd73L/zANBgkqhkiG9w0BAQsF
AAOCAgEAvbXxPJpaPK1FZ/rTkU2hakSzfXcetdVbOOxatOygA4RbIOib5rTHDQ8s
Mg5ga2W3ll1LDpmRcC40pfqaQoCnfWlsH7iOPNssHrIMwcJfWmfo81ZzuEi7OU2d
SfJie87OeBo+F24yalDxvRTRY04kVJff6995cjXpEaMQuF/mfQ5dkPhMGMT3+gjO
dni3EWGT6lNVDVKp5uxJqu1xGjTJDZlk81QjSKCmBMtZyPXdpMppgrRFJ+Z+Tk4J
kx5YceDq4E/3WXbIQBALbQmTiPWpR5eHob/vTP4i9sByU95nccAmlQZjA2tEGGrE
i7HkxuYef4CV2yd8LAKOoDpf9q45iCAbk9gws8odnuaex2xZd9vnsXEufqtOxV8P
CP2id0Gy7hO8nHTb2kMDbNS5vaRz9y/WIKjqGeWHDOSGZvl8dulRlDJ9/je5ZFAx
ttgsu6JUbbaKwFIB4PtV3IluEkZefLljSDqhoZo9ZdXzPuwe/mjr47g4aaO5whAC
XnAX2oFM2Uo2SD2x4oReiW08r40HxBjwuJu3D6hWagQXwSv3JSM8nc31Nvr01QN7
sUKPVK4pi9hx6kxZ7+5q3N0B9U6r9DC26B+XPN0M5vIlLVaPTZ7SHfeg1JntgKVm
vM3CqCmBPISkB12L+4XYtBYQ82FMC3ck3WqvRViPyV0s0mvAhF4=
-----END CERTIFICATE-----
