Certificate:
    Data:
        Version: 3 (0x2)
        Serial Number: 246 (0xf6)
    Signature Algorithm: sha256WithRSAEncryption
        Issuer: C=CH, ST=Thurgau, L=Kefikon, O=guengel.ch, CN=CA guengel.ch/emailAddress=postmaster@guengel.ch
        Validity
            Not Before: Nov 20 09:17:18 2016 GMT
            Not After : Apr  4 09:17:18 2018 GMT
        Subject: C=CH, ST=Thurgau, O=guengel.ch, CN=grimreaper.virtual.kruemel.home/emailAddress=postmaster@guengel.ch
        Subject Public Key Info:
            Public Key Algorithm: rsaEncryption
                Public-Key: (2048 bit)
                Modulus:
                    00:b7:49:99:2f:d1:f6:98:57:13:b6:ea:ef:27:9f:
                    91:db:bf:fd:75:09:c7:f4:0a:f0:55:4a:58:fc:b9:
                    c2:e5:c9:6d:4f:a0:d1:9e:80:3c:01:8f:c2:9f:1d:
                    0b:9f:b7:a7:cd:26:f2:32:c5:dc:8a:82:44:0f:b8:
                    3a:61:f1:cb:a4:e4:e0:a0:44:68:43:b0:b1:c2:08:
                    8b:b0:76:a1:d5:57:5d:e5:c3:ed:8c:25:95:95:65:
                    5a:e0:5d:3a:01:cd:a2:6d:5a:26:41:ff:8b:5e:e1:
                    8e:90:10:46:f2:e1:f7:ff:71:ef:ab:68:a5:71:36:
                    5b:ee:b2:74:28:99:e9:1a:54:9f:2d:b6:2d:44:9d:
                    84:a6:d4:61:7f:87:58:39:45:95:06:45:50:fe:32:
                    35:6b:fe:e0:38:e6:fd:b5:af:32:51:db:e9:b2:5d:
                    2c:27:0e:f9:5f:31:24:f5:61:35:b6:31:bb:3a:25:
                    c2:5f:58:39:80:85:8a:88:47:db:52:96:03:5d:3a:
                    2d:ba:05:76:99:f8:bd:d6:ec:ac:88:db:49:07:45:
                    96:99:d9:af:a6:32:ce:c5:bb:e2:c3:5f:7a:15:c1:
                    35:d0:f3:0f:d1:e3:ef:bb:5a:46:a6:3c:3e:d3:3d:
                    5c:18:fd:71:83:e8:ee:dc:11:ab:80:d7:b4:18:1c:
                    6f:3b
                Exponent: 65537 (0x10001)
        X509v3 extensions:
            X509v3 Basic Constraints: 
                CA:FALSE
            Netscape Comment: 
                OpenSSL Generated Certificate
            X509v3 Subject Key Identifier: 
                38:89:9E:34:DD:EB:C9:7F:84:D1:BF:8C:EE:E1:DA:F9:6D:23:B6:E9
            X509v3 Authority Key Identifier: 
                keyid:D6:88:F1:AA:C1:2B:09:8C:B8:5C:9D:CE:DF:57:39:62:26:10:20:90
                DirName:/C=CH/ST=Thurgau/L=Kefikon/O=guengel.ch/CN=CA guengel.ch/emailAddress=postmaster@guengel.ch
                serial:E5:25:3B:A6:77:BD:CB:FF

    Signature Algorithm: sha256WithRSAEncryption
         66:3a:14:0f:95:75:4c:95:d6:37:6b:e6:a5:1d:96:9a:93:07:
         e8:9e:ca:de:15:51:c0:ea:16:f7:f7:73:ef:9d:f0:6a:b8:65:
         a8:d3:10:17:2e:ae:e7:17:61:d1:17:61:3c:c9:30:d3:0a:88:
         7a:89:20:fc:c9:87:fa:a8:81:79:35:bb:90:30:25:1f:43:a6:
         c7:3a:c1:bd:a2:fb:2d:ae:72:39:1e:a2:d9:69:8f:01:cd:26:
         48:24:f3:b0:65:b6:f3:94:27:e8:de:28:ec:b1:43:9d:62:42:
         8a:98:6e:eb:38:5e:5f:e4:40:97:cc:8b:5d:7c:33:0a:ee:79:
         df:18:5e:dd:f5:81:e0:b7:5f:99:c1:8b:0d:44:95:92:b5:6d:
         ab:de:c8:00:78:df:6c:cd:57:67:db:f3:55:9f:f9:17:3e:c3:
         a3:5f:7b:31:92:98:72:17:9b:0d:50:e8:4a:e9:5c:58:ed:d5:
         7a:3c:7d:af:3f:50:ab:ef:04:46:52:0f:56:00:c2:1e:1a:68:
         10:cb:97:63:94:97:58:77:fa:8c:63:b1:86:19:cc:56:d4:50:
         45:93:60:86:66:04:07:d5:b5:d2:2a:15:12:18:00:7f:85:88:
         d2:91:99:ca:26:17:47:c3:f7:22:91:97:b7:21:6a:99:3b:79:
         84:94:9a:e2:be:74:5f:93:ef:fe:f7:97:9b:f3:7c:77:d0:86:
         ca:0a:10:60:ba:c5:da:91:36:75:69:5b:d0:84:78:cf:db:2a:
         28:bb:57:79:a0:03:31:5b:c3:5c:ee:f0:a0:6a:b0:05:c6:b8:
         ba:06:f2:75:d9:02:99:d5:be:eb:1a:a3:18:ac:ef:bd:34:19:
         b2:9e:16:30:53:70:65:5d:18:67:6a:42:83:4d:70:32:50:1e:
         d9:75:18:b7:e9:ba:49:8b:ec:5c:4a:06:f7:d1:f5:1a:de:4c:
         a0:34:00:5b:34:fd:37:ca:60:40:82:f8:b0:83:8d:a2:2f:53:
         77:5a:02:70:59:70:46:fa:a5:be:41:36:e6:64:eb:21:06:1f:
         7d:73:3d:dc:3a:ef:77:0e:eb:92:77:d7:05:0f:5e:78:84:5b:
         94:fd:53:e7:16:87:2b:d3:1c:dd:e3:e4:86:78:cb:be:54:e5:
         68:e5:71:75:2d:4b:6c:bf:12:64:79:88:18:bc:52:ec:1d:fa:
         93:c9:6e:23:29:67:a8:8c:e6:78:5e:84:de:ab:44:e0:86:86:
         7c:f5:e9:06:08:7e:ff:bc:46:ba:0c:4a:47:ce:e9:28:67:aa:
         2e:78:47:38:8c:c7:1f:fd:d2:18:bd:b3:90:6d:3b:87:e6:d4:
         b5:38:39:13:0a:78:95:ae
-----BEGIN CERTIFICATE-----
MIIFoDCCA4igAwIBAgICAPYwDQYJKoZIhvcNAQELBQAwgYQxCzAJBgNVBAYTAkNI
MRAwDgYDVQQIEwdUaHVyZ2F1MRAwDgYDVQQHEwdLZWZpa29uMRMwEQYDVQQKEwpn
dWVuZ2VsLmNoMRYwFAYDVQQDEw1DQSBndWVuZ2VsLmNoMSQwIgYJKoZIhvcNAQkB
FhVwb3N0bWFzdGVyQGd1ZW5nZWwuY2gwHhcNMTYxMTIwMDkxNzE4WhcNMTgwNDA0
MDkxNzE4WjCBhDELMAkGA1UEBhMCQ0gxEDAOBgNVBAgTB1RodXJnYXUxEzARBgNV
BAoTCmd1ZW5nZWwuY2gxKDAmBgNVBAMTH2dyaW1yZWFwZXIudmlydHVhbC5rcnVl
bWVsLmhvbWUxJDAiBgkqhkiG9w0BCQEWFXBvc3RtYXN0ZXJAZ3VlbmdlbC5jaDCC
ASIwDQYJKoZIhvcNAQEBBQADggEPADCCAQoCggEBALdJmS/R9phXE7bq7yefkdu/
/XUJx/QK8FVKWPy5wuXJbU+g0Z6APAGPwp8dC5+3p80m8jLF3IqCRA+4OmHxy6Tk
4KBEaEOwscIIi7B2odVXXeXD7YwllZVlWuBdOgHNom1aJkH/i17hjpAQRvLh9/9x
76topXE2W+6ydCiZ6RpUny22LUSdhKbUYX+HWDlFlQZFUP4yNWv+4Djm/bWvMlHb
6bJdLCcO+V8xJPVhNbYxuzolwl9YOYCFiohH21KWA106LboFdpn4vdbsrIjbSQdF
lpnZr6YyzsW74sNfehXBNdDzD9Hj77taRqY8PtM9XBj9cYPo7twRq4DXtBgcbzsC
AwEAAaOCARgwggEUMAkGA1UdEwQCMAAwLAYJYIZIAYb4QgENBB8WHU9wZW5TU0wg
R2VuZXJhdGVkIENlcnRpZmljYXRlMB0GA1UdDgQWBBQ4iZ403evJf4TRv4zu4dr5
bSO26TCBuQYDVR0jBIGxMIGugBTWiPGqwSsJjLhcnc7fVzliJhAgkKGBiqSBhzCB
hDELMAkGA1UEBhMCQ0gxEDAOBgNVBAgTB1RodXJnYXUxEDAOBgNVBAcTB0tlZmlr
b24xEzARBgNVBAoTCmd1ZW5nZWwuY2gxFjAUBgNVBAMTDUNBIGd1ZW5nZWwuY2gx
JDAiBgkqhkiG9w0BCQEWFXBvc3RtYXN0ZXJAZ3VlbmdlbC5jaIIJAOUlO6Z3vcv/
MA0GCSqGSIb3DQEBCwUAA4ICAQBmOhQPlXVMldY3a+alHZaakwfonsreFVHA6hb3
93PvnfBquGWo0xAXLq7nF2HRF2E8yTDTCoh6iSD8yYf6qIF5NbuQMCUfQ6bHOsG9
ovstrnI5HqLZaY8BzSZIJPOwZbbzlCfo3ijssUOdYkKKmG7rOF5f5ECXzItdfDMK
7nnfGF7d9YHgt1+ZwYsNRJWStW2r3sgAeN9szVdn2/NVn/kXPsOjX3sxkphyF5sN
UOhK6VxY7dV6PH2vP1Cr7wRGUg9WAMIeGmgQy5djlJdYd/qMY7GGGcxW1FBFk2CG
ZgQH1bXSKhUSGAB/hYjSkZnKJhdHw/cikZe3IWqZO3mElJrivnRfk+/+95eb83x3
0IbKChBgusXakTZ1aVvQhHjP2yoou1d5oAMxW8Nc7vCgarAFxri6BvJ12QKZ1b7r
GqMYrO+9NBmynhYwU3BlXRhnakKDTXAyUB7ZdRi36bpJi+xcSgb30fUa3kygNABb
NP03ymBAgviwg42iL1N3WgJwWXBG+qW+QTbmZOshBh99cz3cOu93DuuSd9cFD154
hFuU/VPnFocr0xzd4+SGeMu+VOVo5XF1LUtsvxJkeYgYvFLsHfqTyW4jKWeojOZ4
XoTeq0TghoZ89ekGCH7/vEa6DEpHzukoZ6oueEc4jMcf/dIYvbOQbTuH5tS1ODkT
CniVrg==
-----END CERTIFICATE-----
