Certificate:
    Data:
        Version: 3 (0x2)
        Serial Number: 375 (0x177)
        Signature Algorithm: sha256WithRSAEncryption
        Issuer: C=CH, ST=Thurgau, L=Kefikon, O=guengel.ch, CN=CA guengel.ch/emailAddress=postmaster@guengel.ch
        Validity
            Not Before: Jan  3 10:08:50 2020 GMT
            Not After : Feb  6 10:08:50 2021 GMT
        Subject: C=CH, ST=Thurgau, O=guengel.ch, CN=harvester.kruemel.home/emailAddress=postmaster@guengel.ch
        Subject Public Key Info:
            Public Key Algorithm: rsaEncryption
                RSA Public-Key: (2048 bit)
                Modulus:
                    00:af:10:b6:e9:82:fd:09:4a:40:e3:fc:c8:95:b0:
                    01:2c:52:99:bf:4e:e2:90:6a:cc:76:71:5a:7a:64:
                    f9:da:3c:fa:7b:d6:38:cc:cc:b7:a2:b7:63:6a:50:
                    62:6a:65:77:f3:0b:ab:8d:21:0c:be:d8:e0:9a:13:
                    76:25:cd:aa:92:1a:be:af:bb:c8:49:7f:22:c4:27:
                    34:e8:b8:42:c4:11:36:be:68:56:73:25:ec:45:a2:
                    c3:8b:db:9d:22:97:3b:70:c7:e8:7a:d6:b2:15:30:
                    61:e8:65:64:ce:cd:08:2b:d3:0c:44:94:6d:0c:99:
                    8b:63:dd:77:47:f8:2d:a6:06:79:a2:42:d1:61:eb:
                    ff:3f:99:c9:61:ba:e7:93:67:07:8b:00:d6:6b:84:
                    c6:70:78:9f:fe:5d:61:75:b1:11:f5:65:0d:9d:5c:
                    6c:72:75:2d:fe:af:0d:8f:81:7b:ee:fd:be:20:db:
                    27:6b:4c:3a:5f:18:dd:78:b1:cb:59:97:be:4e:b9:
                    9e:57:27:af:63:4f:ba:cf:9f:0f:f2:53:43:3c:14:
                    a4:92:46:91:de:eb:59:00:aa:df:e3:43:83:a7:10:
                    40:4e:cd:49:26:b8:99:ca:f2:ab:46:65:ff:17:02:
                    22:2f:c5:73:65:16:b9:f7:a2:51:6d:7f:76:54:4a:
                    ed:53
                Exponent: 65537 (0x10001)
        X509v3 extensions:
            X509v3 Basic Constraints: 
                CA:FALSE
            Netscape Comment: 
                OpenSSL Generated Certificate
            X509v3 Subject Key Identifier: 
                AB:82:E3:97:ED:6E:11:34:C9:CB:3A:61:2B:2D:38:3A:F1:DC:8B:06
            X509v3 Authority Key Identifier: 
                keyid:D6:88:F1:AA:C1:2B:09:8C:B8:5C:9D:CE:DF:57:39:62:26:10:20:90
                DirName:/C=CH/ST=Thurgau/L=Kefikon/O=guengel.ch/CN=CA guengel.ch/emailAddress=postmaster@guengel.ch
                serial:E5:25:3B:A6:77:BD:CB:FF

    Signature Algorithm: sha256WithRSAEncryption
         20:da:83:a6:c6:63:53:68:1c:26:1e:96:f6:52:a4:e4:4f:c8:
         ba:22:da:f9:e6:0f:91:1a:7d:b4:c8:46:db:3c:ac:2c:11:e3:
         be:7f:f4:70:60:b8:f7:14:6e:e0:c6:e7:21:e6:1a:25:b8:06:
         a6:a4:07:36:68:6b:8c:28:7c:fd:9e:84:c7:30:3f:8c:23:84:
         29:12:ea:b4:6d:8d:73:60:97:49:0f:46:7e:6a:3d:c5:ed:65:
         55:87:08:e0:f9:3e:90:a8:dd:1e:39:78:b4:a4:77:ae:24:93:
         36:7d:ee:fc:7b:9c:f0:57:07:ce:21:93:20:35:2b:79:93:52:
         0a:1f:17:6e:54:76:9f:6b:16:c6:55:55:56:ff:81:c4:80:54:
         ba:85:5f:74:af:b9:67:6c:28:29:58:9d:bd:01:0b:c5:bd:51:
         5d:05:04:24:8d:c4:12:69:e0:27:b5:31:21:74:94:0d:6b:c4:
         05:e9:1e:37:d5:17:b5:24:32:d3:2f:cc:96:5c:b0:17:d0:ba:
         5f:37:12:9c:05:60:68:da:02:30:93:8d:a4:e9:ab:26:14:98:
         c6:c7:cd:a4:f4:98:10:b6:cc:52:65:f7:9e:e8:1d:ce:35:4b:
         ec:22:43:83:9e:62:b5:ca:de:2e:9c:8a:e9:28:16:0f:75:2c:
         8c:0c:44:3c:b5:6f:03:55:81:ba:68:35:5f:b8:ce:86:fc:f0:
         e0:da:a1:c2:b5:ae:ff:d2:e4:71:14:60:cc:d5:5f:21:0f:ac:
         f3:8b:9b:ce:9c:48:29:87:5f:f5:28:d3:55:17:3e:a3:60:3a:
         a9:22:4e:72:48:5d:87:6b:71:17:95:25:8f:1d:e2:09:19:d7:
         3e:52:81:4b:50:2b:29:22:e5:f8:34:52:dd:4b:5b:ed:aa:58:
         26:99:4b:a8:8a:5c:48:d9:b6:78:12:30:be:11:04:6a:fd:6a:
         05:2b:d1:c6:b3:2d:0d:09:fb:74:38:c9:bd:1d:66:7a:b1:38:
         ab:9e:8f:a8:3f:e5:6c:e8:9f:05:da:d6:ae:3b:10:ff:1a:c1:
         81:a8:38:e7:c6:78:dc:0a:8b:29:6a:9a:1d:80:03:f1:49:3f:
         a8:79:80:cc:1d:c8:e2:2a:28:b6:ce:b0:23:75:fb:71:55:f3:
         64:fd:9d:19:3c:90:dc:33:2b:95:c2:7b:9e:98:4f:69:08:a2:
         61:6a:91:a9:c9:f0:32:6f:13:2b:f0:14:45:d8:db:7d:c6:68:
         9e:76:80:25:89:f2:94:95:e5:0e:b7:16:c4:5d:ba:8c:52:03:
         9c:44:58:ae:6b:3a:1b:6c:c8:a8:2f:92:9e:24:97:54:f4:86:
         f0:ab:2b:e0:fe:0a:a1:50
-----BEGIN CERTIFICATE-----
MIIFljCCA36gAwIBAgICAXcwDQYJKoZIhvcNAQELBQAwgYQxCzAJBgNVBAYTAkNI
MRAwDgYDVQQIEwdUaHVyZ2F1MRAwDgYDVQQHEwdLZWZpa29uMRMwEQYDVQQKEwpn
dWVuZ2VsLmNoMRYwFAYDVQQDEw1DQSBndWVuZ2VsLmNoMSQwIgYJKoZIhvcNAQkB
FhVwb3N0bWFzdGVyQGd1ZW5nZWwuY2gwHhcNMjAwMTAzMTAwODUwWhcNMjEwMjA2
MTAwODUwWjB7MQswCQYDVQQGEwJDSDEQMA4GA1UECBMHVGh1cmdhdTETMBEGA1UE
ChMKZ3VlbmdlbC5jaDEfMB0GA1UEAxMWaGFydmVzdGVyLmtydWVtZWwuaG9tZTEk
MCIGCSqGSIb3DQEJARYVcG9zdG1hc3RlckBndWVuZ2VsLmNoMIIBIjANBgkqhkiG
9w0BAQEFAAOCAQ8AMIIBCgKCAQEArxC26YL9CUpA4/zIlbABLFKZv07ikGrMdnFa
emT52jz6e9Y4zMy3ordjalBiamV38wurjSEMvtjgmhN2Jc2qkhq+r7vISX8ixCc0
6LhCxBE2vmhWcyXsRaLDi9udIpc7cMfoetayFTBh6GVkzs0IK9MMRJRtDJmLY913
R/gtpgZ5okLRYev/P5nJYbrnk2cHiwDWa4TGcHif/l1hdbER9WUNnVxscnUt/q8N
j4F77v2+INsna0w6XxjdeLHLWZe+TrmeVyevY0+6z58P8lNDPBSkkkaR3utZAKrf
40ODpxBATs1JJriZyvKrRmX/FwIiL8VzZRa596JRbX92VErtUwIDAQABo4IBGDCC
ARQwCQYDVR0TBAIwADAsBglghkgBhvhCAQ0EHxYdT3BlblNTTCBHZW5lcmF0ZWQg
Q2VydGlmaWNhdGUwHQYDVR0OBBYEFKuC45ftbhE0ycs6YSstODrx3IsGMIG5BgNV
HSMEgbEwga6AFNaI8arBKwmMuFydzt9XOWImECCQoYGKpIGHMIGEMQswCQYDVQQG
EwJDSDEQMA4GA1UECBMHVGh1cmdhdTEQMA4GA1UEBxMHS2VmaWtvbjETMBEGA1UE
ChMKZ3VlbmdlbC5jaDEWMBQGA1UEAxMNQ0EgZ3VlbmdlbC5jaDEkMCIGCSqGSIb3
DQEJARYVcG9zdG1hc3RlckBndWVuZ2VsLmNoggkA5SU7pne9y/8wDQYJKoZIhvcN
AQELBQADggIBACDag6bGY1NoHCYelvZSpORPyLoi2vnmD5EafbTIRts8rCwR475/
9HBguPcUbuDG5yHmGiW4BqakBzZoa4wofP2ehMcwP4wjhCkS6rRtjXNgl0kPRn5q
PcXtZVWHCOD5PpCo3R45eLSkd64kkzZ97vx7nPBXB84hkyA1K3mTUgofF25Udp9r
FsZVVVb/gcSAVLqFX3SvuWdsKClYnb0BC8W9UV0FBCSNxBJp4Ce1MSF0lA1rxAXp
HjfVF7UkMtMvzJZcsBfQul83EpwFYGjaAjCTjaTpqyYUmMbHzaT0mBC2zFJl957o
Hc41S+wiQ4OeYrXK3i6ciukoFg91LIwMRDy1bwNVgbpoNV+4zob88ODaocK1rv/S
5HEUYMzVXyEPrPOLm86cSCmHX/Uo01UXPqNgOqkiTnJIXYdrcReVJY8d4gkZ1z5S
gUtQKyki5fg0Ut1LW+2qWCaZS6iKXEjZtngSML4RBGr9agUr0cazLQ0J+3Q4yb0d
ZnqxOKuej6g/5WzonwXa1q47EP8awYGoOOfGeNwKiylqmh2AA/FJP6h5gMwdyOIq
KLbOsCN1+3FV82T9nRk8kNwzK5XCe56YT2kIomFqkanJ8DJvEyvwFEXY233GaJ52
gCWJ8pSV5Q63FsRduoxSA5xEWK5rOhtsyKgvkp4kl1T0hvCrK+D+CqFQ
-----END CERTIFICATE-----
