Certificate:
    Data:
        Version: 3 (0x2)
        Serial Number:
            66:ad:b0:ed:f0:ba:94:f8:26:de:3c:15:e0:d1:ac:7a:b0:bf:80:fe
        Signature Algorithm: sha256WithRSAEncryption
        Issuer: C=CH, ST=Thurgau, L=Kefikon, O=guengel.ch, CN=CA 2022/emailAddress=postmaster@guengel.ch
        Validity
            Not Before: Feb 11 14:00:46 2022 GMT
            Not After : Mar 18 14:00:46 2023 GMT
        Subject: C=CH, ST=Thurgau, O=guengel.ch, CN=harvester.kruemel.home/emailAddress=postmaster@guengel.ch
        Subject Public Key Info:
            Public Key Algorithm: rsaEncryption
                RSA Public-Key: (2048 bit)
                Modulus:
                    00:bc:0a:20:96:07:9d:c1:9d:18:ff:70:25:0e:eb:
                    1b:2e:e8:13:5d:e6:45:9b:75:89:eb:22:9c:2b:ea:
                    38:b4:aa:9d:dc:3b:31:97:92:a2:ee:e3:b1:83:71:
                    fc:d5:f3:84:de:ca:47:f7:25:d1:9a:f2:1e:86:aa:
                    5c:07:ed:93:74:9b:7d:4d:ee:bb:b0:da:b4:a7:7c:
                    4b:62:99:82:54:a5:83:10:d2:d0:27:a1:68:bf:81:
                    9b:50:e4:a7:e7:7d:89:bc:71:4a:74:86:d5:f0:f3:
                    92:8b:63:5c:31:ce:1f:5e:be:fc:97:dd:f1:54:fd:
                    43:90:76:ba:7f:cd:fa:34:6a:53:b6:b0:28:2a:7c:
                    4f:8f:6c:e7:0a:40:f4:8b:72:87:2c:5b:cc:48:de:
                    70:a7:40:d2:3b:ee:c0:7d:5a:d7:60:1b:46:00:55:
                    26:0c:73:64:aa:fc:c8:66:0c:73:e8:3f:b3:e4:66:
                    cb:30:d7:37:1c:da:06:fe:1a:c4:cd:8d:4c:39:ce:
                    b9:f8:be:65:7d:3c:15:54:c6:29:27:cc:bc:46:0d:
                    80:af:e6:2e:cb:14:f4:be:84:7d:93:8a:bc:c3:d2:
                    44:d5:3c:44:2d:29:5b:72:82:8d:22:03:a9:af:dd:
                    1b:22:44:da:f5:88:2e:5e:a1:ce:16:3c:ba:38:7a:
                    eb:cd
                Exponent: 65537 (0x10001)
        X509v3 extensions:
            X509v3 Basic Constraints: critical
                CA:FALSE
            X509v3 Key Usage: 
                Digital Signature, Key Encipherment, Key Agreement
            X509v3 Subject Key Identifier: 
                8D:FF:43:4C:90:A9:24:78:7C:9D:9E:00:4D:21:34:95:4A:B2:14:B2
            X509v3 Authority Key Identifier: 
                keyid:22:20:0D:51:40:61:42:BE:DD:BA:D9:C9:C1:77:B6:93:28:C3:99:EC
                DirName:/C=CH/ST=Thurgau/L=Kefikon/O=guengel.ch/CN=CA 2022/emailAddress=postmaster@guengel.ch
                serial:6D:29:90:54:E9:17:E9:C2:6A:E6:52:AD:84:4E:30:8E:6E:57:FB:1C

            Netscape Cert Type: 
                SSL Client, SSL Server
            X509v3 Extended Key Usage: 
                TLS Web Server Authentication, TLS Web Client Authentication
    Signature Algorithm: sha256WithRSAEncryption
         38:45:92:70:24:68:73:36:3b:fe:75:aa:6b:a8:f9:8e:fe:1d:
         a0:c5:1d:ec:e7:58:5d:97:41:71:11:b6:47:bd:4b:80:c1:64:
         f8:64:0f:28:9c:09:53:39:57:20:56:19:09:69:de:49:e2:51:
         e9:81:a2:c6:27:03:b6:ac:08:b4:ad:c2:de:5e:ee:32:a4:e6:
         ea:c0:69:c4:79:1b:74:fa:21:89:72:41:eb:93:73:dd:c8:7b:
         e6:46:36:14:20:5e:5d:99:86:57:8e:a0:98:20:89:db:7c:f2:
         e3:b4:f0:43:03:50:d4:78:b9:1d:99:2e:17:7f:c0:5e:51:17:
         ac:bd:10:88:42:47:19:a0:98:a5:52:94:a3:81:16:86:ce:4c:
         33:55:84:7d:30:9d:40:57:bc:66:6d:61:e7:b6:96:a7:0f:e4:
         8d:15:78:76:ec:33:c6:85:f4:b6:0d:65:70:79:6d:11:88:a3:
         a1:60:97:2d:2f:c4:62:41:43:a0:78:6a:5c:d7:14:4f:7c:54:
         a1:d1:6f:05:60:c0:cf:8f:d0:e0:29:05:a5:85:93:e4:2c:f0:
         19:9e:02:5f:16:c0:55:fa:c2:a8:bc:96:5f:f7:ab:c9:b5:c0:
         10:a3:f3:29:96:ad:30:ab:01:5b:fc:b8:8b:2e:33:80:ff:5d:
         ba:bf:08:67:9a:93:bb:07:a0:db:6c:7a:72:f9:e8:67:d1:cc:
         04:90:89:50:64:61:c9:97:99:ec:27:d6:42:5a:d5:21:71:2e:
         1c:f1:cd:d7:93:96:bd:b5:3c:bb:65:bd:d8:1d:c0:e6:ff:f9:
         74:f7:c6:ac:0e:a8:fd:e4:b5:d9:88:4b:b3:0b:b2:b7:09:46:
         ad:1b:aa:90:bb:24:37:42:d9:4f:08:d0:98:fe:90:e9:7b:27:
         8a:12:16:f7:39:02:fd:72:dd:2c:ec:cd:be:66:ad:c8:c9:7a:
         52:33:19:dd:65:4f:bc:7e:5a:90:e7:79:92:5e:16:86:76:77:
         37:c4:0b:71:e6:1f:61:54:a7:df:5c:fa:43:d3:0f:20:5f:70:
         fd:10:8f:3d:4a:18:c2:c2:0b:a6:44:3c:c1:7f:a2:bb:36:38:
         2b:9c:31:5d:c1:e4:20:13:0c:ba:62:19:e9:49:e8:b4:c9:64:
         00:09:04:2e:06:2d:e9:8a:ef:af:8c:d2:ca:6f:d6:20:dc:d4:
         54:0a:bc:5e:cc:92:25:31:d4:e6:a2:05:ff:c5:c9:0c:f2:94:
         aa:17:93:ae:69:91:59:6b:ba:f3:f7:c1:63:a4:a4:a7:1f:5f:
         83:0c:f9:2f:7d:b1:65:29:d4:b3:66:5c:0b:a8:3d:c4:ba:54:
         4f:ab:4f:ab:fd:61:44:3f
-----BEGIN CERTIFICATE-----
MIIFuTCCA6GgAwIBAgIUZq2w7fC6lPgm3jwV4NGserC/gP4wDQYJKoZIhvcNAQEL
BQAwfjELMAkGA1UEBhMCQ0gxEDAOBgNVBAgTB1RodXJnYXUxEDAOBgNVBAcTB0tl
Zmlrb24xEzARBgNVBAoTCmd1ZW5nZWwuY2gxEDAOBgNVBAMTB0NBIDIwMjIxJDAi
BgkqhkiG9w0BCQEWFXBvc3RtYXN0ZXJAZ3VlbmdlbC5jaDAeFw0yMjAyMTExNDAw
NDZaFw0yMzAzMTgxNDAwNDZaMHsxCzAJBgNVBAYTAkNIMRAwDgYDVQQIEwdUaHVy
Z2F1MRMwEQYDVQQKEwpndWVuZ2VsLmNoMR8wHQYDVQQDExZoYXJ2ZXN0ZXIua3J1
ZW1lbC5ob21lMSQwIgYJKoZIhvcNAQkBFhVwb3N0bWFzdGVyQGd1ZW5nZWwuY2gw
ggEiMA0GCSqGSIb3DQEBAQUAA4IBDwAwggEKAoIBAQC8CiCWB53BnRj/cCUO6xsu
6BNd5kWbdYnrIpwr6ji0qp3cOzGXkqLu47GDcfzV84Teykf3JdGa8h6GqlwH7ZN0
m31N7ruw2rSnfEtimYJUpYMQ0tAnoWi/gZtQ5KfnfYm8cUp0htXw85KLY1wxzh9e
vvyX3fFU/UOQdrp/zfo0alO2sCgqfE+PbOcKQPSLcocsW8xI3nCnQNI77sB9Wtdg
G0YAVSYMc2Sq/MhmDHPoP7PkZssw1zcc2gb+GsTNjUw5zrn4vmV9PBVUxiknzLxG
DYCv5i7LFPS+hH2TirzD0kTVPEQtKVtygo0iA6mv3RsiRNr1iC5eoc4WPLo4euvN
AgMBAAGjggEwMIIBLDAMBgNVHRMBAf8EAjAAMAsGA1UdDwQEAwIDqDAdBgNVHQ4E
FgQUjf9DTJCpJHh8nZ4ATSE0lUqyFLIwgb0GA1UdIwSBtTCBsoAUIiANUUBhQr7d
utnJwXe2kyjDmeyhgYOkgYAwfjELMAkGA1UEBhMCQ0gxEDAOBgNVBAgTB1RodXJn
YXUxEDAOBgNVBAcTB0tlZmlrb24xEzARBgNVBAoTCmd1ZW5nZWwuY2gxEDAOBgNV
BAMTB0NBIDIwMjIxJDAiBgkqhkiG9w0BCQEWFXBvc3RtYXN0ZXJAZ3VlbmdlbC5j
aIIUbSmQVOkX6cJq5lKthE4wjm5X+xwwEQYJYIZIAYb4QgEBBAQDAgbAMB0GA1Ud
JQQWMBQGCCsGAQUFBwMBBggrBgEFBQcDAjANBgkqhkiG9w0BAQsFAAOCAgEAOEWS
cCRoczY7/nWqa6j5jv4doMUd7OdYXZdBcRG2R71LgMFk+GQPKJwJUzlXIFYZCWne
SeJR6YGixicDtqwItK3C3l7uMqTm6sBpxHkbdPohiXJB65Nz3ch75kY2FCBeXZmG
V46gmCCJ23zy47TwQwNQ1Hi5HZkuF3/AXlEXrL0QiEJHGaCYpVKUo4EWhs5MM1WE
fTCdQFe8Zm1h57aWpw/kjRV4duwzxoX0tg1lcHltEYijoWCXLS/EYkFDoHhqXNcU
T3xUodFvBWDAz4/Q4CkFpYWT5CzwGZ4CXxbAVfrCqLyWX/erybXAEKPzKZatMKsB
W/y4iy4zgP9dur8IZ5qTuweg22x6cvnoZ9HMBJCJUGRhyZeZ7CfWQlrVIXEuHPHN
15OWvbU8u2W92B3A5v/5dPfGrA6o/eS12YhLswuytwlGrRuqkLskN0LZTwjQmP6Q
6XsnihIW9zkC/XLdLOzNvmatyMl6UjMZ3WVPvH5akOd5kl4WhnZ3N8QLceYfYVSn
31z6Q9MPIF9w/RCPPUoYwsILpkQ8wX+iuzY4K5wxXcHkIBMMumIZ6UnotMlkAAkE
LgYt6Yrvr4zSym/WINzUVAq8XsySJTHU5qIF/8XJDPKUqheTrmmRWWu68/fBY6Sk
px9fgwz5L32xZSnUs2ZcC6g9xLpUT6tPq/1hRD8=
-----END CERTIFICATE-----
