Certificate:
    Data:
        Version: 3 (0x2)
        Serial Number: 432 (0x1b0)
        Signature Algorithm: sha256WithRSAEncryption
        Issuer: C=CH, ST=Thurgau, L=Kefikon, O=guengel.ch, CN=CA guengel.ch/emailAddress=postmaster@guengel.ch
        Validity
            Not Before: Feb  6 15:17:23 2021 GMT
            Not After : Mar 13 15:17:23 2022 GMT
        Subject: C=CH, ST=Thurgau, O=guengel.ch, CN=harvester.kruemel.home/emailAddress=postmaster@guengel.ch
        Subject Public Key Info:
            Public Key Algorithm: rsaEncryption
                RSA Public-Key: (2048 bit)
                Modulus:
                    00:af:10:b6:e9:82:fd:09:4a:40:e3:fc:c8:95:b0:
                    01:2c:52:99:bf:4e:e2:90:6a:cc:76:71:5a:7a:64:
                    f9:da:3c:fa:7b:d6:38:cc:cc:b7:a2:b7:63:6a:50:
                    62:6a:65:77:f3:0b:ab:8d:21:0c:be:d8:e0:9a:13:
                    76:25:cd:aa:92:1a:be:af:bb:c8:49:7f:22:c4:27:
                    34:e8:b8:42:c4:11:36:be:68:56:73:25:ec:45:a2:
                    c3:8b:db:9d:22:97:3b:70:c7:e8:7a:d6:b2:15:30:
                    61:e8:65:64:ce:cd:08:2b:d3:0c:44:94:6d:0c:99:
                    8b:63:dd:77:47:f8:2d:a6:06:79:a2:42:d1:61:eb:
                    ff:3f:99:c9:61:ba:e7:93:67:07:8b:00:d6:6b:84:
                    c6:70:78:9f:fe:5d:61:75:b1:11:f5:65:0d:9d:5c:
                    6c:72:75:2d:fe:af:0d:8f:81:7b:ee:fd:be:20:db:
                    27:6b:4c:3a:5f:18:dd:78:b1:cb:59:97:be:4e:b9:
                    9e:57:27:af:63:4f:ba:cf:9f:0f:f2:53:43:3c:14:
                    a4:92:46:91:de:eb:59:00:aa:df:e3:43:83:a7:10:
                    40:4e:cd:49:26:b8:99:ca:f2:ab:46:65:ff:17:02:
                    22:2f:c5:73:65:16:b9:f7:a2:51:6d:7f:76:54:4a:
                    ed:53
                Exponent: 65537 (0x10001)
        X509v3 extensions:
            X509v3 Key Usage: 
                Digital Signature, Key Encipherment, Key Agreement
            X509v3 Basic Constraints: critical
                CA:FALSE
            Netscape Cert Type: 
                SSL Client, SSL Server
            X509v3 Extended Key Usage: 
                TLS Web Server Authentication, TLS Web Client Authentication
            X509v3 Subject Alternative Name: 
                DNS:harvester.kruemel.home
            X509v3 Subject Key Identifier: 
                AB:82:E3:97:ED:6E:11:34:C9:CB:3A:61:2B:2D:38:3A:F1:DC:8B:06
            X509v3 Authority Key Identifier: 
                keyid:D6:88:F1:AA:C1:2B:09:8C:B8:5C:9D:CE:DF:57:39:62:26:10:20:90
                DirName:/C=CH/ST=Thurgau/L=Kefikon/O=guengel.ch/CN=CA guengel.ch/emailAddress=postmaster@guengel.ch
                serial:E5:25:3B:A6:77:BD:CB:FF

    Signature Algorithm: sha256WithRSAEncryption
         ad:ef:78:2c:31:b8:41:8e:a0:f5:43:57:5a:d8:3d:46:65:e7:
         52:e5:dd:5f:ee:89:3c:5e:d2:fe:f1:25:24:11:90:02:89:9a:
         33:f5:98:55:5b:35:6e:20:0e:7a:39:28:a4:ed:46:12:e5:0b:
         fb:ee:14:23:f4:cf:ea:1d:56:e9:c7:42:94:c2:46:69:e6:1f:
         d2:5c:59:15:6a:34:75:d7:bb:01:1f:1a:e5:e4:a9:6f:c6:d4:
         ff:60:a8:ba:d7:fe:d9:45:4c:7a:bc:f4:d2:6d:8d:13:a2:03:
         bc:e9:d6:d0:c3:4a:30:9f:ca:32:10:cc:81:eb:f8:30:06:3f:
         7c:63:1b:3d:c6:b0:af:af:0e:ae:ce:1a:f5:53:73:94:45:b6:
         96:bf:93:4a:39:9d:10:73:c1:b7:93:79:61:50:49:17:be:e9:
         14:86:f5:68:10:6b:15:02:1e:be:7d:85:8c:b7:98:e2:ce:22:
         41:b7:0c:c8:94:f4:5e:5d:ae:87:a2:4b:48:c3:f1:e5:62:0a:
         43:a2:72:ef:62:8c:70:3f:c0:bb:e0:a1:f7:5e:66:fb:56:23:
         fc:6a:11:67:f8:16:4b:04:ce:b0:5e:7b:aa:b5:b4:46:45:d0:
         12:73:72:19:e6:c9:8c:2d:c2:e6:94:3c:06:1b:e9:ec:ee:f2:
         f4:3e:f6:31:5a:bb:04:7f:34:f3:9b:c9:db:06:b9:3a:7a:ba:
         2d:60:f0:35:53:fe:0f:c2:b6:7e:d5:d4:42:a1:f7:27:69:ca:
         d6:40:e3:f1:5c:46:9d:cb:07:c7:b4:00:05:8a:31:50:c3:c4:
         49:30:90:4f:ad:85:49:7d:bd:c6:b2:7d:e5:72:7d:d0:72:84:
         a1:7a:d0:86:bf:22:ed:7e:6a:48:b6:f0:3a:ef:0d:2d:a8:21:
         a9:b4:9a:94:e6:b8:6a:ac:d7:b9:b8:92:20:b3:a5:bf:d5:8f:
         bf:7c:7b:e5:9e:53:7f:82:6f:20:cd:fa:a2:2e:28:13:6a:d8:
         d0:63:03:74:26:a8:ae:3c:94:f6:93:81:a8:7d:05:fd:34:03:
         22:c0:6a:3e:ee:22:63:b7:76:fb:dc:94:79:ce:5d:ab:d0:2c:
         7f:74:85:12:3d:9d:40:44:4a:3a:46:a9:bd:1c:2d:f6:0f:17:
         1c:12:06:3b:3f:d3:8c:e6:b9:17:85:d2:7b:1d:75:68:9c:53:
         e1:f4:eb:4c:fd:ef:68:b6:3d:f7:e9:07:67:da:08:bd:d9:c2:
         29:51:9a:ef:5f:92:3a:bb:f6:b1:6b:fd:f6:40:4e:00:b5:72:
         57:34:99:0c:9a:23:8e:38:e1:af:6c:6d:02:f1:24:09:6b:3a:
         b2:ce:59:71:1d:6a:a4:5c
-----BEGIN CERTIFICATE-----
MIIFzTCCA7WgAwIBAgICAbAwDQYJKoZIhvcNAQELBQAwgYQxCzAJBgNVBAYTAkNI
MRAwDgYDVQQIEwdUaHVyZ2F1MRAwDgYDVQQHEwdLZWZpa29uMRMwEQYDVQQKEwpn
dWVuZ2VsLmNoMRYwFAYDVQQDEw1DQSBndWVuZ2VsLmNoMSQwIgYJKoZIhvcNAQkB
FhVwb3N0bWFzdGVyQGd1ZW5nZWwuY2gwHhcNMjEwMjA2MTUxNzIzWhcNMjIwMzEz
MTUxNzIzWjB7MQswCQYDVQQGEwJDSDEQMA4GA1UECBMHVGh1cmdhdTETMBEGA1UE
ChMKZ3VlbmdlbC5jaDEfMB0GA1UEAxMWaGFydmVzdGVyLmtydWVtZWwuaG9tZTEk
MCIGCSqGSIb3DQEJARYVcG9zdG1hc3RlckBndWVuZ2VsLmNoMIIBIjANBgkqhkiG
9w0BAQEFAAOCAQ8AMIIBCgKCAQEArxC26YL9CUpA4/zIlbABLFKZv07ikGrMdnFa
emT52jz6e9Y4zMy3ordjalBiamV38wurjSEMvtjgmhN2Jc2qkhq+r7vISX8ixCc0
6LhCxBE2vmhWcyXsRaLDi9udIpc7cMfoetayFTBh6GVkzs0IK9MMRJRtDJmLY913
R/gtpgZ5okLRYev/P5nJYbrnk2cHiwDWa4TGcHif/l1hdbER9WUNnVxscnUt/q8N
j4F77v2+INsna0w6XxjdeLHLWZe+TrmeVyevY0+6z58P8lNDPBSkkkaR3utZAKrf
40ODpxBATs1JJriZyvKrRmX/FwIiL8VzZRa596JRbX92VErtUwIDAQABo4IBTzCC
AUswCwYDVR0PBAQDAgOoMAwGA1UdEwEB/wQCMAAwEQYJYIZIAYb4QgEBBAQDAgbA
MB0GA1UdJQQWMBQGCCsGAQUFBwMBBggrBgEFBQcDAjAhBgNVHREEGjAYghZoYXJ2
ZXN0ZXIua3J1ZW1lbC5ob21lMB0GA1UdDgQWBBSrguOX7W4RNMnLOmErLTg68dyL
BjCBuQYDVR0jBIGxMIGugBTWiPGqwSsJjLhcnc7fVzliJhAgkKGBiqSBhzCBhDEL
MAkGA1UEBhMCQ0gxEDAOBgNVBAgTB1RodXJnYXUxEDAOBgNVBAcTB0tlZmlrb24x
EzARBgNVBAoTCmd1ZW5nZWwuY2gxFjAUBgNVBAMTDUNBIGd1ZW5nZWwuY2gxJDAi
BgkqhkiG9w0BCQEWFXBvc3RtYXN0ZXJAZ3VlbmdlbC5jaIIJAOUlO6Z3vcv/MA0G
CSqGSIb3DQEBCwUAA4ICAQCt73gsMbhBjqD1Q1da2D1GZedS5d1f7ok8XtL+8SUk
EZACiZoz9ZhVWzVuIA56OSik7UYS5Qv77hQj9M/qHVbpx0KUwkZp5h/SXFkVajR1
17sBHxrl5KlvxtT/YKi61/7ZRUx6vPTSbY0TogO86dbQw0own8oyEMyB6/gwBj98
Yxs9xrCvrw6uzhr1U3OURbaWv5NKOZ0Qc8G3k3lhUEkXvukUhvVoEGsVAh6+fYWM
t5jiziJBtwzIlPReXa6HoktIw/HlYgpDonLvYoxwP8C74KH3Xmb7ViP8ahFn+BZL
BM6wXnuqtbRGRdASc3IZ5smMLcLmlDwGG+ns7vL0PvYxWrsEfzTzm8nbBrk6erot
YPA1U/4PwrZ+1dRCofcnacrWQOPxXEadywfHtAAFijFQw8RJMJBPrYVJfb3Gsn3l
cn3QcoShetCGvyLtfmpItvA67w0tqCGptJqU5rhqrNe5uJIgs6W/1Y+/fHvlnlN/
gm8gzfqiLigTatjQYwN0JqiuPJT2k4GofQX9NAMiwGo+7iJjt3b73JR5zl2r0Cx/
dIUSPZ1AREo6Rqm9HC32DxccEgY7P9OM5rkXhdJ7HXVonFPh9OtM/e9otj336Qdn
2gi92cIpUZrvX5I6u/axa/32QE4AtXJXNJkMmiOOOOGvbG0C8SQJazqyzllxHWqk
XA==
-----END CERTIFICATE-----
