Certificate:
    Data:
        Version: 3 (0x2)
        Serial Number:
            46:79:0f:37:d7:90:51:06:fc:7c:e1:99:89:ff:5c:5a:fb:2b:7f:a7
        Signature Algorithm: sha256WithRSAEncryption
        Issuer: C=CH, ST=Thurgau, L=Kefikon, O=guengel.ch, CN=CA 2022/emailAddress=postmaster@guengel.ch
        Validity
            Not Before: Jan  3 14:04:22 2025 GMT
            Not After : Feb  7 14:04:22 2026 GMT
        Subject: C=CH, ST=Thurgau, O=guengel.ch, CN=harvester.kruemel.home/emailAddress=postmaster@guengel.ch
        Subject Public Key Info:
            Public Key Algorithm: rsaEncryption
                Public-Key: (2048 bit)
                Modulus:
                    00:bc:0a:20:96:07:9d:c1:9d:18:ff:70:25:0e:eb:
                    1b:2e:e8:13:5d:e6:45:9b:75:89:eb:22:9c:2b:ea:
                    38:b4:aa:9d:dc:3b:31:97:92:a2:ee:e3:b1:83:71:
                    fc:d5:f3:84:de:ca:47:f7:25:d1:9a:f2:1e:86:aa:
                    5c:07:ed:93:74:9b:7d:4d:ee:bb:b0:da:b4:a7:7c:
                    4b:62:99:82:54:a5:83:10:d2:d0:27:a1:68:bf:81:
                    9b:50:e4:a7:e7:7d:89:bc:71:4a:74:86:d5:f0:f3:
                    92:8b:63:5c:31:ce:1f:5e:be:fc:97:dd:f1:54:fd:
                    43:90:76:ba:7f:cd:fa:34:6a:53:b6:b0:28:2a:7c:
                    4f:8f:6c:e7:0a:40:f4:8b:72:87:2c:5b:cc:48:de:
                    70:a7:40:d2:3b:ee:c0:7d:5a:d7:60:1b:46:00:55:
                    26:0c:73:64:aa:fc:c8:66:0c:73:e8:3f:b3:e4:66:
                    cb:30:d7:37:1c:da:06:fe:1a:c4:cd:8d:4c:39:ce:
                    b9:f8:be:65:7d:3c:15:54:c6:29:27:cc:bc:46:0d:
                    80:af:e6:2e:cb:14:f4:be:84:7d:93:8a:bc:c3:d2:
                    44:d5:3c:44:2d:29:5b:72:82:8d:22:03:a9:af:dd:
                    1b:22:44:da:f5:88:2e:5e:a1:ce:16:3c:ba:38:7a:
                    eb:cd
                Exponent: 65537 (0x10001)
        X509v3 extensions:
            X509v3 Basic Constraints: critical
                CA:FALSE
            X509v3 Key Usage: 
                Digital Signature, Key Encipherment, Key Agreement
            X509v3 Subject Key Identifier: 
                8D:FF:43:4C:90:A9:24:78:7C:9D:9E:00:4D:21:34:95:4A:B2:14:B2
            X509v3 Authority Key Identifier: 
                keyid:22:20:0D:51:40:61:42:BE:DD:BA:D9:C9:C1:77:B6:93:28:C3:99:EC
                DirName:/C=CH/ST=Thurgau/L=Kefikon/O=guengel.ch/CN=CA 2022/emailAddress=postmaster@guengel.ch
                serial:6D:29:90:54:E9:17:E9:C2:6A:E6:52:AD:84:4E:30:8E:6E:57:FB:1C
            Netscape Cert Type: 
                SSL Client, SSL Server
            X509v3 Extended Key Usage: 
                TLS Web Server Authentication, TLS Web Client Authentication
    Signature Algorithm: sha256WithRSAEncryption
    Signature Value:
        77:2d:bd:e6:a1:68:6e:16:a2:b5:fe:12:1a:dd:a4:bf:52:3f:
        e7:82:53:7a:57:49:08:c6:a0:fb:5d:02:7c:57:67:dd:c7:56:
        48:59:59:ed:c6:48:3c:32:42:70:d3:41:90:d8:56:6b:b8:b3:
        0b:7c:aa:d2:46:9d:6b:c4:49:0e:5d:0f:92:22:cf:4b:c6:df:
        9d:a1:0a:79:ab:b8:7d:25:d0:a6:d8:16:d6:9e:1b:64:4b:be:
        14:ce:1b:dd:d5:6f:bf:86:bd:0b:b6:8d:b9:0f:29:ff:c9:dc:
        81:63:a5:92:ee:41:4a:f9:30:38:82:b7:f9:dc:5b:a0:1d:79:
        9d:52:db:de:52:fd:42:c9:8f:d5:76:53:53:23:c1:53:7e:94:
        5e:82:df:1e:96:1f:b9:7a:0d:be:09:71:cf:9d:18:68:1a:c2:
        4e:6f:45:71:bb:28:b4:b8:cb:75:02:b5:51:cd:67:fa:bd:eb:
        22:21:ec:37:c3:d7:a4:9e:25:66:01:99:b5:87:a9:92:74:09:
        81:03:5b:30:d8:cd:c5:dd:ee:b4:dc:d6:ea:50:c6:73:4e:4f:
        b5:42:e6:9e:1e:d2:a2:27:f2:49:76:7e:46:8e:0a:4f:7b:10:
        47:b7:1e:3a:4a:37:8b:ee:63:2d:20:bc:cd:b7:3c:c3:9f:81:
        f4:ae:fa:3b:b4:14:50:d2:56:78:ba:c2:c8:a8:75:54:d1:d0:
        7d:37:88:6e:50:15:b1:82:e0:e8:dc:52:6d:29:02:ff:2d:2e:
        d2:52:5f:1a:73:9a:12:97:72:54:45:aa:b1:77:b0:a7:98:db:
        21:cf:b7:05:96:0c:2c:89:3a:1f:c6:d7:0d:c9:ef:3c:17:8c:
        48:b7:c1:7b:36:85:6d:9e:9e:e0:35:fd:a4:ab:96:e4:e9:5e:
        54:56:b7:0d:f0:c1:7c:b7:e0:ac:d9:6b:de:92:dc:df:69:60:
        e0:b1:c6:fd:d0:a9:e4:db:74:6f:03:11:15:6c:59:d8:94:11:
        8a:19:f4:eb:e7:52:37:c3:69:43:5a:92:dd:e2:da:f9:44:77:
        a2:3f:b9:ed:6a:10:ce:13:fc:af:7c:01:94:79:c7:60:04:26:
        34:63:77:ae:dd:8d:b3:c1:02:a8:58:d1:f7:15:df:8a:cf:bd:
        73:9e:b1:c6:f8:a8:81:7f:d3:e2:8d:f4:85:ac:ec:53:13:1d:
        13:3d:7e:73:c6:90:08:10:64:8a:02:cf:2a:c7:55:fe:55:f1:
        d7:c1:23:1c:cf:a6:5f:f5:68:74:c5:d2:a6:c0:2f:7a:c9:fe:
        a2:9e:d1:7e:80:ce:ee:b8:6d:db:c4:3e:df:a4:73:1a:33:d8:
        33:ed:d3:e4:5a:69:c2:d4
-----BEGIN CERTIFICATE-----
MIIFuTCCA6GgAwIBAgIURnkPN9eQUQb8fOGZif9cWvsrf6cwDQYJKoZIhvcNAQEL
BQAwfjELMAkGA1UEBhMCQ0gxEDAOBgNVBAgTB1RodXJnYXUxEDAOBgNVBAcTB0tl
Zmlrb24xEzARBgNVBAoTCmd1ZW5nZWwuY2gxEDAOBgNVBAMTB0NBIDIwMjIxJDAi
BgkqhkiG9w0BCQEWFXBvc3RtYXN0ZXJAZ3VlbmdlbC5jaDAeFw0yNTAxMDMxNDA0
MjJaFw0yNjAyMDcxNDA0MjJaMHsxCzAJBgNVBAYTAkNIMRAwDgYDVQQIEwdUaHVy
Z2F1MRMwEQYDVQQKEwpndWVuZ2VsLmNoMR8wHQYDVQQDExZoYXJ2ZXN0ZXIua3J1
ZW1lbC5ob21lMSQwIgYJKoZIhvcNAQkBFhVwb3N0bWFzdGVyQGd1ZW5nZWwuY2gw
ggEiMA0GCSqGSIb3DQEBAQUAA4IBDwAwggEKAoIBAQC8CiCWB53BnRj/cCUO6xsu
6BNd5kWbdYnrIpwr6ji0qp3cOzGXkqLu47GDcfzV84Teykf3JdGa8h6GqlwH7ZN0
m31N7ruw2rSnfEtimYJUpYMQ0tAnoWi/gZtQ5KfnfYm8cUp0htXw85KLY1wxzh9e
vvyX3fFU/UOQdrp/zfo0alO2sCgqfE+PbOcKQPSLcocsW8xI3nCnQNI77sB9Wtdg
G0YAVSYMc2Sq/MhmDHPoP7PkZssw1zcc2gb+GsTNjUw5zrn4vmV9PBVUxiknzLxG
DYCv5i7LFPS+hH2TirzD0kTVPEQtKVtygo0iA6mv3RsiRNr1iC5eoc4WPLo4euvN
AgMBAAGjggEwMIIBLDAMBgNVHRMBAf8EAjAAMAsGA1UdDwQEAwIDqDAdBgNVHQ4E
FgQUjf9DTJCpJHh8nZ4ATSE0lUqyFLIwgb0GA1UdIwSBtTCBsoAUIiANUUBhQr7d
utnJwXe2kyjDmeyhgYOkgYAwfjELMAkGA1UEBhMCQ0gxEDAOBgNVBAgTB1RodXJn
YXUxEDAOBgNVBAcTB0tlZmlrb24xEzARBgNVBAoTCmd1ZW5nZWwuY2gxEDAOBgNV
BAMTB0NBIDIwMjIxJDAiBgkqhkiG9w0BCQEWFXBvc3RtYXN0ZXJAZ3VlbmdlbC5j
aIIUbSmQVOkX6cJq5lKthE4wjm5X+xwwEQYJYIZIAYb4QgEBBAQDAgbAMB0GA1Ud
JQQWMBQGCCsGAQUFBwMBBggrBgEFBQcDAjANBgkqhkiG9w0BAQsFAAOCAgEAdy29
5qFobhaitf4SGt2kv1I/54JTeldJCMag+10CfFdn3cdWSFlZ7cZIPDJCcNNBkNhW
a7izC3yq0kada8RJDl0PkiLPS8bfnaEKeau4fSXQptgW1p4bZEu+FM4b3dVvv4a9
C7aNuQ8p/8ncgWOlku5BSvkwOIK3+dxboB15nVLb3lL9QsmP1XZTUyPBU36UXoLf
HpYfuXoNvglxz50YaBrCTm9FcbsotLjLdQK1Uc1n+r3rIiHsN8PXpJ4lZgGZtYep
knQJgQNbMNjNxd3utNzW6lDGc05PtULmnh7SoifySXZ+Ro4KT3sQR7ceOko3i+5j
LSC8zbc8w5+B9K76O7QUUNJWeLrCyKh1VNHQfTeIblAVsYLg6NxSbSkC/y0u0lJf
GnOaEpdyVEWqsXewp5jbIc+3BZYMLIk6H8bXDcnvPBeMSLfBezaFbZ6e4DX9pKuW
5OleVFa3DfDBfLfgrNlr3pLc32lg4LHG/dCp5Nt0bwMRFWxZ2JQRihn06+dSN8Np
Q1qS3eLa+UR3oj+57WoQzhP8r3wBlHnHYAQmNGN3rt2Ns8ECqFjR9xXfis+9c56x
xviogX/T4o30hazsUxMdEz1+c8aQCBBkigLPKsdV/lXx18EjHM+mX/VodMXSpsAv
esn+op7RfoDO7rht28Q+36RzGjPYM+3T5FppwtQ=
-----END CERTIFICATE-----
