Certificate:
    Data:
        Version: 3 (0x2)
        Serial Number: 369 (0x171)
        Signature Algorithm: sha256WithRSAEncryption
        Issuer: C=CH, ST=Thurgau, L=Kefikon, O=guengel.ch, CN=CA guengel.ch/emailAddress=postmaster@guengel.ch
        Validity
            Not Before: Sep 29 12:47:15 2019 GMT
            Not After : Oct 13 12:47:15 2020 GMT
        Subject: C=CH, ST=Thurgau, O=guengel.ch, CN=harvester.kruemel.home/emailAddress=postmaster@guengel.ch
        Subject Public Key Info:
            Public Key Algorithm: rsaEncryption
                RSA Public-Key: (2048 bit)
                Modulus:
                    00:af:10:b6:e9:82:fd:09:4a:40:e3:fc:c8:95:b0:
                    01:2c:52:99:bf:4e:e2:90:6a:cc:76:71:5a:7a:64:
                    f9:da:3c:fa:7b:d6:38:cc:cc:b7:a2:b7:63:6a:50:
                    62:6a:65:77:f3:0b:ab:8d:21:0c:be:d8:e0:9a:13:
                    76:25:cd:aa:92:1a:be:af:bb:c8:49:7f:22:c4:27:
                    34:e8:b8:42:c4:11:36:be:68:56:73:25:ec:45:a2:
                    c3:8b:db:9d:22:97:3b:70:c7:e8:7a:d6:b2:15:30:
                    61:e8:65:64:ce:cd:08:2b:d3:0c:44:94:6d:0c:99:
                    8b:63:dd:77:47:f8:2d:a6:06:79:a2:42:d1:61:eb:
                    ff:3f:99:c9:61:ba:e7:93:67:07:8b:00:d6:6b:84:
                    c6:70:78:9f:fe:5d:61:75:b1:11:f5:65:0d:9d:5c:
                    6c:72:75:2d:fe:af:0d:8f:81:7b:ee:fd:be:20:db:
                    27:6b:4c:3a:5f:18:dd:78:b1:cb:59:97:be:4e:b9:
                    9e:57:27:af:63:4f:ba:cf:9f:0f:f2:53:43:3c:14:
                    a4:92:46:91:de:eb:59:00:aa:df:e3:43:83:a7:10:
                    40:4e:cd:49:26:b8:99:ca:f2:ab:46:65:ff:17:02:
                    22:2f:c5:73:65:16:b9:f7:a2:51:6d:7f:76:54:4a:
                    ed:53
                Exponent: 65537 (0x10001)
        X509v3 extensions:
            X509v3 Basic Constraints: 
                CA:FALSE
            Netscape Comment: 
                OpenSSL Generated Certificate
            X509v3 Subject Key Identifier: 
                AB:82:E3:97:ED:6E:11:34:C9:CB:3A:61:2B:2D:38:3A:F1:DC:8B:06
            X509v3 Authority Key Identifier: 
                keyid:D6:88:F1:AA:C1:2B:09:8C:B8:5C:9D:CE:DF:57:39:62:26:10:20:90
                DirName:/C=CH/ST=Thurgau/L=Kefikon/O=guengel.ch/CN=CA guengel.ch/emailAddress=postmaster@guengel.ch
                serial:E5:25:3B:A6:77:BD:CB:FF

    Signature Algorithm: sha256WithRSAEncryption
         35:37:87:99:a9:7b:00:f9:57:ab:c3:8d:dc:35:a3:bd:f0:71:
         1e:2c:fd:12:03:83:66:8b:7c:54:a6:76:63:95:f6:60:4c:d7:
         52:3a:e7:cc:5e:f2:52:cc:e5:58:6a:b8:4f:63:fe:b3:98:64:
         be:ce:cc:89:e9:78:2d:53:43:28:d0:a6:cd:44:e6:ac:4a:6c:
         d7:aa:a9:a2:66:fb:2e:d6:6b:12:5a:16:f6:37:77:3a:79:cb:
         75:ab:ad:c7:f7:56:5c:bf:4d:13:d8:4d:e4:3e:23:e9:31:10:
         6c:25:8e:4b:fd:e6:16:ac:40:f2:b1:83:9b:da:59:13:2b:2d:
         c3:3e:49:77:94:00:2d:6e:d5:a7:3b:ac:c4:fb:49:36:da:86:
         20:94:0f:0d:bd:ea:fa:ff:d0:09:79:20:4c:ff:32:7f:36:ae:
         bb:77:c4:5b:46:cc:52:41:fb:56:06:b4:89:4f:63:dd:d3:e6:
         7d:ed:be:1f:af:94:a3:84:85:1f:43:50:34:77:09:47:85:9c:
         05:b2:b3:b7:23:1c:e8:92:23:50:81:85:3c:9d:20:a5:4a:21:
         4a:b2:a4:c5:bb:15:c2:ce:cd:7f:b1:04:cc:e0:6e:98:52:84:
         88:7f:de:b0:c5:19:a2:5e:54:f4:80:29:4b:cd:aa:28:ff:92:
         38:e2:52:bb:03:9b:af:a9:a8:77:63:e7:59:53:63:32:14:af:
         38:ff:4c:d5:de:92:fa:9d:c8:ff:03:a9:99:e6:a3:07:85:4f:
         84:d6:96:01:14:f5:4d:4d:63:09:a0:59:29:95:1c:a8:7d:d2:
         0d:5d:29:40:62:8f:74:71:58:45:33:bd:18:51:45:5a:c2:70:
         fe:cf:7a:cc:cf:dc:12:46:fb:0c:24:82:b8:21:bc:0d:c3:0a:
         28:87:c4:ff:5b:57:7b:81:1f:54:6c:bd:0a:90:80:e3:de:45:
         bf:f9:62:79:32:7b:1c:86:0d:73:c7:86:b1:31:f8:46:01:3c:
         28:e7:d5:f3:4b:43:69:8d:35:d4:53:10:fe:03:3c:36:a3:80:
         1b:5f:b9:c7:ac:8b:a6:1c:75:5e:6a:87:3c:d2:53:ad:9e:00:
         f7:9b:05:8f:6b:e7:39:5a:c4:b8:ed:43:f2:03:4c:3d:ee:05:
         bc:57:d3:86:c6:ff:c9:56:fa:e2:de:2a:c3:37:8e:72:bc:4f:
         23:a3:26:80:40:2e:9f:8b:b1:61:de:13:d0:c0:20:bd:09:18:
         e5:1c:df:d1:e6:06:4e:46:b4:ee:2c:84:6b:7c:98:85:ae:95:
         e4:d6:32:ed:78:92:35:d7:20:a1:90:4f:7e:33:03:0d:c9:98:
         48:b4:29:99:75:5a:9b:fc
-----BEGIN CERTIFICATE-----
MIIFljCCA36gAwIBAgICAXEwDQYJKoZIhvcNAQELBQAwgYQxCzAJBgNVBAYTAkNI
MRAwDgYDVQQIEwdUaHVyZ2F1MRAwDgYDVQQHEwdLZWZpa29uMRMwEQYDVQQKEwpn
dWVuZ2VsLmNoMRYwFAYDVQQDEw1DQSBndWVuZ2VsLmNoMSQwIgYJKoZIhvcNAQkB
FhVwb3N0bWFzdGVyQGd1ZW5nZWwuY2gwHhcNMTkwOTI5MTI0NzE1WhcNMjAxMDEz
MTI0NzE1WjB7MQswCQYDVQQGEwJDSDEQMA4GA1UECBMHVGh1cmdhdTETMBEGA1UE
ChMKZ3VlbmdlbC5jaDEfMB0GA1UEAxMWaGFydmVzdGVyLmtydWVtZWwuaG9tZTEk
MCIGCSqGSIb3DQEJARYVcG9zdG1hc3RlckBndWVuZ2VsLmNoMIIBIjANBgkqhkiG
9w0BAQEFAAOCAQ8AMIIBCgKCAQEArxC26YL9CUpA4/zIlbABLFKZv07ikGrMdnFa
emT52jz6e9Y4zMy3ordjalBiamV38wurjSEMvtjgmhN2Jc2qkhq+r7vISX8ixCc0
6LhCxBE2vmhWcyXsRaLDi9udIpc7cMfoetayFTBh6GVkzs0IK9MMRJRtDJmLY913
R/gtpgZ5okLRYev/P5nJYbrnk2cHiwDWa4TGcHif/l1hdbER9WUNnVxscnUt/q8N
j4F77v2+INsna0w6XxjdeLHLWZe+TrmeVyevY0+6z58P8lNDPBSkkkaR3utZAKrf
40ODpxBATs1JJriZyvKrRmX/FwIiL8VzZRa596JRbX92VErtUwIDAQABo4IBGDCC
ARQwCQYDVR0TBAIwADAsBglghkgBhvhCAQ0EHxYdT3BlblNTTCBHZW5lcmF0ZWQg
Q2VydGlmaWNhdGUwHQYDVR0OBBYEFKuC45ftbhE0ycs6YSstODrx3IsGMIG5BgNV
HSMEgbEwga6AFNaI8arBKwmMuFydzt9XOWImECCQoYGKpIGHMIGEMQswCQYDVQQG
EwJDSDEQMA4GA1UECBMHVGh1cmdhdTEQMA4GA1UEBxMHS2VmaWtvbjETMBEGA1UE
ChMKZ3VlbmdlbC5jaDEWMBQGA1UEAxMNQ0EgZ3VlbmdlbC5jaDEkMCIGCSqGSIb3
DQEJARYVcG9zdG1hc3RlckBndWVuZ2VsLmNoggkA5SU7pne9y/8wDQYJKoZIhvcN
AQELBQADggIBADU3h5mpewD5V6vDjdw1o73wcR4s/RIDg2aLfFSmdmOV9mBM11I6
58xe8lLM5VhquE9j/rOYZL7OzInpeC1TQyjQps1E5qxKbNeqqaJm+y7WaxJaFvY3
dzp5y3Wrrcf3Vly/TRPYTeQ+I+kxEGwljkv95hasQPKxg5vaWRMrLcM+SXeUAC1u
1ac7rMT7STbahiCUDw296vr/0Al5IEz/Mn82rrt3xFtGzFJB+1YGtIlPY93T5n3t
vh+vlKOEhR9DUDR3CUeFnAWys7cjHOiSI1CBhTydIKVKIUqypMW7FcLOzX+xBMzg
bphShIh/3rDFGaJeVPSAKUvNqij/kjjiUrsDm6+pqHdj51lTYzIUrzj/TNXekvqd
yP8DqZnmoweFT4TWlgEU9U1NYwmgWSmVHKh90g1dKUBij3RxWEUzvRhRRVrCcP7P
eszP3BJG+wwkgrghvA3DCiiHxP9bV3uBH1RsvQqQgOPeRb/5YnkyexyGDXPHhrEx
+EYBPCjn1fNLQ2mNNdRTEP4DPDajgBtfucesi6YcdV5qhzzSU62eAPebBY9r5zla
xLjtQ/IDTD3uBbxX04bG/8lW+uLeKsM3jnK8TyOjJoBALp+LsWHeE9DAIL0JGOUc
39HmBk5GtO4shGt8mIWuleTWMu14kjXXIKGQT34zAw3JmEi0KZl1Wpv8
-----END CERTIFICATE-----
