Certificate:
    Data:
        Version: 3 (0x2)
        Serial Number: 460 (0x1cc)
        Signature Algorithm: sha256WithRSAEncryption
        Issuer: C=CH, ST=Thurgau, L=Kefikon, O=guengel.ch, CN=CA guengel.ch/emailAddress=postmaster@guengel.ch
        Validity
            Not Before: Feb 11 07:07:06 2022 GMT
            Not After : Mar 18 07:07:06 2023 GMT
        Subject: C=CH, ST=Thurgau, O=guengel.ch, CN=harvester.kruemel.home/emailAddress=postmaster@guengel.ch
        Subject Public Key Info:
            Public Key Algorithm: rsaEncryption
                RSA Public-Key: (2048 bit)
                Modulus:
                    00:af:10:b6:e9:82:fd:09:4a:40:e3:fc:c8:95:b0:
                    01:2c:52:99:bf:4e:e2:90:6a:cc:76:71:5a:7a:64:
                    f9:da:3c:fa:7b:d6:38:cc:cc:b7:a2:b7:63:6a:50:
                    62:6a:65:77:f3:0b:ab:8d:21:0c:be:d8:e0:9a:13:
                    76:25:cd:aa:92:1a:be:af:bb:c8:49:7f:22:c4:27:
                    34:e8:b8:42:c4:11:36:be:68:56:73:25:ec:45:a2:
                    c3:8b:db:9d:22:97:3b:70:c7:e8:7a:d6:b2:15:30:
                    61:e8:65:64:ce:cd:08:2b:d3:0c:44:94:6d:0c:99:
                    8b:63:dd:77:47:f8:2d:a6:06:79:a2:42:d1:61:eb:
                    ff:3f:99:c9:61:ba:e7:93:67:07:8b:00:d6:6b:84:
                    c6:70:78:9f:fe:5d:61:75:b1:11:f5:65:0d:9d:5c:
                    6c:72:75:2d:fe:af:0d:8f:81:7b:ee:fd:be:20:db:
                    27:6b:4c:3a:5f:18:dd:78:b1:cb:59:97:be:4e:b9:
                    9e:57:27:af:63:4f:ba:cf:9f:0f:f2:53:43:3c:14:
                    a4:92:46:91:de:eb:59:00:aa:df:e3:43:83:a7:10:
                    40:4e:cd:49:26:b8:99:ca:f2:ab:46:65:ff:17:02:
                    22:2f:c5:73:65:16:b9:f7:a2:51:6d:7f:76:54:4a:
                    ed:53
                Exponent: 65537 (0x10001)
        X509v3 extensions:
            X509v3 Key Usage: 
                Digital Signature, Key Encipherment, Key Agreement
            X509v3 Basic Constraints: critical
                CA:FALSE
            Netscape Cert Type: 
                SSL Client, SSL Server
            X509v3 Extended Key Usage: 
                TLS Web Server Authentication, TLS Web Client Authentication
            X509v3 Subject Alternative Name: 
                DNS:harvester.kruemel.home
            X509v3 Subject Key Identifier: 
                AB:82:E3:97:ED:6E:11:34:C9:CB:3A:61:2B:2D:38:3A:F1:DC:8B:06
            X509v3 Authority Key Identifier: 
                keyid:D6:88:F1:AA:C1:2B:09:8C:B8:5C:9D:CE:DF:57:39:62:26:10:20:90
                DirName:/C=CH/ST=Thurgau/L=Kefikon/O=guengel.ch/CN=CA guengel.ch/emailAddress=postmaster@guengel.ch
                serial:E5:25:3B:A6:77:BD:CB:FF

    Signature Algorithm: sha256WithRSAEncryption
         8f:d9:3d:6a:b4:28:4c:32:ba:0f:cb:90:0c:67:15:50:5e:ff:
         19:a0:75:5f:67:6a:f1:e0:00:b1:d3:52:22:33:ef:72:a6:5c:
         c5:c9:14:42:93:b5:2a:95:9f:f4:e3:d0:3f:35:91:69:05:e6:
         a4:65:95:83:3e:a8:d8:e5:1d:66:86:79:e5:ad:b6:67:1b:2d:
         5f:75:9a:3b:c3:ad:5b:58:5e:25:fa:cd:32:d2:2a:10:5c:43:
         15:0f:c6:0c:d8:6a:5c:de:ea:3c:d8:1e:60:4b:99:f3:9a:80:
         c4:90:62:3a:dc:21:0d:cb:91:81:d8:3c:5c:bf:1e:3b:4a:2c:
         5c:e2:3a:11:d4:04:a8:53:62:5a:8c:94:0d:65:a8:6e:bd:f7:
         6e:32:11:4f:97:4d:cd:e9:21:70:b2:56:da:80:1c:50:e9:0e:
         32:95:29:4c:51:62:4b:32:49:81:bb:a6:2e:bf:60:9d:64:3b:
         d1:f1:fa:43:fa:2c:06:47:51:ad:28:8a:06:23:21:40:6f:a7:
         e5:1e:52:18:aa:b5:0b:0c:09:8b:e5:b4:88:17:8f:88:9a:f7:
         59:96:cb:07:5e:8b:6e:4b:a6:29:0a:a7:88:62:8d:4c:d2:f3:
         83:bb:37:9f:84:4e:3e:4f:80:44:66:66:9c:ea:2e:2f:7e:25:
         0e:f7:5f:90:ca:05:7c:02:c5:fa:e3:dc:4a:73:9a:2a:07:c5:
         37:03:4e:05:1b:8d:07:14:2d:5f:f9:5e:a2:f3:84:f5:e1:b1:
         e2:ed:63:8c:4e:8d:6f:26:52:23:b8:a9:46:76:76:ff:f3:3d:
         df:5d:32:d7:56:b9:8a:d3:c9:15:a8:6e:21:5d:f7:fe:2d:a2:
         90:9b:77:a6:b5:78:97:ce:25:8e:5d:1d:a0:50:b0:91:27:d4:
         b7:d5:52:fb:df:68:4c:55:38:d2:2d:77:91:7c:87:c5:36:dc:
         22:4f:af:8d:fc:cf:c4:13:cc:5a:8e:a8:b9:62:b4:89:7f:d3:
         69:39:13:33:88:10:58:63:c3:dc:eb:d9:39:e2:84:80:d4:79:
         46:ee:17:f7:ca:83:49:ce:5f:38:7d:3e:48:68:3d:6a:44:f2:
         79:30:79:05:9b:26:e1:19:89:89:4c:32:4d:e6:b2:60:d6:6f:
         12:3c:d7:e9:ca:a6:84:e2:5b:2b:8e:a6:46:db:0d:a6:80:a3:
         ef:a8:b8:85:09:fd:6e:10:9f:a1:d4:75:c6:45:e1:d9:b2:7f:
         cf:14:af:cd:83:c7:89:45:cf:43:97:0d:f6:d4:35:46:79:60:
         68:7d:f8:98:15:5d:d9:04:ab:56:e1:fe:a0:c5:6b:f1:f9:62:
         21:81:9c:6d:53:25:50:43
-----BEGIN CERTIFICATE-----
MIIFzTCCA7WgAwIBAgICAcwwDQYJKoZIhvcNAQELBQAwgYQxCzAJBgNVBAYTAkNI
MRAwDgYDVQQIEwdUaHVyZ2F1MRAwDgYDVQQHEwdLZWZpa29uMRMwEQYDVQQKEwpn
dWVuZ2VsLmNoMRYwFAYDVQQDEw1DQSBndWVuZ2VsLmNoMSQwIgYJKoZIhvcNAQkB
FhVwb3N0bWFzdGVyQGd1ZW5nZWwuY2gwHhcNMjIwMjExMDcwNzA2WhcNMjMwMzE4
MDcwNzA2WjB7MQswCQYDVQQGEwJDSDEQMA4GA1UECBMHVGh1cmdhdTETMBEGA1UE
ChMKZ3VlbmdlbC5jaDEfMB0GA1UEAxMWaGFydmVzdGVyLmtydWVtZWwuaG9tZTEk
MCIGCSqGSIb3DQEJARYVcG9zdG1hc3RlckBndWVuZ2VsLmNoMIIBIjANBgkqhkiG
9w0BAQEFAAOCAQ8AMIIBCgKCAQEArxC26YL9CUpA4/zIlbABLFKZv07ikGrMdnFa
emT52jz6e9Y4zMy3ordjalBiamV38wurjSEMvtjgmhN2Jc2qkhq+r7vISX8ixCc0
6LhCxBE2vmhWcyXsRaLDi9udIpc7cMfoetayFTBh6GVkzs0IK9MMRJRtDJmLY913
R/gtpgZ5okLRYev/P5nJYbrnk2cHiwDWa4TGcHif/l1hdbER9WUNnVxscnUt/q8N
j4F77v2+INsna0w6XxjdeLHLWZe+TrmeVyevY0+6z58P8lNDPBSkkkaR3utZAKrf
40ODpxBATs1JJriZyvKrRmX/FwIiL8VzZRa596JRbX92VErtUwIDAQABo4IBTzCC
AUswCwYDVR0PBAQDAgOoMAwGA1UdEwEB/wQCMAAwEQYJYIZIAYb4QgEBBAQDAgbA
MB0GA1UdJQQWMBQGCCsGAQUFBwMBBggrBgEFBQcDAjAhBgNVHREEGjAYghZoYXJ2
ZXN0ZXIua3J1ZW1lbC5ob21lMB0GA1UdDgQWBBSrguOX7W4RNMnLOmErLTg68dyL
BjCBuQYDVR0jBIGxMIGugBTWiPGqwSsJjLhcnc7fVzliJhAgkKGBiqSBhzCBhDEL
MAkGA1UEBhMCQ0gxEDAOBgNVBAgTB1RodXJnYXUxEDAOBgNVBAcTB0tlZmlrb24x
EzARBgNVBAoTCmd1ZW5nZWwuY2gxFjAUBgNVBAMTDUNBIGd1ZW5nZWwuY2gxJDAi
BgkqhkiG9w0BCQEWFXBvc3RtYXN0ZXJAZ3VlbmdlbC5jaIIJAOUlO6Z3vcv/MA0G
CSqGSIb3DQEBCwUAA4ICAQCP2T1qtChMMroPy5AMZxVQXv8ZoHVfZ2rx4ACx01Ii
M+9yplzFyRRCk7UqlZ/049A/NZFpBeakZZWDPqjY5R1mhnnlrbZnGy1fdZo7w61b
WF4l+s0y0ioQXEMVD8YM2Gpc3uo82B5gS5nzmoDEkGI63CENy5GB2Dxcvx47Sixc
4joR1ASoU2JajJQNZahuvfduMhFPl03N6SFwslbagBxQ6Q4ylSlMUWJLMkmBu6Yu
v2CdZDvR8fpD+iwGR1GtKIoGIyFAb6flHlIYqrULDAmL5bSIF4+ImvdZlssHXotu
S6YpCqeIYo1M0vODuzefhE4+T4BEZmac6i4vfiUO91+QygV8AsX649xKc5oqB8U3
A04FG40HFC1f+V6i84T14bHi7WOMTo1vJlIjuKlGdnb/8z3fXTLXVrmK08kVqG4h
Xff+LaKQm3emtXiXziWOXR2gULCRJ9S31VL732hMVTjSLXeRfIfFNtwiT6+N/M/E
E8xajqi5YrSJf9NpORMziBBYY8Pc69k54oSA1HlG7hf3yoNJzl84fT5IaD1qRPJ5
MHkFmybhGYmJTDJN5rJg1m8SPNfpyqaE4lsrjqZG2w2mgKPvqLiFCf1uEJ+h1HXG
ReHZsn/PFK/Ng8eJRc9Dlw321DVGeWBoffiYFV3ZBKtW4f6gxWvx+WIhgZxtUyVQ
Qw==
-----END CERTIFICATE-----
