Certificate:
    Data:
        Version: 3 (0x2)
        Serial Number:
            1a:f8:8f:94:a4:59:c4:03:a0:9e:f1:5b:bb:c9:ab:53:88:e9:db:c1
        Signature Algorithm: sha256WithRSAEncryption
        Issuer: C=CH, ST=Thurgau, L=Kefikon, O=guengel.ch, CN=CA 2022/emailAddress=postmaster@guengel.ch
        Validity
            Not Before: Dec 30 08:44:30 2023 GMT
            Not After : Feb  2 08:44:30 2025 GMT
        Subject: C=CH, ST=Thurgau, O=guengel.ch, CN=harvester.kruemel.home/emailAddress=postmaster@guengel.ch
        Subject Public Key Info:
            Public Key Algorithm: rsaEncryption
                RSA Public-Key: (2048 bit)
                Modulus:
                    00:bc:0a:20:96:07:9d:c1:9d:18:ff:70:25:0e:eb:
                    1b:2e:e8:13:5d:e6:45:9b:75:89:eb:22:9c:2b:ea:
                    38:b4:aa:9d:dc:3b:31:97:92:a2:ee:e3:b1:83:71:
                    fc:d5:f3:84:de:ca:47:f7:25:d1:9a:f2:1e:86:aa:
                    5c:07:ed:93:74:9b:7d:4d:ee:bb:b0:da:b4:a7:7c:
                    4b:62:99:82:54:a5:83:10:d2:d0:27:a1:68:bf:81:
                    9b:50:e4:a7:e7:7d:89:bc:71:4a:74:86:d5:f0:f3:
                    92:8b:63:5c:31:ce:1f:5e:be:fc:97:dd:f1:54:fd:
                    43:90:76:ba:7f:cd:fa:34:6a:53:b6:b0:28:2a:7c:
                    4f:8f:6c:e7:0a:40:f4:8b:72:87:2c:5b:cc:48:de:
                    70:a7:40:d2:3b:ee:c0:7d:5a:d7:60:1b:46:00:55:
                    26:0c:73:64:aa:fc:c8:66:0c:73:e8:3f:b3:e4:66:
                    cb:30:d7:37:1c:da:06:fe:1a:c4:cd:8d:4c:39:ce:
                    b9:f8:be:65:7d:3c:15:54:c6:29:27:cc:bc:46:0d:
                    80:af:e6:2e:cb:14:f4:be:84:7d:93:8a:bc:c3:d2:
                    44:d5:3c:44:2d:29:5b:72:82:8d:22:03:a9:af:dd:
                    1b:22:44:da:f5:88:2e:5e:a1:ce:16:3c:ba:38:7a:
                    eb:cd
                Exponent: 65537 (0x10001)
        X509v3 extensions:
            X509v3 Basic Constraints: critical
                CA:FALSE
            X509v3 Key Usage: 
                Digital Signature, Key Encipherment, Key Agreement
            X509v3 Subject Key Identifier: 
                8D:FF:43:4C:90:A9:24:78:7C:9D:9E:00:4D:21:34:95:4A:B2:14:B2
            X509v3 Authority Key Identifier: 
                keyid:22:20:0D:51:40:61:42:BE:DD:BA:D9:C9:C1:77:B6:93:28:C3:99:EC
                DirName:/C=CH/ST=Thurgau/L=Kefikon/O=guengel.ch/CN=CA 2022/emailAddress=postmaster@guengel.ch
                serial:6D:29:90:54:E9:17:E9:C2:6A:E6:52:AD:84:4E:30:8E:6E:57:FB:1C

            Netscape Cert Type: 
                SSL Client, SSL Server
            X509v3 Extended Key Usage: 
                TLS Web Server Authentication, TLS Web Client Authentication
    Signature Algorithm: sha256WithRSAEncryption
         b8:eb:07:98:0f:4f:8e:f7:2b:07:69:b3:09:af:0a:c1:b2:0d:
         cf:5c:88:99:d7:1d:49:18:8c:50:d0:32:5b:48:34:91:fa:ad:
         04:97:d0:43:d3:86:67:d2:22:74:c1:8b:c5:cc:5e:6a:6f:be:
         2f:bc:bc:9e:f3:65:95:8c:63:70:8c:4b:e7:73:08:c3:c2:57:
         f8:a9:0c:5c:83:cd:e3:14:66:4b:1a:6b:45:4f:cf:49:84:04:
         2f:9d:86:d4:e4:8a:1f:77:df:df:a5:67:19:22:27:e0:77:50:
         58:85:fb:a2:97:7c:82:86:b8:3f:9b:31:09:ef:62:6a:7c:08:
         91:5d:c2:1a:cd:05:28:56:f4:91:45:ba:08:ad:8c:86:4f:b3:
         bd:f2:29:0e:29:4a:5d:9c:7e:cd:dc:58:2d:b8:c9:f6:b7:c1:
         b1:01:47:26:f2:fe:33:e1:fb:11:f2:7b:18:36:82:7e:75:a9:
         01:3a:43:2e:67:54:cc:08:51:de:82:81:31:42:9b:f6:06:03:
         20:a1:c3:ec:a4:8c:1b:ae:65:7a:b1:93:ea:b9:d4:cf:10:ba:
         ed:c5:00:02:4c:fa:25:26:31:b3:92:c5:d8:d5:61:c0:6a:04:
         10:d6:2d:3e:4e:25:f9:33:28:48:d6:51:af:e5:3e:88:82:2f:
         5c:98:96:44:1c:c1:5e:1c:3a:58:48:18:ea:12:30:d4:1f:39:
         4c:5b:ff:22:1e:b9:29:e4:20:34:b7:ed:09:dc:02:e5:44:d6:
         1d:e7:d2:04:e1:b8:64:6b:a9:1b:59:51:c2:ce:d3:22:40:bb:
         e4:76:91:ea:5f:91:f9:c3:54:d8:53:c3:a3:45:a2:05:2d:c4:
         93:54:79:02:43:b2:50:ea:0d:3b:e2:ee:10:5f:7d:4e:ab:2a:
         ed:7b:be:ef:0a:31:0e:09:b5:cf:9b:d2:db:e4:9f:d9:34:51:
         f9:37:40:09:d7:70:2d:ef:e3:11:5a:af:0e:b2:78:66:6a:97:
         46:68:c0:5f:cc:21:c3:36:bd:b7:5e:a9:33:90:d7:2d:1f:db:
         ae:44:6b:5a:de:96:24:86:68:3c:ed:ad:66:1e:d6:78:df:a9:
         55:37:57:a4:1f:45:5f:16:99:a7:38:47:5c:a2:69:55:44:ae:
         82:27:d6:b7:30:ad:bc:0b:f6:66:7f:2f:e0:02:dd:96:af:d6:
         1b:fe:e8:bf:11:c7:96:e6:da:1f:d4:f3:81:86:5c:95:c5:69:
         b1:ac:1d:0c:f3:94:ff:29:78:ad:15:79:e8:67:c0:10:c6:0a:
         06:48:88:0a:b0:a3:a7:6a:10:b9:ce:58:68:15:ee:3a:f8:71:
         fb:54:c1:83:99:20:a8:4a
-----BEGIN CERTIFICATE-----
MIIFuTCCA6GgAwIBAgIUGviPlKRZxAOgnvFbu8mrU4jp28EwDQYJKoZIhvcNAQEL
BQAwfjELMAkGA1UEBhMCQ0gxEDAOBgNVBAgTB1RodXJnYXUxEDAOBgNVBAcTB0tl
Zmlrb24xEzARBgNVBAoTCmd1ZW5nZWwuY2gxEDAOBgNVBAMTB0NBIDIwMjIxJDAi
BgkqhkiG9w0BCQEWFXBvc3RtYXN0ZXJAZ3VlbmdlbC5jaDAeFw0yMzEyMzAwODQ0
MzBaFw0yNTAyMDIwODQ0MzBaMHsxCzAJBgNVBAYTAkNIMRAwDgYDVQQIEwdUaHVy
Z2F1MRMwEQYDVQQKEwpndWVuZ2VsLmNoMR8wHQYDVQQDExZoYXJ2ZXN0ZXIua3J1
ZW1lbC5ob21lMSQwIgYJKoZIhvcNAQkBFhVwb3N0bWFzdGVyQGd1ZW5nZWwuY2gw
ggEiMA0GCSqGSIb3DQEBAQUAA4IBDwAwggEKAoIBAQC8CiCWB53BnRj/cCUO6xsu
6BNd5kWbdYnrIpwr6ji0qp3cOzGXkqLu47GDcfzV84Teykf3JdGa8h6GqlwH7ZN0
m31N7ruw2rSnfEtimYJUpYMQ0tAnoWi/gZtQ5KfnfYm8cUp0htXw85KLY1wxzh9e
vvyX3fFU/UOQdrp/zfo0alO2sCgqfE+PbOcKQPSLcocsW8xI3nCnQNI77sB9Wtdg
G0YAVSYMc2Sq/MhmDHPoP7PkZssw1zcc2gb+GsTNjUw5zrn4vmV9PBVUxiknzLxG
DYCv5i7LFPS+hH2TirzD0kTVPEQtKVtygo0iA6mv3RsiRNr1iC5eoc4WPLo4euvN
AgMBAAGjggEwMIIBLDAMBgNVHRMBAf8EAjAAMAsGA1UdDwQEAwIDqDAdBgNVHQ4E
FgQUjf9DTJCpJHh8nZ4ATSE0lUqyFLIwgb0GA1UdIwSBtTCBsoAUIiANUUBhQr7d
utnJwXe2kyjDmeyhgYOkgYAwfjELMAkGA1UEBhMCQ0gxEDAOBgNVBAgTB1RodXJn
YXUxEDAOBgNVBAcTB0tlZmlrb24xEzARBgNVBAoTCmd1ZW5nZWwuY2gxEDAOBgNV
BAMTB0NBIDIwMjIxJDAiBgkqhkiG9w0BCQEWFXBvc3RtYXN0ZXJAZ3VlbmdlbC5j
aIIUbSmQVOkX6cJq5lKthE4wjm5X+xwwEQYJYIZIAYb4QgEBBAQDAgbAMB0GA1Ud
JQQWMBQGCCsGAQUFBwMBBggrBgEFBQcDAjANBgkqhkiG9w0BAQsFAAOCAgEAuOsH
mA9PjvcrB2mzCa8KwbINz1yImdcdSRiMUNAyW0g0kfqtBJfQQ9OGZ9IidMGLxcxe
am++L7y8nvNllYxjcIxL53MIw8JX+KkMXIPN4xRmSxprRU/PSYQEL52G1OSKH3ff
36VnGSIn4HdQWIX7opd8goa4P5sxCe9ianwIkV3CGs0FKFb0kUW6CK2Mhk+zvfIp
DilKXZx+zdxYLbjJ9rfBsQFHJvL+M+H7EfJ7GDaCfnWpATpDLmdUzAhR3oKBMUKb
9gYDIKHD7KSMG65lerGT6rnUzxC67cUAAkz6JSYxs5LF2NVhwGoEENYtPk4l+TMo
SNZRr+U+iIIvXJiWRBzBXhw6WEgY6hIw1B85TFv/Ih65KeQgNLftCdwC5UTWHefS
BOG4ZGupG1lRws7TIkC75HaR6l+R+cNU2FPDo0WiBS3Ek1R5AkOyUOoNO+LuEF99
Tqsq7Xu+7woxDgm1z5vS2+Sf2TRR+TdACddwLe/jEVqvDrJ4ZmqXRmjAX8whwza9
t16pM5DXLR/brkRrWt6WJIZoPO2tZh7WeN+pVTdXpB9FXxaZpzhHXKJpVUSugifW
tzCtvAv2Zn8v4ALdlq/WG/7ovxHHlubaH9TzgYZclcVpsawdDPOU/yl4rRV56GfA
EMYKBkiICrCjp2oQuc5YaBXuOvhx+1TBg5kgqEo=
-----END CERTIFICATE-----
