Certificate:
    Data:
        Version: 3 (0x2)
        Serial Number:
            5a:c8:3e:b8:03:51:8e:01:7d:e0:7c:a5:59:8b:93:c8:75:f3:7b:1d
        Signature Algorithm: sha256WithRSAEncryption
        Issuer: C=CH, ST=Thurgau, L=Kefikon, O=guengel.ch, CN=CA 2022/emailAddress=postmaster@guengel.ch
        Validity
            Not Before: Feb 28 06:41:22 2023 GMT
            Not After : Apr  3 06:41:22 2024 GMT
        Subject: C=CH, ST=Thurgau, O=guengel.ch, CN=harvester.kruemel.home/emailAddress=postmaster@guengel.ch
        Subject Public Key Info:
            Public Key Algorithm: rsaEncryption
                RSA Public-Key: (2048 bit)
                Modulus:
                    00:bc:0a:20:96:07:9d:c1:9d:18:ff:70:25:0e:eb:
                    1b:2e:e8:13:5d:e6:45:9b:75:89:eb:22:9c:2b:ea:
                    38:b4:aa:9d:dc:3b:31:97:92:a2:ee:e3:b1:83:71:
                    fc:d5:f3:84:de:ca:47:f7:25:d1:9a:f2:1e:86:aa:
                    5c:07:ed:93:74:9b:7d:4d:ee:bb:b0:da:b4:a7:7c:
                    4b:62:99:82:54:a5:83:10:d2:d0:27:a1:68:bf:81:
                    9b:50:e4:a7:e7:7d:89:bc:71:4a:74:86:d5:f0:f3:
                    92:8b:63:5c:31:ce:1f:5e:be:fc:97:dd:f1:54:fd:
                    43:90:76:ba:7f:cd:fa:34:6a:53:b6:b0:28:2a:7c:
                    4f:8f:6c:e7:0a:40:f4:8b:72:87:2c:5b:cc:48:de:
                    70:a7:40:d2:3b:ee:c0:7d:5a:d7:60:1b:46:00:55:
                    26:0c:73:64:aa:fc:c8:66:0c:73:e8:3f:b3:e4:66:
                    cb:30:d7:37:1c:da:06:fe:1a:c4:cd:8d:4c:39:ce:
                    b9:f8:be:65:7d:3c:15:54:c6:29:27:cc:bc:46:0d:
                    80:af:e6:2e:cb:14:f4:be:84:7d:93:8a:bc:c3:d2:
                    44:d5:3c:44:2d:29:5b:72:82:8d:22:03:a9:af:dd:
                    1b:22:44:da:f5:88:2e:5e:a1:ce:16:3c:ba:38:7a:
                    eb:cd
                Exponent: 65537 (0x10001)
        X509v3 extensions:
            X509v3 Basic Constraints: critical
                CA:FALSE
            X509v3 Key Usage: 
                Digital Signature, Key Encipherment, Key Agreement
            X509v3 Subject Key Identifier: 
                8D:FF:43:4C:90:A9:24:78:7C:9D:9E:00:4D:21:34:95:4A:B2:14:B2
            X509v3 Authority Key Identifier: 
                keyid:22:20:0D:51:40:61:42:BE:DD:BA:D9:C9:C1:77:B6:93:28:C3:99:EC
                DirName:/C=CH/ST=Thurgau/L=Kefikon/O=guengel.ch/CN=CA 2022/emailAddress=postmaster@guengel.ch
                serial:6D:29:90:54:E9:17:E9:C2:6A:E6:52:AD:84:4E:30:8E:6E:57:FB:1C

            Netscape Cert Type: 
                SSL Client, SSL Server
            X509v3 Extended Key Usage: 
                TLS Web Server Authentication, TLS Web Client Authentication
    Signature Algorithm: sha256WithRSAEncryption
         2d:07:3b:ec:0e:57:5a:8e:15:d9:1e:f8:f4:67:52:21:0a:29:
         a0:1c:a4:6e:17:b7:d6:fe:64:54:b7:8c:bc:74:2e:f6:03:f6:
         90:8f:76:ca:82:24:f2:f9:13:6e:d8:b0:2a:07:7f:af:6a:07:
         68:2e:33:35:84:48:5b:38:47:91:18:fa:8a:90:a4:f4:b9:e5:
         b8:83:98:7f:ad:a7:ef:66:aa:0b:64:f3:18:dc:1e:17:ee:00:
         c0:03:70:da:0e:d8:81:ca:2a:04:9d:67:8c:4f:38:57:14:a8:
         6e:2c:a6:cf:c2:00:19:cd:ec:61:2f:98:b4:0a:bc:31:6d:5e:
         13:ba:b5:33:84:11:32:8c:ac:23:39:b0:55:b5:79:0d:33:a4:
         ab:a1:b3:63:ce:fd:27:a5:4c:69:28:c7:95:db:c6:45:56:80:
         32:b6:bc:83:54:1b:29:3e:fb:78:0c:c3:3c:a3:5f:1d:41:f1:
         d4:ef:6a:61:37:70:9c:dd:9d:e9:e2:22:c4:98:18:16:6d:cf:
         7b:ce:78:1c:25:9c:23:60:2d:9a:f7:da:f5:7f:92:43:22:4e:
         15:81:72:bc:f6:dc:85:76:c9:69:a6:a2:2e:33:44:b1:8c:96:
         5a:83:14:57:1b:64:c7:34:43:4d:07:48:8a:3c:0a:fa:2d:a8:
         ae:ac:de:fe:bc:e3:d4:3c:95:06:3e:fe:b6:e2:e7:55:c3:d8:
         03:3b:4a:38:5f:23:5f:ea:2e:6b:bd:f9:9a:83:d3:35:f9:26:
         02:ac:67:19:7c:a1:b2:62:d1:c8:bb:ca:f5:ef:61:20:37:c4:
         5a:9e:b6:21:bd:ca:d9:c4:30:c6:27:35:35:2a:e4:05:9a:9b:
         18:98:b6:41:76:5c:67:a2:c2:3b:8e:1f:4e:9f:81:7b:74:04:
         40:2b:3d:96:02:6e:20:67:a1:2e:f9:71:78:ce:49:53:13:6c:
         15:f5:25:ce:dd:12:8b:c2:60:84:ac:d8:ea:a2:35:cb:71:96:
         d9:46:1b:1e:6e:5a:e9:af:cf:db:6e:47:0f:81:6a:15:11:0a:
         96:74:08:72:5d:02:12:d3:3a:76:39:e5:e8:dd:36:8c:27:dc:
         2f:4f:df:d1:3b:70:5f:eb:12:33:58:85:35:fa:bb:8e:02:ce:
         f8:91:a2:74:a5:88:40:1f:ee:09:b8:39:fb:9c:aa:b1:32:5c:
         8e:25:cf:64:be:cd:d2:26:b6:45:61:f2:ef:04:0a:6d:b8:b7:
         11:ad:5b:97:85:43:c9:ec:6a:ee:9f:6c:a5:cf:4d:0c:3e:ef:
         37:c4:1d:14:85:91:5f:77:c6:ca:40:91:6f:92:a6:b7:b1:88:
         a9:8f:5d:72:99:0f:24:21
-----BEGIN CERTIFICATE-----
MIIFuTCCA6GgAwIBAgIUWsg+uANRjgF94HylWYuTyHXzex0wDQYJKoZIhvcNAQEL
BQAwfjELMAkGA1UEBhMCQ0gxEDAOBgNVBAgTB1RodXJnYXUxEDAOBgNVBAcTB0tl
Zmlrb24xEzARBgNVBAoTCmd1ZW5nZWwuY2gxEDAOBgNVBAMTB0NBIDIwMjIxJDAi
BgkqhkiG9w0BCQEWFXBvc3RtYXN0ZXJAZ3VlbmdlbC5jaDAeFw0yMzAyMjgwNjQx
MjJaFw0yNDA0MDMwNjQxMjJaMHsxCzAJBgNVBAYTAkNIMRAwDgYDVQQIEwdUaHVy
Z2F1MRMwEQYDVQQKEwpndWVuZ2VsLmNoMR8wHQYDVQQDExZoYXJ2ZXN0ZXIua3J1
ZW1lbC5ob21lMSQwIgYJKoZIhvcNAQkBFhVwb3N0bWFzdGVyQGd1ZW5nZWwuY2gw
ggEiMA0GCSqGSIb3DQEBAQUAA4IBDwAwggEKAoIBAQC8CiCWB53BnRj/cCUO6xsu
6BNd5kWbdYnrIpwr6ji0qp3cOzGXkqLu47GDcfzV84Teykf3JdGa8h6GqlwH7ZN0
m31N7ruw2rSnfEtimYJUpYMQ0tAnoWi/gZtQ5KfnfYm8cUp0htXw85KLY1wxzh9e
vvyX3fFU/UOQdrp/zfo0alO2sCgqfE+PbOcKQPSLcocsW8xI3nCnQNI77sB9Wtdg
G0YAVSYMc2Sq/MhmDHPoP7PkZssw1zcc2gb+GsTNjUw5zrn4vmV9PBVUxiknzLxG
DYCv5i7LFPS+hH2TirzD0kTVPEQtKVtygo0iA6mv3RsiRNr1iC5eoc4WPLo4euvN
AgMBAAGjggEwMIIBLDAMBgNVHRMBAf8EAjAAMAsGA1UdDwQEAwIDqDAdBgNVHQ4E
FgQUjf9DTJCpJHh8nZ4ATSE0lUqyFLIwgb0GA1UdIwSBtTCBsoAUIiANUUBhQr7d
utnJwXe2kyjDmeyhgYOkgYAwfjELMAkGA1UEBhMCQ0gxEDAOBgNVBAgTB1RodXJn
YXUxEDAOBgNVBAcTB0tlZmlrb24xEzARBgNVBAoTCmd1ZW5nZWwuY2gxEDAOBgNV
BAMTB0NBIDIwMjIxJDAiBgkqhkiG9w0BCQEWFXBvc3RtYXN0ZXJAZ3VlbmdlbC5j
aIIUbSmQVOkX6cJq5lKthE4wjm5X+xwwEQYJYIZIAYb4QgEBBAQDAgbAMB0GA1Ud
JQQWMBQGCCsGAQUFBwMBBggrBgEFBQcDAjANBgkqhkiG9w0BAQsFAAOCAgEALQc7
7A5XWo4V2R749GdSIQopoBykbhe31v5kVLeMvHQu9gP2kI92yoIk8vkTbtiwKgd/
r2oHaC4zNYRIWzhHkRj6ipCk9LnluIOYf62n72aqC2TzGNweF+4AwANw2g7Ygcoq
BJ1njE84VxSobiymz8IAGc3sYS+YtAq8MW1eE7q1M4QRMoysIzmwVbV5DTOkq6Gz
Y879J6VMaSjHldvGRVaAMra8g1QbKT77eAzDPKNfHUHx1O9qYTdwnN2d6eIixJgY
Fm3Pe854HCWcI2Atmvfa9X+SQyJOFYFyvPbchXbJaaaiLjNEsYyWWoMUVxtkxzRD
TQdIijwK+i2orqze/rzj1DyVBj7+tuLnVcPYAztKOF8jX+oua735moPTNfkmAqxn
GXyhsmLRyLvK9e9hIDfEWp62Ib3K2cQwxic1NSrkBZqbGJi2QXZcZ6LCO44fTp+B
e3QEQCs9lgJuIGehLvlxeM5JUxNsFfUlzt0Si8JghKzY6qI1y3GW2UYbHm5a6a/P
225HD4FqFREKlnQIcl0CEtM6djnl6N02jCfcL0/f0TtwX+sSM1iFNfq7jgLO+JGi
dKWIQB/uCbg5+5yqsTJcjiXPZL7N0ia2RWHy7wQKbbi3Ea1bl4VDyexq7p9spc9N
DD7vN8QdFIWRX3fGykCRb5Kmt7GIqY9dcpkPJCE=
-----END CERTIFICATE-----
