Certificate:
    Data:
        Version: 3 (0x2)
        Serial Number: 341 (0x155)
    Signature Algorithm: sha256WithRSAEncryption
        Issuer: C=CH, ST=Thurgau, L=Kefikon, O=guengel.ch, CN=CA guengel.ch/emailAddress=postmaster@guengel.ch
        Validity
            Not Before: Dec 29 14:39:59 2018 GMT
            Not After : Feb  2 14:39:59 2020 GMT
        Subject: C=CH, ST=Thurgau, O=guengel.ch, CN=ion.virtual.kruemel.home/emailAddress=postmaster@guengel.ch
        Subject Public Key Info:
            Public Key Algorithm: rsaEncryption
                Public-Key: (2048 bit)
                Modulus:
                    00:bb:67:b4:46:6c:9e:81:a5:cf:1e:e9:2e:8e:4d:
                    2c:e0:8e:d3:fe:46:b9:0f:d1:ed:52:a3:94:97:03:
                    70:2e:82:9f:8d:83:75:01:73:e4:20:10:73:b3:8d:
                    a7:f9:b0:89:f3:62:a8:10:c2:6b:89:20:e5:5c:c4:
                    22:1a:57:31:1c:9a:0a:d0:16:c6:58:24:dd:c9:44:
                    6b:c7:9a:d6:18:65:d1:94:1b:ad:7f:da:44:55:e9:
                    45:ed:3f:e7:41:d4:2e:f6:c8:37:40:25:b4:9d:db:
                    b4:9f:ba:55:c6:3e:cc:47:27:49:c7:a3:6a:04:65:
                    71:0a:03:1e:93:ae:75:fd:7e:a5:ae:d4:fd:66:14:
                    96:0c:3b:ce:11:7d:9f:93:73:ef:ae:f1:c1:5e:f5:
                    5b:c4:df:9b:52:9e:c3:4d:a4:58:28:3f:e8:1f:a5:
                    e2:8c:11:ac:de:76:94:e1:f4:8a:9c:9e:ee:62:2b:
                    f4:02:6c:13:6b:d0:b1:25:1c:94:23:d9:0d:66:e9:
                    05:1f:f9:93:bd:83:80:8d:2e:df:e5:0a:e9:c1:b9:
                    07:3f:cb:e9:ff:09:fa:1c:12:41:2a:97:84:ad:6a:
                    6b:cc:d5:95:f4:87:c1:06:92:9c:6f:19:ea:99:f8:
                    11:87:58:f1:fc:78:0b:eb:6a:0e:bf:a2:aa:74:a0:
                    4c:d9
                Exponent: 65537 (0x10001)
        X509v3 extensions:
            X509v3 Basic Constraints: 
                CA:FALSE
            Netscape Comment: 
                OpenSSL Generated Certificate
            X509v3 Subject Key Identifier: 
                95:CE:60:28:5F:D1:47:88:EF:C2:E9:E8:38:42:82:42:82:9C:0E:47
            X509v3 Authority Key Identifier: 
                keyid:D6:88:F1:AA:C1:2B:09:8C:B8:5C:9D:CE:DF:57:39:62:26:10:20:90
                DirName:/C=CH/ST=Thurgau/L=Kefikon/O=guengel.ch/CN=CA guengel.ch/emailAddress=postmaster@guengel.ch
                serial:E5:25:3B:A6:77:BD:CB:FF

    Signature Algorithm: sha256WithRSAEncryption
         b7:ed:90:32:d3:d4:b1:61:9a:53:35:f8:23:d6:a9:6e:a8:c2:
         42:4a:42:37:29:49:2f:74:5a:4c:81:fa:60:fa:7c:bc:e8:51:
         5b:42:a0:cd:76:17:cc:f0:66:2b:1e:04:38:9d:56:b6:24:09:
         c9:e1:76:5c:9d:6d:66:8f:fa:5f:56:a8:41:63:02:dd:29:cc:
         5f:64:d9:71:f2:32:ff:fb:2a:d9:9a:85:64:80:51:36:75:38:
         8f:3f:57:ec:0a:6b:8a:f0:24:37:ff:05:1b:2d:30:07:dd:dd:
         a1:db:45:59:18:8c:b0:59:64:fc:f9:31:a3:b5:ea:79:25:1b:
         66:71:80:ed:03:e9:dc:85:49:50:20:99:3e:53:cf:96:73:38:
         b9:80:35:f9:ce:0b:5b:6c:63:bb:db:c0:af:23:ea:86:98:2f:
         78:5f:be:82:49:62:53:06:29:f8:9e:e3:f7:2d:3e:95:89:2a:
         d8:82:e1:3f:e2:ae:e4:02:8b:0a:22:4e:8d:b8:2d:63:7d:0d:
         74:79:bb:8c:79:c3:8a:49:b2:ad:4c:48:b7:0b:f1:4e:2c:6d:
         fd:de:95:6c:e5:4f:26:ff:c2:73:50:ba:3c:1a:d3:61:59:df:
         f2:ee:46:2d:95:6f:a0:69:12:3d:b9:0e:1c:6d:9c:b5:1c:1c:
         23:42:1b:ed:45:18:b4:fb:0f:67:a1:f3:37:6f:ec:a1:a3:6b:
         b2:04:3c:62:ed:40:bb:c2:e5:cb:b9:4c:2c:f2:d6:e0:56:90:
         a7:4d:28:87:67:6f:61:b5:ad:7d:12:5e:bd:58:5d:39:5f:4d:
         3c:de:d0:6e:f6:9e:e3:31:c6:d7:e3:08:7f:a8:2f:cd:3f:32:
         df:63:b2:47:3a:25:aa:78:1d:78:4f:07:9e:09:c6:91:94:d8:
         60:b8:03:f3:b6:27:c5:94:17:6d:7b:a7:c8:6c:63:8f:07:a8:
         65:f0:90:bd:41:e0:20:76:fe:a4:36:b4:81:90:40:8e:50:55:
         06:14:32:ce:d7:9a:60:c2:d0:e7:35:36:22:e1:7f:87:4a:92:
         19:33:b5:de:88:c5:2f:56:08:c1:f0:80:a8:4d:ad:2b:20:8b:
         23:63:20:7f:9d:cd:79:19:2c:27:16:7e:1c:32:5b:51:e4:99:
         79:e9:76:7f:98:44:fa:b2:a0:27:85:e9:3e:25:b7:31:a9:50:
         5a:2c:c0:21:fd:54:e1:ce:cc:ae:15:e5:48:1d:f7:72:f0:76:
         a6:ec:16:f5:ab:6d:05:22:3d:63:a1:4c:43:e0:86:91:5e:7c:
         3a:89:39:9a:d0:ec:c3:de:0a:32:fa:7e:a3:f0:4b:b6:61:14:
         1b:6d:2a:45:cf:c4:c8:f3
-----BEGIN CERTIFICATE-----
MIIFmDCCA4CgAwIBAgICAVUwDQYJKoZIhvcNAQELBQAwgYQxCzAJBgNVBAYTAkNI
MRAwDgYDVQQIEwdUaHVyZ2F1MRAwDgYDVQQHEwdLZWZpa29uMRMwEQYDVQQKEwpn
dWVuZ2VsLmNoMRYwFAYDVQQDEw1DQSBndWVuZ2VsLmNoMSQwIgYJKoZIhvcNAQkB
FhVwb3N0bWFzdGVyQGd1ZW5nZWwuY2gwHhcNMTgxMjI5MTQzOTU5WhcNMjAwMjAy
MTQzOTU5WjB9MQswCQYDVQQGEwJDSDEQMA4GA1UECBMHVGh1cmdhdTETMBEGA1UE
ChMKZ3VlbmdlbC5jaDEhMB8GA1UEAxMYaW9uLnZpcnR1YWwua3J1ZW1lbC5ob21l
MSQwIgYJKoZIhvcNAQkBFhVwb3N0bWFzdGVyQGd1ZW5nZWwuY2gwggEiMA0GCSqG
SIb3DQEBAQUAA4IBDwAwggEKAoIBAQC7Z7RGbJ6Bpc8e6S6OTSzgjtP+RrkP0e1S
o5SXA3Augp+Ng3UBc+QgEHOzjaf5sInzYqgQwmuJIOVcxCIaVzEcmgrQFsZYJN3J
RGvHmtYYZdGUG61/2kRV6UXtP+dB1C72yDdAJbSd27SfulXGPsxHJ0nHo2oEZXEK
Ax6TrnX9fqWu1P1mFJYMO84RfZ+Tc++u8cFe9VvE35tSnsNNpFgoP+gfpeKMEaze
dpTh9Iqcnu5iK/QCbBNr0LElHJQj2Q1m6QUf+ZO9g4CNLt/lCunBuQc/y+n/Cfoc
EkEql4StamvM1ZX0h8EGkpxvGeqZ+BGHWPH8eAvrag6/oqp0oEzZAgMBAAGjggEY
MIIBFDAJBgNVHRMEAjAAMCwGCWCGSAGG+EIBDQQfFh1PcGVuU1NMIEdlbmVyYXRl
ZCBDZXJ0aWZpY2F0ZTAdBgNVHQ4EFgQUlc5gKF/RR4jvwunoOEKCQoKcDkcwgbkG
A1UdIwSBsTCBroAU1ojxqsErCYy4XJ3O31c5YiYQIJChgYqkgYcwgYQxCzAJBgNV
BAYTAkNIMRAwDgYDVQQIEwdUaHVyZ2F1MRAwDgYDVQQHEwdLZWZpa29uMRMwEQYD
VQQKEwpndWVuZ2VsLmNoMRYwFAYDVQQDEw1DQSBndWVuZ2VsLmNoMSQwIgYJKoZI
hvcNAQkBFhVwb3N0bWFzdGVyQGd1ZW5nZWwuY2iCCQDlJTumd73L/zANBgkqhkiG
9w0BAQsFAAOCAgEAt+2QMtPUsWGaUzX4I9apbqjCQkpCNylJL3RaTIH6YPp8vOhR
W0KgzXYXzPBmKx4EOJ1WtiQJyeF2XJ1tZo/6X1aoQWMC3SnMX2TZcfIy//sq2ZqF
ZIBRNnU4jz9X7AprivAkN/8FGy0wB93dodtFWRiMsFlk/Pkxo7XqeSUbZnGA7QPp
3IVJUCCZPlPPlnM4uYA1+c4LW2xju9vAryPqhpgveF++gkliUwYp+J7j9y0+lYkq
2ILhP+Ku5AKLCiJOjbgtY30NdHm7jHnDikmyrUxItwvxTixt/d6VbOVPJv/Cc1C6
PBrTYVnf8u5GLZVvoGkSPbkOHG2ctRwcI0Ib7UUYtPsPZ6HzN2/soaNrsgQ8Yu1A
u8Lly7lMLPLW4FaQp00oh2dvYbWtfRJevVhdOV9NPN7Qbvae4zHG1+MIf6gvzT8y
32OyRzolqngdeE8HngnGkZTYYLgD87YnxZQXbXunyGxjjweoZfCQvUHgIHb+pDa0
gZBAjlBVBhQyzteaYMLQ5zU2IuF/h0qSGTO13ojFL1YIwfCAqE2tKyCLI2Mgf53N
eRksJxZ+HDJbUeSZeel2f5hE+rKgJ4XpPiW3MalQWizAIf1U4c7MrhXlSB33cvB2
puwW9attBSI9Y6FMQ+CGkV58Ook5mtDsw94KMvp+o/BLtmEUG20qRc/EyPM=
-----END CERTIFICATE-----
