Certificate:
    Data:
        Version: 3 (0x2)
        Serial Number: 303 (0x12f)
    Signature Algorithm: sha256WithRSAEncryption
        Issuer: C=CH, ST=Thurgau, L=Kefikon, O=guengel.ch, CN=CA guengel.ch/emailAddress=postmaster@guengel.ch
        Validity
            Not Before: Jan  6 18:02:57 2018 GMT
            Not After : Feb 10 18:02:57 2019 GMT
        Subject: C=CH, ST=Thurgau, O=guengel.ch, CN=ion.virtual.kruemel.home/emailAddress=postmaster@guengel.ch
        Subject Public Key Info:
            Public Key Algorithm: rsaEncryption
                Public-Key: (2048 bit)
                Modulus:
                    00:bb:67:b4:46:6c:9e:81:a5:cf:1e:e9:2e:8e:4d:
                    2c:e0:8e:d3:fe:46:b9:0f:d1:ed:52:a3:94:97:03:
                    70:2e:82:9f:8d:83:75:01:73:e4:20:10:73:b3:8d:
                    a7:f9:b0:89:f3:62:a8:10:c2:6b:89:20:e5:5c:c4:
                    22:1a:57:31:1c:9a:0a:d0:16:c6:58:24:dd:c9:44:
                    6b:c7:9a:d6:18:65:d1:94:1b:ad:7f:da:44:55:e9:
                    45:ed:3f:e7:41:d4:2e:f6:c8:37:40:25:b4:9d:db:
                    b4:9f:ba:55:c6:3e:cc:47:27:49:c7:a3:6a:04:65:
                    71:0a:03:1e:93:ae:75:fd:7e:a5:ae:d4:fd:66:14:
                    96:0c:3b:ce:11:7d:9f:93:73:ef:ae:f1:c1:5e:f5:
                    5b:c4:df:9b:52:9e:c3:4d:a4:58:28:3f:e8:1f:a5:
                    e2:8c:11:ac:de:76:94:e1:f4:8a:9c:9e:ee:62:2b:
                    f4:02:6c:13:6b:d0:b1:25:1c:94:23:d9:0d:66:e9:
                    05:1f:f9:93:bd:83:80:8d:2e:df:e5:0a:e9:c1:b9:
                    07:3f:cb:e9:ff:09:fa:1c:12:41:2a:97:84:ad:6a:
                    6b:cc:d5:95:f4:87:c1:06:92:9c:6f:19:ea:99:f8:
                    11:87:58:f1:fc:78:0b:eb:6a:0e:bf:a2:aa:74:a0:
                    4c:d9
                Exponent: 65537 (0x10001)
        X509v3 extensions:
            X509v3 Basic Constraints: 
                CA:FALSE
            Netscape Comment: 
                OpenSSL Generated Certificate
            X509v3 Subject Key Identifier: 
                95:CE:60:28:5F:D1:47:88:EF:C2:E9:E8:38:42:82:42:82:9C:0E:47
            X509v3 Authority Key Identifier: 
                keyid:D6:88:F1:AA:C1:2B:09:8C:B8:5C:9D:CE:DF:57:39:62:26:10:20:90
                DirName:/C=CH/ST=Thurgau/L=Kefikon/O=guengel.ch/CN=CA guengel.ch/emailAddress=postmaster@guengel.ch
                serial:E5:25:3B:A6:77:BD:CB:FF

    Signature Algorithm: sha256WithRSAEncryption
         83:70:4e:85:7a:18:be:a3:d8:aa:32:7a:9a:87:17:4f:d5:70:
         7d:33:e9:5b:c5:43:32:9f:62:97:75:2b:9f:8f:64:fa:22:ae:
         f2:2c:9a:57:14:33:bd:1d:ce:5d:83:ec:98:f2:a8:b1:c4:c6:
         ee:7a:00:69:bc:88:e9:71:88:9f:82:de:fd:80:c1:c6:61:cc:
         d2:c2:ad:f0:6f:c9:bb:24:69:dc:54:f6:7d:ac:fc:3c:85:ad:
         11:dc:30:95:6e:24:c0:69:43:27:22:ed:ad:66:8b:70:45:10:
         bd:b6:96:23:00:90:a2:b9:16:55:f5:e7:7e:22:5b:fa:32:8d:
         ef:4b:a2:f6:1e:1e:cd:dc:75:0e:a2:90:1e:45:f4:4d:2d:0f:
         3d:fa:6a:4d:36:cd:b9:69:e7:86:a3:e7:1b:e1:4b:76:57:40:
         4b:17:73:a4:61:1d:e6:36:bb:63:b3:08:da:84:ff:86:8a:f1:
         fe:27:f3:e4:c5:4e:27:66:03:6e:68:62:3b:07:75:84:0f:21:
         5d:ae:57:ad:c4:16:fc:13:a0:e8:b4:a5:0f:1c:46:04:0f:ee:
         ef:0b:3d:47:e0:4d:fc:54:37:e2:94:34:fb:29:4c:4c:8f:85:
         26:54:76:d1:9b:aa:bd:21:8f:d4:5f:84:56:f9:25:c3:76:aa:
         14:fc:a6:eb:43:b4:86:d0:70:d9:c3:34:85:9a:b2:45:05:86:
         60:58:9f:86:5f:83:e4:0a:79:e4:db:0a:b2:ee:27:5a:8c:0b:
         44:e9:f1:99:9f:ec:47:d8:75:b3:bf:6c:86:c2:bd:7d:d6:0e:
         75:bc:65:73:92:cd:3d:2b:63:81:ef:8f:32:61:c6:08:dd:e9:
         1d:2e:a6:cd:17:9c:04:ea:2b:f1:e9:64:77:93:ef:94:73:13:
         4f:ed:7e:31:93:57:b0:91:af:f6:66:98:59:40:28:bc:ef:d1:
         05:f2:02:d4:97:55:54:75:b5:84:38:57:d6:5a:c5:f6:3e:08:
         5c:3b:8e:60:6d:dc:09:58:43:1f:37:95:e3:b5:f8:a8:c9:35:
         cd:75:26:90:6d:e2:2d:49:90:94:51:29:b2:94:c5:35:07:9e:
         26:22:08:70:a6:6c:59:e7:f4:31:85:b6:78:7f:98:52:74:9b:
         c9:50:a1:fc:0c:64:fc:5e:4b:e8:dc:c8:25:dd:73:02:d4:ab:
         6c:a0:47:74:96:6e:40:56:93:9d:c7:14:79:d5:4b:6b:f8:10:
         02:07:16:42:3e:b0:3f:5c:5f:ed:d2:19:a4:74:64:0c:bc:08:
         41:7f:3b:69:98:69:0b:a0:fa:68:f2:a7:ec:47:14:bc:92:b6:
         c0:3e:0f:dc:5c:d9:0b:3c
-----BEGIN CERTIFICATE-----
MIIFmDCCA4CgAwIBAgICAS8wDQYJKoZIhvcNAQELBQAwgYQxCzAJBgNVBAYTAkNI
MRAwDgYDVQQIEwdUaHVyZ2F1MRAwDgYDVQQHEwdLZWZpa29uMRMwEQYDVQQKEwpn
dWVuZ2VsLmNoMRYwFAYDVQQDEw1DQSBndWVuZ2VsLmNoMSQwIgYJKoZIhvcNAQkB
FhVwb3N0bWFzdGVyQGd1ZW5nZWwuY2gwHhcNMTgwMTA2MTgwMjU3WhcNMTkwMjEw
MTgwMjU3WjB9MQswCQYDVQQGEwJDSDEQMA4GA1UECBMHVGh1cmdhdTETMBEGA1UE
ChMKZ3VlbmdlbC5jaDEhMB8GA1UEAxMYaW9uLnZpcnR1YWwua3J1ZW1lbC5ob21l
MSQwIgYJKoZIhvcNAQkBFhVwb3N0bWFzdGVyQGd1ZW5nZWwuY2gwggEiMA0GCSqG
SIb3DQEBAQUAA4IBDwAwggEKAoIBAQC7Z7RGbJ6Bpc8e6S6OTSzgjtP+RrkP0e1S
o5SXA3Augp+Ng3UBc+QgEHOzjaf5sInzYqgQwmuJIOVcxCIaVzEcmgrQFsZYJN3J
RGvHmtYYZdGUG61/2kRV6UXtP+dB1C72yDdAJbSd27SfulXGPsxHJ0nHo2oEZXEK
Ax6TrnX9fqWu1P1mFJYMO84RfZ+Tc++u8cFe9VvE35tSnsNNpFgoP+gfpeKMEaze
dpTh9Iqcnu5iK/QCbBNr0LElHJQj2Q1m6QUf+ZO9g4CNLt/lCunBuQc/y+n/Cfoc
EkEql4StamvM1ZX0h8EGkpxvGeqZ+BGHWPH8eAvrag6/oqp0oEzZAgMBAAGjggEY
MIIBFDAJBgNVHRMEAjAAMCwGCWCGSAGG+EIBDQQfFh1PcGVuU1NMIEdlbmVyYXRl
ZCBDZXJ0aWZpY2F0ZTAdBgNVHQ4EFgQUlc5gKF/RR4jvwunoOEKCQoKcDkcwgbkG
A1UdIwSBsTCBroAU1ojxqsErCYy4XJ3O31c5YiYQIJChgYqkgYcwgYQxCzAJBgNV
BAYTAkNIMRAwDgYDVQQIEwdUaHVyZ2F1MRAwDgYDVQQHEwdLZWZpa29uMRMwEQYD
VQQKEwpndWVuZ2VsLmNoMRYwFAYDVQQDEw1DQSBndWVuZ2VsLmNoMSQwIgYJKoZI
hvcNAQkBFhVwb3N0bWFzdGVyQGd1ZW5nZWwuY2iCCQDlJTumd73L/zANBgkqhkiG
9w0BAQsFAAOCAgEAg3BOhXoYvqPYqjJ6mocXT9VwfTPpW8VDMp9il3Urn49k+iKu
8iyaVxQzvR3OXYPsmPKoscTG7noAabyI6XGIn4Le/YDBxmHM0sKt8G/JuyRp3FT2
faz8PIWtEdwwlW4kwGlDJyLtrWaLcEUQvbaWIwCQorkWVfXnfiJb+jKN70ui9h4e
zdx1DqKQHkX0TS0PPfpqTTbNuWnnhqPnG+FLdldASxdzpGEd5ja7Y7MI2oT/horx
/ifz5MVOJ2YDbmhiOwd1hA8hXa5XrcQW/BOg6LSlDxxGBA/u7ws9R+BN/FQ34pQ0
+ylMTI+FJlR20ZuqvSGP1F+EVvklw3aqFPym60O0htBw2cM0hZqyRQWGYFifhl+D
5Ap55NsKsu4nWowLROnxmZ/sR9h1s79shsK9fdYOdbxlc5LNPStjge+PMmHGCN3p
HS6mzRecBOor8elkd5PvlHMTT+1+MZNXsJGv9maYWUAovO/RBfIC1JdVVHW1hDhX
1lrF9j4IXDuOYG3cCVhDHzeV47X4qMk1zXUmkG3iLUmQlFEpspTFNQeeJiIIcKZs
Wef0MYW2eH+YUnSbyVCh/Axk/F5L6NzIJd1zAtSrbKBHdJZuQFaTnccUedVLa/gQ
AgcWQj6wP1xf7dIZpHRkDLwIQX87aZhpC6D6aPKn7EcUvJK2wD4P3FzZCzw=
-----END CERTIFICATE-----
