Certificate:
    Data:
        Version: 3 (0x2)
        Serial Number: 248 (0xf8)
    Signature Algorithm: sha256WithRSAEncryption
        Issuer: C=CH, ST=Thurgau, L=Kefikon, O=guengel.ch, CN=CA guengel.ch/emailAddress=postmaster@guengel.ch
        Validity
            Not Before: Nov 20 09:17:18 2016 GMT
            Not After : Apr  4 09:17:18 2018 GMT
        Subject: C=CH, ST=Thurgau, O=guengel.ch, CN=ion.virtual.kruemel.home/emailAddress=postmaster@guengel.ch
        Subject Public Key Info:
            Public Key Algorithm: rsaEncryption
                Public-Key: (2048 bit)
                Modulus:
                    00:bb:67:b4:46:6c:9e:81:a5:cf:1e:e9:2e:8e:4d:
                    2c:e0:8e:d3:fe:46:b9:0f:d1:ed:52:a3:94:97:03:
                    70:2e:82:9f:8d:83:75:01:73:e4:20:10:73:b3:8d:
                    a7:f9:b0:89:f3:62:a8:10:c2:6b:89:20:e5:5c:c4:
                    22:1a:57:31:1c:9a:0a:d0:16:c6:58:24:dd:c9:44:
                    6b:c7:9a:d6:18:65:d1:94:1b:ad:7f:da:44:55:e9:
                    45:ed:3f:e7:41:d4:2e:f6:c8:37:40:25:b4:9d:db:
                    b4:9f:ba:55:c6:3e:cc:47:27:49:c7:a3:6a:04:65:
                    71:0a:03:1e:93:ae:75:fd:7e:a5:ae:d4:fd:66:14:
                    96:0c:3b:ce:11:7d:9f:93:73:ef:ae:f1:c1:5e:f5:
                    5b:c4:df:9b:52:9e:c3:4d:a4:58:28:3f:e8:1f:a5:
                    e2:8c:11:ac:de:76:94:e1:f4:8a:9c:9e:ee:62:2b:
                    f4:02:6c:13:6b:d0:b1:25:1c:94:23:d9:0d:66:e9:
                    05:1f:f9:93:bd:83:80:8d:2e:df:e5:0a:e9:c1:b9:
                    07:3f:cb:e9:ff:09:fa:1c:12:41:2a:97:84:ad:6a:
                    6b:cc:d5:95:f4:87:c1:06:92:9c:6f:19:ea:99:f8:
                    11:87:58:f1:fc:78:0b:eb:6a:0e:bf:a2:aa:74:a0:
                    4c:d9
                Exponent: 65537 (0x10001)
        X509v3 extensions:
            X509v3 Basic Constraints: 
                CA:FALSE
            Netscape Comment: 
                OpenSSL Generated Certificate
            X509v3 Subject Key Identifier: 
                95:CE:60:28:5F:D1:47:88:EF:C2:E9:E8:38:42:82:42:82:9C:0E:47
            X509v3 Authority Key Identifier: 
                keyid:D6:88:F1:AA:C1:2B:09:8C:B8:5C:9D:CE:DF:57:39:62:26:10:20:90
                DirName:/C=CH/ST=Thurgau/L=Kefikon/O=guengel.ch/CN=CA guengel.ch/emailAddress=postmaster@guengel.ch
                serial:E5:25:3B:A6:77:BD:CB:FF

    Signature Algorithm: sha256WithRSAEncryption
         ba:ae:09:08:77:7e:24:19:f1:f5:b6:fc:72:21:cf:c0:4a:c6:
         77:62:f3:d9:11:3d:69:80:8f:52:ec:88:78:a1:78:79:22:27:
         f5:5d:5a:15:db:1c:05:45:c7:02:7c:1e:77:82:2a:e6:3b:ca:
         b4:2e:07:c6:95:12:7f:32:f7:d0:c8:d2:9f:d4:87:32:11:88:
         fb:a1:15:04:a2:e6:ec:69:ae:32:cf:3c:5a:b5:d5:da:b2:9f:
         ec:53:fb:a9:ce:c2:3f:b9:2a:59:fa:6b:d7:55:1a:ca:75:e1:
         71:d2:c9:4d:db:2a:c2:6c:c7:dc:af:2e:b4:8a:96:e9:6b:db:
         3b:60:bc:e8:2c:98:6c:38:d4:e5:e8:80:5a:b2:1b:47:de:b5:
         e2:74:5f:2a:7a:9d:f2:cb:7c:09:db:4e:a7:09:c1:7d:92:f5:
         e0:80:94:8c:55:7b:bb:0e:24:02:0a:0c:97:4a:26:10:09:97:
         d5:f1:9d:74:a3:8c:8f:e4:21:49:b9:05:ca:43:d3:a2:b5:fe:
         22:9b:4c:f1:e5:8a:c4:2a:b4:dd:99:7a:0d:86:b5:6f:7f:a3:
         37:22:ce:f7:7c:29:e2:86:0a:e9:cf:8c:57:b4:20:98:a1:d4:
         83:34:fa:73:29:4d:87:47:30:57:21:1f:0b:1c:63:86:8c:a3:
         f1:72:78:a5:54:be:ee:0a:5a:e9:e4:db:fb:b3:3b:4f:98:b2:
         8d:19:63:e1:47:34:4b:89:ac:7a:9a:22:35:4b:42:92:99:c8:
         f1:0c:a5:34:e2:f2:ba:cb:4c:b9:94:32:e6:68:cb:0c:0a:42:
         fa:e3:bd:29:d3:44:d1:bf:cd:b5:8d:8c:f0:4c:48:47:9b:ad:
         86:9f:35:e8:b3:22:f4:bc:19:8b:7c:6e:ac:c9:0a:a5:57:21:
         f4:a8:96:06:b3:23:ca:15:d2:31:4c:6f:86:9b:dd:ed:20:da:
         63:30:da:db:31:30:2c:5e:6e:e0:e6:12:59:d0:29:59:07:70:
         4d:7d:7d:37:68:e1:6d:09:28:9c:2c:cb:6f:42:de:70:f0:2d:
         c9:c9:b1:73:21:d9:fd:e3:9f:fc:cd:83:a2:ce:e1:57:9f:0c:
         09:19:a1:dd:29:b2:b8:c9:47:10:c9:30:d4:15:ae:e1:62:ef:
         45:59:a3:e6:15:84:07:f0:46:c3:24:91:14:a2:ce:c8:5b:87:
         ac:0c:17:89:9f:23:ff:9d:d4:30:2f:39:29:5f:96:5f:03:f7:
         bf:63:b4:1b:dc:8d:bf:cd:72:c1:24:1a:0f:3e:71:ab:1b:0a:
         71:a0:77:ad:fe:64:67:fa:03:66:8f:21:75:b0:70:5f:2d:01:
         a1:18:55:da:d6:0e:6c:cc
-----BEGIN CERTIFICATE-----
MIIFmDCCA4CgAwIBAgICAPgwDQYJKoZIhvcNAQELBQAwgYQxCzAJBgNVBAYTAkNI
MRAwDgYDVQQIEwdUaHVyZ2F1MRAwDgYDVQQHEwdLZWZpa29uMRMwEQYDVQQKEwpn
dWVuZ2VsLmNoMRYwFAYDVQQDEw1DQSBndWVuZ2VsLmNoMSQwIgYJKoZIhvcNAQkB
FhVwb3N0bWFzdGVyQGd1ZW5nZWwuY2gwHhcNMTYxMTIwMDkxNzE4WhcNMTgwNDA0
MDkxNzE4WjB9MQswCQYDVQQGEwJDSDEQMA4GA1UECBMHVGh1cmdhdTETMBEGA1UE
ChMKZ3VlbmdlbC5jaDEhMB8GA1UEAxMYaW9uLnZpcnR1YWwua3J1ZW1lbC5ob21l
MSQwIgYJKoZIhvcNAQkBFhVwb3N0bWFzdGVyQGd1ZW5nZWwuY2gwggEiMA0GCSqG
SIb3DQEBAQUAA4IBDwAwggEKAoIBAQC7Z7RGbJ6Bpc8e6S6OTSzgjtP+RrkP0e1S
o5SXA3Augp+Ng3UBc+QgEHOzjaf5sInzYqgQwmuJIOVcxCIaVzEcmgrQFsZYJN3J
RGvHmtYYZdGUG61/2kRV6UXtP+dB1C72yDdAJbSd27SfulXGPsxHJ0nHo2oEZXEK
Ax6TrnX9fqWu1P1mFJYMO84RfZ+Tc++u8cFe9VvE35tSnsNNpFgoP+gfpeKMEaze
dpTh9Iqcnu5iK/QCbBNr0LElHJQj2Q1m6QUf+ZO9g4CNLt/lCunBuQc/y+n/Cfoc
EkEql4StamvM1ZX0h8EGkpxvGeqZ+BGHWPH8eAvrag6/oqp0oEzZAgMBAAGjggEY
MIIBFDAJBgNVHRMEAjAAMCwGCWCGSAGG+EIBDQQfFh1PcGVuU1NMIEdlbmVyYXRl
ZCBDZXJ0aWZpY2F0ZTAdBgNVHQ4EFgQUlc5gKF/RR4jvwunoOEKCQoKcDkcwgbkG
A1UdIwSBsTCBroAU1ojxqsErCYy4XJ3O31c5YiYQIJChgYqkgYcwgYQxCzAJBgNV
BAYTAkNIMRAwDgYDVQQIEwdUaHVyZ2F1MRAwDgYDVQQHEwdLZWZpa29uMRMwEQYD
VQQKEwpndWVuZ2VsLmNoMRYwFAYDVQQDEw1DQSBndWVuZ2VsLmNoMSQwIgYJKoZI
hvcNAQkBFhVwb3N0bWFzdGVyQGd1ZW5nZWwuY2iCCQDlJTumd73L/zANBgkqhkiG
9w0BAQsFAAOCAgEAuq4JCHd+JBnx9bb8ciHPwErGd2Lz2RE9aYCPUuyIeKF4eSIn
9V1aFdscBUXHAnwed4Iq5jvKtC4HxpUSfzL30MjSn9SHMhGI+6EVBKLm7GmuMs88
WrXV2rKf7FP7qc7CP7kqWfpr11UaynXhcdLJTdsqwmzH3K8utIqW6WvbO2C86CyY
bDjU5eiAWrIbR9614nRfKnqd8st8CdtOpwnBfZL14ICUjFV7uw4kAgoMl0omEAmX
1fGddKOMj+QhSbkFykPTorX+IptM8eWKxCq03Zl6DYa1b3+jNyLO93wp4oYK6c+M
V7QgmKHUgzT6cylNh0cwVyEfCxxjhoyj8XJ4pVS+7gpa6eTb+7M7T5iyjRlj4Uc0
S4msepoiNUtCkpnI8QylNOLyustMuZQy5mjLDApC+uO9KdNE0b/NtY2M8ExIR5ut
hp816LMi9LwZi3xurMkKpVch9KiWBrMjyhXSMUxvhpvd7SDaYzDa2zEwLF5u4OYS
WdApWQdwTX19N2jhbQkonCzLb0LecPAtycmxcyHZ/eOf/M2Dos7hV58MCRmh3Smy
uMlHEMkw1BWu4WLvRVmj5hWEB/BGwySRFKLOyFuHrAwXiZ8j/53UMC85KV+WXwP3
v2O0G9yNv81ywSQaDz5xqxsKcaB3rf5kZ/oDZo8hdbBwXy0BoRhV2tYObMw=
-----END CERTIFICATE-----
