Certificate:
    Data:
        Version: 3 (0x2)
        Serial Number: 342 (0x156)
    Signature Algorithm: sha256WithRSAEncryption
        Issuer: C=CH, ST=Thurgau, L=Kefikon, O=guengel.ch, CN=CA guengel.ch/emailAddress=postmaster@guengel.ch
        Validity
            Not Before: Dec 29 14:40:00 2018 GMT
            Not After : Feb  2 14:40:00 2020 GMT
        Subject: C=CH, ST=Thurgau, O=guengel.ch, CN=jenkins.kruemel.home/emailAddress=postmaster@guengel.ch
        Subject Public Key Info:
            Public Key Algorithm: rsaEncryption
                Public-Key: (2048 bit)
                Modulus:
                    00:bc:a8:3b:4f:e0:f1:45:9b:f4:e1:81:af:fa:6b:
                    3a:61:26:e9:ea:76:c4:32:57:a4:1e:b0:9f:f3:1b:
                    1b:c4:ee:dc:ac:66:cc:a0:8f:1f:fa:61:cf:0a:fb:
                    bc:13:3b:54:db:e9:74:ca:40:db:b3:a4:2a:03:c7:
                    c3:2a:3c:24:37:d8:22:91:76:14:4b:b7:c9:c9:68:
                    4e:c7:0c:17:59:82:1c:14:5e:54:b7:d1:82:25:91:
                    44:ea:55:2c:fc:50:92:7a:80:52:36:f3:38:57:19:
                    f5:b3:7c:af:fa:be:1a:54:c5:c9:bc:b6:6b:06:0d:
                    47:69:28:9e:28:3c:8a:a9:1a:8f:a4:73:c1:32:bf:
                    0d:5e:d9:2f:03:8e:4f:d4:17:12:0b:e3:00:42:7a:
                    88:b0:b3:4f:a0:a1:27:e4:77:1d:61:6e:f5:e7:94:
                    42:77:90:f4:24:60:d9:cc:43:18:c1:9d:6f:b2:9f:
                    ba:28:5f:88:86:5d:ea:6c:2b:90:4e:54:ab:ca:07:
                    db:37:eb:16:42:a5:d8:17:7d:31:b2:28:92:c5:a2:
                    eb:a7:4d:6b:ef:ef:e3:83:9e:2f:3d:1d:f9:d3:bb:
                    3b:86:0c:8f:d0:ec:cd:c7:a0:8c:a2:ec:d8:3e:d0:
                    2a:e0:b9:69:2b:3a:a6:6f:d7:3d:01:ca:d1:b5:ab:
                    bc:e9
                Exponent: 65537 (0x10001)
        X509v3 extensions:
            X509v3 Basic Constraints: 
                CA:FALSE
            Netscape Comment: 
                OpenSSL Generated Certificate
            X509v3 Subject Key Identifier: 
                79:B2:2B:A0:A6:1F:F1:E6:B5:E0:88:ED:26:9D:C4:20:A6:47:90:CC
            X509v3 Authority Key Identifier: 
                keyid:D6:88:F1:AA:C1:2B:09:8C:B8:5C:9D:CE:DF:57:39:62:26:10:20:90
                DirName:/C=CH/ST=Thurgau/L=Kefikon/O=guengel.ch/CN=CA guengel.ch/emailAddress=postmaster@guengel.ch
                serial:E5:25:3B:A6:77:BD:CB:FF

    Signature Algorithm: sha256WithRSAEncryption
         d5:22:cd:f4:3f:db:f1:78:fb:b7:c7:54:eb:77:23:c8:6f:ed:
         5c:bf:96:f1:39:00:c9:2b:4a:9f:cc:65:45:bf:a3:f4:88:29:
         6b:9f:24:45:38:60:74:eb:46:97:43:63:12:c3:7c:49:14:11:
         b8:2f:8a:4b:28:2d:31:dc:bb:c6:b6:6e:f9:50:69:fe:ea:23:
         d7:0d:7b:27:8d:04:46:05:77:88:eb:8f:0d:88:61:8b:6a:57:
         00:85:1b:a8:76:75:52:31:cc:81:a7:f7:29:3b:88:3a:4a:07:
         21:2c:a7:90:4e:ec:76:bc:70:ff:0a:42:8f:40:9c:ee:d2:f5:
         90:ce:35:5f:45:b6:be:3d:55:c1:d0:17:ca:39:e2:75:74:47:
         fa:01:41:fd:4e:e4:8d:87:ea:a8:74:bf:9a:50:8e:4c:dc:44:
         3f:8b:23:cd:e4:4e:79:de:66:e6:a5:82:47:e3:03:f8:47:f6:
         ee:00:d6:b1:ce:09:07:d4:9d:64:d7:2d:d5:f8:36:db:7f:56:
         92:1e:f7:73:4c:d1:cf:d2:01:7c:96:09:c4:4d:74:c7:cd:2d:
         96:63:ac:47:18:50:47:86:c2:5c:9f:53:26:c6:30:f5:e7:49:
         29:92:78:f8:88:9c:48:c3:00:2a:e4:47:77:57:93:5f:24:92:
         4f:c4:de:03:2d:99:f9:94:86:1a:1e:8a:0e:93:f2:75:f5:74:
         97:fa:6b:36:c1:e0:ad:ad:a5:92:a1:ba:86:f5:6d:a7:16:62:
         7b:eb:be:0a:97:2b:b3:c3:2c:d5:21:c3:d4:1a:ec:61:2b:3a:
         81:21:57:80:38:51:fb:d1:0e:10:93:17:1b:d8:bc:11:5a:e6:
         91:0b:09:d2:74:69:f7:32:10:cc:b8:86:b7:25:9e:54:1b:4a:
         c9:f3:c1:66:88:69:8e:e7:9e:c0:88:08:92:1e:b2:46:62:48:
         0f:1a:30:35:8b:2d:3d:b3:e1:e0:8d:d0:bb:f5:d0:a0:a1:1f:
         b0:a0:82:f1:0c:32:bf:7d:12:11:8a:35:97:9e:b9:1e:93:3b:
         55:4e:dc:f9:fe:d7:3f:f4:d8:88:97:4e:4f:e3:9d:c1:9f:13:
         b6:7f:0b:02:9a:f2:68:64:cc:5b:6d:72:e6:2e:e3:92:a2:6f:
         cb:12:d8:d2:a6:53:ed:51:ed:74:ac:03:d4:c6:9a:ee:71:37:
         8b:ec:a7:53:69:9f:05:43:67:5d:34:d6:ec:66:35:d1:de:d9:
         fd:ea:01:0e:d2:a4:d6:9e:bf:0d:2d:34:ad:fc:b2:57:76:d4:
         28:34:4c:62:ca:5c:fe:84:9c:d2:77:77:74:6c:6a:5f:e6:d9:
         aa:39:ab:ba:e7:d0:39:1e
-----BEGIN CERTIFICATE-----
MIIFlDCCA3ygAwIBAgICAVYwDQYJKoZIhvcNAQELBQAwgYQxCzAJBgNVBAYTAkNI
MRAwDgYDVQQIEwdUaHVyZ2F1MRAwDgYDVQQHEwdLZWZpa29uMRMwEQYDVQQKEwpn
dWVuZ2VsLmNoMRYwFAYDVQQDEw1DQSBndWVuZ2VsLmNoMSQwIgYJKoZIhvcNAQkB
FhVwb3N0bWFzdGVyQGd1ZW5nZWwuY2gwHhcNMTgxMjI5MTQ0MDAwWhcNMjAwMjAy
MTQ0MDAwWjB5MQswCQYDVQQGEwJDSDEQMA4GA1UECBMHVGh1cmdhdTETMBEGA1UE
ChMKZ3VlbmdlbC5jaDEdMBsGA1UEAxMUamVua2lucy5rcnVlbWVsLmhvbWUxJDAi
BgkqhkiG9w0BCQEWFXBvc3RtYXN0ZXJAZ3VlbmdlbC5jaDCCASIwDQYJKoZIhvcN
AQEBBQADggEPADCCAQoCggEBALyoO0/g8UWb9OGBr/prOmEm6ep2xDJXpB6wn/Mb
G8Tu3KxmzKCPH/phzwr7vBM7VNvpdMpA27OkKgPHwyo8JDfYIpF2FEu3ycloTscM
F1mCHBReVLfRgiWRROpVLPxQknqAUjbzOFcZ9bN8r/q+GlTFyby2awYNR2konig8
iqkaj6RzwTK/DV7ZLwOOT9QXEgvjAEJ6iLCzT6ChJ+R3HWFu9eeUQneQ9CRg2cxD
GMGdb7KfuihfiIZd6mwrkE5Uq8oH2zfrFkKl2Bd9MbIoksWi66dNa+/v44OeLz0d
+dO7O4YMj9DszcegjKLs2D7QKuC5aSs6pm/XPQHK0bWrvOkCAwEAAaOCARgwggEU
MAkGA1UdEwQCMAAwLAYJYIZIAYb4QgENBB8WHU9wZW5TU0wgR2VuZXJhdGVkIENl
cnRpZmljYXRlMB0GA1UdDgQWBBR5siugph/x5rXgiO0mncQgpkeQzDCBuQYDVR0j
BIGxMIGugBTWiPGqwSsJjLhcnc7fVzliJhAgkKGBiqSBhzCBhDELMAkGA1UEBhMC
Q0gxEDAOBgNVBAgTB1RodXJnYXUxEDAOBgNVBAcTB0tlZmlrb24xEzARBgNVBAoT
Cmd1ZW5nZWwuY2gxFjAUBgNVBAMTDUNBIGd1ZW5nZWwuY2gxJDAiBgkqhkiG9w0B
CQEWFXBvc3RtYXN0ZXJAZ3VlbmdlbC5jaIIJAOUlO6Z3vcv/MA0GCSqGSIb3DQEB
CwUAA4ICAQDVIs30P9vxePu3x1TrdyPIb+1cv5bxOQDJK0qfzGVFv6P0iClrnyRF
OGB060aXQ2MSw3xJFBG4L4pLKC0x3LvGtm75UGn+6iPXDXsnjQRGBXeI648NiGGL
alcAhRuodnVSMcyBp/cpO4g6SgchLKeQTux2vHD/CkKPQJzu0vWQzjVfRba+PVXB
0BfKOeJ1dEf6AUH9TuSNh+qodL+aUI5M3EQ/iyPN5E553mbmpYJH4wP4R/buANax
zgkH1J1k1y3V+Dbbf1aSHvdzTNHP0gF8lgnETXTHzS2WY6xHGFBHhsJcn1MmxjD1
50kpknj4iJxIwwAq5Ed3V5NfJJJPxN4DLZn5lIYaHooOk/J19XSX+ms2weCtraWS
obqG9W2nFmJ7674KlyuzwyzVIcPUGuxhKzqBIVeAOFH70Q4Qkxcb2LwRWuaRCwnS
dGn3MhDMuIa3JZ5UG0rJ88FmiGmO557AiAiSHrJGYkgPGjA1iy09s+HgjdC79dCg
oR+woILxDDK/fRIRijWXnrkekztVTtz5/tc/9NiIl05P453BnxO2fwsCmvJoZMxb
bXLmLuOSom/LEtjSplPtUe10rAPUxprucTeL7KdTaZ8FQ2ddNNbsZjXR3tn96gEO
0qTWnr8NLTSt/LJXdtQoNExiylz+hJzSd3d0bGpf5tmqOau659A5Hg==
-----END CERTIFICATE-----
