Certificate:
    Data:
        Version: 3 (0x2)
        Serial Number: 343 (0x157)
    Signature Algorithm: sha256WithRSAEncryption
        Issuer: C=CH, ST=Thurgau, L=Kefikon, O=guengel.ch, CN=CA guengel.ch/emailAddress=postmaster@guengel.ch
        Validity
            Not Before: Dec 29 14:40:00 2018 GMT
            Not After : Feb  2 14:40:00 2020 GMT
        Subject: C=CH, ST=Thurgau, O=guengel.ch, CN=jetfire.kruemel.home/emailAddress=postmaster@guengel.ch
        Subject Public Key Info:
            Public Key Algorithm: rsaEncryption
                Public-Key: (2048 bit)
                Modulus:
                    00:a9:64:e4:3d:c5:44:09:53:91:e5:6b:73:fa:b2:
                    0d:32:11:0f:05:94:e6:6f:ba:d7:86:69:f2:2d:bf:
                    8a:ca:62:ea:99:72:90:db:a9:56:5c:2a:32:1b:65:
                    51:42:41:55:05:6f:73:bf:52:6c:60:de:c3:0c:48:
                    1c:89:56:75:e6:c8:6e:48:2e:b4:c2:1d:75:8d:14:
                    9f:c0:7b:05:14:d3:42:ac:50:85:76:da:01:6c:c9:
                    26:e7:9e:95:4c:8a:14:98:f9:9c:c6:b7:af:1e:a2:
                    26:68:b0:fe:32:fc:77:14:c3:ed:de:2b:37:36:0f:
                    93:f7:4a:15:d7:31:82:0e:1e:dc:5c:57:e0:72:f1:
                    03:62:7d:c9:71:5a:3e:8d:3e:09:5e:60:d6:b2:1e:
                    26:94:c0:71:df:bf:27:b8:f9:1d:56:88:ac:a6:05:
                    24:d8:e2:76:4d:6a:ef:b5:eb:8f:b8:f3:c6:1c:c6:
                    9e:7c:37:21:5b:3f:d5:8e:9e:bf:eb:85:46:ed:42:
                    84:f7:0d:76:41:f8:9a:78:c5:64:a7:dc:03:85:1c:
                    39:eb:f3:21:0d:51:34:70:3a:0b:b7:a8:20:cb:ed:
                    e3:17:81:d5:06:38:95:6c:ac:db:6f:4b:de:6e:b6:
                    ee:22:4a:b8:b9:b6:d9:11:73:13:53:39:04:d2:01:
                    b4:6f
                Exponent: 65537 (0x10001)
        X509v3 extensions:
            X509v3 Basic Constraints: 
                CA:FALSE
            Netscape Comment: 
                OpenSSL Generated Certificate
            X509v3 Subject Key Identifier: 
                F7:29:D4:29:3A:B5:B0:97:A5:E1:39:A0:98:68:93:57:43:FC:45:2C
            X509v3 Authority Key Identifier: 
                keyid:D6:88:F1:AA:C1:2B:09:8C:B8:5C:9D:CE:DF:57:39:62:26:10:20:90
                DirName:/C=CH/ST=Thurgau/L=Kefikon/O=guengel.ch/CN=CA guengel.ch/emailAddress=postmaster@guengel.ch
                serial:E5:25:3B:A6:77:BD:CB:FF

    Signature Algorithm: sha256WithRSAEncryption
         73:fc:85:0b:b7:59:2d:46:c6:44:72:26:ed:a1:1e:9d:86:6e:
         f7:b7:8b:71:5e:72:35:ee:bf:d5:60:cc:fd:48:8a:42:47:12:
         b0:9b:2d:88:ad:67:86:d6:f5:76:10:08:df:90:55:89:e4:e1:
         d2:c6:e1:1d:5a:e8:ba:0b:ca:0f:60:47:5c:23:8d:cb:8b:5f:
         16:47:af:7c:78:df:8b:f7:58:7f:07:d7:9f:98:c0:b1:30:32:
         ff:21:07:fb:96:86:7f:40:f3:b4:33:1a:23:1c:81:54:4e:cf:
         11:4c:07:19:ce:03:2d:5d:46:74:b9:f5:30:4c:7b:94:a6:2d:
         4d:6e:25:40:95:b6:30:91:5d:1d:40:30:bc:cf:b1:18:59:4d:
         95:07:7b:19:93:1f:21:7e:7c:2c:e7:90:f9:39:34:85:14:5b:
         e5:14:ae:49:86:0a:8a:c8:5a:dd:99:94:d6:6c:76:82:e6:b7:
         d2:dd:e2:59:59:38:fc:61:a9:de:4e:95:92:24:2c:07:e9:42:
         fa:4a:91:76:8f:de:9d:03:0d:d3:44:30:06:a4:21:60:dc:85:
         3d:1f:3c:43:d9:1f:6e:91:7b:cb:91:bf:04:0f:f8:d1:c9:f4:
         c7:48:82:35:da:34:e2:54:7a:c1:9f:80:3e:2e:bf:19:d4:68:
         66:9f:06:97:19:11:c8:75:d1:3e:61:b2:e9:f7:01:ac:a8:c9:
         54:39:b4:3c:0d:ba:f7:ad:e4:b7:5c:1e:cd:0c:69:ef:dc:a4:
         5e:f2:54:23:d6:20:6f:91:7b:75:22:72:e9:4b:b6:dd:7e:70:
         df:84:33:81:bc:fb:8b:d7:2d:55:f6:77:4f:30:3f:f5:ef:fa:
         66:d6:06:ff:57:cb:d9:39:3e:9c:14:26:98:e9:68:7e:25:e4:
         4c:eb:3c:b3:06:8e:94:c7:55:86:2a:12:8a:aa:fb:65:68:e3:
         35:8b:9d:0b:0a:0f:6f:74:d7:dc:3b:e6:a7:d2:e5:32:c6:7d:
         a7:79:66:76:67:c2:cc:d5:99:ee:66:f0:25:43:4d:88:b4:7c:
         16:84:43:32:8c:e9:91:a8:8c:f8:59:e4:ec:07:f9:6a:15:fd:
         5e:ef:11:72:62:60:94:94:29:9f:3a:12:bf:47:38:ab:00:2b:
         b9:f5:5d:63:54:fa:65:3d:12:dc:87:bd:d3:c2:ab:35:27:62:
         67:61:ee:7a:be:5d:bd:b3:72:83:88:ce:4b:0f:5c:02:0f:28:
         60:27:07:05:d8:f3:69:c7:35:34:ae:65:d2:6d:ff:1a:3a:bd:
         df:a2:54:f2:89:e5:7f:1f:08:95:d1:6d:30:c2:a5:6b:5f:f7:
         d8:2f:af:57:76:ef:5a:e1
-----BEGIN CERTIFICATE-----
MIIFlDCCA3ygAwIBAgICAVcwDQYJKoZIhvcNAQELBQAwgYQxCzAJBgNVBAYTAkNI
MRAwDgYDVQQIEwdUaHVyZ2F1MRAwDgYDVQQHEwdLZWZpa29uMRMwEQYDVQQKEwpn
dWVuZ2VsLmNoMRYwFAYDVQQDEw1DQSBndWVuZ2VsLmNoMSQwIgYJKoZIhvcNAQkB
FhVwb3N0bWFzdGVyQGd1ZW5nZWwuY2gwHhcNMTgxMjI5MTQ0MDAwWhcNMjAwMjAy
MTQ0MDAwWjB5MQswCQYDVQQGEwJDSDEQMA4GA1UECBMHVGh1cmdhdTETMBEGA1UE
ChMKZ3VlbmdlbC5jaDEdMBsGA1UEAxMUamV0ZmlyZS5rcnVlbWVsLmhvbWUxJDAi
BgkqhkiG9w0BCQEWFXBvc3RtYXN0ZXJAZ3VlbmdlbC5jaDCCASIwDQYJKoZIhvcN
AQEBBQADggEPADCCAQoCggEBAKlk5D3FRAlTkeVrc/qyDTIRDwWU5m+614Zp8i2/
ispi6plykNupVlwqMhtlUUJBVQVvc79SbGDewwxIHIlWdebIbkgutMIddY0Un8B7
BRTTQqxQhXbaAWzJJueelUyKFJj5nMa3rx6iJmiw/jL8dxTD7d4rNzYPk/dKFdcx
gg4e3FxX4HLxA2J9yXFaPo0+CV5g1rIeJpTAcd+/J7j5HVaIrKYFJNjidk1q77Xr
j7jzxhzGnnw3IVs/1Y6ev+uFRu1ChPcNdkH4mnjFZKfcA4UcOevzIQ1RNHA6C7eo
IMvt4xeB1QY4lWys229L3m627iJKuLm22RFzE1M5BNIBtG8CAwEAAaOCARgwggEU
MAkGA1UdEwQCMAAwLAYJYIZIAYb4QgENBB8WHU9wZW5TU0wgR2VuZXJhdGVkIENl
cnRpZmljYXRlMB0GA1UdDgQWBBT3KdQpOrWwl6XhOaCYaJNXQ/xFLDCBuQYDVR0j
BIGxMIGugBTWiPGqwSsJjLhcnc7fVzliJhAgkKGBiqSBhzCBhDELMAkGA1UEBhMC
Q0gxEDAOBgNVBAgTB1RodXJnYXUxEDAOBgNVBAcTB0tlZmlrb24xEzARBgNVBAoT
Cmd1ZW5nZWwuY2gxFjAUBgNVBAMTDUNBIGd1ZW5nZWwuY2gxJDAiBgkqhkiG9w0B
CQEWFXBvc3RtYXN0ZXJAZ3VlbmdlbC5jaIIJAOUlO6Z3vcv/MA0GCSqGSIb3DQEB
CwUAA4ICAQBz/IULt1ktRsZEcibtoR6dhm73t4txXnI17r/VYMz9SIpCRxKwmy2I
rWeG1vV2EAjfkFWJ5OHSxuEdWui6C8oPYEdcI43Li18WR698eN+L91h/B9efmMCx
MDL/IQf7loZ/QPO0MxojHIFUTs8RTAcZzgMtXUZ0ufUwTHuUpi1NbiVAlbYwkV0d
QDC8z7EYWU2VB3sZkx8hfnws55D5OTSFFFvlFK5JhgqKyFrdmZTWbHaC5rfS3eJZ
WTj8YaneTpWSJCwH6UL6SpF2j96dAw3TRDAGpCFg3IU9HzxD2R9ukXvLkb8ED/jR
yfTHSII12jTiVHrBn4A+Lr8Z1GhmnwaXGRHIddE+YbLp9wGsqMlUObQ8Dbr3reS3
XB7NDGnv3KRe8lQj1iBvkXt1InLpS7bdfnDfhDOBvPuL1y1V9ndPMD/17/pm1gb/
V8vZOT6cFCaY6Wh+JeRM6zyzBo6Ux1WGKhKKqvtlaOM1i50LCg9vdNfcO+an0uUy
xn2neWZ2Z8LM1ZnuZvAlQ02ItHwWhEMyjOmRqIz4WeTsB/lqFf1e7xFyYmCUlCmf
OhK/RzirACu59V1jVPplPRLch73Twqs1J2JnYe56vl29s3KDiM5LD1wCDyhgJwcF
2PNpxzU0rmXSbf8aOr3folTyieV/HwiV0W0wwqVrX/fYL69Xdu9a4Q==
-----END CERTIFICATE-----
