Certificate:
    Data:
        Version: 3 (0x2)
        Serial Number: 304 (0x130)
    Signature Algorithm: sha256WithRSAEncryption
        Issuer: C=CH, ST=Thurgau, L=Kefikon, O=guengel.ch, CN=CA guengel.ch/emailAddress=postmaster@guengel.ch
        Validity
            Not Before: Jan  6 18:02:57 2018 GMT
            Not After : Feb 10 18:02:57 2019 GMT
        Subject: C=CH, ST=Thurgau, O=guengel.ch, CN=jetfire.kruemel.home/emailAddress=postmaster@guengel.ch
        Subject Public Key Info:
            Public Key Algorithm: rsaEncryption
                Public-Key: (2048 bit)
                Modulus:
                    00:a9:64:e4:3d:c5:44:09:53:91:e5:6b:73:fa:b2:
                    0d:32:11:0f:05:94:e6:6f:ba:d7:86:69:f2:2d:bf:
                    8a:ca:62:ea:99:72:90:db:a9:56:5c:2a:32:1b:65:
                    51:42:41:55:05:6f:73:bf:52:6c:60:de:c3:0c:48:
                    1c:89:56:75:e6:c8:6e:48:2e:b4:c2:1d:75:8d:14:
                    9f:c0:7b:05:14:d3:42:ac:50:85:76:da:01:6c:c9:
                    26:e7:9e:95:4c:8a:14:98:f9:9c:c6:b7:af:1e:a2:
                    26:68:b0:fe:32:fc:77:14:c3:ed:de:2b:37:36:0f:
                    93:f7:4a:15:d7:31:82:0e:1e:dc:5c:57:e0:72:f1:
                    03:62:7d:c9:71:5a:3e:8d:3e:09:5e:60:d6:b2:1e:
                    26:94:c0:71:df:bf:27:b8:f9:1d:56:88:ac:a6:05:
                    24:d8:e2:76:4d:6a:ef:b5:eb:8f:b8:f3:c6:1c:c6:
                    9e:7c:37:21:5b:3f:d5:8e:9e:bf:eb:85:46:ed:42:
                    84:f7:0d:76:41:f8:9a:78:c5:64:a7:dc:03:85:1c:
                    39:eb:f3:21:0d:51:34:70:3a:0b:b7:a8:20:cb:ed:
                    e3:17:81:d5:06:38:95:6c:ac:db:6f:4b:de:6e:b6:
                    ee:22:4a:b8:b9:b6:d9:11:73:13:53:39:04:d2:01:
                    b4:6f
                Exponent: 65537 (0x10001)
        X509v3 extensions:
            X509v3 Basic Constraints: 
                CA:FALSE
            Netscape Comment: 
                OpenSSL Generated Certificate
            X509v3 Subject Key Identifier: 
                F7:29:D4:29:3A:B5:B0:97:A5:E1:39:A0:98:68:93:57:43:FC:45:2C
            X509v3 Authority Key Identifier: 
                keyid:D6:88:F1:AA:C1:2B:09:8C:B8:5C:9D:CE:DF:57:39:62:26:10:20:90
                DirName:/C=CH/ST=Thurgau/L=Kefikon/O=guengel.ch/CN=CA guengel.ch/emailAddress=postmaster@guengel.ch
                serial:E5:25:3B:A6:77:BD:CB:FF

    Signature Algorithm: sha256WithRSAEncryption
         73:97:84:e6:bd:04:b9:10:b1:71:de:18:c2:4a:e8:3a:20:f2:
         97:d5:0a:b1:cd:f2:fe:d2:60:60:ec:96:00:d4:3e:00:4b:c8:
         3d:a4:07:b4:35:7b:e7:13:34:a9:05:21:d8:a3:5b:f7:56:97:
         14:c6:18:80:28:b4:1f:bf:dd:22:f0:75:8f:79:c9:03:87:04:
         ba:c6:36:25:5c:d9:34:48:35:2c:50:af:e8:19:b2:27:d5:ca:
         41:56:19:19:f0:a7:6e:af:10:d1:df:fb:97:8c:59:2d:0d:d4:
         e2:df:40:f9:37:1a:71:30:5c:f6:a4:68:91:ba:af:ee:cd:47:
         d1:75:a2:fb:58:23:2b:3f:35:80:21:12:87:bd:9d:14:47:2c:
         ca:10:bd:b2:dc:5f:4e:05:c0:ee:ba:4f:38:9e:2f:74:0b:28:
         4e:c9:ae:ca:f9:c9:64:96:f5:58:db:b0:ac:b8:fb:7c:82:42:
         50:d0:fe:bf:ff:c3:98:5a:56:d5:ec:16:96:8f:10:b0:a1:a5:
         9a:72:a0:16:a7:03:f9:2c:63:90:99:b2:ed:93:a8:0c:1c:69:
         37:81:4d:db:ca:34:d4:71:91:68:8c:95:80:80:22:4f:34:5c:
         2c:ed:d4:aa:40:ca:4b:5f:1b:f0:e5:ff:04:61:4e:c5:0c:8d:
         32:a2:4f:44:dd:2a:d6:eb:8c:f6:f1:ac:b5:36:af:c3:56:4d:
         69:05:1b:71:7a:c9:fb:e0:b8:57:92:f6:2b:ad:35:1b:ca:d4:
         dc:4a:52:99:03:dd:aa:f4:99:d8:75:62:d7:f4:48:e4:42:7a:
         a8:a7:f1:93:e0:6b:bc:ee:c2:e4:d4:5c:f4:cc:8a:b3:dd:3c:
         22:96:eb:8e:e9:66:23:70:44:c1:b8:57:1a:40:c7:6e:72:6c:
         18:81:73:43:ea:7f:7e:3f:71:c5:b7:24:3e:0a:97:26:45:5c:
         cc:70:26:3a:18:0c:b3:3e:9e:01:18:cb:7c:5e:9f:26:76:ed:
         8f:e4:ed:ec:a0:83:a2:8d:5f:f2:ca:de:a6:74:82:cb:ed:83:
         66:68:c9:71:6d:0b:84:a2:60:a2:58:1c:5e:6a:b7:bc:3d:b5:
         b7:ea:a0:75:cc:17:aa:36:d1:65:85:65:3e:2b:97:5a:e7:5f:
         35:59:99:1d:74:5c:f6:17:6b:f8:18:f2:1b:67:6e:fc:64:3c:
         26:9f:e8:f1:7e:4e:fc:39:60:9b:6e:24:29:01:9e:58:17:d6:
         bc:f9:a0:13:4c:8b:d9:42:46:60:aa:c1:c1:af:8c:0c:58:3e:
         d2:59:34:8b:49:42:31:d1:e9:f2:51:c6:d7:83:5f:84:ba:42:
         2a:39:01:dc:ab:be:c6:cc
-----BEGIN CERTIFICATE-----
MIIFlDCCA3ygAwIBAgICATAwDQYJKoZIhvcNAQELBQAwgYQxCzAJBgNVBAYTAkNI
MRAwDgYDVQQIEwdUaHVyZ2F1MRAwDgYDVQQHEwdLZWZpa29uMRMwEQYDVQQKEwpn
dWVuZ2VsLmNoMRYwFAYDVQQDEw1DQSBndWVuZ2VsLmNoMSQwIgYJKoZIhvcNAQkB
FhVwb3N0bWFzdGVyQGd1ZW5nZWwuY2gwHhcNMTgwMTA2MTgwMjU3WhcNMTkwMjEw
MTgwMjU3WjB5MQswCQYDVQQGEwJDSDEQMA4GA1UECBMHVGh1cmdhdTETMBEGA1UE
ChMKZ3VlbmdlbC5jaDEdMBsGA1UEAxMUamV0ZmlyZS5rcnVlbWVsLmhvbWUxJDAi
BgkqhkiG9w0BCQEWFXBvc3RtYXN0ZXJAZ3VlbmdlbC5jaDCCASIwDQYJKoZIhvcN
AQEBBQADggEPADCCAQoCggEBAKlk5D3FRAlTkeVrc/qyDTIRDwWU5m+614Zp8i2/
ispi6plykNupVlwqMhtlUUJBVQVvc79SbGDewwxIHIlWdebIbkgutMIddY0Un8B7
BRTTQqxQhXbaAWzJJueelUyKFJj5nMa3rx6iJmiw/jL8dxTD7d4rNzYPk/dKFdcx
gg4e3FxX4HLxA2J9yXFaPo0+CV5g1rIeJpTAcd+/J7j5HVaIrKYFJNjidk1q77Xr
j7jzxhzGnnw3IVs/1Y6ev+uFRu1ChPcNdkH4mnjFZKfcA4UcOevzIQ1RNHA6C7eo
IMvt4xeB1QY4lWys229L3m627iJKuLm22RFzE1M5BNIBtG8CAwEAAaOCARgwggEU
MAkGA1UdEwQCMAAwLAYJYIZIAYb4QgENBB8WHU9wZW5TU0wgR2VuZXJhdGVkIENl
cnRpZmljYXRlMB0GA1UdDgQWBBT3KdQpOrWwl6XhOaCYaJNXQ/xFLDCBuQYDVR0j
BIGxMIGugBTWiPGqwSsJjLhcnc7fVzliJhAgkKGBiqSBhzCBhDELMAkGA1UEBhMC
Q0gxEDAOBgNVBAgTB1RodXJnYXUxEDAOBgNVBAcTB0tlZmlrb24xEzARBgNVBAoT
Cmd1ZW5nZWwuY2gxFjAUBgNVBAMTDUNBIGd1ZW5nZWwuY2gxJDAiBgkqhkiG9w0B
CQEWFXBvc3RtYXN0ZXJAZ3VlbmdlbC5jaIIJAOUlO6Z3vcv/MA0GCSqGSIb3DQEB
CwUAA4ICAQBzl4TmvQS5ELFx3hjCSug6IPKX1QqxzfL+0mBg7JYA1D4AS8g9pAe0
NXvnEzSpBSHYo1v3VpcUxhiAKLQfv90i8HWPeckDhwS6xjYlXNk0SDUsUK/oGbIn
1cpBVhkZ8KdurxDR3/uXjFktDdTi30D5NxpxMFz2pGiRuq/uzUfRdaL7WCMrPzWA
IRKHvZ0URyzKEL2y3F9OBcDuuk84ni90CyhOya7K+clklvVY27CsuPt8gkJQ0P6/
/8OYWlbV7BaWjxCwoaWacqAWpwP5LGOQmbLtk6gMHGk3gU3byjTUcZFojJWAgCJP
NFws7dSqQMpLXxvw5f8EYU7FDI0yok9E3SrW64z28ay1Nq/DVk1pBRtxesn74LhX
kvYrrTUbytTcSlKZA92q9JnYdWLX9EjkQnqop/GT4Gu87sLk1Fz0zIqz3TwiluuO
6WYjcETBuFcaQMducmwYgXND6n9+P3HFtyQ+CpcmRVzMcCY6GAyzPp4BGMt8Xp8m
du2P5O3soIOijV/yyt6mdILL7YNmaMlxbQuEomCiWBxeare8PbW36qB1zBeqNtFl
hWU+K5da5181WZkddFz2F2v4GPIbZ278ZDwmn+jxfk78OWCbbiQpAZ5YF9a8+aAT
TIvZQkZgqsHBr4wMWD7SWTSLSUIx0enyUcbXg1+EukIqOQHcq77GzA==
-----END CERTIFICATE-----
