Certificate:
    Data:
        Version: 3 (0x2)
        Serial Number: 305 (0x131)
    Signature Algorithm: sha256WithRSAEncryption
        Issuer: C=CH, ST=Thurgau, L=Kefikon, O=guengel.ch, CN=CA guengel.ch/emailAddress=postmaster@guengel.ch
        Validity
            Not Before: Jan  6 18:02:58 2018 GMT
            Not After : Feb 10 18:02:58 2019 GMT
        Subject: C=CH, ST=Thurgau, O=guengel.ch, CN=kerberos.kruemel.home/emailAddress=postmaster@guengel.ch
        Subject Public Key Info:
            Public Key Algorithm: rsaEncryption
                Public-Key: (2048 bit)
                Modulus:
                    00:c9:9a:89:71:43:d5:98:31:34:1a:ac:47:d4:7b:
                    8a:6d:b7:4c:91:3f:4d:39:23:c4:8a:4d:6a:82:f6:
                    1c:cd:77:7a:84:ef:1a:ad:70:07:52:dd:67:83:d4:
                    86:92:2d:ba:2b:05:e9:bb:21:13:65:43:36:6c:d7:
                    e4:c3:15:75:28:b5:ef:0e:34:bf:a0:bd:67:58:3b:
                    21:38:f8:fb:07:32:23:43:93:df:60:bb:f4:4d:5f:
                    22:6e:b6:82:4f:32:25:5e:85:75:4d:1f:3c:93:d8:
                    cd:b1:91:62:fe:55:ad:e4:c8:d8:ed:d1:c9:e8:ca:
                    c3:25:21:da:05:1e:84:8f:9b:2b:48:22:39:d0:8f:
                    ea:dd:00:3f:0b:71:e7:f0:dd:73:b8:b0:57:26:38:
                    48:69:7a:7e:39:57:09:1f:5d:23:80:ca:e0:38:c6:
                    ea:ff:c9:71:6f:9b:f6:17:18:e8:8c:e7:56:4d:53:
                    4b:74:90:da:3c:d8:0a:8f:fe:70:33:ff:3b:f0:4d:
                    67:30:d7:d8:52:6d:38:61:a4:5e:a5:47:fd:7c:7f:
                    90:b3:d0:48:c1:0f:43:7f:49:1e:a5:e2:e5:ac:4d:
                    5e:27:d9:4a:08:c5:63:82:92:ad:f5:6a:1d:54:71:
                    e5:94:df:d9:a8:42:a8:2e:f1:94:6a:de:33:0b:ea:
                    5b:65
                Exponent: 65537 (0x10001)
        X509v3 extensions:
            X509v3 Basic Constraints: 
                CA:FALSE
            Netscape Comment: 
                OpenSSL Generated Certificate
            X509v3 Subject Key Identifier: 
                77:74:D9:A2:A4:62:6E:DA:F8:4A:CD:C4:06:1E:6E:00:DC:14:A1:3D
            X509v3 Authority Key Identifier: 
                keyid:D6:88:F1:AA:C1:2B:09:8C:B8:5C:9D:CE:DF:57:39:62:26:10:20:90
                DirName:/C=CH/ST=Thurgau/L=Kefikon/O=guengel.ch/CN=CA guengel.ch/emailAddress=postmaster@guengel.ch
                serial:E5:25:3B:A6:77:BD:CB:FF

    Signature Algorithm: sha256WithRSAEncryption
         15:44:84:e3:a2:fd:6f:cc:8b:a4:c7:ba:63:47:34:df:e6:c0:
         fd:ba:c6:ee:48:3e:1c:82:fd:69:23:bc:8d:b9:77:03:a2:c3:
         67:fb:02:af:54:b0:b5:05:ed:f1:af:58:18:cd:58:c7:08:dc:
         e2:96:af:c7:5d:38:4d:88:d9:11:18:b7:c3:50:49:9b:69:e5:
         5c:d7:5e:32:3a:02:28:be:e9:b0:9b:cd:b7:92:ec:a8:7c:d3:
         67:21:61:9e:b0:7a:6b:84:ce:b3:05:9b:6e:35:f2:cb:22:a8:
         54:02:d0:19:3a:59:91:e4:1e:4a:52:23:7a:5f:31:93:96:0b:
         88:be:ca:84:1e:f4:1e:87:5e:10:ab:ff:47:ba:50:56:9b:16:
         d3:03:ab:0d:e1:85:0c:71:c5:17:b7:50:c2:e2:67:66:62:18:
         71:8e:ef:af:62:3c:77:10:46:12:4b:18:4a:36:67:a7:42:67:
         95:f3:f5:76:e6:88:ee:2d:fc:38:31:8e:92:de:7b:44:dc:c4:
         98:23:e8:3d:19:94:bb:e3:6a:eb:48:8f:28:c5:61:eb:a4:ce:
         aa:4f:aa:44:f0:76:74:6e:c6:4b:1d:5b:db:28:75:eb:18:7f:
         00:a5:80:02:c5:dd:ae:d7:29:d0:1e:ce:dc:ca:c6:97:22:f6:
         71:01:bc:45:7d:c1:1b:0e:57:91:f3:a6:cb:88:84:c6:d6:a1:
         c5:9f:8c:80:6e:d2:d0:b3:93:fb:14:b4:dc:72:6f:59:61:b9:
         95:fa:2d:bc:eb:b0:72:8f:b1:fa:3b:4e:1e:4c:1a:1f:bc:dd:
         02:10:01:cf:d0:17:86:c2:eb:9e:df:b4:df:4d:d9:5a:d3:ea:
         8c:7e:e9:b4:18:be:71:6f:87:08:24:2e:21:50:38:97:52:2d:
         a8:ab:a2:bb:8d:54:21:33:7d:8a:d5:32:6f:df:1f:ea:9c:e3:
         1f:2e:63:4b:9a:7b:a0:15:ef:ce:85:93:6e:f8:5f:25:42:65:
         1d:a7:a9:d9:4c:1d:76:63:df:04:ac:4a:5d:2c:8f:ce:be:fe:
         a6:2a:c0:fa:5c:ca:14:9d:a0:4f:4c:3d:e4:09:90:ed:9b:b7:
         53:21:73:8c:af:43:24:11:21:b2:6f:24:0b:a4:f9:76:da:1d:
         96:56:b1:22:87:93:ed:d8:f2:8a:c4:4f:85:72:60:0b:86:7d:
         0d:9b:bd:e5:a0:2a:a6:84:a0:10:53:76:ab:35:80:a3:86:f4:
         2d:12:d6:99:3a:cc:27:80:76:81:99:29:2f:a2:ce:3f:39:51:
         ab:49:68:49:23:a6:5a:73:b9:30:14:81:76:46:5e:68:42:da:
         d9:49:64:99:ba:a5:6d:4a
-----BEGIN CERTIFICATE-----
MIIFlTCCA32gAwIBAgICATEwDQYJKoZIhvcNAQELBQAwgYQxCzAJBgNVBAYTAkNI
MRAwDgYDVQQIEwdUaHVyZ2F1MRAwDgYDVQQHEwdLZWZpa29uMRMwEQYDVQQKEwpn
dWVuZ2VsLmNoMRYwFAYDVQQDEw1DQSBndWVuZ2VsLmNoMSQwIgYJKoZIhvcNAQkB
FhVwb3N0bWFzdGVyQGd1ZW5nZWwuY2gwHhcNMTgwMTA2MTgwMjU4WhcNMTkwMjEw
MTgwMjU4WjB6MQswCQYDVQQGEwJDSDEQMA4GA1UECBMHVGh1cmdhdTETMBEGA1UE
ChMKZ3VlbmdlbC5jaDEeMBwGA1UEAxMVa2VyYmVyb3Mua3J1ZW1lbC5ob21lMSQw
IgYJKoZIhvcNAQkBFhVwb3N0bWFzdGVyQGd1ZW5nZWwuY2gwggEiMA0GCSqGSIb3
DQEBAQUAA4IBDwAwggEKAoIBAQDJmolxQ9WYMTQarEfUe4ptt0yRP005I8SKTWqC
9hzNd3qE7xqtcAdS3WeD1IaSLborBem7IRNlQzZs1+TDFXUote8ONL+gvWdYOyE4
+PsHMiNDk99gu/RNXyJutoJPMiVehXVNHzyT2M2xkWL+Va3kyNjt0cnoysMlIdoF
HoSPmytIIjnQj+rdAD8Lcefw3XO4sFcmOEhpen45VwkfXSOAyuA4xur/yXFvm/YX
GOiM51ZNU0t0kNo82AqP/nAz/zvwTWcw19hSbThhpF6lR/18f5Cz0EjBD0N/SR6l
4uWsTV4n2UoIxWOCkq31ah1UceWU39moQqgu8ZRq3jML6ltlAgMBAAGjggEYMIIB
FDAJBgNVHRMEAjAAMCwGCWCGSAGG+EIBDQQfFh1PcGVuU1NMIEdlbmVyYXRlZCBD
ZXJ0aWZpY2F0ZTAdBgNVHQ4EFgQUd3TZoqRibtr4Ss3EBh5uANwUoT0wgbkGA1Ud
IwSBsTCBroAU1ojxqsErCYy4XJ3O31c5YiYQIJChgYqkgYcwgYQxCzAJBgNVBAYT
AkNIMRAwDgYDVQQIEwdUaHVyZ2F1MRAwDgYDVQQHEwdLZWZpa29uMRMwEQYDVQQK
EwpndWVuZ2VsLmNoMRYwFAYDVQQDEw1DQSBndWVuZ2VsLmNoMSQwIgYJKoZIhvcN
AQkBFhVwb3N0bWFzdGVyQGd1ZW5nZWwuY2iCCQDlJTumd73L/zANBgkqhkiG9w0B
AQsFAAOCAgEAFUSE46L9b8yLpMe6Y0c03+bA/brG7kg+HIL9aSO8jbl3A6LDZ/sC
r1SwtQXt8a9YGM1Yxwjc4pavx104TYjZERi3w1BJm2nlXNdeMjoCKL7psJvNt5Ls
qHzTZyFhnrB6a4TOswWbbjXyyyKoVALQGTpZkeQeSlIjel8xk5YLiL7KhB70Hode
EKv/R7pQVpsW0wOrDeGFDHHFF7dQwuJnZmIYcY7vr2I8dxBGEksYSjZnp0JnlfP1
duaI7i38ODGOkt57RNzEmCPoPRmUu+Nq60iPKMVh66TOqk+qRPB2dG7GSx1b2yh1
6xh/AKWAAsXdrtcp0B7O3MrGlyL2cQG8RX3BGw5XkfOmy4iExtahxZ+MgG7S0LOT
+xS03HJvWWG5lfotvOuwco+x+jtOHkwaH7zdAhABz9AXhsLrnt+0303ZWtPqjH7p
tBi+cW+HCCQuIVA4l1ItqKuiu41UITN9itUyb98f6pzjHy5jS5p7oBXvzoWTbvhf
JUJlHaep2UwddmPfBKxKXSyPzr7+pirA+lzKFJ2gT0w95AmQ7Zu3UyFzjK9DJBEh
sm8kC6T5dtodllaxIoeT7djyisRPhXJgC4Z9DZu95aAqpoSgEFN2qzWAo4b0LRLW
mTrMJ4B2gZkpL6LOPzlRq0loSSOmWnO5MBSBdkZeaELa2UlkmbqlbUo=
-----END CERTIFICATE-----
