Certificate:
    Data:
        Version: 3 (0x2)
        Serial Number: 344 (0x158)
    Signature Algorithm: sha256WithRSAEncryption
        Issuer: C=CH, ST=Thurgau, L=Kefikon, O=guengel.ch, CN=CA guengel.ch/emailAddress=postmaster@guengel.ch
        Validity
            Not Before: Dec 29 14:40:00 2018 GMT
            Not After : Feb  2 14:40:00 2020 GMT
        Subject: C=CH, ST=Thurgau, O=guengel.ch, CN=kerberos.kruemel.home/emailAddress=postmaster@guengel.ch
        Subject Public Key Info:
            Public Key Algorithm: rsaEncryption
                Public-Key: (2048 bit)
                Modulus:
                    00:c9:9a:89:71:43:d5:98:31:34:1a:ac:47:d4:7b:
                    8a:6d:b7:4c:91:3f:4d:39:23:c4:8a:4d:6a:82:f6:
                    1c:cd:77:7a:84:ef:1a:ad:70:07:52:dd:67:83:d4:
                    86:92:2d:ba:2b:05:e9:bb:21:13:65:43:36:6c:d7:
                    e4:c3:15:75:28:b5:ef:0e:34:bf:a0:bd:67:58:3b:
                    21:38:f8:fb:07:32:23:43:93:df:60:bb:f4:4d:5f:
                    22:6e:b6:82:4f:32:25:5e:85:75:4d:1f:3c:93:d8:
                    cd:b1:91:62:fe:55:ad:e4:c8:d8:ed:d1:c9:e8:ca:
                    c3:25:21:da:05:1e:84:8f:9b:2b:48:22:39:d0:8f:
                    ea:dd:00:3f:0b:71:e7:f0:dd:73:b8:b0:57:26:38:
                    48:69:7a:7e:39:57:09:1f:5d:23:80:ca:e0:38:c6:
                    ea:ff:c9:71:6f:9b:f6:17:18:e8:8c:e7:56:4d:53:
                    4b:74:90:da:3c:d8:0a:8f:fe:70:33:ff:3b:f0:4d:
                    67:30:d7:d8:52:6d:38:61:a4:5e:a5:47:fd:7c:7f:
                    90:b3:d0:48:c1:0f:43:7f:49:1e:a5:e2:e5:ac:4d:
                    5e:27:d9:4a:08:c5:63:82:92:ad:f5:6a:1d:54:71:
                    e5:94:df:d9:a8:42:a8:2e:f1:94:6a:de:33:0b:ea:
                    5b:65
                Exponent: 65537 (0x10001)
        X509v3 extensions:
            X509v3 Basic Constraints: 
                CA:FALSE
            Netscape Comment: 
                OpenSSL Generated Certificate
            X509v3 Subject Key Identifier: 
                77:74:D9:A2:A4:62:6E:DA:F8:4A:CD:C4:06:1E:6E:00:DC:14:A1:3D
            X509v3 Authority Key Identifier: 
                keyid:D6:88:F1:AA:C1:2B:09:8C:B8:5C:9D:CE:DF:57:39:62:26:10:20:90
                DirName:/C=CH/ST=Thurgau/L=Kefikon/O=guengel.ch/CN=CA guengel.ch/emailAddress=postmaster@guengel.ch
                serial:E5:25:3B:A6:77:BD:CB:FF

    Signature Algorithm: sha256WithRSAEncryption
         7c:e2:28:e8:68:13:7b:06:52:38:79:bc:c0:5e:43:76:19:fa:
         15:21:72:b5:61:48:fb:a5:60:05:41:6e:4b:3f:95:da:2c:32:
         b9:9c:ae:a2:d1:f6:4a:4a:d8:ae:09:a9:6e:9b:4a:f3:b1:d0:
         fd:42:fe:da:b5:84:22:21:c7:47:28:f3:4e:17:e9:6e:43:15:
         2f:e0:4c:23:90:94:64:0e:5d:9d:a6:e0:86:45:b5:4c:ef:05:
         2e:75:c4:1d:f6:8a:53:b5:3f:d1:18:33:02:03:88:ed:56:af:
         77:5a:a0:c8:ec:2f:ec:33:b8:57:13:9d:18:62:51:03:6f:d7:
         ed:ad:9a:5d:2e:e1:ed:3d:79:6c:52:a1:86:eb:8b:40:4b:b4:
         55:db:6f:c0:ba:13:c0:a8:88:98:97:fe:03:73:7d:a5:89:8f:
         27:6a:57:7a:79:b7:5f:23:ab:ed:1c:1f:f7:c3:ca:0a:d3:2b:
         8e:a2:56:c2:fc:9d:14:da:67:e6:c6:e4:d4:b4:36:38:49:0e:
         e7:1e:4b:63:47:20:7f:4f:bd:42:e2:79:b2:d9:32:f2:39:2f:
         a9:6a:3f:11:f2:9b:ae:71:f0:ab:8a:6f:9b:56:c0:4c:d9:4f:
         11:44:11:1f:1d:7e:69:a4:76:ac:e7:55:23:77:33:67:ba:18:
         b4:e1:97:4e:b6:bf:83:38:8b:ac:36:3e:bc:d2:7f:a8:f1:91:
         9c:e9:67:e4:89:b1:da:b8:b4:e0:ba:61:a1:29:cf:f3:e4:70:
         a0:cb:0d:00:6a:a6:e2:83:cd:44:0a:9f:8c:60:f9:73:d6:e0:
         76:07:9b:3e:92:13:e8:5e:c9:5c:10:8e:07:69:27:32:7b:4f:
         29:c4:99:6c:29:0e:32:c2:ec:e6:0e:e9:ff:26:93:3a:29:9e:
         18:1c:e8:ab:86:df:08:bd:04:a0:4e:6e:b4:48:25:eb:60:4f:
         e1:5b:f6:f0:52:9f:41:2e:7f:50:8d:52:9a:ae:ef:e2:1b:14:
         b2:bc:9c:b1:25:b3:30:f7:bc:f4:90:5a:df:ef:cf:d0:11:4b:
         3c:08:b1:0c:a4:a7:42:71:6d:4c:d9:1e:42:6d:a3:6f:80:af:
         b8:a3:c4:f9:60:15:d8:df:c1:14:c9:a1:5c:fa:4f:0d:f5:4d:
         19:9a:c7:b7:88:38:99:0f:af:ca:bb:c3:02:08:0c:76:a9:1e:
         e2:f4:66:50:7c:c4:28:a9:c5:24:f9:46:c9:70:64:1b:bb:a2:
         b0:53:b5:ad:d7:c2:f6:24:d0:52:f2:1e:57:77:a9:bb:83:d8:
         6f:32:1b:e4:c9:ea:b4:c1:97:5f:29:53:2b:47:84:77:dc:a3:
         ce:ef:00:6f:5d:f5:ab:68
-----BEGIN CERTIFICATE-----
MIIFlTCCA32gAwIBAgICAVgwDQYJKoZIhvcNAQELBQAwgYQxCzAJBgNVBAYTAkNI
MRAwDgYDVQQIEwdUaHVyZ2F1MRAwDgYDVQQHEwdLZWZpa29uMRMwEQYDVQQKEwpn
dWVuZ2VsLmNoMRYwFAYDVQQDEw1DQSBndWVuZ2VsLmNoMSQwIgYJKoZIhvcNAQkB
FhVwb3N0bWFzdGVyQGd1ZW5nZWwuY2gwHhcNMTgxMjI5MTQ0MDAwWhcNMjAwMjAy
MTQ0MDAwWjB6MQswCQYDVQQGEwJDSDEQMA4GA1UECBMHVGh1cmdhdTETMBEGA1UE
ChMKZ3VlbmdlbC5jaDEeMBwGA1UEAxMVa2VyYmVyb3Mua3J1ZW1lbC5ob21lMSQw
IgYJKoZIhvcNAQkBFhVwb3N0bWFzdGVyQGd1ZW5nZWwuY2gwggEiMA0GCSqGSIb3
DQEBAQUAA4IBDwAwggEKAoIBAQDJmolxQ9WYMTQarEfUe4ptt0yRP005I8SKTWqC
9hzNd3qE7xqtcAdS3WeD1IaSLborBem7IRNlQzZs1+TDFXUote8ONL+gvWdYOyE4
+PsHMiNDk99gu/RNXyJutoJPMiVehXVNHzyT2M2xkWL+Va3kyNjt0cnoysMlIdoF
HoSPmytIIjnQj+rdAD8Lcefw3XO4sFcmOEhpen45VwkfXSOAyuA4xur/yXFvm/YX
GOiM51ZNU0t0kNo82AqP/nAz/zvwTWcw19hSbThhpF6lR/18f5Cz0EjBD0N/SR6l
4uWsTV4n2UoIxWOCkq31ah1UceWU39moQqgu8ZRq3jML6ltlAgMBAAGjggEYMIIB
FDAJBgNVHRMEAjAAMCwGCWCGSAGG+EIBDQQfFh1PcGVuU1NMIEdlbmVyYXRlZCBD
ZXJ0aWZpY2F0ZTAdBgNVHQ4EFgQUd3TZoqRibtr4Ss3EBh5uANwUoT0wgbkGA1Ud
IwSBsTCBroAU1ojxqsErCYy4XJ3O31c5YiYQIJChgYqkgYcwgYQxCzAJBgNVBAYT
AkNIMRAwDgYDVQQIEwdUaHVyZ2F1MRAwDgYDVQQHEwdLZWZpa29uMRMwEQYDVQQK
EwpndWVuZ2VsLmNoMRYwFAYDVQQDEw1DQSBndWVuZ2VsLmNoMSQwIgYJKoZIhvcN
AQkBFhVwb3N0bWFzdGVyQGd1ZW5nZWwuY2iCCQDlJTumd73L/zANBgkqhkiG9w0B
AQsFAAOCAgEAfOIo6GgTewZSOHm8wF5Ddhn6FSFytWFI+6VgBUFuSz+V2iwyuZyu
otH2SkrYrgmpbptK87HQ/UL+2rWEIiHHRyjzThfpbkMVL+BMI5CUZA5dnabghkW1
TO8FLnXEHfaKU7U/0RgzAgOI7Vavd1qgyOwv7DO4VxOdGGJRA2/X7a2aXS7h7T15
bFKhhuuLQEu0VdtvwLoTwKiImJf+A3N9pYmPJ2pXenm3XyOr7Rwf98PKCtMrjqJW
wvydFNpn5sbk1LQ2OEkO5x5LY0cgf0+9QuJ5stky8jkvqWo/EfKbrnHwq4pvm1bA
TNlPEUQRHx1+aaR2rOdVI3czZ7oYtOGXTra/gziLrDY+vNJ/qPGRnOln5Imx2ri0
4LphoSnP8+RwoMsNAGqm4oPNRAqfjGD5c9bgdgebPpIT6F7JXBCOB2knMntPKcSZ
bCkOMsLs5g7p/yaTOimeGBzoq4bfCL0EoE5utEgl62BP4Vv28FKfQS5/UI1Smq7v
4hsUsrycsSWzMPe89JBa3+/P0BFLPAixDKSnQnFtTNkeQm2jb4CvuKPE+WAV2N/B
FMmhXPpPDfVNGZrHt4g4mQ+vyrvDAggMdqke4vRmUHzEKKnFJPlGyXBkG7uisFO1
rdfC9iTQUvIeV3epu4PYbzIb5MnqtMGXXylTK0eEd9yjzu8Ab131q2g=
-----END CERTIFICATE-----
