Certificate:
    Data:
        Version: 3 (0x2)
        Serial Number: 387 (0x183)
        Signature Algorithm: sha256WithRSAEncryption
        Issuer: C=CH, ST=Thurgau, L=Kefikon, O=guengel.ch, CN=CA guengel.ch/emailAddress=postmaster@guengel.ch
        Validity
            Not Before: Jan  6 10:26:28 2020 GMT
            Not After : Jan 20 10:26:28 2021 GMT
        Subject: C=CH, ST=Thurgau, O=guengel.ch, CN=maersk.kruemel.home/emailAddress=postmaster@guengel.ch
        Subject Public Key Info:
            Public Key Algorithm: rsaEncryption
                RSA Public-Key: (2048 bit)
                Modulus:
                    00:a9:9a:fd:07:20:69:c6:7b:a1:61:36:8a:36:c3:
                    a4:85:7c:4e:67:8d:3a:81:56:07:5a:35:9e:11:4f:
                    83:e9:2d:62:52:6d:66:4d:39:5d:b6:f7:36:5a:aa:
                    4b:a2:b4:73:90:04:07:c6:4b:0e:c3:c4:f9:0c:29:
                    6b:fb:67:51:e4:bb:1a:d8:b3:27:47:67:35:3d:20:
                    f6:0d:19:44:cd:80:66:e5:86:99:4d:9c:13:a1:81:
                    f1:ce:36:52:ec:60:1c:f8:15:16:b1:b7:d8:3f:fa:
                    8a:42:04:f8:50:53:fd:4a:df:01:d5:6c:fd:ce:a1:
                    92:46:09:1a:bd:c0:4b:1c:2e:2a:ed:d6:3e:cd:e8:
                    ad:4d:a0:a8:cb:84:fb:8b:dd:fb:b9:39:72:9c:0f:
                    a2:9f:37:21:34:1f:16:b2:20:a3:13:05:12:5a:26:
                    81:a1:e5:19:cc:ce:3a:48:66:ea:35:2f:f4:da:29:
                    0f:8f:41:6d:42:06:ce:05:63:46:4c:1b:e8:cc:84:
                    c5:ae:1b:bd:94:97:57:1e:db:2d:d2:ec:61:26:0b:
                    c0:8a:2c:21:2d:9c:ac:71:5e:8a:a7:22:6f:03:93:
                    2f:f2:77:9c:f2:92:e1:3f:11:51:23:21:07:e9:00:
                    49:b3:ff:39:30:d7:ef:8c:79:f5:ea:60:65:c9:dd:
                    62:65
                Exponent: 65537 (0x10001)
        X509v3 extensions:
            X509v3 Basic Constraints: 
                CA:FALSE
            Netscape Comment: 
                OpenSSL Generated Certificate
            X509v3 Subject Key Identifier: 
                BB:B0:A6:62:8D:CE:32:3F:EF:DD:5F:95:89:01:7C:E1:27:33:F8:66
            X509v3 Authority Key Identifier: 
                keyid:D6:88:F1:AA:C1:2B:09:8C:B8:5C:9D:CE:DF:57:39:62:26:10:20:90
                DirName:/C=CH/ST=Thurgau/L=Kefikon/O=guengel.ch/CN=CA guengel.ch/emailAddress=postmaster@guengel.ch
                serial:E5:25:3B:A6:77:BD:CB:FF

    Signature Algorithm: sha256WithRSAEncryption
         67:e9:e7:91:2d:b0:e8:7a:0e:7a:8f:7a:aa:b7:0b:d0:bb:ba:
         6c:df:df:cf:58:20:fb:aa:b6:23:08:b8:f3:84:b9:6f:0b:48:
         88:27:96:7a:78:95:ec:83:5a:5f:75:fa:99:b3:dd:79:55:6a:
         f1:42:d9:a8:1c:f2:0d:7b:a6:65:f0:aa:72:37:46:9f:cd:18:
         2d:3a:8c:4d:4e:28:86:7a:bf:60:ba:79:0b:a2:e8:15:6d:e9:
         72:6f:7d:4b:93:4f:bc:84:19:e1:5b:84:4b:36:f7:35:05:e2:
         e0:12:34:66:19:10:a0:59:bc:22:74:14:ae:dc:2e:c3:eb:12:
         aa:d2:12:c4:32:06:a0:35:d8:a8:08:6c:1b:61:5d:d2:98:89:
         5c:74:ff:a9:c2:b3:c8:d0:5a:c4:7e:f3:25:3c:75:c3:dc:df:
         6a:b7:82:9b:ab:6e:6f:8a:fd:c8:b4:dd:ce:62:e9:4d:b9:23:
         ba:61:04:bc:93:f8:cd:57:d9:ae:82:be:ec:a0:3f:0b:e6:8e:
         d5:54:26:7e:2d:73:2e:c7:42:6d:8d:fa:1c:2c:b7:23:d4:a6:
         95:39:43:78:ec:10:33:25:b2:66:e5:f1:67:83:5a:bf:cc:e9:
         11:82:14:76:77:ae:4a:22:0e:73:ae:9a:07:bf:05:25:2e:bc:
         0c:e8:bb:d8:6c:92:35:4c:b0:75:3d:1c:06:09:e2:d1:b5:1a:
         73:5c:26:a3:6c:b1:86:3b:c6:7e:76:40:42:f7:94:e2:01:ce:
         80:88:92:fa:ad:7a:05:b9:03:87:69:00:fb:12:db:01:ea:34:
         97:ff:2f:75:fc:72:e1:7e:d8:28:9c:67:4d:5e:fa:1f:49:ee:
         94:cb:19:e9:ad:d4:65:db:8d:1d:04:2d:fb:f4:e5:fc:0a:43:
         db:63:6a:19:5a:df:b5:58:28:d4:8e:8f:00:16:ff:dc:26:8f:
         3b:3b:78:ca:f4:ee:8f:60:21:a3:f2:a5:c9:7b:fe:f7:9a:51:
         18:5f:a4:df:0c:53:c3:60:a0:51:da:07:c9:78:b9:e2:37:63:
         ed:4f:5f:26:ef:a6:7b:ad:55:3d:56:5b:b2:02:cb:86:18:8c:
         a6:a5:ca:25:47:00:78:18:a8:ab:84:64:5b:4f:e8:82:67:2f:
         a5:51:63:8b:ec:a7:a4:7e:65:18:d6:2c:a5:0f:cc:4e:65:46:
         df:bd:dd:d5:47:21:a8:de:d4:20:50:79:24:c5:58:63:66:36:
         d6:8b:8b:d5:a0:b4:ba:8b:85:80:d7:48:8d:06:59:6d:5a:73:
         7d:e7:c9:6b:88:3f:c0:b5:c1:69:33:3a:56:39:96:67:e4:07:
         42:d6:bb:ff:b9:7b:8d:21
-----BEGIN CERTIFICATE-----
MIIFkzCCA3ugAwIBAgICAYMwDQYJKoZIhvcNAQELBQAwgYQxCzAJBgNVBAYTAkNI
MRAwDgYDVQQIEwdUaHVyZ2F1MRAwDgYDVQQHEwdLZWZpa29uMRMwEQYDVQQKEwpn
dWVuZ2VsLmNoMRYwFAYDVQQDEw1DQSBndWVuZ2VsLmNoMSQwIgYJKoZIhvcNAQkB
FhVwb3N0bWFzdGVyQGd1ZW5nZWwuY2gwHhcNMjAwMTA2MTAyNjI4WhcNMjEwMTIw
MTAyNjI4WjB4MQswCQYDVQQGEwJDSDEQMA4GA1UECBMHVGh1cmdhdTETMBEGA1UE
ChMKZ3VlbmdlbC5jaDEcMBoGA1UEAxMTbWFlcnNrLmtydWVtZWwuaG9tZTEkMCIG
CSqGSIb3DQEJARYVcG9zdG1hc3RlckBndWVuZ2VsLmNoMIIBIjANBgkqhkiG9w0B
AQEFAAOCAQ8AMIIBCgKCAQEAqZr9ByBpxnuhYTaKNsOkhXxOZ406gVYHWjWeEU+D
6S1iUm1mTTldtvc2WqpLorRzkAQHxksOw8T5DClr+2dR5Lsa2LMnR2c1PSD2DRlE
zYBm5YaZTZwToYHxzjZS7GAc+BUWsbfYP/qKQgT4UFP9St8B1Wz9zqGSRgkavcBL
HC4q7dY+zeitTaCoy4T7i937uTlynA+inzchNB8WsiCjEwUSWiaBoeUZzM46SGbq
NS/02ikPj0FtQgbOBWNGTBvozITFrhu9lJdXHtst0uxhJgvAiiwhLZyscV6KpyJv
A5Mv8nec8pLhPxFRIyEH6QBJs/85MNfvjHn16mBlyd1iZQIDAQABo4IBGDCCARQw
CQYDVR0TBAIwADAsBglghkgBhvhCAQ0EHxYdT3BlblNTTCBHZW5lcmF0ZWQgQ2Vy
dGlmaWNhdGUwHQYDVR0OBBYEFLuwpmKNzjI/791flYkBfOEnM/hmMIG5BgNVHSME
gbEwga6AFNaI8arBKwmMuFydzt9XOWImECCQoYGKpIGHMIGEMQswCQYDVQQGEwJD
SDEQMA4GA1UECBMHVGh1cmdhdTEQMA4GA1UEBxMHS2VmaWtvbjETMBEGA1UEChMK
Z3VlbmdlbC5jaDEWMBQGA1UEAxMNQ0EgZ3VlbmdlbC5jaDEkMCIGCSqGSIb3DQEJ
ARYVcG9zdG1hc3RlckBndWVuZ2VsLmNoggkA5SU7pne9y/8wDQYJKoZIhvcNAQEL
BQADggIBAGfp55EtsOh6DnqPeqq3C9C7umzf389YIPuqtiMIuPOEuW8LSIgnlnp4
leyDWl91+pmz3XlVavFC2agc8g17pmXwqnI3Rp/NGC06jE1OKIZ6v2C6eQui6BVt
6XJvfUuTT7yEGeFbhEs29zUF4uASNGYZEKBZvCJ0FK7cLsPrEqrSEsQyBqA12KgI
bBthXdKYiVx0/6nCs8jQWsR+8yU8dcPc32q3gpurbm+K/ci03c5i6U25I7phBLyT
+M1X2a6CvuygPwvmjtVUJn4tcy7HQm2N+hwstyPUppU5Q3jsEDMlsmbl8WeDWr/M
6RGCFHZ3rkoiDnOumge/BSUuvAzou9hskjVMsHU9HAYJ4tG1GnNcJqNssYY7xn52
QEL3lOIBzoCIkvqtegW5A4dpAPsS2wHqNJf/L3X8cuF+2CicZ01e+h9J7pTLGemt
1GXbjR0ELfv05fwKQ9tjahla37VYKNSOjwAW/9wmjzs7eMr07o9gIaPypcl7/vea
URhfpN8MU8NgoFHaB8l4ueI3Y+1PXybvpnutVT1WW7ICy4YYjKalyiVHAHgYqKuE
ZFtP6IJnL6VRY4vsp6R+ZRjWLKUPzE5lRt+93dVHIaje1CBQeSTFWGNmNtaLi9Wg
tLqLhYDXSI0GWW1ac33nyWuIP8C1wWkzOlY5lmfkB0LWu/+5e40h
-----END CERTIFICATE-----
