Certificate:
    Data:
        Version: 3 (0x2)
        Serial Number:
            58:c9:5d:00:57:a0:49:25:ee:ab:6a:80:1d:7f:57:45:5c:d1:a7:b4
        Signature Algorithm: sha256WithRSAEncryption
        Issuer: C=CH, ST=Thurgau, L=Kefikon, O=guengel.ch, CN=CA 2022/emailAddress=postmaster@guengel.ch
        Validity
            Not Before: Feb 11 13:59:40 2022 GMT
            Not After : Mar 18 13:59:40 2023 GMT
        Subject: C=CH, ST=Thurgau, O=guengel.ch, CN=master.k8s.kruemel.home/emailAddress=postmaster@guengel.ch
        Subject Public Key Info:
            Public Key Algorithm: rsaEncryption
                RSA Public-Key: (2048 bit)
                Modulus:
                    00:d6:71:a8:8c:9c:6d:1e:90:5c:dc:2e:66:04:6e:
                    f8:6c:f1:e9:7e:7c:0b:0d:e1:a2:72:0e:dd:68:1e:
                    b0:40:10:5a:2f:6e:f4:ca:9f:79:3a:11:4d:f8:04:
                    b8:e5:88:aa:fa:c1:4e:e9:1e:c2:ff:69:ee:45:cc:
                    a7:f0:ee:ef:3a:2f:46:7e:f1:d7:cb:3e:db:92:bd:
                    ba:d8:fb:c9:8f:39:ce:ad:3a:30:cb:49:d4:44:60:
                    5a:b0:27:97:a7:ca:05:6d:0e:2a:a4:8a:0e:c9:96:
                    c2:df:c5:59:31:fc:8d:4b:22:ca:dd:0c:dc:b9:ab:
                    20:fa:ad:a6:04:e4:22:61:14:18:91:34:23:cc:1a:
                    a5:ac:40:61:65:67:61:2f:29:25:1e:12:57:17:1d:
                    f8:f3:a1:7f:ce:2e:61:71:b5:13:b5:d8:be:19:30:
                    53:46:62:ba:5c:d6:0a:75:c3:c9:3c:ae:73:59:da:
                    1f:15:46:87:4e:20:05:ad:1f:ae:3d:62:27:19:55:
                    21:e0:a1:74:62:25:55:41:45:6b:9c:57:49:dc:9d:
                    5a:1a:ee:c9:aa:a9:e4:cc:bd:00:1b:fc:00:fa:82:
                    e2:09:3d:83:05:b8:b1:a8:9b:4f:74:ce:78:b8:e9:
                    53:b1:c9:ed:15:15:fa:0d:59:c6:13:ed:c9:75:04:
                    ec:5b
                Exponent: 65537 (0x10001)
        X509v3 extensions:
            X509v3 Basic Constraints: critical
                CA:FALSE
            X509v3 Key Usage: 
                Digital Signature, Key Encipherment, Key Agreement
            X509v3 Subject Key Identifier: 
                99:F9:35:2D:8A:01:48:12:67:EB:05:46:2F:DB:0F:65:78:81:1C:4D
            X509v3 Authority Key Identifier: 
                keyid:22:20:0D:51:40:61:42:BE:DD:BA:D9:C9:C1:77:B6:93:28:C3:99:EC
                DirName:/C=CH/ST=Thurgau/L=Kefikon/O=guengel.ch/CN=CA 2022/emailAddress=postmaster@guengel.ch
                serial:6D:29:90:54:E9:17:E9:C2:6A:E6:52:AD:84:4E:30:8E:6E:57:FB:1C

            Netscape Cert Type: 
                SSL Client, SSL Server
            X509v3 Extended Key Usage: 
                TLS Web Server Authentication, TLS Web Client Authentication
    Signature Algorithm: sha256WithRSAEncryption
         64:92:75:24:01:10:6f:68:2c:10:37:12:47:bd:3b:d2:bd:28:
         b2:89:1c:8b:c2:96:fa:b4:70:d0:04:1b:78:87:ee:97:31:c6:
         97:69:ce:2c:8d:97:1d:48:84:55:31:5c:a4:70:6a:a4:eb:02:
         2a:f9:7d:fd:f6:16:b2:c5:57:08:13:19:72:7a:98:ce:0f:83:
         69:8c:03:78:d4:9e:51:11:d0:b8:c0:10:db:98:22:3c:4c:a6:
         48:f7:c5:81:38:26:32:f7:a8:c0:c6:3d:fa:67:b4:96:f2:76:
         d5:30:44:e5:b0:ad:1c:7b:ac:60:b5:c5:d9:d1:ba:6f:72:40:
         e2:a8:b3:31:5c:ec:65:87:fa:31:45:04:5d:5a:5a:78:96:1d:
         93:b5:1f:ab:73:39:f1:95:40:2d:99:33:fe:ae:aa:53:aa:28:
         e4:ef:e9:e5:fa:a5:13:69:74:2c:30:f0:9e:39:15:7c:b0:db:
         46:68:46:7c:f0:b4:c3:fd:cd:0a:d4:39:79:88:c1:3b:f5:7c:
         4f:52:dc:74:74:da:c0:36:8a:e9:ac:e8:b3:0f:fd:77:d4:ab:
         0f:eb:a3:e4:ce:4f:d1:ae:b7:e7:45:6c:77:a8:9c:a1:09:08:
         a9:ed:9e:7a:94:cc:15:39:fc:c8:e0:9b:de:77:7f:2a:66:37:
         d8:70:48:63:fe:8f:8f:3b:1a:6f:4f:a6:61:42:1a:b0:b5:64:
         52:01:d8:d0:84:53:8c:b5:fa:c3:cc:8f:27:7d:cd:97:41:26:
         e8:b2:a4:7e:56:b6:e4:56:b4:c2:7b:39:2c:ae:a9:9c:b1:8b:
         0f:82:14:45:97:5a:49:f9:4e:b4:0e:fd:fe:aa:3a:2b:28:14:
         1c:37:a7:2e:ba:db:89:16:82:fe:33:13:25:7b:7a:fb:fc:e4:
         d4:85:f5:bf:0f:7a:53:49:aa:86:2a:86:b3:da:c9:da:e8:11:
         db:13:57:05:6b:62:1a:76:94:4f:04:ec:1d:e5:84:a5:8c:cf:
         d8:cf:03:0d:50:3c:b1:28:36:e5:84:42:40:ab:1e:a5:63:3c:
         9b:a9:34:6a:ca:1f:a0:fd:9f:24:42:7f:ac:41:6f:bc:d3:9b:
         36:b2:6b:c6:44:a0:65:05:0f:46:c8:fc:3e:6a:3e:8f:7d:2d:
         74:8a:47:15:5e:f7:fb:74:e4:30:d2:23:61:69:0a:56:4f:b3:
         27:be:87:26:7d:2c:42:50:f2:3b:61:aa:ff:73:f2:59:7b:f7:
         99:14:d7:37:8e:3d:3b:70:d1:8f:7a:c3:33:6b:56:7b:a1:11:
         9b:93:35:19:2b:3b:4f:46:f6:e4:64:cb:ac:61:1b:61:5f:5b:
         02:b6:77:00:e3:44:85:e7
-----BEGIN CERTIFICATE-----
MIIFujCCA6KgAwIBAgIUWMldAFegSSXuq2qAHX9XRVzRp7QwDQYJKoZIhvcNAQEL
BQAwfjELMAkGA1UEBhMCQ0gxEDAOBgNVBAgTB1RodXJnYXUxEDAOBgNVBAcTB0tl
Zmlrb24xEzARBgNVBAoTCmd1ZW5nZWwuY2gxEDAOBgNVBAMTB0NBIDIwMjIxJDAi
BgkqhkiG9w0BCQEWFXBvc3RtYXN0ZXJAZ3VlbmdlbC5jaDAeFw0yMjAyMTExMzU5
NDBaFw0yMzAzMTgxMzU5NDBaMHwxCzAJBgNVBAYTAkNIMRAwDgYDVQQIEwdUaHVy
Z2F1MRMwEQYDVQQKEwpndWVuZ2VsLmNoMSAwHgYDVQQDExdtYXN0ZXIuazhzLmty
dWVtZWwuaG9tZTEkMCIGCSqGSIb3DQEJARYVcG9zdG1hc3RlckBndWVuZ2VsLmNo
MIIBIjANBgkqhkiG9w0BAQEFAAOCAQ8AMIIBCgKCAQEA1nGojJxtHpBc3C5mBG74
bPHpfnwLDeGicg7daB6wQBBaL270yp95OhFN+AS45Yiq+sFO6R7C/2nuRcyn8O7v
Oi9GfvHXyz7bkr262PvJjznOrTowy0nURGBasCeXp8oFbQ4qpIoOyZbC38VZMfyN
SyLK3Qzcuasg+q2mBOQiYRQYkTQjzBqlrEBhZWdhLyklHhJXFx3486F/zi5hcbUT
tdi+GTBTRmK6XNYKdcPJPK5zWdofFUaHTiAFrR+uPWInGVUh4KF0YiVVQUVrnFdJ
3J1aGu7JqqnkzL0AG/wA+oLiCT2DBbixqJtPdM54uOlTscntFRX6DVnGE+3JdQTs
WwIDAQABo4IBMDCCASwwDAYDVR0TAQH/BAIwADALBgNVHQ8EBAMCA6gwHQYDVR0O
BBYEFJn5NS2KAUgSZ+sFRi/bD2V4gRxNMIG9BgNVHSMEgbUwgbKAFCIgDVFAYUK+
3brZycF3tpMow5nsoYGDpIGAMH4xCzAJBgNVBAYTAkNIMRAwDgYDVQQIEwdUaHVy
Z2F1MRAwDgYDVQQHEwdLZWZpa29uMRMwEQYDVQQKEwpndWVuZ2VsLmNoMRAwDgYD
VQQDEwdDQSAyMDIyMSQwIgYJKoZIhvcNAQkBFhVwb3N0bWFzdGVyQGd1ZW5nZWwu
Y2iCFG0pkFTpF+nCauZSrYROMI5uV/scMBEGCWCGSAGG+EIBAQQEAwIGwDAdBgNV
HSUEFjAUBggrBgEFBQcDAQYIKwYBBQUHAwIwDQYJKoZIhvcNAQELBQADggIBAGSS
dSQBEG9oLBA3Eke9O9K9KLKJHIvClvq0cNAEG3iH7pcxxpdpziyNlx1IhFUxXKRw
aqTrAir5ff32FrLFVwgTGXJ6mM4Pg2mMA3jUnlER0LjAENuYIjxMpkj3xYE4JjL3
qMDGPfpntJbydtUwROWwrRx7rGC1xdnRum9yQOKoszFc7GWH+jFFBF1aWniWHZO1
H6tzOfGVQC2ZM/6uqlOqKOTv6eX6pRNpdCww8J45FXyw20ZoRnzwtMP9zQrUOXmI
wTv1fE9S3HR02sA2iums6LMP/XfUqw/ro+TOT9Gut+dFbHeonKEJCKntnnqUzBU5
/Mjgm953fypmN9hwSGP+j487Gm9PpmFCGrC1ZFIB2NCEU4y1+sPMjyd9zZdBJuiy
pH5WtuRWtMJ7OSyuqZyxiw+CFEWXWkn5TrQO/f6qOisoFBw3py6624kWgv4zEyV7
evv85NSF9b8PelNJqoYqhrPaydroEdsTVwVrYhp2lE8E7B3lhKWMz9jPAw1QPLEo
NuWEQkCrHqVjPJupNGrKH6D9nyRCf6xBb7zTmzaya8ZEoGUFD0bI/D5qPo99LXSK
RxVe9/t05DDSI2FpClZPsye+hyZ9LEJQ8jthqv9z8ll795kU1zeOPTtw0Y96wzNr
VnuhEZuTNRkrO09G9uRky6xhG2FfWwK2dwDjRIXn
-----END CERTIFICATE-----
