Certificate:
    Data:
        Version: 3 (0x2)
        Serial Number:
            2c:85:b4:ac:3c:73:c1:bf:4d:61:4b:b9:b6:6b:bf:6f:b4:db:c4:b6
        Signature Algorithm: sha256WithRSAEncryption
        Issuer: C=CH, ST=Thurgau, L=Kefikon, O=guengel.ch, CN=CA 2022/emailAddress=postmaster@guengel.ch
        Validity
            Not Before: Dec 30 08:44:33 2023 GMT
            Not After : Feb  2 08:44:33 2025 GMT
        Subject: C=CH, ST=Thurgau, O=guengel.ch, CN=master.k8s.kruemel.home/emailAddress=postmaster@guengel.ch
        Subject Public Key Info:
            Public Key Algorithm: rsaEncryption
                RSA Public-Key: (2048 bit)
                Modulus:
                    00:d6:71:a8:8c:9c:6d:1e:90:5c:dc:2e:66:04:6e:
                    f8:6c:f1:e9:7e:7c:0b:0d:e1:a2:72:0e:dd:68:1e:
                    b0:40:10:5a:2f:6e:f4:ca:9f:79:3a:11:4d:f8:04:
                    b8:e5:88:aa:fa:c1:4e:e9:1e:c2:ff:69:ee:45:cc:
                    a7:f0:ee:ef:3a:2f:46:7e:f1:d7:cb:3e:db:92:bd:
                    ba:d8:fb:c9:8f:39:ce:ad:3a:30:cb:49:d4:44:60:
                    5a:b0:27:97:a7:ca:05:6d:0e:2a:a4:8a:0e:c9:96:
                    c2:df:c5:59:31:fc:8d:4b:22:ca:dd:0c:dc:b9:ab:
                    20:fa:ad:a6:04:e4:22:61:14:18:91:34:23:cc:1a:
                    a5:ac:40:61:65:67:61:2f:29:25:1e:12:57:17:1d:
                    f8:f3:a1:7f:ce:2e:61:71:b5:13:b5:d8:be:19:30:
                    53:46:62:ba:5c:d6:0a:75:c3:c9:3c:ae:73:59:da:
                    1f:15:46:87:4e:20:05:ad:1f:ae:3d:62:27:19:55:
                    21:e0:a1:74:62:25:55:41:45:6b:9c:57:49:dc:9d:
                    5a:1a:ee:c9:aa:a9:e4:cc:bd:00:1b:fc:00:fa:82:
                    e2:09:3d:83:05:b8:b1:a8:9b:4f:74:ce:78:b8:e9:
                    53:b1:c9:ed:15:15:fa:0d:59:c6:13:ed:c9:75:04:
                    ec:5b
                Exponent: 65537 (0x10001)
        X509v3 extensions:
            X509v3 Basic Constraints: critical
                CA:FALSE
            X509v3 Key Usage: 
                Digital Signature, Key Encipherment, Key Agreement
            X509v3 Subject Key Identifier: 
                99:F9:35:2D:8A:01:48:12:67:EB:05:46:2F:DB:0F:65:78:81:1C:4D
            X509v3 Authority Key Identifier: 
                keyid:22:20:0D:51:40:61:42:BE:DD:BA:D9:C9:C1:77:B6:93:28:C3:99:EC
                DirName:/C=CH/ST=Thurgau/L=Kefikon/O=guengel.ch/CN=CA 2022/emailAddress=postmaster@guengel.ch
                serial:6D:29:90:54:E9:17:E9:C2:6A:E6:52:AD:84:4E:30:8E:6E:57:FB:1C

            Netscape Cert Type: 
                SSL Client, SSL Server
            X509v3 Extended Key Usage: 
                TLS Web Server Authentication, TLS Web Client Authentication
    Signature Algorithm: sha256WithRSAEncryption
         6f:68:88:b0:4e:53:d8:6b:d5:05:b0:12:1d:59:64:40:cd:98:
         db:a9:d8:21:b3:2b:9b:c4:a2:f8:34:85:4e:0f:19:83:8e:b1:
         df:51:06:6c:7e:0b:ff:7f:fb:1d:e5:e1:6a:1c:20:77:33:42:
         a6:ee:fd:10:6e:4d:d8:82:4b:20:68:d9:6d:17:7e:72:90:79:
         01:16:95:a4:f6:6f:2c:98:c0:99:5d:e4:de:dc:a9:f8:a1:38:
         24:ee:12:55:eb:8a:01:d8:e8:f5:5c:f3:52:14:f0:2c:37:b2:
         00:53:ae:dd:31:c3:2e:a1:c6:37:e4:01:07:db:fd:a8:6c:43:
         b5:4a:76:c1:eb:31:ab:17:7d:52:e5:09:da:62:19:57:8e:52:
         8b:ae:5e:ff:1e:83:a7:c5:ef:c8:5f:1f:ff:9f:40:18:f4:d3:
         07:46:3e:e0:f0:26:a2:82:57:94:4d:8b:15:d4:8c:ee:76:03:
         be:b3:7c:cf:15:90:75:00:c3:1d:02:5e:2c:e9:61:7c:41:22:
         7e:d1:c6:54:0f:83:df:c5:a6:e3:f6:1b:4b:45:e7:8f:c2:c5:
         71:d9:95:15:8a:c6:e7:35:81:ae:45:18:48:df:6c:a8:29:f6:
         f2:55:b7:cd:bd:d5:cf:c1:9d:8c:e9:13:1d:a7:80:60:1e:56:
         78:7a:eb:76:1f:fc:23:79:49:ae:fe:71:f4:d0:a6:32:b1:70:
         ac:30:c4:a3:2d:26:ce:2e:70:62:57:59:db:f9:03:e4:27:eb:
         23:fe:f5:0f:85:3e:4c:c4:73:45:c2:64:e2:46:54:17:dc:11:
         1b:b7:d9:dc:3d:46:d7:c2:f7:3c:03:e6:ef:c4:67:c7:62:51:
         4f:70:b8:7a:38:a7:b2:03:be:bf:44:5b:3b:bf:39:70:90:6b:
         6e:ef:32:7e:a7:40:45:aa:6f:07:f2:bb:03:95:34:47:e8:b6:
         c0:04:6c:0d:30:3f:14:31:8c:7e:f5:db:bd:8c:6f:cd:1f:bf:
         88:67:f9:08:76:4b:cf:b3:a8:39:7c:ea:28:14:da:e4:68:6d:
         b8:30:1e:3e:52:f8:08:84:56:96:63:b7:7a:4b:a9:14:37:8c:
         8d:40:8e:6c:1e:62:65:b7:cf:40:01:42:1f:e0:66:68:23:a0:
         30:e4:d1:98:7e:b9:1e:31:b8:9d:30:02:e9:1c:f6:06:a6:20:
         58:da:20:28:97:93:87:15:b4:16:42:b7:44:33:a5:3f:80:1b:
         08:3a:ca:97:66:d1:5c:16:c1:ec:cf:e6:70:2f:3d:41:35:79:
         9c:c5:67:ac:e9:45:2f:3a:4d:3d:a9:cc:ba:cb:87:cc:79:7b:
         a6:77:73:0b:2d:1a:b0:50
-----BEGIN CERTIFICATE-----
MIIFujCCA6KgAwIBAgIULIW0rDxzwb9NYUu5tmu/b7TbxLYwDQYJKoZIhvcNAQEL
BQAwfjELMAkGA1UEBhMCQ0gxEDAOBgNVBAgTB1RodXJnYXUxEDAOBgNVBAcTB0tl
Zmlrb24xEzARBgNVBAoTCmd1ZW5nZWwuY2gxEDAOBgNVBAMTB0NBIDIwMjIxJDAi
BgkqhkiG9w0BCQEWFXBvc3RtYXN0ZXJAZ3VlbmdlbC5jaDAeFw0yMzEyMzAwODQ0
MzNaFw0yNTAyMDIwODQ0MzNaMHwxCzAJBgNVBAYTAkNIMRAwDgYDVQQIEwdUaHVy
Z2F1MRMwEQYDVQQKEwpndWVuZ2VsLmNoMSAwHgYDVQQDExdtYXN0ZXIuazhzLmty
dWVtZWwuaG9tZTEkMCIGCSqGSIb3DQEJARYVcG9zdG1hc3RlckBndWVuZ2VsLmNo
MIIBIjANBgkqhkiG9w0BAQEFAAOCAQ8AMIIBCgKCAQEA1nGojJxtHpBc3C5mBG74
bPHpfnwLDeGicg7daB6wQBBaL270yp95OhFN+AS45Yiq+sFO6R7C/2nuRcyn8O7v
Oi9GfvHXyz7bkr262PvJjznOrTowy0nURGBasCeXp8oFbQ4qpIoOyZbC38VZMfyN
SyLK3Qzcuasg+q2mBOQiYRQYkTQjzBqlrEBhZWdhLyklHhJXFx3486F/zi5hcbUT
tdi+GTBTRmK6XNYKdcPJPK5zWdofFUaHTiAFrR+uPWInGVUh4KF0YiVVQUVrnFdJ
3J1aGu7JqqnkzL0AG/wA+oLiCT2DBbixqJtPdM54uOlTscntFRX6DVnGE+3JdQTs
WwIDAQABo4IBMDCCASwwDAYDVR0TAQH/BAIwADALBgNVHQ8EBAMCA6gwHQYDVR0O
BBYEFJn5NS2KAUgSZ+sFRi/bD2V4gRxNMIG9BgNVHSMEgbUwgbKAFCIgDVFAYUK+
3brZycF3tpMow5nsoYGDpIGAMH4xCzAJBgNVBAYTAkNIMRAwDgYDVQQIEwdUaHVy
Z2F1MRAwDgYDVQQHEwdLZWZpa29uMRMwEQYDVQQKEwpndWVuZ2VsLmNoMRAwDgYD
VQQDEwdDQSAyMDIyMSQwIgYJKoZIhvcNAQkBFhVwb3N0bWFzdGVyQGd1ZW5nZWwu
Y2iCFG0pkFTpF+nCauZSrYROMI5uV/scMBEGCWCGSAGG+EIBAQQEAwIGwDAdBgNV
HSUEFjAUBggrBgEFBQcDAQYIKwYBBQUHAwIwDQYJKoZIhvcNAQELBQADggIBAG9o
iLBOU9hr1QWwEh1ZZEDNmNup2CGzK5vEovg0hU4PGYOOsd9RBmx+C/9/+x3l4Woc
IHczQqbu/RBuTdiCSyBo2W0XfnKQeQEWlaT2byyYwJld5N7cqfihOCTuElXrigHY
6PVc81IU8Cw3sgBTrt0xwy6hxjfkAQfb/ahsQ7VKdsHrMasXfVLlCdpiGVeOUouu
Xv8eg6fF78hfH/+fQBj00wdGPuDwJqKCV5RNixXUjO52A76zfM8VkHUAwx0CXizp
YXxBIn7RxlQPg9/FpuP2G0tF54/CxXHZlRWKxuc1ga5FGEjfbKgp9vJVt8291c/B
nYzpEx2ngGAeVnh663Yf/CN5Sa7+cfTQpjKxcKwwxKMtJs4ucGJXWdv5A+Qn6yP+
9Q+FPkzEc0XCZOJGVBfcERu32dw9RtfC9zwD5u/EZ8diUU9wuHo4p7IDvr9EWzu/
OXCQa27vMn6nQEWqbwfyuwOVNEfotsAEbA0wPxQxjH71272Mb80fv4hn+Qh2S8+z
qDl86igU2uRobbgwHj5S+AiEVpZjt3pLqRQ3jI1AjmweYmW3z0ABQh/gZmgjoDDk
0Zh+uR4xuJ0wAukc9gamIFjaICiXk4cVtBZCt0QzpT+AGwg6ypdm0VwWwezP5nAv
PUE1eZzFZ6zpRS86TT2pzLrLh8x5e6Z3cwstGrBQ
-----END CERTIFICATE-----
