Certificate:
    Data:
        Version: 3 (0x2)
        Serial Number:
            01:e7:cc:fb:d9:4c:1c:e5:d7:c5:da:cb:7d:76:ea:5d:e9:9d:86:b3
        Signature Algorithm: sha256WithRSAEncryption
        Issuer: C=CH, ST=Thurgau, L=Kefikon, O=guengel.ch, CN=CA 2022/emailAddress=postmaster@guengel.ch
        Validity
            Not Before: Jan  3 14:04:24 2025 GMT
            Not After : Feb  7 14:04:24 2026 GMT
        Subject: C=CH, ST=Thurgau, O=guengel.ch, CN=master.k8s.kruemel.home/emailAddress=postmaster@guengel.ch
        Subject Public Key Info:
            Public Key Algorithm: rsaEncryption
                Public-Key: (2048 bit)
                Modulus:
                    00:d6:71:a8:8c:9c:6d:1e:90:5c:dc:2e:66:04:6e:
                    f8:6c:f1:e9:7e:7c:0b:0d:e1:a2:72:0e:dd:68:1e:
                    b0:40:10:5a:2f:6e:f4:ca:9f:79:3a:11:4d:f8:04:
                    b8:e5:88:aa:fa:c1:4e:e9:1e:c2:ff:69:ee:45:cc:
                    a7:f0:ee:ef:3a:2f:46:7e:f1:d7:cb:3e:db:92:bd:
                    ba:d8:fb:c9:8f:39:ce:ad:3a:30:cb:49:d4:44:60:
                    5a:b0:27:97:a7:ca:05:6d:0e:2a:a4:8a:0e:c9:96:
                    c2:df:c5:59:31:fc:8d:4b:22:ca:dd:0c:dc:b9:ab:
                    20:fa:ad:a6:04:e4:22:61:14:18:91:34:23:cc:1a:
                    a5:ac:40:61:65:67:61:2f:29:25:1e:12:57:17:1d:
                    f8:f3:a1:7f:ce:2e:61:71:b5:13:b5:d8:be:19:30:
                    53:46:62:ba:5c:d6:0a:75:c3:c9:3c:ae:73:59:da:
                    1f:15:46:87:4e:20:05:ad:1f:ae:3d:62:27:19:55:
                    21:e0:a1:74:62:25:55:41:45:6b:9c:57:49:dc:9d:
                    5a:1a:ee:c9:aa:a9:e4:cc:bd:00:1b:fc:00:fa:82:
                    e2:09:3d:83:05:b8:b1:a8:9b:4f:74:ce:78:b8:e9:
                    53:b1:c9:ed:15:15:fa:0d:59:c6:13:ed:c9:75:04:
                    ec:5b
                Exponent: 65537 (0x10001)
        X509v3 extensions:
            X509v3 Basic Constraints: critical
                CA:FALSE
            X509v3 Key Usage: 
                Digital Signature, Key Encipherment, Key Agreement
            X509v3 Subject Key Identifier: 
                99:F9:35:2D:8A:01:48:12:67:EB:05:46:2F:DB:0F:65:78:81:1C:4D
            X509v3 Authority Key Identifier: 
                keyid:22:20:0D:51:40:61:42:BE:DD:BA:D9:C9:C1:77:B6:93:28:C3:99:EC
                DirName:/C=CH/ST=Thurgau/L=Kefikon/O=guengel.ch/CN=CA 2022/emailAddress=postmaster@guengel.ch
                serial:6D:29:90:54:E9:17:E9:C2:6A:E6:52:AD:84:4E:30:8E:6E:57:FB:1C
            Netscape Cert Type: 
                SSL Client, SSL Server
            X509v3 Extended Key Usage: 
                TLS Web Server Authentication, TLS Web Client Authentication
    Signature Algorithm: sha256WithRSAEncryption
    Signature Value:
        7b:a7:40:fd:6a:57:f8:92:68:42:e1:84:8a:fb:64:7c:75:7e:
        1b:7c:85:c7:97:59:8f:aa:ad:b3:0b:fb:6d:4d:7d:46:fa:e2:
        79:f4:02:4d:78:6e:6c:41:cc:21:45:18:4c:38:b4:af:2a:5c:
        85:bd:07:97:16:e9:8f:4e:ee:e0:36:46:e0:4f:1e:a3:3a:4d:
        0f:df:7b:be:a6:6f:85:e8:ae:d9:30:94:49:a2:9e:1b:ae:42:
        a7:35:48:bc:f3:49:97:d8:86:5b:d0:8e:17:c2:a0:78:07:fd:
        6c:cb:a0:97:19:cf:4f:e1:a4:58:17:ae:71:b0:1c:7f:ad:9b:
        90:66:cc:5f:61:0a:83:e5:51:86:db:5f:ba:b8:39:26:56:58:
        a1:81:92:b3:9f:f4:52:06:fa:6c:90:b5:3e:92:e6:b2:dc:c7:
        48:07:23:9c:48:d3:d9:a1:b3:4b:45:a9:5b:81:be:bb:74:d8:
        8b:d4:6f:c1:0f:b0:cf:66:85:af:54:7b:b2:df:4c:ba:ca:ce:
        60:b1:a8:07:67:6b:69:b9:83:c8:03:26:7a:0c:82:bd:08:2d:
        ef:d7:44:08:92:c8:cb:7c:cd:ec:55:a0:8c:2e:1e:c6:ad:fd:
        52:b7:41:0c:84:a7:5e:4b:a4:ae:fc:49:2d:f8:07:58:97:d7:
        f3:4b:04:80:a4:24:6e:37:82:db:9f:05:c7:24:0d:31:74:27:
        fd:5e:71:07:4a:26:68:f3:74:ae:4b:4f:ff:d4:c2:fd:fe:1c:
        1c:ba:23:a7:5d:fe:a3:ae:ed:42:de:3e:5c:60:cc:da:2f:88:
        3b:37:f2:2a:61:5c:28:05:21:be:99:d2:53:70:85:5b:f4:0d:
        b4:99:cd:df:c1:c3:80:5e:e2:ae:a0:46:ac:a1:f1:24:1f:4f:
        21:41:e8:d1:0d:c6:68:99:7a:aa:b8:86:9a:9e:08:66:71:bc:
        24:e7:67:cd:4c:ed:3e:5d:ca:46:1e:55:b1:37:86:89:6a:5a:
        d9:58:49:ab:47:09:01:50:77:e4:3f:af:a8:d6:7a:ad:8a:60:
        3f:e4:e9:90:ba:db:30:d1:77:87:1f:57:29:f4:70:4a:00:b8:
        62:64:c0:d3:91:e8:e5:08:35:fe:23:26:ed:90:50:b5:c2:b4:
        3a:b9:55:2b:a2:2f:e8:f2:c5:ba:14:6c:6f:f1:b8:68:5b:d6:
        f3:c3:e7:3a:5c:68:b9:8e:9b:2a:b5:6b:51:33:eb:4b:6a:c2:
        60:b6:42:0f:51:c6:2a:19:cb:52:87:fe:47:d1:e9:d7:6d:5e:
        52:3d:8b:e6:64:86:56:92:47:75:fb:91:05:68:26:59:8e:4d:
        ce:fa:6c:e1:fc:e5:bc:15
-----BEGIN CERTIFICATE-----
MIIFujCCA6KgAwIBAgIUAefM+9lMHOXXxdrLfXbqXemdhrMwDQYJKoZIhvcNAQEL
BQAwfjELMAkGA1UEBhMCQ0gxEDAOBgNVBAgTB1RodXJnYXUxEDAOBgNVBAcTB0tl
Zmlrb24xEzARBgNVBAoTCmd1ZW5nZWwuY2gxEDAOBgNVBAMTB0NBIDIwMjIxJDAi
BgkqhkiG9w0BCQEWFXBvc3RtYXN0ZXJAZ3VlbmdlbC5jaDAeFw0yNTAxMDMxNDA0
MjRaFw0yNjAyMDcxNDA0MjRaMHwxCzAJBgNVBAYTAkNIMRAwDgYDVQQIEwdUaHVy
Z2F1MRMwEQYDVQQKEwpndWVuZ2VsLmNoMSAwHgYDVQQDExdtYXN0ZXIuazhzLmty
dWVtZWwuaG9tZTEkMCIGCSqGSIb3DQEJARYVcG9zdG1hc3RlckBndWVuZ2VsLmNo
MIIBIjANBgkqhkiG9w0BAQEFAAOCAQ8AMIIBCgKCAQEA1nGojJxtHpBc3C5mBG74
bPHpfnwLDeGicg7daB6wQBBaL270yp95OhFN+AS45Yiq+sFO6R7C/2nuRcyn8O7v
Oi9GfvHXyz7bkr262PvJjznOrTowy0nURGBasCeXp8oFbQ4qpIoOyZbC38VZMfyN
SyLK3Qzcuasg+q2mBOQiYRQYkTQjzBqlrEBhZWdhLyklHhJXFx3486F/zi5hcbUT
tdi+GTBTRmK6XNYKdcPJPK5zWdofFUaHTiAFrR+uPWInGVUh4KF0YiVVQUVrnFdJ
3J1aGu7JqqnkzL0AG/wA+oLiCT2DBbixqJtPdM54uOlTscntFRX6DVnGE+3JdQTs
WwIDAQABo4IBMDCCASwwDAYDVR0TAQH/BAIwADALBgNVHQ8EBAMCA6gwHQYDVR0O
BBYEFJn5NS2KAUgSZ+sFRi/bD2V4gRxNMIG9BgNVHSMEgbUwgbKAFCIgDVFAYUK+
3brZycF3tpMow5nsoYGDpIGAMH4xCzAJBgNVBAYTAkNIMRAwDgYDVQQIEwdUaHVy
Z2F1MRAwDgYDVQQHEwdLZWZpa29uMRMwEQYDVQQKEwpndWVuZ2VsLmNoMRAwDgYD
VQQDEwdDQSAyMDIyMSQwIgYJKoZIhvcNAQkBFhVwb3N0bWFzdGVyQGd1ZW5nZWwu
Y2iCFG0pkFTpF+nCauZSrYROMI5uV/scMBEGCWCGSAGG+EIBAQQEAwIGwDAdBgNV
HSUEFjAUBggrBgEFBQcDAQYIKwYBBQUHAwIwDQYJKoZIhvcNAQELBQADggIBAHun
QP1qV/iSaELhhIr7ZHx1fht8hceXWY+qrbML+21NfUb64nn0Ak14bmxBzCFFGEw4
tK8qXIW9B5cW6Y9O7uA2RuBPHqM6TQ/fe76mb4XortkwlEminhuuQqc1SLzzSZfY
hlvQjhfCoHgH/WzLoJcZz0/hpFgXrnGwHH+tm5BmzF9hCoPlUYbbX7q4OSZWWKGB
krOf9FIG+myQtT6S5rLcx0gHI5xI09mhs0tFqVuBvrt02IvUb8EPsM9mha9Ue7Lf
TLrKzmCxqAdna2m5g8gDJnoMgr0ILe/XRAiSyMt8zexVoIwuHsat/VK3QQyEp15L
pK78SS34B1iX1/NLBICkJG43gtufBcckDTF0J/1ecQdKJmjzdK5LT//Uwv3+HBy6
I6dd/qOu7ULePlxgzNoviDs38iphXCgFIb6Z0lNwhVv0DbSZzd/Bw4Be4q6gRqyh
8SQfTyFB6NENxmiZeqq4hpqeCGZxvCTnZ81M7T5dykYeVbE3holqWtlYSatHCQFQ
d+Q/r6jWeq2KYD/k6ZC62zDRd4cfVyn0cEoAuGJkwNOR6OUINf4jJu2QULXCtDq5
VSuiL+jyxboUbG/xuGhb1vPD5zpcaLmOmyq1a1Ez60tqwmC2Qg9RxioZy1KH/kfR
6ddtXlI9i+ZkhlaSR3X7kQVoJlmOTc76bOH85bwV
-----END CERTIFICATE-----
