Certificate:
    Data:
        Version: 3 (0x2)
        Serial Number: 461 (0x1cd)
        Signature Algorithm: sha256WithRSAEncryption
        Issuer: C=CH, ST=Thurgau, L=Kefikon, O=guengel.ch, CN=CA guengel.ch/emailAddress=postmaster@guengel.ch
        Validity
            Not Before: Feb 11 07:07:07 2022 GMT
            Not After : Mar 18 07:07:07 2023 GMT
        Subject: C=CH, ST=Thurgau, O=guengel.ch, CN=master.k8s.kruemel.home/emailAddress=postmaster@guengel.ch
        Subject Public Key Info:
            Public Key Algorithm: rsaEncryption
                RSA Public-Key: (2048 bit)
                Modulus:
                    00:c4:34:8d:93:fc:35:1a:08:9d:bb:16:9a:c8:d4:
                    db:2e:cf:b4:5c:66:23:e4:6b:85:36:67:88:f4:72:
                    31:7c:a3:86:ca:23:88:d3:3a:92:92:e6:7b:05:9a:
                    9b:10:00:e2:5b:46:dd:e6:df:75:e5:57:20:7b:85:
                    e6:d9:2f:f6:55:3b:14:47:92:81:15:4f:da:87:05:
                    3f:61:5a:98:58:5f:68:44:cf:d0:a8:37:e6:dd:95:
                    76:4c:be:2f:3b:dd:8c:28:63:87:fc:a9:db:49:ff:
                    83:0d:c3:78:b5:c5:f7:71:37:59:93:4d:e3:3d:7f:
                    16:bf:27:9d:ac:94:7a:ca:11:fb:43:4d:5a:c7:0d:
                    2c:30:6d:c9:f4:c9:45:53:52:fe:dd:44:19:ad:b5:
                    6a:a4:87:39:2b:20:70:24:e2:46:3b:a0:07:e5:b2:
                    47:13:f5:f6:d0:15:b8:7d:6e:1c:6f:08:04:84:be:
                    a9:df:39:c0:0f:a1:97:22:03:69:36:69:b5:2c:a9:
                    f6:44:b3:6b:d0:a9:2a:20:f6:6d:38:2a:ca:9d:00:
                    f3:98:e2:57:71:ae:a5:f0:27:fd:4d:02:18:46:dc:
                    48:c8:6e:3c:13:61:06:5c:15:d7:10:34:71:14:96:
                    63:b5:98:b9:25:4a:35:bb:c1:7f:ea:a1:09:7b:84:
                    91:bd
                Exponent: 65537 (0x10001)
        X509v3 extensions:
            X509v3 Key Usage: 
                Digital Signature, Key Encipherment, Key Agreement
            X509v3 Basic Constraints: critical
                CA:FALSE
            Netscape Cert Type: 
                SSL Client, SSL Server
            X509v3 Extended Key Usage: 
                TLS Web Server Authentication, TLS Web Client Authentication
            X509v3 Subject Alternative Name: 
                DNS:master.k8s.kruemel.home
            X509v3 Subject Key Identifier: 
                EA:27:7F:0F:02:54:82:44:18:BF:0C:5D:CC:39:AA:C7:CB:A9:2C:34
            X509v3 Authority Key Identifier: 
                keyid:D6:88:F1:AA:C1:2B:09:8C:B8:5C:9D:CE:DF:57:39:62:26:10:20:90
                DirName:/C=CH/ST=Thurgau/L=Kefikon/O=guengel.ch/CN=CA guengel.ch/emailAddress=postmaster@guengel.ch
                serial:E5:25:3B:A6:77:BD:CB:FF

    Signature Algorithm: sha256WithRSAEncryption
         84:d7:c0:fc:a6:93:9a:80:4c:71:e4:19:7b:81:e3:a8:1f:d4:
         0e:76:56:f8:87:05:d8:e5:e4:f7:b3:99:65:4d:4b:1f:b1:b5:
         37:d5:16:f9:1d:19:d0:2c:15:c4:6e:71:61:3e:bb:37:57:4d:
         56:5f:3d:22:06:c1:92:06:33:c2:dd:8a:8c:97:95:40:5c:56:
         54:5d:dc:04:61:98:d0:5d:fd:25:3e:1f:67:e5:c4:dc:0b:fb:
         2d:37:c0:ec:94:48:21:3f:ee:8d:4d:80:b9:df:88:3f:2a:4b:
         51:6d:8f:cd:d4:ed:46:21:97:e3:02:a3:e8:af:e3:5f:12:d4:
         28:bd:07:63:08:61:e6:98:71:29:17:3e:0a:6d:28:0a:95:fb:
         8e:67:16:75:b6:8d:39:92:b7:9c:30:c8:bf:1f:19:14:17:1c:
         8d:a1:32:19:92:01:f0:b1:5d:f5:b0:a2:45:1e:00:da:ad:66:
         a6:38:bb:bf:04:2f:d5:fb:b3:4e:b4:25:4f:be:0f:a2:ff:53:
         19:ed:a5:e0:1d:62:df:cd:55:c1:a6:31:43:48:97:00:2d:6e:
         7b:23:83:62:0e:6c:70:93:7e:43:7b:ce:14:b0:f0:c2:d6:36:
         bd:b8:8f:9c:91:37:81:15:01:10:fa:a0:fb:80:bd:a3:8a:f7:
         ee:4c:0a:04:18:db:64:b8:bb:5b:5e:9c:35:cd:d9:40:50:a2:
         28:a1:e6:d2:56:d3:de:b9:29:77:b1:9a:0c:bf:7b:bf:8e:58:
         b7:92:78:b5:f1:96:34:22:e0:32:55:b1:ab:d7:2f:d2:5c:e8:
         aa:ed:64:f8:a5:ff:80:53:0b:ce:8c:b2:c5:44:68:49:e0:ae:
         33:09:45:b6:fc:cf:d1:95:d5:15:ed:e6:6d:08:42:8a:de:84:
         ea:a4:32:7e:e5:65:ef:5c:b1:a7:a7:0e:0f:12:4e:8e:a3:d7:
         de:a1:61:68:49:d0:ce:e5:f7:b5:5c:7b:d9:15:7c:a9:48:bb:
         ed:da:eb:e8:87:fc:c3:b3:37:f3:6b:28:eb:dd:de:0c:8b:25:
         12:29:2c:16:45:b3:39:44:f6:2a:3c:92:2b:b4:a6:bd:4a:25:
         5f:87:c4:ea:52:b8:39:88:a9:dd:12:a3:d9:92:31:6d:5b:69:
         e4:0a:f9:fb:ba:42:c5:e6:f5:0d:45:23:66:4e:1d:0c:c9:d6:
         e3:5b:d6:a6:1e:86:79:0d:5e:42:21:d3:82:ef:38:5c:de:34:
         bb:fb:fc:aa:2b:f2:68:7b:c6:1a:85:e0:a4:c7:9e:9b:38:40:
         ac:ee:1c:6f:a1:a3:7d:4c:75:40:a0:3a:93:2c:c9:01:7a:d1:
         51:f9:7e:21:e6:d7:93:1f
-----BEGIN CERTIFICATE-----
MIIFzzCCA7egAwIBAgICAc0wDQYJKoZIhvcNAQELBQAwgYQxCzAJBgNVBAYTAkNI
MRAwDgYDVQQIEwdUaHVyZ2F1MRAwDgYDVQQHEwdLZWZpa29uMRMwEQYDVQQKEwpn
dWVuZ2VsLmNoMRYwFAYDVQQDEw1DQSBndWVuZ2VsLmNoMSQwIgYJKoZIhvcNAQkB
FhVwb3N0bWFzdGVyQGd1ZW5nZWwuY2gwHhcNMjIwMjExMDcwNzA3WhcNMjMwMzE4
MDcwNzA3WjB8MQswCQYDVQQGEwJDSDEQMA4GA1UECBMHVGh1cmdhdTETMBEGA1UE
ChMKZ3VlbmdlbC5jaDEgMB4GA1UEAxMXbWFzdGVyLms4cy5rcnVlbWVsLmhvbWUx
JDAiBgkqhkiG9w0BCQEWFXBvc3RtYXN0ZXJAZ3VlbmdlbC5jaDCCASIwDQYJKoZI
hvcNAQEBBQADggEPADCCAQoCggEBAMQ0jZP8NRoInbsWmsjU2y7PtFxmI+RrhTZn
iPRyMXyjhsojiNM6kpLmewWamxAA4ltG3ebfdeVXIHuF5tkv9lU7FEeSgRVP2ocF
P2FamFhfaETP0Kg35t2Vdky+LzvdjChjh/yp20n/gw3DeLXF93E3WZNN4z1/Fr8n
nayUesoR+0NNWscNLDBtyfTJRVNS/t1EGa21aqSHOSsgcCTiRjugB+WyRxP19tAV
uH1uHG8IBIS+qd85wA+hlyIDaTZptSyp9kSza9CpKiD2bTgqyp0A85jiV3GupfAn
/U0CGEbcSMhuPBNhBlwV1xA0cRSWY7WYuSVKNbvBf+qhCXuEkb0CAwEAAaOCAVAw
ggFMMAsGA1UdDwQEAwIDqDAMBgNVHRMBAf8EAjAAMBEGCWCGSAGG+EIBAQQEAwIG
wDAdBgNVHSUEFjAUBggrBgEFBQcDAQYIKwYBBQUHAwIwIgYDVR0RBBswGYIXbWFz
dGVyLms4cy5rcnVlbWVsLmhvbWUwHQYDVR0OBBYEFOonfw8CVIJEGL8MXcw5qsfL
qSw0MIG5BgNVHSMEgbEwga6AFNaI8arBKwmMuFydzt9XOWImECCQoYGKpIGHMIGE
MQswCQYDVQQGEwJDSDEQMA4GA1UECBMHVGh1cmdhdTEQMA4GA1UEBxMHS2VmaWtv
bjETMBEGA1UEChMKZ3VlbmdlbC5jaDEWMBQGA1UEAxMNQ0EgZ3VlbmdlbC5jaDEk
MCIGCSqGSIb3DQEJARYVcG9zdG1hc3RlckBndWVuZ2VsLmNoggkA5SU7pne9y/8w
DQYJKoZIhvcNAQELBQADggIBAITXwPymk5qATHHkGXuB46gf1A52VviHBdjl5Pez
mWVNSx+xtTfVFvkdGdAsFcRucWE+uzdXTVZfPSIGwZIGM8LdioyXlUBcVlRd3ARh
mNBd/SU+H2flxNwL+y03wOyUSCE/7o1NgLnfiD8qS1Ftj83U7UYhl+MCo+iv418S
1Ci9B2MIYeaYcSkXPgptKAqV+45nFnW2jTmSt5wwyL8fGRQXHI2hMhmSAfCxXfWw
okUeANqtZqY4u78EL9X7s060JU++D6L/UxntpeAdYt/NVcGmMUNIlwAtbnsjg2IO
bHCTfkN7zhSw8MLWNr24j5yRN4EVARD6oPuAvaOK9+5MCgQY22S4u1tenDXN2UBQ
oiih5tJW0965KXexmgy/e7+OWLeSeLXxljQi4DJVsavXL9Jc6KrtZPil/4BTC86M
ssVEaEngrjMJRbb8z9GV1RXt5m0IQorehOqkMn7lZe9csaenDg8STo6j196hYWhJ
0M7l97Vce9kVfKlIu+3a6+iH/MOzN/NrKOvd3gyLJRIpLBZFszlE9io8kiu0pr1K
JV+HxOpSuDmIqd0So9mSMW1baeQK+fu6QsXm9Q1FI2ZOHQzJ1uNb1qYehnkNXkIh
04LvOFzeNLv7/Kor8mh7xhqF4KTHnps4QKzuHG+ho31MdUCgOpMsyQF60VH5fiHm
15Mf
-----END CERTIFICATE-----
