Certificate:
    Data:
        Version: 3 (0x2)
        Serial Number:
            49:19:11:fc:e9:6d:1b:ac:82:64:22:fc:a6:34:01:ef:35:06:71:d7
        Signature Algorithm: sha256WithRSAEncryption
        Issuer: C=CH, ST=Thurgau, L=Kefikon, O=guengel.ch, CN=CA 2022/emailAddress=postmaster@guengel.ch
        Validity
            Not Before: Feb 28 06:41:29 2023 GMT
            Not After : Apr  3 06:41:29 2024 GMT
        Subject: C=CH, ST=Thurgau, O=guengel.ch, CN=master.k8s.kruemel.home/emailAddress=postmaster@guengel.ch
        Subject Public Key Info:
            Public Key Algorithm: rsaEncryption
                RSA Public-Key: (2048 bit)
                Modulus:
                    00:d6:71:a8:8c:9c:6d:1e:90:5c:dc:2e:66:04:6e:
                    f8:6c:f1:e9:7e:7c:0b:0d:e1:a2:72:0e:dd:68:1e:
                    b0:40:10:5a:2f:6e:f4:ca:9f:79:3a:11:4d:f8:04:
                    b8:e5:88:aa:fa:c1:4e:e9:1e:c2:ff:69:ee:45:cc:
                    a7:f0:ee:ef:3a:2f:46:7e:f1:d7:cb:3e:db:92:bd:
                    ba:d8:fb:c9:8f:39:ce:ad:3a:30:cb:49:d4:44:60:
                    5a:b0:27:97:a7:ca:05:6d:0e:2a:a4:8a:0e:c9:96:
                    c2:df:c5:59:31:fc:8d:4b:22:ca:dd:0c:dc:b9:ab:
                    20:fa:ad:a6:04:e4:22:61:14:18:91:34:23:cc:1a:
                    a5:ac:40:61:65:67:61:2f:29:25:1e:12:57:17:1d:
                    f8:f3:a1:7f:ce:2e:61:71:b5:13:b5:d8:be:19:30:
                    53:46:62:ba:5c:d6:0a:75:c3:c9:3c:ae:73:59:da:
                    1f:15:46:87:4e:20:05:ad:1f:ae:3d:62:27:19:55:
                    21:e0:a1:74:62:25:55:41:45:6b:9c:57:49:dc:9d:
                    5a:1a:ee:c9:aa:a9:e4:cc:bd:00:1b:fc:00:fa:82:
                    e2:09:3d:83:05:b8:b1:a8:9b:4f:74:ce:78:b8:e9:
                    53:b1:c9:ed:15:15:fa:0d:59:c6:13:ed:c9:75:04:
                    ec:5b
                Exponent: 65537 (0x10001)
        X509v3 extensions:
            X509v3 Basic Constraints: critical
                CA:FALSE
            X509v3 Key Usage: 
                Digital Signature, Key Encipherment, Key Agreement
            X509v3 Subject Key Identifier: 
                99:F9:35:2D:8A:01:48:12:67:EB:05:46:2F:DB:0F:65:78:81:1C:4D
            X509v3 Authority Key Identifier: 
                keyid:22:20:0D:51:40:61:42:BE:DD:BA:D9:C9:C1:77:B6:93:28:C3:99:EC
                DirName:/C=CH/ST=Thurgau/L=Kefikon/O=guengel.ch/CN=CA 2022/emailAddress=postmaster@guengel.ch
                serial:6D:29:90:54:E9:17:E9:C2:6A:E6:52:AD:84:4E:30:8E:6E:57:FB:1C

            Netscape Cert Type: 
                SSL Client, SSL Server
            X509v3 Extended Key Usage: 
                TLS Web Server Authentication, TLS Web Client Authentication
    Signature Algorithm: sha256WithRSAEncryption
         96:a7:e0:e9:de:eb:83:7b:4c:79:fb:c8:19:4b:50:47:39:96:
         09:15:e2:63:b4:12:fb:dc:c7:46:8d:35:ef:9c:73:12:8f:27:
         38:80:c1:77:47:91:2c:a4:1f:a4:cb:82:70:28:1f:8c:af:63:
         37:6c:a2:01:b3:50:0b:dd:5e:d3:d8:fa:aa:c3:70:3b:5b:88:
         5e:83:c5:f2:55:1c:98:32:33:f7:71:7b:ff:6c:48:f7:7f:3d:
         2a:20:b6:e3:50:56:6d:7c:99:9b:d6:96:41:84:59:20:70:10:
         e8:e4:ca:1f:4f:0b:37:1a:3b:6a:f7:ae:6a:b1:b4:2e:56:42:
         28:ce:cd:22:5c:07:b8:c8:fd:0c:24:93:7e:5f:8a:34:93:29:
         41:01:5c:fd:a8:29:b8:84:90:4f:e1:c9:d2:b1:a0:ce:f8:b2:
         52:c9:4f:39:66:a5:dd:e9:38:52:e1:c8:9d:10:5c:94:da:33:
         4c:e7:6f:18:40:7a:a3:bb:5b:e7:6a:24:5a:63:bc:f9:2d:24:
         a7:ec:08:3c:53:23:de:13:32:dd:c8:bc:3b:90:4f:6f:eb:eb:
         b6:d9:91:39:66:63:e9:92:8e:f4:65:12:61:73:99:41:fd:e9:
         aa:85:46:df:00:6e:13:1d:b6:bb:bd:4d:8a:7d:ae:c9:28:14:
         a4:ef:05:9e:df:b8:75:94:01:1b:4e:81:d6:d4:da:26:fc:70:
         78:ef:15:03:be:58:69:25:74:89:a0:1c:6d:ca:ae:4c:be:51:
         ab:7f:f9:39:5a:af:e4:10:0c:7e:ba:c2:52:10:6d:95:30:17:
         03:86:41:86:7f:f9:ec:59:02:03:d8:83:c7:6b:34:8e:0a:e9:
         7b:1a:26:6e:a2:eb:77:a2:b7:78:00:93:48:b8:cf:26:a7:ef:
         a0:54:19:a3:49:f0:5c:3a:cd:51:3e:0f:15:46:9d:c3:78:22:
         72:02:67:e7:60:9a:28:7a:02:80:d0:48:ca:a2:cc:30:3e:3f:
         7d:c3:c1:a1:0e:2b:34:3e:6f:0b:23:35:5a:20:48:ef:d5:43:
         2c:9e:5c:4c:f8:33:84:c1:58:4d:ed:5d:d0:3b:73:29:23:32:
         35:c9:51:00:5e:12:e2:0e:2f:83:44:bd:4e:8a:87:53:f5:ed:
         c2:28:cc:67:9c:f5:c6:6b:cd:52:ad:2e:1d:db:a6:07:51:e8:
         75:6f:9d:2b:82:9d:68:6e:a4:33:f3:ef:57:ad:ee:cc:d8:25:
         aa:d7:55:d8:6a:eb:06:c7:8c:10:aa:52:3b:50:7a:85:aa:c7:
         c6:89:5a:bd:e4:08:ba:9d:13:da:c3:85:e7:60:e1:bf:10:67:
         c0:13:99:14:b0:65:c7:16
-----BEGIN CERTIFICATE-----
MIIFujCCA6KgAwIBAgIUSRkR/OltG6yCZCL8pjQB7zUGcdcwDQYJKoZIhvcNAQEL
BQAwfjELMAkGA1UEBhMCQ0gxEDAOBgNVBAgTB1RodXJnYXUxEDAOBgNVBAcTB0tl
Zmlrb24xEzARBgNVBAoTCmd1ZW5nZWwuY2gxEDAOBgNVBAMTB0NBIDIwMjIxJDAi
BgkqhkiG9w0BCQEWFXBvc3RtYXN0ZXJAZ3VlbmdlbC5jaDAeFw0yMzAyMjgwNjQx
MjlaFw0yNDA0MDMwNjQxMjlaMHwxCzAJBgNVBAYTAkNIMRAwDgYDVQQIEwdUaHVy
Z2F1MRMwEQYDVQQKEwpndWVuZ2VsLmNoMSAwHgYDVQQDExdtYXN0ZXIuazhzLmty
dWVtZWwuaG9tZTEkMCIGCSqGSIb3DQEJARYVcG9zdG1hc3RlckBndWVuZ2VsLmNo
MIIBIjANBgkqhkiG9w0BAQEFAAOCAQ8AMIIBCgKCAQEA1nGojJxtHpBc3C5mBG74
bPHpfnwLDeGicg7daB6wQBBaL270yp95OhFN+AS45Yiq+sFO6R7C/2nuRcyn8O7v
Oi9GfvHXyz7bkr262PvJjznOrTowy0nURGBasCeXp8oFbQ4qpIoOyZbC38VZMfyN
SyLK3Qzcuasg+q2mBOQiYRQYkTQjzBqlrEBhZWdhLyklHhJXFx3486F/zi5hcbUT
tdi+GTBTRmK6XNYKdcPJPK5zWdofFUaHTiAFrR+uPWInGVUh4KF0YiVVQUVrnFdJ
3J1aGu7JqqnkzL0AG/wA+oLiCT2DBbixqJtPdM54uOlTscntFRX6DVnGE+3JdQTs
WwIDAQABo4IBMDCCASwwDAYDVR0TAQH/BAIwADALBgNVHQ8EBAMCA6gwHQYDVR0O
BBYEFJn5NS2KAUgSZ+sFRi/bD2V4gRxNMIG9BgNVHSMEgbUwgbKAFCIgDVFAYUK+
3brZycF3tpMow5nsoYGDpIGAMH4xCzAJBgNVBAYTAkNIMRAwDgYDVQQIEwdUaHVy
Z2F1MRAwDgYDVQQHEwdLZWZpa29uMRMwEQYDVQQKEwpndWVuZ2VsLmNoMRAwDgYD
VQQDEwdDQSAyMDIyMSQwIgYJKoZIhvcNAQkBFhVwb3N0bWFzdGVyQGd1ZW5nZWwu
Y2iCFG0pkFTpF+nCauZSrYROMI5uV/scMBEGCWCGSAGG+EIBAQQEAwIGwDAdBgNV
HSUEFjAUBggrBgEFBQcDAQYIKwYBBQUHAwIwDQYJKoZIhvcNAQELBQADggIBAJan
4One64N7THn7yBlLUEc5lgkV4mO0Evvcx0aNNe+ccxKPJziAwXdHkSykH6TLgnAo
H4yvYzdsogGzUAvdXtPY+qrDcDtbiF6DxfJVHJgyM/dxe/9sSPd/PSogtuNQVm18
mZvWlkGEWSBwEOjkyh9PCzcaO2r3rmqxtC5WQijOzSJcB7jI/Qwkk35fijSTKUEB
XP2oKbiEkE/hydKxoM74slLJTzlmpd3pOFLhyJ0QXJTaM0znbxhAeqO7W+dqJFpj
vPktJKfsCDxTI94TMt3IvDuQT2/r67bZkTlmY+mSjvRlEmFzmUH96aqFRt8AbhMd
tru9TYp9rskoFKTvBZ7fuHWUARtOgdbU2ib8cHjvFQO+WGkldImgHG3Krky+Uat/
+Tlar+QQDH66wlIQbZUwFwOGQYZ/+exZAgPYg8drNI4K6XsaJm6i63eit3gAk0i4
zyan76BUGaNJ8Fw6zVE+DxVGncN4InICZ+dgmih6AoDQSMqizDA+P33DwaEOKzQ+
bwsjNVogSO/VQyyeXEz4M4TBWE3tXdA7cykjMjXJUQBeEuIOL4NEvU6Kh1P17cIo
zGec9cZrzVKtLh3bpgdR6HVvnSuCnWhupDPz71et7szYJarXVdhq6wbHjBCqUjtQ
eoWqx8aJWr3kCLqdE9rDhedg4b8QZ8ATmRSwZccW
-----END CERTIFICATE-----
