Certificate:
    Data:
        Version: 3 (0x2)
        Serial Number: 447 (0x1bf)
        Signature Algorithm: sha256WithRSAEncryption
        Issuer: C=CH, ST=Thurgau, L=Kefikon, O=guengel.ch, CN=CA guengel.ch/emailAddress=postmaster@guengel.ch
        Validity
            Not Before: Feb  6 15:23:32 2021 GMT
            Not After : Mar 13 15:23:32 2022 GMT
        Subject: C=CH, ST=Thurgau, O=guengel.ch, CN=master.k8s.kruemel.home/emailAddress=postmaster@guengel.ch
        Subject Public Key Info:
            Public Key Algorithm: rsaEncryption
                RSA Public-Key: (2048 bit)
                Modulus:
                    00:c4:34:8d:93:fc:35:1a:08:9d:bb:16:9a:c8:d4:
                    db:2e:cf:b4:5c:66:23:e4:6b:85:36:67:88:f4:72:
                    31:7c:a3:86:ca:23:88:d3:3a:92:92:e6:7b:05:9a:
                    9b:10:00:e2:5b:46:dd:e6:df:75:e5:57:20:7b:85:
                    e6:d9:2f:f6:55:3b:14:47:92:81:15:4f:da:87:05:
                    3f:61:5a:98:58:5f:68:44:cf:d0:a8:37:e6:dd:95:
                    76:4c:be:2f:3b:dd:8c:28:63:87:fc:a9:db:49:ff:
                    83:0d:c3:78:b5:c5:f7:71:37:59:93:4d:e3:3d:7f:
                    16:bf:27:9d:ac:94:7a:ca:11:fb:43:4d:5a:c7:0d:
                    2c:30:6d:c9:f4:c9:45:53:52:fe:dd:44:19:ad:b5:
                    6a:a4:87:39:2b:20:70:24:e2:46:3b:a0:07:e5:b2:
                    47:13:f5:f6:d0:15:b8:7d:6e:1c:6f:08:04:84:be:
                    a9:df:39:c0:0f:a1:97:22:03:69:36:69:b5:2c:a9:
                    f6:44:b3:6b:d0:a9:2a:20:f6:6d:38:2a:ca:9d:00:
                    f3:98:e2:57:71:ae:a5:f0:27:fd:4d:02:18:46:dc:
                    48:c8:6e:3c:13:61:06:5c:15:d7:10:34:71:14:96:
                    63:b5:98:b9:25:4a:35:bb:c1:7f:ea:a1:09:7b:84:
                    91:bd
                Exponent: 65537 (0x10001)
        X509v3 extensions:
            X509v3 Key Usage: 
                Digital Signature, Key Encipherment, Key Agreement
            X509v3 Basic Constraints: critical
                CA:FALSE
            Netscape Cert Type: 
                SSL Client, SSL Server
            X509v3 Extended Key Usage: 
                TLS Web Server Authentication, TLS Web Client Authentication
            X509v3 Subject Alternative Name: 
                DNS:master.k8s.kruemel.home
            X509v3 Subject Key Identifier: 
                EA:27:7F:0F:02:54:82:44:18:BF:0C:5D:CC:39:AA:C7:CB:A9:2C:34
            X509v3 Authority Key Identifier: 
                keyid:D6:88:F1:AA:C1:2B:09:8C:B8:5C:9D:CE:DF:57:39:62:26:10:20:90
                DirName:/C=CH/ST=Thurgau/L=Kefikon/O=guengel.ch/CN=CA guengel.ch/emailAddress=postmaster@guengel.ch
                serial:E5:25:3B:A6:77:BD:CB:FF

    Signature Algorithm: sha256WithRSAEncryption
         c1:68:80:8d:db:f5:e5:be:39:75:af:eb:ed:5d:ab:3b:50:8c:
         66:a0:78:47:1c:1c:76:c6:d7:d8:74:a3:a0:e4:eb:6a:1b:7f:
         51:fe:e9:61:96:2c:01:42:f8:29:e8:e9:a6:e4:a8:b4:10:2d:
         98:c4:b1:0f:d7:c1:9b:57:d1:3c:f9:ae:7d:3a:72:5b:b9:8c:
         2e:0f:e3:9e:2a:ae:08:73:26:34:a8:f5:58:4d:9c:9f:24:b8:
         e1:30:6a:9a:ab:e7:e1:c1:d2:91:63:12:0b:41:27:60:7b:1a:
         ed:17:1c:73:ff:36:0c:c2:2a:0c:f3:82:d0:67:50:94:06:d1:
         36:ce:f2:c3:65:1c:35:a6:5f:14:a0:7c:0c:38:c2:0c:4a:4d:
         7a:53:3a:60:b1:5d:75:f4:26:2a:89:d0:f5:79:c5:b4:78:0d:
         56:46:6c:f9:58:02:ef:a0:ea:41:5e:f6:0e:eb:0d:be:b2:94:
         c6:d1:05:64:b9:2f:cd:39:9d:d6:06:33:37:7d:bf:7e:62:36:
         ab:8b:4a:1e:d9:54:8f:dd:fe:28:1e:ab:28:a7:ec:67:27:d5:
         31:fd:84:ab:2f:be:53:89:04:ac:f0:f7:7c:30:ed:08:cc:14:
         3f:76:fe:18:24:ac:94:17:62:2d:44:8d:49:f0:68:d3:be:0b:
         97:4e:66:af:a3:f5:ca:27:48:f8:86:d0:c7:ed:74:1e:34:4a:
         5a:06:53:f7:35:0c:45:14:a1:bc:75:fa:de:bb:97:a9:4c:8b:
         e5:96:69:48:29:6e:9d:2b:c6:a8:17:98:89:f0:e2:62:07:fa:
         02:0a:78:f9:53:18:aa:a8:d9:fd:73:51:c2:d8:3d:44:b7:85:
         cf:14:26:4d:10:bf:36:b5:5e:f4:87:b6:b5:d6:fc:72:60:0f:
         26:01:d4:bc:2d:fd:49:c9:52:32:3a:50:52:91:c5:47:e4:97:
         c4:be:fa:0f:89:d6:e3:41:49:e9:84:15:ff:60:48:c3:04:81:
         28:92:da:cb:61:37:75:0a:c0:5e:d2:25:fb:72:ae:75:57:a0:
         19:a2:fe:49:dd:f3:04:1a:18:7f:31:65:59:fa:af:5d:29:51:
         d8:74:2b:a2:c5:7c:db:01:8c:71:54:fc:14:12:f9:09:bf:7a:
         b2:da:02:03:fe:a2:a1:40:03:b7:b3:a4:45:8a:b9:86:b3:e0:
         93:cd:79:66:8b:8d:31:13:e4:d1:d7:d3:05:a2:6c:a5:ee:f3:
         69:8a:2c:eb:71:93:44:85:4a:a4:db:f3:73:c0:79:77:da:2d:
         e0:5a:3b:85:61:2d:54:de:11:55:89:c1:1f:b7:87:ee:83:67:
         b4:f2:02:b5:14:ce:9f:6c
-----BEGIN CERTIFICATE-----
MIIFzzCCA7egAwIBAgICAb8wDQYJKoZIhvcNAQELBQAwgYQxCzAJBgNVBAYTAkNI
MRAwDgYDVQQIEwdUaHVyZ2F1MRAwDgYDVQQHEwdLZWZpa29uMRMwEQYDVQQKEwpn
dWVuZ2VsLmNoMRYwFAYDVQQDEw1DQSBndWVuZ2VsLmNoMSQwIgYJKoZIhvcNAQkB
FhVwb3N0bWFzdGVyQGd1ZW5nZWwuY2gwHhcNMjEwMjA2MTUyMzMyWhcNMjIwMzEz
MTUyMzMyWjB8MQswCQYDVQQGEwJDSDEQMA4GA1UECBMHVGh1cmdhdTETMBEGA1UE
ChMKZ3VlbmdlbC5jaDEgMB4GA1UEAxMXbWFzdGVyLms4cy5rcnVlbWVsLmhvbWUx
JDAiBgkqhkiG9w0BCQEWFXBvc3RtYXN0ZXJAZ3VlbmdlbC5jaDCCASIwDQYJKoZI
hvcNAQEBBQADggEPADCCAQoCggEBAMQ0jZP8NRoInbsWmsjU2y7PtFxmI+RrhTZn
iPRyMXyjhsojiNM6kpLmewWamxAA4ltG3ebfdeVXIHuF5tkv9lU7FEeSgRVP2ocF
P2FamFhfaETP0Kg35t2Vdky+LzvdjChjh/yp20n/gw3DeLXF93E3WZNN4z1/Fr8n
nayUesoR+0NNWscNLDBtyfTJRVNS/t1EGa21aqSHOSsgcCTiRjugB+WyRxP19tAV
uH1uHG8IBIS+qd85wA+hlyIDaTZptSyp9kSza9CpKiD2bTgqyp0A85jiV3GupfAn
/U0CGEbcSMhuPBNhBlwV1xA0cRSWY7WYuSVKNbvBf+qhCXuEkb0CAwEAAaOCAVAw
ggFMMAsGA1UdDwQEAwIDqDAMBgNVHRMBAf8EAjAAMBEGCWCGSAGG+EIBAQQEAwIG
wDAdBgNVHSUEFjAUBggrBgEFBQcDAQYIKwYBBQUHAwIwIgYDVR0RBBswGYIXbWFz
dGVyLms4cy5rcnVlbWVsLmhvbWUwHQYDVR0OBBYEFOonfw8CVIJEGL8MXcw5qsfL
qSw0MIG5BgNVHSMEgbEwga6AFNaI8arBKwmMuFydzt9XOWImECCQoYGKpIGHMIGE
MQswCQYDVQQGEwJDSDEQMA4GA1UECBMHVGh1cmdhdTEQMA4GA1UEBxMHS2VmaWtv
bjETMBEGA1UEChMKZ3VlbmdlbC5jaDEWMBQGA1UEAxMNQ0EgZ3VlbmdlbC5jaDEk
MCIGCSqGSIb3DQEJARYVcG9zdG1hc3RlckBndWVuZ2VsLmNoggkA5SU7pne9y/8w
DQYJKoZIhvcNAQELBQADggIBAMFogI3b9eW+OXWv6+1dqztQjGageEccHHbG19h0
o6Dk62obf1H+6WGWLAFC+Cno6abkqLQQLZjEsQ/XwZtX0Tz5rn06clu5jC4P454q
rghzJjSo9VhNnJ8kuOEwapqr5+HB0pFjEgtBJ2B7Gu0XHHP/NgzCKgzzgtBnUJQG
0TbO8sNlHDWmXxSgfAw4wgxKTXpTOmCxXXX0JiqJ0PV5xbR4DVZGbPlYAu+g6kFe
9g7rDb6ylMbRBWS5L805ndYGMzd9v35iNquLSh7ZVI/d/igeqyin7Gcn1TH9hKsv
vlOJBKzw93ww7QjMFD92/hgkrJQXYi1EjUnwaNO+C5dOZq+j9conSPiG0MftdB40
SloGU/c1DEUUobx1+t67l6lMi+WWaUgpbp0rxqgXmInw4mIH+gIKePlTGKqo2f1z
UcLYPUS3hc8UJk0Qvza1XvSHtrXW/HJgDyYB1Lwt/UnJUjI6UFKRxUfkl8S++g+J
1uNBSemEFf9gSMMEgSiS2sthN3UKwF7SJftyrnVXoBmi/knd8wQaGH8xZVn6r10p
Udh0K6LFfNsBjHFU/BQS+Qm/erLaAgP+oqFAA7ezpEWKuYaz4JPNeWaLjTET5NHX
0wWibKXu82mKLOtxk0SFSqTb83PAeXfaLeBaO4VhLVTeEVWJwR+3h+6DZ7TyArUU
zp9s
-----END CERTIFICATE-----
