Certificate:
    Data:
        Version: 3 (0x2)
        Serial Number: 345 (0x159)
    Signature Algorithm: sha256WithRSAEncryption
        Issuer: C=CH, ST=Thurgau, L=Kefikon, O=guengel.ch, CN=CA guengel.ch/emailAddress=postmaster@guengel.ch
        Validity
            Not Before: Dec 29 14:40:01 2018 GMT
            Not After : Feb  2 14:40:01 2020 GMT
        Subject: C=CH, ST=Thurgau, O=guengel.ch, CN=megatron.kruemel.home/emailAddress=postmaster@guengel.ch
        Subject Public Key Info:
            Public Key Algorithm: rsaEncryption
                Public-Key: (2048 bit)
                Modulus:
                    00:c0:30:b7:a1:26:b5:00:8f:52:86:25:ff:9b:dd:
                    5b:33:08:67:bc:49:24:3f:ab:46:15:f7:da:02:44:
                    50:32:b7:dc:64:fc:e9:ae:e9:a4:9c:74:e4:52:0f:
                    43:22:88:56:de:81:1b:6a:e7:e4:bc:77:b9:de:33:
                    e4:70:06:70:e5:c8:a1:cf:63:d9:ed:40:ba:80:5a:
                    83:30:ab:27:5d:99:9c:60:6f:40:27:f5:3f:1d:2e:
                    3c:e9:7a:ad:f8:0e:5e:54:c7:0a:8a:bd:19:4f:b5:
                    21:75:b4:e0:b4:2e:68:ab:aa:a8:03:97:e6:ce:98:
                    27:41:33:1c:30:ab:17:5d:c0:35:3c:dc:3e:cc:c2:
                    c0:c0:7f:f8:81:53:34:ad:69:3c:60:95:07:bc:f4:
                    e3:9d:5c:b8:37:26:e2:61:f9:86:e1:f5:f8:43:37:
                    0a:c4:8c:4f:97:6a:f7:ab:20:7a:53:ef:02:74:4d:
                    85:a9:17:98:17:5e:fa:a8:d9:6b:39:a4:f3:dd:80:
                    50:ab:b4:5c:f3:fb:09:80:9c:e8:5c:cc:88:b1:78:
                    4b:36:1f:11:a0:91:78:79:6c:c1:2b:b1:9d:da:eb:
                    49:24:af:e9:82:e4:ab:72:1c:49:d0:8c:8f:c2:e7:
                    fc:58:2e:9b:56:19:88:1a:9c:ee:0e:09:93:6f:5d:
                    bd:73
                Exponent: 65537 (0x10001)
        X509v3 extensions:
            X509v3 Basic Constraints: 
                CA:FALSE
            Netscape Comment: 
                OpenSSL Generated Certificate
            X509v3 Subject Key Identifier: 
                49:AA:53:23:D7:A1:6B:B5:19:C3:A8:96:22:60:91:C2:5E:53:DC:8A
            X509v3 Authority Key Identifier: 
                keyid:D6:88:F1:AA:C1:2B:09:8C:B8:5C:9D:CE:DF:57:39:62:26:10:20:90
                DirName:/C=CH/ST=Thurgau/L=Kefikon/O=guengel.ch/CN=CA guengel.ch/emailAddress=postmaster@guengel.ch
                serial:E5:25:3B:A6:77:BD:CB:FF

    Signature Algorithm: sha256WithRSAEncryption
         c3:8e:95:47:06:43:f7:78:d1:cb:0c:92:e1:28:95:65:ce:20:
         05:85:7a:c2:13:8c:10:aa:bb:c5:a8:86:e4:51:80:e0:cc:b8:
         7b:58:5e:5e:57:43:34:ee:5c:cc:6e:5d:e1:a3:19:1f:11:3b:
         75:65:f6:9a:19:6f:34:b1:84:f1:d4:ba:ec:91:6d:7d:5a:67:
         0f:7f:9e:64:0e:fa:6f:12:f0:ac:7e:93:04:3d:3d:97:90:e6:
         ce:fa:24:5a:c8:c1:a4:08:99:41:1b:02:e4:5c:f9:09:da:65:
         ca:e9:42:ba:79:91:97:ef:ab:ea:b9:17:3a:b6:98:f5:8f:44:
         c1:e9:7f:88:bd:b7:00:b9:39:8a:30:e4:5e:92:cc:f6:08:11:
         0f:5d:2e:58:59:49:dc:d4:a3:07:d3:86:37:5f:47:27:65:c9:
         82:c0:c0:db:ba:a9:f3:5c:6c:c6:59:d1:fd:bc:3a:8f:56:a8:
         1a:38:66:4b:a2:82:ec:64:36:a5:a4:17:e7:28:bc:5d:40:e3:
         c5:77:0c:e3:be:7f:e2:33:06:21:45:97:49:66:34:4c:11:ea:
         6e:54:e7:da:94:db:f6:55:93:ce:29:e8:de:73:4a:1c:28:ec:
         46:55:e4:61:38:4c:04:3b:95:a5:ca:00:56:d5:1b:05:7e:ec:
         f6:92:d5:10:d8:4c:b2:c6:be:b6:df:e7:5a:88:36:80:74:7e:
         5d:44:12:dd:ee:01:26:d3:f8:8d:5a:5e:1d:a6:f1:ae:ea:8f:
         7d:c1:15:94:66:e7:d1:77:4e:1e:b5:3d:ab:82:37:22:1e:13:
         82:25:5d:f1:cc:f4:5f:e3:d4:a1:fb:3c:f1:5f:d6:d5:aa:0c:
         f9:81:4e:dd:7e:2d:8f:f6:e5:1b:48:c8:fd:07:c1:5c:03:5f:
         6c:39:30:32:00:53:01:53:dd:88:7d:5c:9c:cf:98:2f:b5:00:
         fc:d5:cf:96:05:8a:a4:bc:1f:ac:05:5f:cf:04:e6:2e:93:40:
         23:56:7c:59:35:72:f6:c8:6d:ff:51:ca:6d:e6:a6:d0:17:0d:
         39:c9:55:55:24:89:ea:c3:2b:1f:ad:d1:60:3f:91:d8:0d:59:
         67:99:41:7e:a9:08:ed:d5:e1:a3:34:a7:89:fe:a3:d4:ab:e5:
         1d:49:54:08:41:f7:1f:13:4c:9a:8b:bf:f2:29:0d:96:9a:24:
         05:02:81:2c:0c:23:dc:3e:18:7f:7e:c6:6f:c1:c0:82:49:f8:
         a8:cf:ce:66:c0:42:97:17:2e:27:53:d5:5d:d2:b1:eb:53:f7:
         6a:98:44:3e:dd:30:f4:ad:cd:4f:35:25:37:f5:50:7c:a9:1e:
         a4:76:5c:98:3a:42:c2:cc
-----BEGIN CERTIFICATE-----
MIIFlTCCA32gAwIBAgICAVkwDQYJKoZIhvcNAQELBQAwgYQxCzAJBgNVBAYTAkNI
MRAwDgYDVQQIEwdUaHVyZ2F1MRAwDgYDVQQHEwdLZWZpa29uMRMwEQYDVQQKEwpn
dWVuZ2VsLmNoMRYwFAYDVQQDEw1DQSBndWVuZ2VsLmNoMSQwIgYJKoZIhvcNAQkB
FhVwb3N0bWFzdGVyQGd1ZW5nZWwuY2gwHhcNMTgxMjI5MTQ0MDAxWhcNMjAwMjAy
MTQ0MDAxWjB6MQswCQYDVQQGEwJDSDEQMA4GA1UECBMHVGh1cmdhdTETMBEGA1UE
ChMKZ3VlbmdlbC5jaDEeMBwGA1UEAxMVbWVnYXRyb24ua3J1ZW1lbC5ob21lMSQw
IgYJKoZIhvcNAQkBFhVwb3N0bWFzdGVyQGd1ZW5nZWwuY2gwggEiMA0GCSqGSIb3
DQEBAQUAA4IBDwAwggEKAoIBAQDAMLehJrUAj1KGJf+b3VszCGe8SSQ/q0YV99oC
RFAyt9xk/Omu6aScdORSD0MiiFbegRtq5+S8d7neM+RwBnDlyKHPY9ntQLqAWoMw
qyddmZxgb0An9T8dLjzpeq34Dl5UxwqKvRlPtSF1tOC0LmirqqgDl+bOmCdBMxww
qxddwDU83D7MwsDAf/iBUzStaTxglQe89OOdXLg3JuJh+Ybh9fhDNwrEjE+Xaver
IHpT7wJ0TYWpF5gXXvqo2Ws5pPPdgFCrtFzz+wmAnOhczIixeEs2HxGgkXh5bMEr
sZ3a60kkr+mC5KtyHEnQjI/C5/xYLptWGYganO4OCZNvXb1zAgMBAAGjggEYMIIB
FDAJBgNVHRMEAjAAMCwGCWCGSAGG+EIBDQQfFh1PcGVuU1NMIEdlbmVyYXRlZCBD
ZXJ0aWZpY2F0ZTAdBgNVHQ4EFgQUSapTI9eha7UZw6iWImCRwl5T3IowgbkGA1Ud
IwSBsTCBroAU1ojxqsErCYy4XJ3O31c5YiYQIJChgYqkgYcwgYQxCzAJBgNVBAYT
AkNIMRAwDgYDVQQIEwdUaHVyZ2F1MRAwDgYDVQQHEwdLZWZpa29uMRMwEQYDVQQK
EwpndWVuZ2VsLmNoMRYwFAYDVQQDEw1DQSBndWVuZ2VsLmNoMSQwIgYJKoZIhvcN
AQkBFhVwb3N0bWFzdGVyQGd1ZW5nZWwuY2iCCQDlJTumd73L/zANBgkqhkiG9w0B
AQsFAAOCAgEAw46VRwZD93jRywyS4SiVZc4gBYV6whOMEKq7xaiG5FGA4My4e1he
XldDNO5czG5d4aMZHxE7dWX2mhlvNLGE8dS67JFtfVpnD3+eZA76bxLwrH6TBD09
l5DmzvokWsjBpAiZQRsC5Fz5CdplyulCunmRl++r6rkXOraY9Y9Ewel/iL23ALk5
ijDkXpLM9ggRD10uWFlJ3NSjB9OGN19HJ2XJgsDA27qp81xsxlnR/bw6j1aoGjhm
S6KC7GQ2paQX5yi8XUDjxXcM475/4jMGIUWXSWY0TBHqblTn2pTb9lWTzino3nNK
HCjsRlXkYThMBDuVpcoAVtUbBX7s9pLVENhMssa+tt/nWog2gHR+XUQS3e4BJtP4
jVpeHabxruqPfcEVlGbn0XdOHrU9q4I3Ih4TgiVd8cz0X+PUofs88V/W1aoM+YFO
3X4tj/blG0jI/QfBXANfbDkwMgBTAVPdiH1cnM+YL7UA/NXPlgWKpLwfrAVfzwTm
LpNAI1Z8WTVy9sht/1HKbeam0BcNOclVVSSJ6sMrH63RYD+R2A1ZZ5lBfqkI7dXh
ozSnif6j1KvlHUlUCEH3HxNMmou/8ikNlpokBQKBLAwj3D4Yf37Gb8HAgkn4qM/O
ZsBClxcuJ1PVXdKx61P3aphEPt0w9K3NTzUlN/VQfKkepHZcmDpCwsw=
-----END CERTIFICATE-----
