Certificate:
    Data:
        Version: 3 (0x2)
        Serial Number: 306 (0x132)
    Signature Algorithm: sha256WithRSAEncryption
        Issuer: C=CH, ST=Thurgau, L=Kefikon, O=guengel.ch, CN=CA guengel.ch/emailAddress=postmaster@guengel.ch
        Validity
            Not Before: Jan  6 18:02:58 2018 GMT
            Not After : Feb 10 18:02:58 2019 GMT
        Subject: C=CH, ST=Thurgau, O=guengel.ch, CN=megatron.kruemel.home/emailAddress=postmaster@guengel.ch
        Subject Public Key Info:
            Public Key Algorithm: rsaEncryption
                Public-Key: (2048 bit)
                Modulus:
                    00:c0:30:b7:a1:26:b5:00:8f:52:86:25:ff:9b:dd:
                    5b:33:08:67:bc:49:24:3f:ab:46:15:f7:da:02:44:
                    50:32:b7:dc:64:fc:e9:ae:e9:a4:9c:74:e4:52:0f:
                    43:22:88:56:de:81:1b:6a:e7:e4:bc:77:b9:de:33:
                    e4:70:06:70:e5:c8:a1:cf:63:d9:ed:40:ba:80:5a:
                    83:30:ab:27:5d:99:9c:60:6f:40:27:f5:3f:1d:2e:
                    3c:e9:7a:ad:f8:0e:5e:54:c7:0a:8a:bd:19:4f:b5:
                    21:75:b4:e0:b4:2e:68:ab:aa:a8:03:97:e6:ce:98:
                    27:41:33:1c:30:ab:17:5d:c0:35:3c:dc:3e:cc:c2:
                    c0:c0:7f:f8:81:53:34:ad:69:3c:60:95:07:bc:f4:
                    e3:9d:5c:b8:37:26:e2:61:f9:86:e1:f5:f8:43:37:
                    0a:c4:8c:4f:97:6a:f7:ab:20:7a:53:ef:02:74:4d:
                    85:a9:17:98:17:5e:fa:a8:d9:6b:39:a4:f3:dd:80:
                    50:ab:b4:5c:f3:fb:09:80:9c:e8:5c:cc:88:b1:78:
                    4b:36:1f:11:a0:91:78:79:6c:c1:2b:b1:9d:da:eb:
                    49:24:af:e9:82:e4:ab:72:1c:49:d0:8c:8f:c2:e7:
                    fc:58:2e:9b:56:19:88:1a:9c:ee:0e:09:93:6f:5d:
                    bd:73
                Exponent: 65537 (0x10001)
        X509v3 extensions:
            X509v3 Basic Constraints: 
                CA:FALSE
            Netscape Comment: 
                OpenSSL Generated Certificate
            X509v3 Subject Key Identifier: 
                49:AA:53:23:D7:A1:6B:B5:19:C3:A8:96:22:60:91:C2:5E:53:DC:8A
            X509v3 Authority Key Identifier: 
                keyid:D6:88:F1:AA:C1:2B:09:8C:B8:5C:9D:CE:DF:57:39:62:26:10:20:90
                DirName:/C=CH/ST=Thurgau/L=Kefikon/O=guengel.ch/CN=CA guengel.ch/emailAddress=postmaster@guengel.ch
                serial:E5:25:3B:A6:77:BD:CB:FF

    Signature Algorithm: sha256WithRSAEncryption
         b3:d8:0c:c5:c8:cb:1d:a2:f7:7b:be:21:e5:c8:21:c2:71:4e:
         5d:56:ee:14:48:a5:ef:34:8f:fb:e7:7a:c3:0f:6a:56:cb:f1:
         ea:c3:8f:fd:a2:2e:11:9e:27:cc:c5:7a:39:6f:b0:04:2f:49:
         25:bc:6b:48:33:84:85:5f:8d:3e:a8:94:9b:45:de:58:36:5b:
         47:73:2d:45:63:d0:e5:b2:d9:d6:ad:55:b2:58:f4:e9:1a:fa:
         c4:a4:72:4e:91:49:fd:02:55:d9:c6:43:45:8d:53:5f:57:f0:
         a8:ec:29:52:f7:c4:0f:85:f2:45:ad:02:d2:f5:58:60:22:18:
         ec:65:ed:db:19:fc:36:01:2d:df:76:b6:45:97:61:13:56:06:
         ee:ac:f0:b7:2f:2f:24:67:fd:3e:e4:bc:1e:78:6c:8a:f3:a8:
         45:e2:80:93:c1:87:17:79:65:c7:8b:be:18:50:f1:23:18:22:
         97:04:d2:82:c5:9d:5b:52:e7:55:8d:f9:13:52:87:2f:8f:55:
         f2:40:c2:1c:6c:af:ae:43:2e:aa:4a:af:e0:1c:8a:3c:8a:04:
         2a:9b:b3:66:f4:eb:a3:df:d7:fc:35:07:d4:bd:0e:96:cf:35:
         d7:fe:a4:0e:36:8c:c4:02:3f:d5:68:4e:5f:39:a1:27:6b:7e:
         c3:9a:be:ce:be:d5:79:15:fa:08:be:9d:4b:fb:a1:4b:86:bd:
         95:3f:d1:7f:ef:4c:da:bc:33:68:8c:1a:e7:c0:81:28:8a:3b:
         e6:3d:c3:29:9a:3c:8c:ef:64:83:89:4e:1b:8c:65:4e:59:f3:
         92:04:95:fe:95:ea:ce:24:21:ef:89:42:7b:84:44:e8:4c:f8:
         95:a9:fd:f6:d1:c6:0c:fc:ad:b8:99:4a:b2:5f:e5:5a:9c:19:
         52:1c:fb:e3:00:81:65:28:05:c3:a6:3b:8e:ac:58:8c:03:81:
         c5:60:22:26:45:f9:cd:d3:03:17:f3:d5:d0:1f:59:0b:1f:bc:
         a8:cf:ec:eb:e6:a5:5c:7e:d4:0b:9b:f6:26:81:ca:d0:f3:7e:
         bf:ec:61:9b:ab:ec:4d:60:58:9f:a5:49:0e:2d:5b:60:af:13:
         5b:1e:4f:bc:1f:32:5a:ad:d2:cd:0a:3c:20:a0:ce:28:7f:67:
         d8:7c:29:d3:53:11:0e:1d:62:71:28:09:ed:50:82:68:ac:99:
         70:07:d8:4a:7a:6f:64:cf:49:21:1e:88:ee:e7:35:35:f1:94:
         d2:38:b8:d2:02:f1:80:1d:65:cd:d1:51:54:13:fe:e8:bd:53:
         23:56:58:6b:8b:64:4e:a3:81:3a:d2:4c:ee:ef:cf:73:94:9e:
         d4:ee:50:d9:1d:27:b2:c3
-----BEGIN CERTIFICATE-----
MIIFlTCCA32gAwIBAgICATIwDQYJKoZIhvcNAQELBQAwgYQxCzAJBgNVBAYTAkNI
MRAwDgYDVQQIEwdUaHVyZ2F1MRAwDgYDVQQHEwdLZWZpa29uMRMwEQYDVQQKEwpn
dWVuZ2VsLmNoMRYwFAYDVQQDEw1DQSBndWVuZ2VsLmNoMSQwIgYJKoZIhvcNAQkB
FhVwb3N0bWFzdGVyQGd1ZW5nZWwuY2gwHhcNMTgwMTA2MTgwMjU4WhcNMTkwMjEw
MTgwMjU4WjB6MQswCQYDVQQGEwJDSDEQMA4GA1UECBMHVGh1cmdhdTETMBEGA1UE
ChMKZ3VlbmdlbC5jaDEeMBwGA1UEAxMVbWVnYXRyb24ua3J1ZW1lbC5ob21lMSQw
IgYJKoZIhvcNAQkBFhVwb3N0bWFzdGVyQGd1ZW5nZWwuY2gwggEiMA0GCSqGSIb3
DQEBAQUAA4IBDwAwggEKAoIBAQDAMLehJrUAj1KGJf+b3VszCGe8SSQ/q0YV99oC
RFAyt9xk/Omu6aScdORSD0MiiFbegRtq5+S8d7neM+RwBnDlyKHPY9ntQLqAWoMw
qyddmZxgb0An9T8dLjzpeq34Dl5UxwqKvRlPtSF1tOC0LmirqqgDl+bOmCdBMxww
qxddwDU83D7MwsDAf/iBUzStaTxglQe89OOdXLg3JuJh+Ybh9fhDNwrEjE+Xaver
IHpT7wJ0TYWpF5gXXvqo2Ws5pPPdgFCrtFzz+wmAnOhczIixeEs2HxGgkXh5bMEr
sZ3a60kkr+mC5KtyHEnQjI/C5/xYLptWGYganO4OCZNvXb1zAgMBAAGjggEYMIIB
FDAJBgNVHRMEAjAAMCwGCWCGSAGG+EIBDQQfFh1PcGVuU1NMIEdlbmVyYXRlZCBD
ZXJ0aWZpY2F0ZTAdBgNVHQ4EFgQUSapTI9eha7UZw6iWImCRwl5T3IowgbkGA1Ud
IwSBsTCBroAU1ojxqsErCYy4XJ3O31c5YiYQIJChgYqkgYcwgYQxCzAJBgNVBAYT
AkNIMRAwDgYDVQQIEwdUaHVyZ2F1MRAwDgYDVQQHEwdLZWZpa29uMRMwEQYDVQQK
EwpndWVuZ2VsLmNoMRYwFAYDVQQDEw1DQSBndWVuZ2VsLmNoMSQwIgYJKoZIhvcN
AQkBFhVwb3N0bWFzdGVyQGd1ZW5nZWwuY2iCCQDlJTumd73L/zANBgkqhkiG9w0B
AQsFAAOCAgEAs9gMxcjLHaL3e74h5cghwnFOXVbuFEil7zSP++d6ww9qVsvx6sOP
/aIuEZ4nzMV6OW+wBC9JJbxrSDOEhV+NPqiUm0XeWDZbR3MtRWPQ5bLZ1q1Vslj0
6Rr6xKRyTpFJ/QJV2cZDRY1TX1fwqOwpUvfED4XyRa0C0vVYYCIY7GXt2xn8NgEt
33a2RZdhE1YG7qzwty8vJGf9PuS8HnhsivOoReKAk8GHF3llx4u+GFDxIxgilwTS
gsWdW1LnVY35E1KHL49V8kDCHGyvrkMuqkqv4ByKPIoEKpuzZvTro9/X/DUH1L0O
ls811/6kDjaMxAI/1WhOXzmhJ2t+w5q+zr7VeRX6CL6dS/uhS4a9lT/Rf+9M2rwz
aIwa58CBKIo75j3DKZo8jO9kg4lOG4xlTlnzkgSV/pXqziQh74lCe4RE6Ez4lan9
9tHGDPytuJlKsl/lWpwZUhz74wCBZSgFw6Y7jqxYjAOBxWAiJkX5zdMDF/PV0B9Z
Cx+8qM/s6+alXH7UC5v2JoHK0PN+v+xhm6vsTWBYn6VJDi1bYK8TWx5PvB8yWq3S
zQo8IKDOKH9n2Hwp01MRDh1icSgJ7VCCaKyZcAfYSnpvZM9JIR6I7uc1NfGU0ji4
0gLxgB1lzdFRVBP+6L1TI1ZYa4tkTqOBOtJM7u/Pc5Se1O5Q2R0nssM=
-----END CERTIFICATE-----
