Certificate:
    Data:
        Version: 3 (0x2)
        Serial Number:
            71:a3:90:64:28:3d:96:ed:67:b0:f5:d4:a7:59:3a:df:fc:b6:d5:ac
        Signature Algorithm: sha256WithRSAEncryption
        Issuer: C=CH, ST=Thurgau, L=Kefikon, O=guengel.ch, CN=CA 2022/emailAddress=postmaster@guengel.ch
        Validity
            Not Before: Dec 30 08:44:35 2023 GMT
            Not After : Feb  2 08:44:35 2025 GMT
        Subject: C=CH, ST=Thurgau, O=guengel.ch, CN=merlin.virtual.kruemel.home/emailAddress=postmaster@guengel.ch
        Subject Public Key Info:
            Public Key Algorithm: rsaEncryption
                RSA Public-Key: (2048 bit)
                Modulus:
                    00:9d:35:3a:0e:36:7c:29:bf:98:c2:6d:03:14:13:
                    fd:22:cd:63:06:a1:dc:bd:d8:b5:2a:2e:85:6f:35:
                    75:4c:93:f7:ae:67:3b:92:aa:31:16:45:95:1d:9c:
                    54:ab:0f:8f:ca:49:01:b1:f5:f0:b4:ac:28:95:c5:
                    f6:aa:41:52:b4:65:e3:f7:6f:67:bd:25:7c:f7:d1:
                    1e:34:a5:e0:8d:29:1e:e7:e9:eb:27:1f:fb:23:a5:
                    26:85:3e:ed:10:7d:68:0d:aa:99:be:46:09:cf:33:
                    b3:13:de:4f:39:98:5e:2f:e3:e5:12:6d:e7:c4:e7:
                    84:d8:08:f8:cc:43:72:aa:d9:88:ae:26:2f:2b:96:
                    a9:fa:76:49:4e:6d:e9:32:fb:2a:f7:da:11:15:00:
                    d4:da:3a:c6:39:8c:3b:f9:72:99:e9:be:84:47:16:
                    eb:d2:65:b9:71:ea:11:aa:3b:54:45:11:26:41:41:
                    70:f5:24:58:67:b2:d1:f1:b4:00:09:0e:7a:ac:6a:
                    31:54:3f:d7:bb:7d:1e:ac:b8:1a:c2:7b:b0:11:ec:
                    ce:07:1e:81:53:c8:41:a2:65:33:33:cc:e1:13:67:
                    0a:f9:4c:0c:8f:4b:17:bd:a7:d5:d7:4a:71:70:04:
                    29:1d:a7:d7:25:38:ae:d8:0c:55:f2:7e:74:3c:48:
                    53:b5
                Exponent: 65537 (0x10001)
        X509v3 extensions:
            X509v3 Basic Constraints: critical
                CA:FALSE
            X509v3 Key Usage: 
                Digital Signature, Key Encipherment, Key Agreement
            X509v3 Subject Key Identifier: 
                4D:F6:8A:CD:A5:2C:B6:DE:0F:CF:EF:A9:74:46:FD:8D:A6:84:60:CB
            X509v3 Authority Key Identifier: 
                keyid:22:20:0D:51:40:61:42:BE:DD:BA:D9:C9:C1:77:B6:93:28:C3:99:EC
                DirName:/C=CH/ST=Thurgau/L=Kefikon/O=guengel.ch/CN=CA 2022/emailAddress=postmaster@guengel.ch
                serial:6D:29:90:54:E9:17:E9:C2:6A:E6:52:AD:84:4E:30:8E:6E:57:FB:1C

            Netscape Cert Type: 
                SSL Client, SSL Server
            X509v3 Extended Key Usage: 
                TLS Web Server Authentication, TLS Web Client Authentication
    Signature Algorithm: sha256WithRSAEncryption
         ad:e0:bc:4a:22:e2:9a:4b:b2:5f:b7:d2:e2:62:40:9e:27:da:
         e6:c0:50:78:5a:63:4d:7a:cf:a3:a4:25:54:cd:c8:73:4f:13:
         3b:d9:db:3e:2c:d1:9e:8a:58:12:f6:32:2c:52:46:ff:58:64:
         6e:e8:97:81:4e:83:03:44:57:ce:03:e2:54:82:20:4a:50:77:
         ad:c5:4f:ac:5d:fe:7e:2a:62:39:ff:07:52:a2:07:ac:02:f3:
         50:3d:4f:0b:29:79:61:61:70:69:77:4c:3b:47:de:c2:27:a6:
         4a:26:d3:f3:91:b6:88:20:de:5d:0d:a7:ad:ec:8c:a6:11:ef:
         ca:6a:2b:c6:50:40:ed:df:af:30:5c:43:5c:c6:ad:c1:44:e0:
         6d:fb:89:9b:ed:c3:2b:8e:8d:66:a3:44:81:25:db:66:9b:81:
         e6:3b:13:e7:c0:e1:e5:1d:18:53:20:42:43:e8:55:89:2d:cf:
         b7:4a:96:f9:eb:4f:8f:eb:00:6a:ed:96:f6:a1:24:4a:26:4f:
         eb:5a:c3:4e:4c:a3:da:57:ac:48:3c:22:a6:b7:aa:e0:7d:d4:
         69:95:dc:d8:ff:d0:20:bd:1b:e4:74:ec:e9:e4:7e:e4:3d:89:
         f9:8e:f8:be:7f:5a:cf:a6:72:f5:eb:e8:41:52:8c:fb:45:a1:
         d3:1c:c3:32:4d:40:06:d5:33:0b:77:d3:f8:3d:cb:a1:bd:2f:
         00:86:db:49:23:af:e6:05:25:74:ec:56:b3:81:42:08:c0:b1:
         ff:91:aa:7f:7b:2d:d6:ed:d0:65:2c:90:1b:5d:23:d0:bb:3f:
         67:3c:0b:9d:d4:c6:5a:9b:3e:02:2b:db:d3:7a:50:79:a1:c3:
         35:68:32:cb:83:32:85:c1:13:5d:ec:ab:3e:42:0f:a0:0d:00:
         ab:5b:e8:da:1b:c6:16:a6:a3:2c:ae:64:23:64:21:f2:7b:53:
         3f:6b:14:ad:e8:d2:88:31:2f:57:d4:4c:a9:bc:7b:5c:49:80:
         c3:4c:85:30:03:63:6d:f4:ef:11:46:46:0b:40:4b:92:24:a2:
         bf:85:75:de:47:11:7d:72:56:23:0d:31:cc:0d:0b:90:9d:59:
         59:69:a7:ee:5c:39:8c:95:a0:f0:17:ac:b6:12:65:26:3f:af:
         38:af:c9:74:c4:07:84:4a:69:d1:b8:d9:b8:65:fb:64:ed:0f:
         f8:01:1c:0a:8b:2a:52:bc:7f:a1:dc:cc:c8:5e:11:61:b7:6d:
         ab:ae:a4:e1:76:23:1b:4b:ed:ed:30:b0:b4:3b:6d:2e:c0:c3:
         55:f5:a1:b4:eb:3f:48:9f:f0:7b:5f:f8:18:e3:54:4d:a2:7b:
         d9:73:66:b8:89:2b:6b:a7
-----BEGIN CERTIFICATE-----
MIIFvzCCA6egAwIBAgIUcaOQZCg9lu1nsPXUp1k63/y21awwDQYJKoZIhvcNAQEL
BQAwfjELMAkGA1UEBhMCQ0gxEDAOBgNVBAgTB1RodXJnYXUxEDAOBgNVBAcTB0tl
Zmlrb24xEzARBgNVBAoTCmd1ZW5nZWwuY2gxEDAOBgNVBAMTB0NBIDIwMjIxJDAi
BgkqhkiG9w0BCQEWFXBvc3RtYXN0ZXJAZ3VlbmdlbC5jaDAeFw0yMzEyMzAwODQ0
MzVaFw0yNTAyMDIwODQ0MzVaMIGAMQswCQYDVQQGEwJDSDEQMA4GA1UECBMHVGh1
cmdhdTETMBEGA1UEChMKZ3VlbmdlbC5jaDEkMCIGA1UEAxMbbWVybGluLnZpcnR1
YWwua3J1ZW1lbC5ob21lMSQwIgYJKoZIhvcNAQkBFhVwb3N0bWFzdGVyQGd1ZW5n
ZWwuY2gwggEiMA0GCSqGSIb3DQEBAQUAA4IBDwAwggEKAoIBAQCdNToONnwpv5jC
bQMUE/0izWMGody92LUqLoVvNXVMk/euZzuSqjEWRZUdnFSrD4/KSQGx9fC0rCiV
xfaqQVK0ZeP3b2e9JXz30R40peCNKR7n6esnH/sjpSaFPu0QfWgNqpm+RgnPM7MT
3k85mF4v4+USbefE54TYCPjMQ3Kq2YiuJi8rlqn6dklObeky+yr32hEVANTaOsY5
jDv5cpnpvoRHFuvSZblx6hGqO1RFESZBQXD1JFhnstHxtAAJDnqsajFUP9e7fR6s
uBrCe7AR7M4HHoFTyEGiZTMzzOETZwr5TAyPSxe9p9XXSnFwBCkdp9clOK7YDFXy
fnQ8SFO1AgMBAAGjggEwMIIBLDAMBgNVHRMBAf8EAjAAMAsGA1UdDwQEAwIDqDAd
BgNVHQ4EFgQUTfaKzaUstt4Pz++pdEb9jaaEYMswgb0GA1UdIwSBtTCBsoAUIiAN
UUBhQr7dutnJwXe2kyjDmeyhgYOkgYAwfjELMAkGA1UEBhMCQ0gxEDAOBgNVBAgT
B1RodXJnYXUxEDAOBgNVBAcTB0tlZmlrb24xEzARBgNVBAoTCmd1ZW5nZWwuY2gx
EDAOBgNVBAMTB0NBIDIwMjIxJDAiBgkqhkiG9w0BCQEWFXBvc3RtYXN0ZXJAZ3Vl
bmdlbC5jaIIUbSmQVOkX6cJq5lKthE4wjm5X+xwwEQYJYIZIAYb4QgEBBAQDAgbA
MB0GA1UdJQQWMBQGCCsGAQUFBwMBBggrBgEFBQcDAjANBgkqhkiG9w0BAQsFAAOC
AgEAreC8SiLimkuyX7fS4mJAnifa5sBQeFpjTXrPo6QlVM3Ic08TO9nbPizRnopY
EvYyLFJG/1hkbuiXgU6DA0RXzgPiVIIgSlB3rcVPrF3+fipiOf8HUqIHrALzUD1P
Cyl5YWFwaXdMO0fewiemSibT85G2iCDeXQ2nreyMphHvymorxlBA7d+vMFxDXMat
wUTgbfuJm+3DK46NZqNEgSXbZpuB5jsT58Dh5R0YUyBCQ+hViS3Pt0qW+etPj+sA
au2W9qEkSiZP61rDTkyj2lesSDwipreq4H3UaZXc2P/QIL0b5HTs6eR+5D2J+Y74
vn9az6Zy9evoQVKM+0Wh0xzDMk1ABtUzC3fT+D3Lob0vAIbbSSOv5gUldOxWs4FC
CMCx/5Gqf3st1u3QZSyQG10j0Ls/ZzwLndTGWps+Aivb03pQeaHDNWgyy4MyhcET
XeyrPkIPoA0Aq1vo2hvGFqajLK5kI2Qh8ntTP2sUrejSiDEvV9RMqbx7XEmAw0yF
MANjbfTvEUZGC0BLkiSiv4V13kcRfXJWIw0xzA0LkJ1ZWWmn7lw5jJWg8BesthJl
Jj+vOK/JdMQHhEpp0bjZuGX7ZO0P+AEcCosqUrx/odzMyF4RYbdtq66k4XYjG0vt
7TCwtDttLsDDVfWhtOs/SJ/we1/4GONUTaJ72XNmuIkra6c=
-----END CERTIFICATE-----
