Certificate:
    Data:
        Version: 3 (0x2)
        Serial Number: 433 (0x1b1)
        Signature Algorithm: sha256WithRSAEncryption
        Issuer: C=CH, ST=Thurgau, L=Kefikon, O=guengel.ch, CN=CA guengel.ch/emailAddress=postmaster@guengel.ch
        Validity
            Not Before: Feb  6 15:17:44 2021 GMT
            Not After : Mar 13 15:17:44 2022 GMT
        Subject: C=CH, ST=Thurgau, O=guengel.ch, CN=merlin.virtual.kruemel.home/emailAddress=postmaster@guengel.ch
        Subject Public Key Info:
            Public Key Algorithm: rsaEncryption
                RSA Public-Key: (2048 bit)
                Modulus:
                    00:c5:b3:aa:6b:90:06:dc:09:db:6b:c5:e0:76:11:
                    e1:de:0f:86:c6:e9:89:bd:ed:e5:74:52:3c:b2:89:
                    72:4a:c4:67:3c:3e:1e:d4:cd:82:8b:5b:a5:55:cc:
                    d5:e5:af:d9:74:38:fa:07:c7:8a:dc:db:c7:83:b4:
                    78:37:7e:ee:91:c7:bc:1d:e9:4d:d7:7a:5a:8c:42:
                    b8:c1:0f:3e:aa:e9:66:48:fd:70:60:4b:61:da:97:
                    2b:e7:6c:a3:e6:ae:27:5f:c6:89:4e:b2:97:44:4e:
                    9a:60:a3:65:31:5a:99:4d:c9:5a:2e:9e:56:47:02:
                    44:ef:72:ee:b3:a6:05:07:a8:d2:78:a5:2c:5c:bd:
                    18:76:e1:dc:85:f7:b4:6d:37:fb:58:cf:c9:cc:72:
                    69:1e:0a:47:0b:a1:28:13:a0:45:84:8d:96:f4:86:
                    3e:a7:51:17:e2:8e:a3:70:46:e4:46:b5:fe:8b:ef:
                    33:a7:72:fb:0b:2b:c8:0f:48:a3:81:bc:51:27:1e:
                    e1:d4:2d:b3:41:4d:17:c8:d4:3b:07:5a:67:a2:77:
                    2d:ad:bc:74:d8:9e:07:58:45:86:43:51:f2:df:99:
                    0f:1e:d7:fb:60:fb:5b:20:00:b3:a9:4a:3c:b2:8a:
                    1a:f7:f5:bb:65:f0:1a:c0:d0:01:50:da:8b:b5:b7:
                    49:f1
                Exponent: 65537 (0x10001)
        X509v3 extensions:
            X509v3 Key Usage: 
                Digital Signature, Key Encipherment, Key Agreement
            X509v3 Basic Constraints: critical
                CA:FALSE
            Netscape Cert Type: 
                SSL Client, SSL Server
            X509v3 Extended Key Usage: 
                TLS Web Server Authentication, TLS Web Client Authentication
            X509v3 Subject Alternative Name: 
                DNS:merlin.virtual.kruemel.home
            X509v3 Subject Key Identifier: 
                93:65:E0:DA:41:FD:CC:70:8A:CD:40:E3:69:4F:87:36:3E:0D:D9:EB
            X509v3 Authority Key Identifier: 
                keyid:D6:88:F1:AA:C1:2B:09:8C:B8:5C:9D:CE:DF:57:39:62:26:10:20:90
                DirName:/C=CH/ST=Thurgau/L=Kefikon/O=guengel.ch/CN=CA guengel.ch/emailAddress=postmaster@guengel.ch
                serial:E5:25:3B:A6:77:BD:CB:FF

    Signature Algorithm: sha256WithRSAEncryption
         84:fb:b2:0c:10:4a:6e:78:f3:f5:72:db:b1:b9:54:e3:5e:c3:
         60:ad:c7:70:1d:bb:1f:01:1b:87:d1:bc:7e:89:58:be:a9:be:
         1d:53:89:cf:0e:5f:7a:3e:f2:da:1e:75:91:86:94:46:56:d1:
         ee:5e:7e:33:54:12:00:2e:fb:59:31:a9:9e:4c:f0:3d:58:24:
         39:c3:30:b0:b8:8e:5b:66:41:f7:a3:4e:4b:34:42:b0:4e:fd:
         41:ad:b5:9c:f2:e2:1b:71:7c:50:5d:35:2e:aa:15:9a:5d:4c:
         50:11:93:46:cd:a3:1d:f6:f0:84:6a:5e:d9:66:53:db:0b:54:
         c8:80:eb:f0:8d:66:b1:09:82:bf:b1:a3:ad:95:62:68:69:98:
         59:9e:fb:9c:de:71:39:34:d8:56:1f:a2:af:d0:da:2c:d8:ab:
         3e:2e:eb:b8:6f:0f:2a:51:20:63:f9:35:17:f8:54:81:60:58:
         4e:86:f0:fa:43:86:a6:a5:e9:43:f7:1a:9e:a1:d6:eb:a0:93:
         55:31:7c:90:d7:cc:e3:cf:4f:d9:04:d6:b2:54:d3:36:45:83:
         99:06:fe:16:65:85:be:3a:19:ff:40:9b:cb:68:ca:68:1e:53:
         2d:e9:42:c3:5a:f1:04:5c:62:2a:5f:5e:88:e3:c2:09:bf:1f:
         13:ad:e6:4a:e3:c6:9f:06:e6:09:b2:79:ec:5a:60:78:6e:12:
         9a:38:0b:9e:81:a5:f4:1c:d7:95:64:47:a4:5b:c9:88:b0:a7:
         ba:ed:de:0d:5d:07:1e:93:59:a7:cf:c9:cb:84:ff:d8:f5:f9:
         fd:6c:e1:1a:ab:4c:c9:a8:b8:12:da:81:14:f3:04:ed:f5:ee:
         6c:03:45:b0:41:fd:62:6b:b8:95:c8:a8:f0:ed:44:bc:d1:2d:
         45:9c:ad:86:8d:bc:77:2e:87:e1:e4:7f:86:e3:59:15:c4:8d:
         1a:c7:a1:b5:0a:92:60:97:37:7a:e0:d3:cb:49:ff:ab:e1:e6:
         37:08:64:9c:ae:fb:2b:d7:26:d5:31:54:f7:c8:37:c4:65:7b:
         7e:b9:c8:80:b6:40:52:db:b5:53:f9:29:b0:ec:e7:c4:00:46:
         39:83:48:b6:76:34:e2:c0:f8:4f:b6:a4:9f:2c:03:f2:3a:4f:
         1c:bc:94:c5:04:f0:c6:75:80:0a:a9:3e:fa:de:1b:1c:c4:9b:
         17:8f:5d:8e:7d:7e:f3:2e:36:c6:35:76:91:e6:94:d7:23:79:
         07:46:7e:e2:3d:6b:51:b2:ce:05:73:9a:c5:37:d1:27:64:9a:
         49:07:27:28:b6:ec:b4:4f:6e:fd:2d:d5:bf:b7:df:9e:32:46:
         31:79:90:70:d0:64:07:43
-----BEGIN CERTIFICATE-----
MIIF2DCCA8CgAwIBAgICAbEwDQYJKoZIhvcNAQELBQAwgYQxCzAJBgNVBAYTAkNI
MRAwDgYDVQQIEwdUaHVyZ2F1MRAwDgYDVQQHEwdLZWZpa29uMRMwEQYDVQQKEwpn
dWVuZ2VsLmNoMRYwFAYDVQQDEw1DQSBndWVuZ2VsLmNoMSQwIgYJKoZIhvcNAQkB
FhVwb3N0bWFzdGVyQGd1ZW5nZWwuY2gwHhcNMjEwMjA2MTUxNzQ0WhcNMjIwMzEz
MTUxNzQ0WjCBgDELMAkGA1UEBhMCQ0gxEDAOBgNVBAgTB1RodXJnYXUxEzARBgNV
BAoTCmd1ZW5nZWwuY2gxJDAiBgNVBAMTG21lcmxpbi52aXJ0dWFsLmtydWVtZWwu
aG9tZTEkMCIGCSqGSIb3DQEJARYVcG9zdG1hc3RlckBndWVuZ2VsLmNoMIIBIjAN
BgkqhkiG9w0BAQEFAAOCAQ8AMIIBCgKCAQEAxbOqa5AG3Anba8XgdhHh3g+GxumJ
ve3ldFI8solySsRnPD4e1M2Ci1ulVczV5a/ZdDj6B8eK3NvHg7R4N37ukce8HelN
13pajEK4wQ8+qulmSP1wYEth2pcr52yj5q4nX8aJTrKXRE6aYKNlMVqZTclaLp5W
RwJE73Lus6YFB6jSeKUsXL0YduHchfe0bTf7WM/JzHJpHgpHC6EoE6BFhI2W9IY+
p1EX4o6jcEbkRrX+i+8zp3L7CyvID0ijgbxRJx7h1C2zQU0XyNQ7B1pnonctrbx0
2J4HWEWGQ1Hy35kPHtf7YPtbIACzqUo8sooa9/W7ZfAawNABUNqLtbdJ8QIDAQAB
o4IBVDCCAVAwCwYDVR0PBAQDAgOoMAwGA1UdEwEB/wQCMAAwEQYJYIZIAYb4QgEB
BAQDAgbAMB0GA1UdJQQWMBQGCCsGAQUFBwMBBggrBgEFBQcDAjAmBgNVHREEHzAd
ghttZXJsaW4udmlydHVhbC5rcnVlbWVsLmhvbWUwHQYDVR0OBBYEFJNl4NpB/cxw
is1A42lPhzY+DdnrMIG5BgNVHSMEgbEwga6AFNaI8arBKwmMuFydzt9XOWImECCQ
oYGKpIGHMIGEMQswCQYDVQQGEwJDSDEQMA4GA1UECBMHVGh1cmdhdTEQMA4GA1UE
BxMHS2VmaWtvbjETMBEGA1UEChMKZ3VlbmdlbC5jaDEWMBQGA1UEAxMNQ0EgZ3Vl
bmdlbC5jaDEkMCIGCSqGSIb3DQEJARYVcG9zdG1hc3RlckBndWVuZ2VsLmNoggkA
5SU7pne9y/8wDQYJKoZIhvcNAQELBQADggIBAIT7sgwQSm548/Vy27G5VONew2Ct
x3Adux8BG4fRvH6JWL6pvh1Tic8OX3o+8toedZGGlEZW0e5efjNUEgAu+1kxqZ5M
8D1YJDnDMLC4jltmQfejTks0QrBO/UGttZzy4htxfFBdNS6qFZpdTFARk0bNox32
8IRqXtlmU9sLVMiA6/CNZrEJgr+xo62VYmhpmFme+5zecTk02FYfoq/Q2izYqz4u
67hvDypRIGP5NRf4VIFgWE6G8PpDhqal6UP3Gp6h1uugk1UxfJDXzOPPT9kE1rJU
0zZFg5kG/hZlhb46Gf9Am8toymgeUy3pQsNa8QRcYipfXojjwgm/HxOt5krjxp8G
5gmyeexaYHhuEpo4C56BpfQc15VkR6RbyYiwp7rt3g1dBx6TWafPycuE/9j1+f1s
4RqrTMmouBLagRTzBO317mwDRbBB/WJruJXIqPDtRLzRLUWcrYaNvHcuh+Hkf4bj
WRXEjRrHobUKkmCXN3rg08tJ/6vh5jcIZJyu+yvXJtUxVPfIN8Rle365yIC2QFLb
tVP5KbDs58QARjmDSLZ2NOLA+E+2pJ8sA/I6Txy8lMUE8MZ1gAqpPvreGxzEmxeP
XY59fvMuNsY1dpHmlNcjeQdGfuI9a1GyzgVzmsU30SdkmkkHJyi27LRPbv0t1b+3
354yRjF5kHDQZAdD
-----END CERTIFICATE-----
