Certificate:
    Data:
        Version: 3 (0x2)
        Serial Number:
            10:b5:6c:66:34:83:eb:06:a0:80:5a:42:e4:62:c6:5b:bb:d4:d6:d0
        Signature Algorithm: sha256WithRSAEncryption
        Issuer: C=CH, ST=Thurgau, L=Kefikon, O=guengel.ch, CN=CA 2022/emailAddress=postmaster@guengel.ch
        Validity
            Not Before: Jan  3 14:04:24 2025 GMT
            Not After : Feb  7 14:04:24 2026 GMT
        Subject: C=CH, ST=Thurgau, O=guengel.ch, CN=merlin.virtual.kruemel.home/emailAddress=postmaster@guengel.ch
        Subject Public Key Info:
            Public Key Algorithm: rsaEncryption
                Public-Key: (2048 bit)
                Modulus:
                    00:9d:35:3a:0e:36:7c:29:bf:98:c2:6d:03:14:13:
                    fd:22:cd:63:06:a1:dc:bd:d8:b5:2a:2e:85:6f:35:
                    75:4c:93:f7:ae:67:3b:92:aa:31:16:45:95:1d:9c:
                    54:ab:0f:8f:ca:49:01:b1:f5:f0:b4:ac:28:95:c5:
                    f6:aa:41:52:b4:65:e3:f7:6f:67:bd:25:7c:f7:d1:
                    1e:34:a5:e0:8d:29:1e:e7:e9:eb:27:1f:fb:23:a5:
                    26:85:3e:ed:10:7d:68:0d:aa:99:be:46:09:cf:33:
                    b3:13:de:4f:39:98:5e:2f:e3:e5:12:6d:e7:c4:e7:
                    84:d8:08:f8:cc:43:72:aa:d9:88:ae:26:2f:2b:96:
                    a9:fa:76:49:4e:6d:e9:32:fb:2a:f7:da:11:15:00:
                    d4:da:3a:c6:39:8c:3b:f9:72:99:e9:be:84:47:16:
                    eb:d2:65:b9:71:ea:11:aa:3b:54:45:11:26:41:41:
                    70:f5:24:58:67:b2:d1:f1:b4:00:09:0e:7a:ac:6a:
                    31:54:3f:d7:bb:7d:1e:ac:b8:1a:c2:7b:b0:11:ec:
                    ce:07:1e:81:53:c8:41:a2:65:33:33:cc:e1:13:67:
                    0a:f9:4c:0c:8f:4b:17:bd:a7:d5:d7:4a:71:70:04:
                    29:1d:a7:d7:25:38:ae:d8:0c:55:f2:7e:74:3c:48:
                    53:b5
                Exponent: 65537 (0x10001)
        X509v3 extensions:
            X509v3 Basic Constraints: critical
                CA:FALSE
            X509v3 Key Usage: 
                Digital Signature, Key Encipherment, Key Agreement
            X509v3 Subject Key Identifier: 
                4D:F6:8A:CD:A5:2C:B6:DE:0F:CF:EF:A9:74:46:FD:8D:A6:84:60:CB
            X509v3 Authority Key Identifier: 
                keyid:22:20:0D:51:40:61:42:BE:DD:BA:D9:C9:C1:77:B6:93:28:C3:99:EC
                DirName:/C=CH/ST=Thurgau/L=Kefikon/O=guengel.ch/CN=CA 2022/emailAddress=postmaster@guengel.ch
                serial:6D:29:90:54:E9:17:E9:C2:6A:E6:52:AD:84:4E:30:8E:6E:57:FB:1C
            Netscape Cert Type: 
                SSL Client, SSL Server
            X509v3 Extended Key Usage: 
                TLS Web Server Authentication, TLS Web Client Authentication
    Signature Algorithm: sha256WithRSAEncryption
    Signature Value:
        b5:41:54:70:b9:dd:69:bf:0d:e5:2d:48:66:d7:ec:a4:ec:ff:
        13:8d:2e:bf:95:41:c3:a9:1f:29:b6:ee:5d:54:f2:77:54:4f:
        d8:79:2f:24:0d:a7:3a:f3:4f:c2:4a:e9:ce:fb:78:a5:96:1b:
        c8:cf:08:b7:51:7f:09:1d:ba:96:50:85:7e:ac:22:39:1b:83:
        0d:51:03:14:66:4d:94:95:d8:49:c0:ab:c4:25:8c:53:14:a6:
        14:b9:2e:0e:58:ad:9c:ad:5d:24:5f:ed:86:96:b5:c9:61:9a:
        fe:67:a4:e8:c8:04:ac:d0:f0:69:00:fd:b3:7e:a8:8e:5a:a0:
        ae:dd:06:d0:c1:cf:52:fb:81:e8:38:06:01:70:6c:3f:71:21:
        dc:07:e6:6d:cc:f7:de:a0:86:79:e7:87:cc:6a:ad:f2:63:b5:
        88:ea:fd:68:4c:d9:a8:a8:97:25:1b:6d:d9:66:17:e6:03:d4:
        a2:ce:9e:83:b7:81:01:9a:91:d3:46:24:7b:9a:df:2a:53:65:
        eb:12:c1:79:dd:b4:53:91:f6:44:55:ff:ff:e9:c1:6a:57:a2:
        42:be:ef:4d:33:53:d3:66:71:26:7c:d8:e1:45:d7:60:53:95:
        03:49:9d:a8:1c:7a:03:b4:ad:e4:f2:10:9b:93:1b:42:3c:5d:
        10:11:02:e9:66:83:51:1b:b4:b0:be:e4:e9:dd:ba:88:dc:2e:
        21:cb:58:3e:7a:b2:6d:58:35:62:6e:76:b7:d9:19:e1:99:e6:
        7e:a2:1d:87:c9:dc:a3:32:a7:d0:b0:9e:2c:ce:37:1d:8f:0d:
        0f:f0:6d:06:ff:f7:ea:05:21:db:64:25:96:a1:d1:03:95:85:
        05:da:85:32:94:9c:33:f4:3f:7b:79:f6:e3:72:ec:65:3e:44:
        80:be:95:87:c6:2f:de:28:b4:ea:aa:22:97:ec:67:42:16:50:
        74:c3:fa:40:79:1f:81:73:25:ab:8a:97:64:05:a2:fa:a8:11:
        90:fb:3d:5b:b1:22:f2:76:18:09:01:41:03:4e:f9:d1:eb:57:
        a1:79:f4:52:2c:ec:33:60:66:c7:d4:90:08:75:bc:eb:91:54:
        e8:a7:31:9d:37:41:a0:fd:b1:1e:75:f4:04:fd:ce:ef:6d:f8:
        b7:0e:0b:fb:80:c7:ec:0e:88:50:00:c3:07:b8:84:7f:a3:27:
        92:08:b6:4a:e2:29:60:83:c4:8f:c8:2a:9c:0e:0d:e0:22:36:
        23:79:b3:01:3f:ea:20:38:3c:bc:17:84:e6:34:d7:7c:96:6a:
        98:f7:89:22:1a:4f:8f:fc:66:99:ad:b1:11:b1:2e:79:bf:1a:
        e4:7b:32:7c:f2:23:f5:98
-----BEGIN CERTIFICATE-----
MIIFvzCCA6egAwIBAgIUELVsZjSD6waggFpC5GLGW7vU1tAwDQYJKoZIhvcNAQEL
BQAwfjELMAkGA1UEBhMCQ0gxEDAOBgNVBAgTB1RodXJnYXUxEDAOBgNVBAcTB0tl
Zmlrb24xEzARBgNVBAoTCmd1ZW5nZWwuY2gxEDAOBgNVBAMTB0NBIDIwMjIxJDAi
BgkqhkiG9w0BCQEWFXBvc3RtYXN0ZXJAZ3VlbmdlbC5jaDAeFw0yNTAxMDMxNDA0
MjRaFw0yNjAyMDcxNDA0MjRaMIGAMQswCQYDVQQGEwJDSDEQMA4GA1UECBMHVGh1
cmdhdTETMBEGA1UEChMKZ3VlbmdlbC5jaDEkMCIGA1UEAxMbbWVybGluLnZpcnR1
YWwua3J1ZW1lbC5ob21lMSQwIgYJKoZIhvcNAQkBFhVwb3N0bWFzdGVyQGd1ZW5n
ZWwuY2gwggEiMA0GCSqGSIb3DQEBAQUAA4IBDwAwggEKAoIBAQCdNToONnwpv5jC
bQMUE/0izWMGody92LUqLoVvNXVMk/euZzuSqjEWRZUdnFSrD4/KSQGx9fC0rCiV
xfaqQVK0ZeP3b2e9JXz30R40peCNKR7n6esnH/sjpSaFPu0QfWgNqpm+RgnPM7MT
3k85mF4v4+USbefE54TYCPjMQ3Kq2YiuJi8rlqn6dklObeky+yr32hEVANTaOsY5
jDv5cpnpvoRHFuvSZblx6hGqO1RFESZBQXD1JFhnstHxtAAJDnqsajFUP9e7fR6s
uBrCe7AR7M4HHoFTyEGiZTMzzOETZwr5TAyPSxe9p9XXSnFwBCkdp9clOK7YDFXy
fnQ8SFO1AgMBAAGjggEwMIIBLDAMBgNVHRMBAf8EAjAAMAsGA1UdDwQEAwIDqDAd
BgNVHQ4EFgQUTfaKzaUstt4Pz++pdEb9jaaEYMswgb0GA1UdIwSBtTCBsoAUIiAN
UUBhQr7dutnJwXe2kyjDmeyhgYOkgYAwfjELMAkGA1UEBhMCQ0gxEDAOBgNVBAgT
B1RodXJnYXUxEDAOBgNVBAcTB0tlZmlrb24xEzARBgNVBAoTCmd1ZW5nZWwuY2gx
EDAOBgNVBAMTB0NBIDIwMjIxJDAiBgkqhkiG9w0BCQEWFXBvc3RtYXN0ZXJAZ3Vl
bmdlbC5jaIIUbSmQVOkX6cJq5lKthE4wjm5X+xwwEQYJYIZIAYb4QgEBBAQDAgbA
MB0GA1UdJQQWMBQGCCsGAQUFBwMBBggrBgEFBQcDAjANBgkqhkiG9w0BAQsFAAOC
AgEAtUFUcLndab8N5S1IZtfspOz/E40uv5VBw6kfKbbuXVTyd1RP2HkvJA2nOvNP
wkrpzvt4pZYbyM8It1F/CR26llCFfqwiORuDDVEDFGZNlJXYScCrxCWMUxSmFLku
DlitnK1dJF/thpa1yWGa/mek6MgErNDwaQD9s36ojlqgrt0G0MHPUvuB6DgGAXBs
P3Eh3Afmbcz33qCGeeeHzGqt8mO1iOr9aEzZqKiXJRtt2WYX5gPUos6eg7eBAZqR
00Yke5rfKlNl6xLBed20U5H2RFX//+nBaleiQr7vTTNT02ZxJnzY4UXXYFOVA0md
qBx6A7St5PIQm5MbQjxdEBEC6WaDURu0sL7k6d26iNwuIctYPnqybVg1Ym52t9kZ
4ZnmfqIdh8ncozKn0LCeLM43HY8ND/BtBv/36gUh22QllqHRA5WFBdqFMpScM/Q/
e3n243LsZT5EgL6Vh8Yv3ii06qoil+xnQhZQdMP6QHkfgXMlq4qXZAWi+qgRkPs9
W7Ei8nYYCQFBA0750etXoXn0UizsM2Bmx9SQCHW865FU6KcxnTdBoP2xHnX0BP3O
7234tw4L+4DH7A6IUADDB7iEf6Mnkgi2SuIpYIPEj8gqnA4N4CI2I3mzAT/qIDg8
vBeE5jTXfJZqmPeJIhpPj/xmma2xEbEueb8a5HsyfPIj9Zg=
-----END CERTIFICATE-----
