Certificate:
    Data:
        Version: 3 (0x2)
        Serial Number: 307 (0x133)
    Signature Algorithm: sha256WithRSAEncryption
        Issuer: C=CH, ST=Thurgau, L=Kefikon, O=guengel.ch, CN=CA guengel.ch/emailAddress=postmaster@guengel.ch
        Validity
            Not Before: Jan  6 18:02:58 2018 GMT
            Not After : Feb 10 18:02:58 2019 GMT
        Subject: C=CH, ST=Thurgau, O=guengel.ch, CN=merlin.virtual.kruemel.home/emailAddress=postmaster@guengel.ch
        Subject Public Key Info:
            Public Key Algorithm: rsaEncryption
                Public-Key: (2048 bit)
                Modulus:
                    00:c5:b3:aa:6b:90:06:dc:09:db:6b:c5:e0:76:11:
                    e1:de:0f:86:c6:e9:89:bd:ed:e5:74:52:3c:b2:89:
                    72:4a:c4:67:3c:3e:1e:d4:cd:82:8b:5b:a5:55:cc:
                    d5:e5:af:d9:74:38:fa:07:c7:8a:dc:db:c7:83:b4:
                    78:37:7e:ee:91:c7:bc:1d:e9:4d:d7:7a:5a:8c:42:
                    b8:c1:0f:3e:aa:e9:66:48:fd:70:60:4b:61:da:97:
                    2b:e7:6c:a3:e6:ae:27:5f:c6:89:4e:b2:97:44:4e:
                    9a:60:a3:65:31:5a:99:4d:c9:5a:2e:9e:56:47:02:
                    44:ef:72:ee:b3:a6:05:07:a8:d2:78:a5:2c:5c:bd:
                    18:76:e1:dc:85:f7:b4:6d:37:fb:58:cf:c9:cc:72:
                    69:1e:0a:47:0b:a1:28:13:a0:45:84:8d:96:f4:86:
                    3e:a7:51:17:e2:8e:a3:70:46:e4:46:b5:fe:8b:ef:
                    33:a7:72:fb:0b:2b:c8:0f:48:a3:81:bc:51:27:1e:
                    e1:d4:2d:b3:41:4d:17:c8:d4:3b:07:5a:67:a2:77:
                    2d:ad:bc:74:d8:9e:07:58:45:86:43:51:f2:df:99:
                    0f:1e:d7:fb:60:fb:5b:20:00:b3:a9:4a:3c:b2:8a:
                    1a:f7:f5:bb:65:f0:1a:c0:d0:01:50:da:8b:b5:b7:
                    49:f1
                Exponent: 65537 (0x10001)
        X509v3 extensions:
            X509v3 Basic Constraints: 
                CA:FALSE
            Netscape Comment: 
                OpenSSL Generated Certificate
            X509v3 Subject Key Identifier: 
                93:65:E0:DA:41:FD:CC:70:8A:CD:40:E3:69:4F:87:36:3E:0D:D9:EB
            X509v3 Authority Key Identifier: 
                keyid:D6:88:F1:AA:C1:2B:09:8C:B8:5C:9D:CE:DF:57:39:62:26:10:20:90
                DirName:/C=CH/ST=Thurgau/L=Kefikon/O=guengel.ch/CN=CA guengel.ch/emailAddress=postmaster@guengel.ch
                serial:E5:25:3B:A6:77:BD:CB:FF

    Signature Algorithm: sha256WithRSAEncryption
         a7:e3:86:f4:26:7a:6a:09:47:de:51:07:93:a2:9f:72:8b:81:
         a0:49:2d:5e:a9:ab:36:63:69:50:5e:f4:67:d0:f7:ed:22:a5:
         c4:a8:59:b9:74:c6:3b:d3:7b:c0:46:70:f5:be:46:ff:e9:85:
         22:05:6e:b6:f0:bc:8a:55:3a:e4:88:51:80:22:2d:d1:be:30:
         1c:a2:da:03:c8:e9:a5:33:90:6b:56:43:7a:eb:5b:a7:b0:02:
         04:81:bd:02:6e:44:4a:d3:17:cc:91:3a:4c:65:f9:76:76:b9:
         9d:93:cf:d0:5d:9b:cd:2c:23:9d:68:0a:a0:79:99:c4:12:f6:
         e3:b6:27:00:34:fc:e8:6a:54:c1:49:bf:e5:d2:49:0e:8b:d9:
         2d:30:a9:1c:c5:58:24:e8:35:71:2e:17:eb:5c:32:1f:f4:1d:
         ac:8f:a4:d9:63:cc:e8:27:b6:f7:38:31:2a:3c:de:9a:0b:c3:
         ed:3c:20:c2:3b:f5:28:5c:2b:2f:8c:8a:7f:0f:55:10:af:3c:
         0c:42:6f:cd:2d:80:22:04:a2:25:51:23:42:f4:05:69:32:cb:
         ac:f6:f9:ce:93:b2:cc:78:72:7a:77:3c:d6:5d:e0:3e:e9:fe:
         e2:c4:90:40:73:1f:fd:f1:4f:4b:e9:88:d7:c3:1e:1f:66:b8:
         3a:a2:c2:d0:f5:e1:e2:88:fb:9d:fe:e5:b1:0b:fb:6f:4f:8a:
         de:a5:25:be:13:f6:92:06:dc:cd:e0:6c:6e:3b:e5:1e:92:90:
         47:06:d7:24:86:02:d8:0b:02:db:f3:39:b5:0c:f4:b3:af:72:
         2c:0e:55:3b:4b:73:5c:eb:bc:aa:05:8b:68:5c:06:12:e0:c8:
         df:93:ec:b6:5b:75:89:a9:40:64:d3:e5:5a:04:36:a0:2d:8f:
         75:cc:6a:7f:4e:b9:a5:bf:b7:bd:3d:09:96:2c:80:0b:d2:e4:
         df:29:50:e5:77:d2:80:cb:6a:7a:a0:43:02:39:5e:82:d1:46:
         ab:4d:b1:de:07:3f:cc:a2:80:ad:66:79:12:fb:5b:46:cb:11:
         98:5f:ab:f0:82:70:0b:22:e7:0d:76:ed:f1:c0:a3:ae:40:a3:
         ee:b6:46:c9:24:34:70:3f:35:b8:67:cd:ae:f4:9a:ef:0a:80:
         0f:48:ff:43:ba:89:0a:3e:75:23:33:54:29:2a:c7:82:f8:4b:
         ca:d4:74:77:7b:8b:19:34:4d:6b:a3:f1:30:a5:a8:25:86:86:
         6e:7a:4b:e0:39:a0:16:e2:85:0b:a4:aa:46:cf:23:23:b0:be:
         28:4b:8e:05:bb:94:35:04:18:5e:bb:4f:51:be:97:fd:87:31:
         38:2b:67:40:21:bb:08:cb
-----BEGIN CERTIFICATE-----
MIIFnDCCA4SgAwIBAgICATMwDQYJKoZIhvcNAQELBQAwgYQxCzAJBgNVBAYTAkNI
MRAwDgYDVQQIEwdUaHVyZ2F1MRAwDgYDVQQHEwdLZWZpa29uMRMwEQYDVQQKEwpn
dWVuZ2VsLmNoMRYwFAYDVQQDEw1DQSBndWVuZ2VsLmNoMSQwIgYJKoZIhvcNAQkB
FhVwb3N0bWFzdGVyQGd1ZW5nZWwuY2gwHhcNMTgwMTA2MTgwMjU4WhcNMTkwMjEw
MTgwMjU4WjCBgDELMAkGA1UEBhMCQ0gxEDAOBgNVBAgTB1RodXJnYXUxEzARBgNV
BAoTCmd1ZW5nZWwuY2gxJDAiBgNVBAMTG21lcmxpbi52aXJ0dWFsLmtydWVtZWwu
aG9tZTEkMCIGCSqGSIb3DQEJARYVcG9zdG1hc3RlckBndWVuZ2VsLmNoMIIBIjAN
BgkqhkiG9w0BAQEFAAOCAQ8AMIIBCgKCAQEAxbOqa5AG3Anba8XgdhHh3g+GxumJ
ve3ldFI8solySsRnPD4e1M2Ci1ulVczV5a/ZdDj6B8eK3NvHg7R4N37ukce8HelN
13pajEK4wQ8+qulmSP1wYEth2pcr52yj5q4nX8aJTrKXRE6aYKNlMVqZTclaLp5W
RwJE73Lus6YFB6jSeKUsXL0YduHchfe0bTf7WM/JzHJpHgpHC6EoE6BFhI2W9IY+
p1EX4o6jcEbkRrX+i+8zp3L7CyvID0ijgbxRJx7h1C2zQU0XyNQ7B1pnonctrbx0
2J4HWEWGQ1Hy35kPHtf7YPtbIACzqUo8sooa9/W7ZfAawNABUNqLtbdJ8QIDAQAB
o4IBGDCCARQwCQYDVR0TBAIwADAsBglghkgBhvhCAQ0EHxYdT3BlblNTTCBHZW5l
cmF0ZWQgQ2VydGlmaWNhdGUwHQYDVR0OBBYEFJNl4NpB/cxwis1A42lPhzY+Ddnr
MIG5BgNVHSMEgbEwga6AFNaI8arBKwmMuFydzt9XOWImECCQoYGKpIGHMIGEMQsw
CQYDVQQGEwJDSDEQMA4GA1UECBMHVGh1cmdhdTEQMA4GA1UEBxMHS2VmaWtvbjET
MBEGA1UEChMKZ3VlbmdlbC5jaDEWMBQGA1UEAxMNQ0EgZ3VlbmdlbC5jaDEkMCIG
CSqGSIb3DQEJARYVcG9zdG1hc3RlckBndWVuZ2VsLmNoggkA5SU7pne9y/8wDQYJ
KoZIhvcNAQELBQADggIBAKfjhvQmemoJR95RB5Oin3KLgaBJLV6pqzZjaVBe9GfQ
9+0ipcSoWbl0xjvTe8BGcPW+Rv/phSIFbrbwvIpVOuSIUYAiLdG+MByi2gPI6aUz
kGtWQ3rrW6ewAgSBvQJuRErTF8yROkxl+XZ2uZ2Tz9Bdm80sI51oCqB5mcQS9uO2
JwA0/OhqVMFJv+XSSQ6L2S0wqRzFWCToNXEuF+tcMh/0HayPpNljzOgntvc4MSo8
3poLw+08IMI79ShcKy+Min8PVRCvPAxCb80tgCIEoiVRI0L0BWkyy6z2+c6Tssx4
cnp3PNZd4D7p/uLEkEBzH/3xT0vpiNfDHh9muDqiwtD14eKI+53+5bEL+29Pit6l
Jb4T9pIG3M3gbG475R6SkEcG1ySGAtgLAtvzObUM9LOvciwOVTtLc1zrvKoFi2hc
BhLgyN+T7LZbdYmpQGTT5VoENqAtj3XMan9OuaW/t709CZYsgAvS5N8pUOV30oDL
anqgQwI5XoLRRqtNsd4HP8yigK1meRL7W0bLEZhfq/CCcAsi5w127fHAo65Ao+62
RskkNHA/Nbhnza70mu8KgA9I/0O6iQo+dSMzVCkqx4L4S8rUdHd7ixk0TWuj8TCl
qCWGhm56S+A5oBbihQukqkbPIyOwvihLjgW7lDUEGF67T1G+l/2HMTgrZ0AhuwjL
-----END CERTIFICATE-----
