Certificate:
    Data:
        Version: 3 (0x2)
        Serial Number:
            4e:27:0b:f6:2c:ab:5f:78:77:fe:f4:f8:68:fb:c2:1a:44:40:82:c8
        Signature Algorithm: sha256WithRSAEncryption
        Issuer: C=CH, ST=Thurgau, L=Kefikon, O=guengel.ch, CN=CA 2022/emailAddress=postmaster@guengel.ch
        Validity
            Not Before: Feb 28 06:41:36 2023 GMT
            Not After : Apr  3 06:41:36 2024 GMT
        Subject: C=CH, ST=Thurgau, O=guengel.ch, CN=merlin.virtual.kruemel.home/emailAddress=postmaster@guengel.ch
        Subject Public Key Info:
            Public Key Algorithm: rsaEncryption
                RSA Public-Key: (2048 bit)
                Modulus:
                    00:9d:35:3a:0e:36:7c:29:bf:98:c2:6d:03:14:13:
                    fd:22:cd:63:06:a1:dc:bd:d8:b5:2a:2e:85:6f:35:
                    75:4c:93:f7:ae:67:3b:92:aa:31:16:45:95:1d:9c:
                    54:ab:0f:8f:ca:49:01:b1:f5:f0:b4:ac:28:95:c5:
                    f6:aa:41:52:b4:65:e3:f7:6f:67:bd:25:7c:f7:d1:
                    1e:34:a5:e0:8d:29:1e:e7:e9:eb:27:1f:fb:23:a5:
                    26:85:3e:ed:10:7d:68:0d:aa:99:be:46:09:cf:33:
                    b3:13:de:4f:39:98:5e:2f:e3:e5:12:6d:e7:c4:e7:
                    84:d8:08:f8:cc:43:72:aa:d9:88:ae:26:2f:2b:96:
                    a9:fa:76:49:4e:6d:e9:32:fb:2a:f7:da:11:15:00:
                    d4:da:3a:c6:39:8c:3b:f9:72:99:e9:be:84:47:16:
                    eb:d2:65:b9:71:ea:11:aa:3b:54:45:11:26:41:41:
                    70:f5:24:58:67:b2:d1:f1:b4:00:09:0e:7a:ac:6a:
                    31:54:3f:d7:bb:7d:1e:ac:b8:1a:c2:7b:b0:11:ec:
                    ce:07:1e:81:53:c8:41:a2:65:33:33:cc:e1:13:67:
                    0a:f9:4c:0c:8f:4b:17:bd:a7:d5:d7:4a:71:70:04:
                    29:1d:a7:d7:25:38:ae:d8:0c:55:f2:7e:74:3c:48:
                    53:b5
                Exponent: 65537 (0x10001)
        X509v3 extensions:
            X509v3 Basic Constraints: critical
                CA:FALSE
            X509v3 Key Usage: 
                Digital Signature, Key Encipherment, Key Agreement
            X509v3 Subject Key Identifier: 
                4D:F6:8A:CD:A5:2C:B6:DE:0F:CF:EF:A9:74:46:FD:8D:A6:84:60:CB
            X509v3 Authority Key Identifier: 
                keyid:22:20:0D:51:40:61:42:BE:DD:BA:D9:C9:C1:77:B6:93:28:C3:99:EC
                DirName:/C=CH/ST=Thurgau/L=Kefikon/O=guengel.ch/CN=CA 2022/emailAddress=postmaster@guengel.ch
                serial:6D:29:90:54:E9:17:E9:C2:6A:E6:52:AD:84:4E:30:8E:6E:57:FB:1C

            Netscape Cert Type: 
                SSL Client, SSL Server
            X509v3 Extended Key Usage: 
                TLS Web Server Authentication, TLS Web Client Authentication
    Signature Algorithm: sha256WithRSAEncryption
         c4:57:97:72:a4:ca:0c:a5:5e:f0:cb:1a:c8:26:a2:ac:83:1b:
         02:66:a9:01:44:81:1e:9c:c2:77:5e:51:fc:6c:60:26:55:55:
         42:54:60:bd:bc:f0:a0:5d:9e:71:9d:de:1a:70:e8:ef:bf:e8:
         70:11:9a:b8:6f:b5:fd:09:76:81:11:a7:1f:90:63:2e:b2:c2:
         23:00:eb:36:4f:b5:7f:4f:0b:6d:94:23:3a:32:a1:5e:92:1d:
         33:22:6b:6d:03:c6:44:bd:47:0c:20:bd:35:4d:f4:5f:c1:10:
         42:95:d2:1c:94:e6:b4:40:12:42:08:4e:55:6d:26:f4:53:c8:
         2b:c3:4e:e6:09:f2:e5:c2:3d:26:fb:5b:81:85:5d:d8:1a:68:
         2c:da:8c:f7:77:7a:cf:af:25:2c:0e:d8:50:d9:23:36:dd:19:
         fb:e0:25:47:7c:30:84:ce:7a:8d:8a:f2:40:c6:84:48:2a:33:
         77:7c:f7:17:60:fc:b8:cd:6d:d6:2a:48:56:26:d6:6d:4f:9d:
         b1:7f:80:94:8b:ef:ae:d1:d6:78:4d:65:bc:93:82:dd:dc:ee:
         7a:1a:9a:ba:8c:d2:60:39:4d:af:9f:c7:3a:e7:c8:39:d3:86:
         27:e3:3a:ef:72:ec:11:25:ae:a0:b0:89:4a:7b:ef:0f:b6:8a:
         8d:d5:32:03:b5:c1:f6:b6:6e:a5:29:aa:cc:cd:2f:bb:90:25:
         9d:b5:35:11:9d:d1:8a:1c:bf:0a:c2:3d:3c:be:3b:4b:91:f6:
         2e:39:fc:88:aa:8b:8c:21:78:da:54:3c:c1:8c:d6:00:83:ed:
         15:0a:8d:9a:78:1f:fb:46:fd:c7:08:1b:78:b8:f8:c3:8d:20:
         74:f0:11:bc:88:30:4b:de:1a:71:63:c9:04:f3:b4:8d:e0:c1:
         67:1c:33:0e:4e:76:56:6f:aa:16:9b:34:03:f9:18:51:1c:93:
         34:88:a3:67:89:f0:3a:f8:12:af:7b:91:5e:b3:f5:43:46:45:
         5e:7c:3a:79:04:c7:89:69:1c:26:10:c2:7a:c8:24:3d:5e:57:
         c1:d1:df:b7:43:2c:49:06:1f:ba:5d:e6:88:e2:0f:68:eb:e5:
         2a:da:93:0d:57:a4:b2:0f:ae:59:4e:f1:e6:61:bd:dd:eb:63:
         f2:85:0b:5c:a4:3a:e4:cc:3e:f8:37:24:9e:54:6f:e0:10:6b:
         a3:ae:37:36:d8:04:4f:44:d5:45:81:46:3c:10:2a:ca:4b:1a:
         d0:41:34:c0:de:78:67:77:cb:7b:fe:b6:85:56:b2:98:91:dc:
         91:20:d3:87:b0:38:ad:2b:e2:1a:a0:f3:02:05:9a:50:13:3a:
         3c:6c:b7:c3:90:b9:40:1e
-----BEGIN CERTIFICATE-----
MIIFvzCCA6egAwIBAgIUTicL9iyrX3h3/vT4aPvCGkRAgsgwDQYJKoZIhvcNAQEL
BQAwfjELMAkGA1UEBhMCQ0gxEDAOBgNVBAgTB1RodXJnYXUxEDAOBgNVBAcTB0tl
Zmlrb24xEzARBgNVBAoTCmd1ZW5nZWwuY2gxEDAOBgNVBAMTB0NBIDIwMjIxJDAi
BgkqhkiG9w0BCQEWFXBvc3RtYXN0ZXJAZ3VlbmdlbC5jaDAeFw0yMzAyMjgwNjQx
MzZaFw0yNDA0MDMwNjQxMzZaMIGAMQswCQYDVQQGEwJDSDEQMA4GA1UECBMHVGh1
cmdhdTETMBEGA1UEChMKZ3VlbmdlbC5jaDEkMCIGA1UEAxMbbWVybGluLnZpcnR1
YWwua3J1ZW1lbC5ob21lMSQwIgYJKoZIhvcNAQkBFhVwb3N0bWFzdGVyQGd1ZW5n
ZWwuY2gwggEiMA0GCSqGSIb3DQEBAQUAA4IBDwAwggEKAoIBAQCdNToONnwpv5jC
bQMUE/0izWMGody92LUqLoVvNXVMk/euZzuSqjEWRZUdnFSrD4/KSQGx9fC0rCiV
xfaqQVK0ZeP3b2e9JXz30R40peCNKR7n6esnH/sjpSaFPu0QfWgNqpm+RgnPM7MT
3k85mF4v4+USbefE54TYCPjMQ3Kq2YiuJi8rlqn6dklObeky+yr32hEVANTaOsY5
jDv5cpnpvoRHFuvSZblx6hGqO1RFESZBQXD1JFhnstHxtAAJDnqsajFUP9e7fR6s
uBrCe7AR7M4HHoFTyEGiZTMzzOETZwr5TAyPSxe9p9XXSnFwBCkdp9clOK7YDFXy
fnQ8SFO1AgMBAAGjggEwMIIBLDAMBgNVHRMBAf8EAjAAMAsGA1UdDwQEAwIDqDAd
BgNVHQ4EFgQUTfaKzaUstt4Pz++pdEb9jaaEYMswgb0GA1UdIwSBtTCBsoAUIiAN
UUBhQr7dutnJwXe2kyjDmeyhgYOkgYAwfjELMAkGA1UEBhMCQ0gxEDAOBgNVBAgT
B1RodXJnYXUxEDAOBgNVBAcTB0tlZmlrb24xEzARBgNVBAoTCmd1ZW5nZWwuY2gx
EDAOBgNVBAMTB0NBIDIwMjIxJDAiBgkqhkiG9w0BCQEWFXBvc3RtYXN0ZXJAZ3Vl
bmdlbC5jaIIUbSmQVOkX6cJq5lKthE4wjm5X+xwwEQYJYIZIAYb4QgEBBAQDAgbA
MB0GA1UdJQQWMBQGCCsGAQUFBwMBBggrBgEFBQcDAjANBgkqhkiG9w0BAQsFAAOC
AgEAxFeXcqTKDKVe8MsayCairIMbAmapAUSBHpzCd15R/GxgJlVVQlRgvbzwoF2e
cZ3eGnDo77/ocBGauG+1/Ql2gRGnH5BjLrLCIwDrNk+1f08LbZQjOjKhXpIdMyJr
bQPGRL1HDCC9NU30X8EQQpXSHJTmtEASQghOVW0m9FPIK8NO5gny5cI9JvtbgYVd
2BpoLNqM93d6z68lLA7YUNkjNt0Z++AlR3wwhM56jYryQMaESCozd3z3F2D8uM1t
1ipIVibWbU+dsX+AlIvvrtHWeE1lvJOC3dzuehqauozSYDlNr5/HOufIOdOGJ+M6
73LsESWuoLCJSnvvD7aKjdUyA7XB9rZupSmqzM0vu5AlnbU1EZ3Rihy/CsI9PL47
S5H2Ljn8iKqLjCF42lQ8wYzWAIPtFQqNmngf+0b9xwgbeLj4w40gdPARvIgwS94a
cWPJBPO0jeDBZxwzDk52Vm+qFps0A/kYURyTNIijZ4nwOvgSr3uRXrP1Q0ZFXnw6
eQTHiWkcJhDCesgkPV5XwdHft0MsSQYful3miOIPaOvlKtqTDVeksg+uWU7x5mG9
3etj8oULXKQ65Mw++DcknlRv4BBro643NtgET0TVRYFGPBAqyksa0EE0wN54Z3fL
e/62hVaymJHckSDTh7A4rSviGqDzAgWaUBM6PGy3w5C5QB4=
-----END CERTIFICATE-----
