Certificate:
    Data:
        Version: 3 (0x2)
        Serial Number:
            63:a6:bd:64:2c:87:f2:a1:2c:30:54:07:64:eb:af:66:13:d1:c7:36
        Signature Algorithm: sha256WithRSAEncryption
        Issuer: C=CH, ST=Thurgau, L=Kefikon, O=guengel.ch, CN=CA 2022/emailAddress=postmaster@guengel.ch
        Validity
            Not Before: Feb 11 13:59:53 2022 GMT
            Not After : Mar 18 13:59:53 2023 GMT
        Subject: C=CH, ST=Thurgau, O=guengel.ch, CN=merlin.virtual.kruemel.home/emailAddress=postmaster@guengel.ch
        Subject Public Key Info:
            Public Key Algorithm: rsaEncryption
                RSA Public-Key: (2048 bit)
                Modulus:
                    00:9d:35:3a:0e:36:7c:29:bf:98:c2:6d:03:14:13:
                    fd:22:cd:63:06:a1:dc:bd:d8:b5:2a:2e:85:6f:35:
                    75:4c:93:f7:ae:67:3b:92:aa:31:16:45:95:1d:9c:
                    54:ab:0f:8f:ca:49:01:b1:f5:f0:b4:ac:28:95:c5:
                    f6:aa:41:52:b4:65:e3:f7:6f:67:bd:25:7c:f7:d1:
                    1e:34:a5:e0:8d:29:1e:e7:e9:eb:27:1f:fb:23:a5:
                    26:85:3e:ed:10:7d:68:0d:aa:99:be:46:09:cf:33:
                    b3:13:de:4f:39:98:5e:2f:e3:e5:12:6d:e7:c4:e7:
                    84:d8:08:f8:cc:43:72:aa:d9:88:ae:26:2f:2b:96:
                    a9:fa:76:49:4e:6d:e9:32:fb:2a:f7:da:11:15:00:
                    d4:da:3a:c6:39:8c:3b:f9:72:99:e9:be:84:47:16:
                    eb:d2:65:b9:71:ea:11:aa:3b:54:45:11:26:41:41:
                    70:f5:24:58:67:b2:d1:f1:b4:00:09:0e:7a:ac:6a:
                    31:54:3f:d7:bb:7d:1e:ac:b8:1a:c2:7b:b0:11:ec:
                    ce:07:1e:81:53:c8:41:a2:65:33:33:cc:e1:13:67:
                    0a:f9:4c:0c:8f:4b:17:bd:a7:d5:d7:4a:71:70:04:
                    29:1d:a7:d7:25:38:ae:d8:0c:55:f2:7e:74:3c:48:
                    53:b5
                Exponent: 65537 (0x10001)
        X509v3 extensions:
            X509v3 Basic Constraints: critical
                CA:FALSE
            X509v3 Key Usage: 
                Digital Signature, Key Encipherment, Key Agreement
            X509v3 Subject Key Identifier: 
                4D:F6:8A:CD:A5:2C:B6:DE:0F:CF:EF:A9:74:46:FD:8D:A6:84:60:CB
            X509v3 Authority Key Identifier: 
                keyid:22:20:0D:51:40:61:42:BE:DD:BA:D9:C9:C1:77:B6:93:28:C3:99:EC
                DirName:/C=CH/ST=Thurgau/L=Kefikon/O=guengel.ch/CN=CA 2022/emailAddress=postmaster@guengel.ch
                serial:6D:29:90:54:E9:17:E9:C2:6A:E6:52:AD:84:4E:30:8E:6E:57:FB:1C

            Netscape Cert Type: 
                SSL Client, SSL Server
            X509v3 Extended Key Usage: 
                TLS Web Server Authentication, TLS Web Client Authentication
    Signature Algorithm: sha256WithRSAEncryption
         72:cc:e2:68:be:0d:53:e8:9d:f5:02:21:96:ec:6a:48:7c:d9:
         49:6d:20:b4:aa:6e:ec:ac:a2:27:b8:c8:53:bb:ae:e9:18:03:
         83:5d:34:4c:2f:f5:5b:9b:a0:3c:35:32:e1:4f:94:ab:1d:db:
         69:24:dc:59:e8:23:27:45:07:e4:e0:16:ac:df:b3:8e:e1:11:
         05:ba:d3:e5:53:e0:82:b9:83:e4:7a:65:0c:76:bd:47:6b:22:
         b0:a6:65:c5:58:19:c7:c3:40:cf:48:9e:b3:39:38:67:25:bf:
         6e:42:a6:2e:8c:71:a5:14:5a:0f:53:50:26:1a:63:04:99:f3:
         c5:72:0d:26:5b:cf:4c:e5:9f:e4:3e:d5:20:77:06:b6:39:18:
         3c:d0:2c:c7:b7:71:e2:c1:54:f9:1d:f2:6f:24:17:36:35:35:
         d0:d5:7c:ff:fe:81:7f:2d:b9:e7:2e:77:6f:21:15:64:1e:76:
         08:5e:ce:01:42:8b:49:7a:c3:51:26:b7:3b:70:c1:d9:56:1b:
         5b:fb:e6:c8:89:ed:42:8e:32:6e:b1:ff:e5:12:4d:8d:50:79:
         ef:3d:1a:75:a0:25:fa:3e:0f:fa:b9:2f:7b:12:72:a2:b4:de:
         26:e7:0a:26:8e:62:58:c2:fe:2a:e9:58:9e:a4:7b:27:ff:2d:
         88:b7:5b:da:7d:9c:48:fe:21:ac:a4:36:7c:21:2d:d6:d6:e2:
         71:a8:ad:55:ad:c8:96:b5:1c:5d:a3:56:e7:a7:ac:a4:c3:d9:
         c9:b4:2b:89:7e:6b:c5:6d:86:57:3f:2a:f2:dc:b1:83:a4:2c:
         60:93:9b:06:be:cf:c4:70:b7:35:9b:70:81:9f:f9:0b:33:d0:
         77:ad:8c:06:d9:fc:17:74:87:cb:6f:b1:13:46:d9:17:af:7f:
         06:e4:55:d7:35:39:c2:b9:dd:df:e2:66:26:7e:9d:fc:3a:d7:
         72:3a:db:26:95:5b:dd:15:6f:78:0d:05:94:20:c4:cc:07:df:
         2d:b1:4e:6c:0c:23:29:71:45:37:f4:37:90:d2:dd:69:c1:d9:
         df:b6:6e:3d:3a:49:70:24:cb:c7:f9:75:b4:f3:24:8d:63:b7:
         2a:53:7e:ca:e0:1c:b5:1b:7a:10:bb:ad:99:bc:32:a2:41:de:
         68:d2:24:cb:53:0b:70:8c:41:01:0e:a6:9f:19:ff:2a:15:37:
         24:36:88:e7:b1:8e:13:dd:40:9b:3c:b7:7c:0f:c4:32:4e:a2:
         f0:bd:c1:82:ca:96:6d:7f:2f:3e:04:70:fd:91:be:61:14:4a:
         34:89:85:88:57:ed:a4:03:b9:2d:d6:43:f7:54:90:45:9b:d8:
         d8:dc:9f:12:26:ad:cc:26
-----BEGIN CERTIFICATE-----
MIIFvzCCA6egAwIBAgIUY6a9ZCyH8qEsMFQHZOuvZhPRxzYwDQYJKoZIhvcNAQEL
BQAwfjELMAkGA1UEBhMCQ0gxEDAOBgNVBAgTB1RodXJnYXUxEDAOBgNVBAcTB0tl
Zmlrb24xEzARBgNVBAoTCmd1ZW5nZWwuY2gxEDAOBgNVBAMTB0NBIDIwMjIxJDAi
BgkqhkiG9w0BCQEWFXBvc3RtYXN0ZXJAZ3VlbmdlbC5jaDAeFw0yMjAyMTExMzU5
NTNaFw0yMzAzMTgxMzU5NTNaMIGAMQswCQYDVQQGEwJDSDEQMA4GA1UECBMHVGh1
cmdhdTETMBEGA1UEChMKZ3VlbmdlbC5jaDEkMCIGA1UEAxMbbWVybGluLnZpcnR1
YWwua3J1ZW1lbC5ob21lMSQwIgYJKoZIhvcNAQkBFhVwb3N0bWFzdGVyQGd1ZW5n
ZWwuY2gwggEiMA0GCSqGSIb3DQEBAQUAA4IBDwAwggEKAoIBAQCdNToONnwpv5jC
bQMUE/0izWMGody92LUqLoVvNXVMk/euZzuSqjEWRZUdnFSrD4/KSQGx9fC0rCiV
xfaqQVK0ZeP3b2e9JXz30R40peCNKR7n6esnH/sjpSaFPu0QfWgNqpm+RgnPM7MT
3k85mF4v4+USbefE54TYCPjMQ3Kq2YiuJi8rlqn6dklObeky+yr32hEVANTaOsY5
jDv5cpnpvoRHFuvSZblx6hGqO1RFESZBQXD1JFhnstHxtAAJDnqsajFUP9e7fR6s
uBrCe7AR7M4HHoFTyEGiZTMzzOETZwr5TAyPSxe9p9XXSnFwBCkdp9clOK7YDFXy
fnQ8SFO1AgMBAAGjggEwMIIBLDAMBgNVHRMBAf8EAjAAMAsGA1UdDwQEAwIDqDAd
BgNVHQ4EFgQUTfaKzaUstt4Pz++pdEb9jaaEYMswgb0GA1UdIwSBtTCBsoAUIiAN
UUBhQr7dutnJwXe2kyjDmeyhgYOkgYAwfjELMAkGA1UEBhMCQ0gxEDAOBgNVBAgT
B1RodXJnYXUxEDAOBgNVBAcTB0tlZmlrb24xEzARBgNVBAoTCmd1ZW5nZWwuY2gx
EDAOBgNVBAMTB0NBIDIwMjIxJDAiBgkqhkiG9w0BCQEWFXBvc3RtYXN0ZXJAZ3Vl
bmdlbC5jaIIUbSmQVOkX6cJq5lKthE4wjm5X+xwwEQYJYIZIAYb4QgEBBAQDAgbA
MB0GA1UdJQQWMBQGCCsGAQUFBwMBBggrBgEFBQcDAjANBgkqhkiG9w0BAQsFAAOC
AgEAcsziaL4NU+id9QIhluxqSHzZSW0gtKpu7KyiJ7jIU7uu6RgDg100TC/1W5ug
PDUy4U+Uqx3baSTcWegjJ0UH5OAWrN+zjuERBbrT5VPggrmD5HplDHa9R2sisKZl
xVgZx8NAz0ieszk4ZyW/bkKmLoxxpRRaD1NQJhpjBJnzxXINJlvPTOWf5D7VIHcG
tjkYPNAsx7dx4sFU+R3ybyQXNjU10NV8//6Bfy255y53byEVZB52CF7OAUKLSXrD
USa3O3DB2VYbW/vmyIntQo4ybrH/5RJNjVB57z0adaAl+j4P+rkvexJyorTeJucK
Jo5iWML+KulYnqR7J/8tiLdb2n2cSP4hrKQ2fCEt1tbicaitVa3IlrUcXaNW56es
pMPZybQriX5rxW2GVz8q8tyxg6QsYJObBr7PxHC3NZtwgZ/5CzPQd62MBtn8F3SH
y2+xE0bZF69/BuRV1zU5wrnd3+JmJn6d/DrXcjrbJpVb3RVveA0FlCDEzAffLbFO
bAwjKXFFN/Q3kNLdacHZ37ZuPTpJcCTLx/l1tPMkjWO3KlN+yuActRt6ELutmbwy
okHeaNIky1MLcIxBAQ6mnxn/KhU3JDaI57GOE91Amzy3fA/EMk6i8L3BgsqWbX8v
PgRw/ZG+YRRKNImFiFftpAO5LdZD91SQRZvY2NyfEiatzCY=
-----END CERTIFICATE-----
