Certificate:
    Data:
        Version: 3 (0x2)
        Serial Number: 462 (0x1ce)
        Signature Algorithm: sha256WithRSAEncryption
        Issuer: C=CH, ST=Thurgau, L=Kefikon, O=guengel.ch, CN=CA guengel.ch/emailAddress=postmaster@guengel.ch
        Validity
            Not Before: Feb 11 07:07:09 2022 GMT
            Not After : Mar 18 07:07:09 2023 GMT
        Subject: C=CH, ST=Thurgau, O=guengel.ch, CN=merlin.virtual.kruemel.home/emailAddress=postmaster@guengel.ch
        Subject Public Key Info:
            Public Key Algorithm: rsaEncryption
                RSA Public-Key: (2048 bit)
                Modulus:
                    00:c5:b3:aa:6b:90:06:dc:09:db:6b:c5:e0:76:11:
                    e1:de:0f:86:c6:e9:89:bd:ed:e5:74:52:3c:b2:89:
                    72:4a:c4:67:3c:3e:1e:d4:cd:82:8b:5b:a5:55:cc:
                    d5:e5:af:d9:74:38:fa:07:c7:8a:dc:db:c7:83:b4:
                    78:37:7e:ee:91:c7:bc:1d:e9:4d:d7:7a:5a:8c:42:
                    b8:c1:0f:3e:aa:e9:66:48:fd:70:60:4b:61:da:97:
                    2b:e7:6c:a3:e6:ae:27:5f:c6:89:4e:b2:97:44:4e:
                    9a:60:a3:65:31:5a:99:4d:c9:5a:2e:9e:56:47:02:
                    44:ef:72:ee:b3:a6:05:07:a8:d2:78:a5:2c:5c:bd:
                    18:76:e1:dc:85:f7:b4:6d:37:fb:58:cf:c9:cc:72:
                    69:1e:0a:47:0b:a1:28:13:a0:45:84:8d:96:f4:86:
                    3e:a7:51:17:e2:8e:a3:70:46:e4:46:b5:fe:8b:ef:
                    33:a7:72:fb:0b:2b:c8:0f:48:a3:81:bc:51:27:1e:
                    e1:d4:2d:b3:41:4d:17:c8:d4:3b:07:5a:67:a2:77:
                    2d:ad:bc:74:d8:9e:07:58:45:86:43:51:f2:df:99:
                    0f:1e:d7:fb:60:fb:5b:20:00:b3:a9:4a:3c:b2:8a:
                    1a:f7:f5:bb:65:f0:1a:c0:d0:01:50:da:8b:b5:b7:
                    49:f1
                Exponent: 65537 (0x10001)
        X509v3 extensions:
            X509v3 Key Usage: 
                Digital Signature, Key Encipherment, Key Agreement
            X509v3 Basic Constraints: critical
                CA:FALSE
            Netscape Cert Type: 
                SSL Client, SSL Server
            X509v3 Extended Key Usage: 
                TLS Web Server Authentication, TLS Web Client Authentication
            X509v3 Subject Alternative Name: 
                DNS:merlin.virtual.kruemel.home
            X509v3 Subject Key Identifier: 
                93:65:E0:DA:41:FD:CC:70:8A:CD:40:E3:69:4F:87:36:3E:0D:D9:EB
            X509v3 Authority Key Identifier: 
                keyid:D6:88:F1:AA:C1:2B:09:8C:B8:5C:9D:CE:DF:57:39:62:26:10:20:90
                DirName:/C=CH/ST=Thurgau/L=Kefikon/O=guengel.ch/CN=CA guengel.ch/emailAddress=postmaster@guengel.ch
                serial:E5:25:3B:A6:77:BD:CB:FF

    Signature Algorithm: sha256WithRSAEncryption
         87:e1:22:5c:ef:6b:94:83:0e:96:03:b8:8f:6c:8e:dc:96:34:
         09:b0:c9:c8:07:05:39:2e:98:9c:ba:f5:06:c1:dd:0f:42:68:
         67:2c:31:8d:e4:49:c4:93:77:11:f8:c8:b6:68:05:20:56:c2:
         df:ea:78:13:b4:7d:3d:34:59:38:fc:f4:7e:57:85:ff:16:47:
         5b:73:6a:97:c9:05:31:14:cb:1a:67:a6:5c:70:ee:8d:a7:07:
         a8:75:e0:98:b6:85:8e:eb:3a:68:dc:5d:b8:0d:19:82:c3:e0:
         da:b3:f1:c8:3d:89:ca:9f:b0:7c:21:1f:dd:85:37:df:df:55:
         41:15:4f:0d:f3:32:97:bc:08:69:c3:a3:16:ea:e0:7d:60:81:
         3d:98:21:1a:45:1e:76:e8:7a:90:10:44:2b:a4:6c:7d:8e:d8:
         10:f6:6a:d9:45:8d:4f:d4:10:6e:67:1a:16:61:e9:03:f6:25:
         d0:20:96:50:c0:14:18:9a:19:4b:0d:2b:99:b3:4b:7d:d9:ab:
         92:46:5d:2f:5a:3b:b6:a3:58:ef:03:4a:40:59:21:a8:71:59:
         76:85:56:f4:bc:8d:23:d6:1f:d8:7c:25:5b:16:a5:3d:11:c4:
         14:f5:e2:56:1c:96:01:49:c9:24:93:c1:9d:4f:f9:3d:a5:69:
         9f:85:a6:b0:93:b6:e5:77:dd:1b:17:27:44:2c:64:7d:68:55:
         ac:9a:b9:96:23:4c:fa:e6:4a:27:5e:3b:15:be:1a:62:f5:70:
         2a:c0:5a:cb:a3:8f:24:50:ac:ee:f2:f0:7a:05:4c:00:05:74:
         a7:d2:b5:83:9d:fc:b1:7f:8a:9b:fe:0c:81:21:19:b1:64:65:
         a6:b8:21:e6:01:83:8f:ef:66:a0:00:ce:c0:1e:c9:2a:1e:f4:
         7e:f7:72:4e:cf:59:53:c4:bc:4d:78:7c:9a:39:04:d3:f9:74:
         ae:c0:63:61:64:78:5b:f5:10:dc:8e:27:ce:e5:40:31:33:db:
         fa:42:54:a4:dd:70:08:ee:b5:fe:11:d4:c1:39:c0:ac:07:0c:
         07:9a:21:64:cf:ba:df:23:d4:ba:7d:4a:59:6b:f9:6b:41:e9:
         18:23:54:c1:fb:e9:b7:13:19:9c:c5:d9:09:ca:07:22:a5:8d:
         42:9e:cf:28:af:c4:23:f6:8e:8b:19:d2:ab:4d:d9:43:53:e4:
         d7:00:45:2b:2f:3e:39:74:ec:7f:7c:c0:c6:6e:7c:08:e8:47:
         5c:c8:83:fd:e1:fb:b1:e0:1d:8e:92:41:01:a0:a9:90:52:8c:
         86:fc:01:75:b2:f6:54:9e:63:68:24:b0:b4:4f:0e:7d:36:a8:
         26:1a:39:f2:4d:6f:c7:a6
-----BEGIN CERTIFICATE-----
MIIF2DCCA8CgAwIBAgICAc4wDQYJKoZIhvcNAQELBQAwgYQxCzAJBgNVBAYTAkNI
MRAwDgYDVQQIEwdUaHVyZ2F1MRAwDgYDVQQHEwdLZWZpa29uMRMwEQYDVQQKEwpn
dWVuZ2VsLmNoMRYwFAYDVQQDEw1DQSBndWVuZ2VsLmNoMSQwIgYJKoZIhvcNAQkB
FhVwb3N0bWFzdGVyQGd1ZW5nZWwuY2gwHhcNMjIwMjExMDcwNzA5WhcNMjMwMzE4
MDcwNzA5WjCBgDELMAkGA1UEBhMCQ0gxEDAOBgNVBAgTB1RodXJnYXUxEzARBgNV
BAoTCmd1ZW5nZWwuY2gxJDAiBgNVBAMTG21lcmxpbi52aXJ0dWFsLmtydWVtZWwu
aG9tZTEkMCIGCSqGSIb3DQEJARYVcG9zdG1hc3RlckBndWVuZ2VsLmNoMIIBIjAN
BgkqhkiG9w0BAQEFAAOCAQ8AMIIBCgKCAQEAxbOqa5AG3Anba8XgdhHh3g+GxumJ
ve3ldFI8solySsRnPD4e1M2Ci1ulVczV5a/ZdDj6B8eK3NvHg7R4N37ukce8HelN
13pajEK4wQ8+qulmSP1wYEth2pcr52yj5q4nX8aJTrKXRE6aYKNlMVqZTclaLp5W
RwJE73Lus6YFB6jSeKUsXL0YduHchfe0bTf7WM/JzHJpHgpHC6EoE6BFhI2W9IY+
p1EX4o6jcEbkRrX+i+8zp3L7CyvID0ijgbxRJx7h1C2zQU0XyNQ7B1pnonctrbx0
2J4HWEWGQ1Hy35kPHtf7YPtbIACzqUo8sooa9/W7ZfAawNABUNqLtbdJ8QIDAQAB
o4IBVDCCAVAwCwYDVR0PBAQDAgOoMAwGA1UdEwEB/wQCMAAwEQYJYIZIAYb4QgEB
BAQDAgbAMB0GA1UdJQQWMBQGCCsGAQUFBwMBBggrBgEFBQcDAjAmBgNVHREEHzAd
ghttZXJsaW4udmlydHVhbC5rcnVlbWVsLmhvbWUwHQYDVR0OBBYEFJNl4NpB/cxw
is1A42lPhzY+DdnrMIG5BgNVHSMEgbEwga6AFNaI8arBKwmMuFydzt9XOWImECCQ
oYGKpIGHMIGEMQswCQYDVQQGEwJDSDEQMA4GA1UECBMHVGh1cmdhdTEQMA4GA1UE
BxMHS2VmaWtvbjETMBEGA1UEChMKZ3VlbmdlbC5jaDEWMBQGA1UEAxMNQ0EgZ3Vl
bmdlbC5jaDEkMCIGCSqGSIb3DQEJARYVcG9zdG1hc3RlckBndWVuZ2VsLmNoggkA
5SU7pne9y/8wDQYJKoZIhvcNAQELBQADggIBAIfhIlzva5SDDpYDuI9sjtyWNAmw
ycgHBTkumJy69QbB3Q9CaGcsMY3kScSTdxH4yLZoBSBWwt/qeBO0fT00WTj89H5X
hf8WR1tzapfJBTEUyxpnplxw7o2nB6h14Ji2hY7rOmjcXbgNGYLD4Nqz8cg9icqf
sHwhH92FN9/fVUEVTw3zMpe8CGnDoxbq4H1ggT2YIRpFHnboepAQRCukbH2O2BD2
atlFjU/UEG5nGhZh6QP2JdAgllDAFBiaGUsNK5mzS33Zq5JGXS9aO7ajWO8DSkBZ
IahxWXaFVvS8jSPWH9h8JVsWpT0RxBT14lYclgFJySSTwZ1P+T2laZ+FprCTtuV3
3RsXJ0QsZH1oVayauZYjTPrmSideOxW+GmL1cCrAWsujjyRQrO7y8HoFTAAFdKfS
tYOd/LF/ipv+DIEhGbFkZaa4IeYBg4/vZqAAzsAeySoe9H73ck7PWVPEvE14fJo5
BNP5dK7AY2FkeFv1ENyOJ87lQDEz2/pCVKTdcAjutf4R1ME5wKwHDAeaIWTPut8j
1Lp9Sllr+WtB6RgjVMH76bcTGZzF2QnKByKljUKezyivxCP2josZ0qtN2UNT5NcA
RSsvPjl07H98wMZufAjoR1zIg/3h+7HgHY6SQQGgqZBSjIb8AXWy9lSeY2gksLRP
Dn02qCYaOfJNb8em
-----END CERTIFICATE-----
