Certificate:
    Data:
        Version: 3 (0x2)
        Serial Number: 376 (0x178)
        Signature Algorithm: sha256WithRSAEncryption
        Issuer: C=CH, ST=Thurgau, L=Kefikon, O=guengel.ch, CN=CA guengel.ch/emailAddress=postmaster@guengel.ch
        Validity
            Not Before: Jan  3 10:08:51 2020 GMT
            Not After : Feb  6 10:08:51 2021 GMT
        Subject: C=CH, ST=Thurgau, O=guengel.ch, CN=merlin.virtual.kruemel.home/emailAddress=postmaster@guengel.ch
        Subject Public Key Info:
            Public Key Algorithm: rsaEncryption
                RSA Public-Key: (2048 bit)
                Modulus:
                    00:c5:b3:aa:6b:90:06:dc:09:db:6b:c5:e0:76:11:
                    e1:de:0f:86:c6:e9:89:bd:ed:e5:74:52:3c:b2:89:
                    72:4a:c4:67:3c:3e:1e:d4:cd:82:8b:5b:a5:55:cc:
                    d5:e5:af:d9:74:38:fa:07:c7:8a:dc:db:c7:83:b4:
                    78:37:7e:ee:91:c7:bc:1d:e9:4d:d7:7a:5a:8c:42:
                    b8:c1:0f:3e:aa:e9:66:48:fd:70:60:4b:61:da:97:
                    2b:e7:6c:a3:e6:ae:27:5f:c6:89:4e:b2:97:44:4e:
                    9a:60:a3:65:31:5a:99:4d:c9:5a:2e:9e:56:47:02:
                    44:ef:72:ee:b3:a6:05:07:a8:d2:78:a5:2c:5c:bd:
                    18:76:e1:dc:85:f7:b4:6d:37:fb:58:cf:c9:cc:72:
                    69:1e:0a:47:0b:a1:28:13:a0:45:84:8d:96:f4:86:
                    3e:a7:51:17:e2:8e:a3:70:46:e4:46:b5:fe:8b:ef:
                    33:a7:72:fb:0b:2b:c8:0f:48:a3:81:bc:51:27:1e:
                    e1:d4:2d:b3:41:4d:17:c8:d4:3b:07:5a:67:a2:77:
                    2d:ad:bc:74:d8:9e:07:58:45:86:43:51:f2:df:99:
                    0f:1e:d7:fb:60:fb:5b:20:00:b3:a9:4a:3c:b2:8a:
                    1a:f7:f5:bb:65:f0:1a:c0:d0:01:50:da:8b:b5:b7:
                    49:f1
                Exponent: 65537 (0x10001)
        X509v3 extensions:
            X509v3 Basic Constraints: 
                CA:FALSE
            Netscape Comment: 
                OpenSSL Generated Certificate
            X509v3 Subject Key Identifier: 
                93:65:E0:DA:41:FD:CC:70:8A:CD:40:E3:69:4F:87:36:3E:0D:D9:EB
            X509v3 Authority Key Identifier: 
                keyid:D6:88:F1:AA:C1:2B:09:8C:B8:5C:9D:CE:DF:57:39:62:26:10:20:90
                DirName:/C=CH/ST=Thurgau/L=Kefikon/O=guengel.ch/CN=CA guengel.ch/emailAddress=postmaster@guengel.ch
                serial:E5:25:3B:A6:77:BD:CB:FF

    Signature Algorithm: sha256WithRSAEncryption
         9c:9c:3e:0b:4a:ec:45:a7:8d:8c:3d:fd:23:dc:64:cb:94:79:
         ed:ea:c5:58:18:89:8d:23:61:c5:59:db:35:d0:92:f6:87:a8:
         70:32:bb:7e:74:7e:a7:3e:44:2b:cc:72:dd:a9:5d:33:e4:63:
         08:95:53:1d:d1:2b:1f:24:bf:81:1b:14:a1:28:37:d8:d3:e2:
         bf:36:6e:93:45:cb:98:ca:7a:58:75:e2:55:eb:0d:ec:80:8a:
         b2:9f:aa:56:5a:4e:25:cb:78:04:52:91:f7:cc:33:78:2e:32:
         fd:e4:0d:81:fa:09:57:c8:67:b5:1f:ad:81:c4:44:af:74:61:
         d0:1e:4d:34:f1:08:5a:6a:2a:56:d4:67:5f:25:a4:ce:e0:f5:
         e9:8a:39:52:16:50:27:67:c0:64:98:d5:a0:f4:f3:45:1c:30:
         1b:2b:29:0a:58:73:00:b9:41:e8:5e:52:ea:ef:81:e3:4c:60:
         65:3a:e6:46:b0:76:8e:9b:0a:1a:ed:00:a6:9b:1f:38:96:fd:
         e1:98:10:06:9e:94:35:3b:64:c9:2b:3c:36:ca:4b:1b:69:74:
         ce:36:f7:99:b9:f7:e8:65:61:46:c9:43:ff:9f:e8:cf:d8:fd:
         61:00:18:47:40:92:23:64:42:56:d7:36:7f:7f:91:f1:7f:6e:
         26:a0:90:da:93:3f:55:a7:ac:e8:16:28:eb:26:54:8f:82:97:
         9a:ee:59:50:73:b7:e8:48:ed:cb:fc:b7:79:9a:1b:6f:c6:30:
         9a:37:a3:f7:9f:08:53:9e:f0:89:f9:3f:59:09:a0:ad:97:04:
         53:d8:d8:5b:80:d8:a6:c4:96:73:e3:5f:94:91:2b:06:65:eb:
         45:4c:77:45:bb:73:98:b9:ce:b3:0f:20:58:66:85:0a:27:56:
         29:5f:eb:d7:53:1a:5b:05:2d:d0:c5:92:a0:bf:15:80:80:23:
         84:72:1a:3f:15:cf:68:1f:32:92:9d:0b:32:7e:57:71:3e:12:
         2a:7a:47:a2:bb:87:93:73:72:0b:1b:cb:30:7f:47:3b:d2:78:
         39:ba:10:22:11:a0:eb:ed:97:97:b0:04:08:73:f6:b4:7d:76:
         27:de:70:8e:e3:2a:4e:be:d1:23:d5:c9:0d:9d:f4:99:88:60:
         12:20:c8:65:a2:4c:f8:92:d7:eb:88:25:37:69:e0:8f:a5:a6:
         8a:96:bc:46:03:60:61:4c:ad:be:54:73:ca:3e:9e:3a:fe:35:
         37:91:db:9e:e4:a8:80:45:2a:e5:e0:28:c5:53:bb:49:21:e9:
         71:55:8e:29:4c:d7:dc:4f:df:62:52:d4:22:fd:09:f3:c6:b5:
         a0:d6:be:38:65:7a:9b:41
-----BEGIN CERTIFICATE-----
MIIFnDCCA4SgAwIBAgICAXgwDQYJKoZIhvcNAQELBQAwgYQxCzAJBgNVBAYTAkNI
MRAwDgYDVQQIEwdUaHVyZ2F1MRAwDgYDVQQHEwdLZWZpa29uMRMwEQYDVQQKEwpn
dWVuZ2VsLmNoMRYwFAYDVQQDEw1DQSBndWVuZ2VsLmNoMSQwIgYJKoZIhvcNAQkB
FhVwb3N0bWFzdGVyQGd1ZW5nZWwuY2gwHhcNMjAwMTAzMTAwODUxWhcNMjEwMjA2
MTAwODUxWjCBgDELMAkGA1UEBhMCQ0gxEDAOBgNVBAgTB1RodXJnYXUxEzARBgNV
BAoTCmd1ZW5nZWwuY2gxJDAiBgNVBAMTG21lcmxpbi52aXJ0dWFsLmtydWVtZWwu
aG9tZTEkMCIGCSqGSIb3DQEJARYVcG9zdG1hc3RlckBndWVuZ2VsLmNoMIIBIjAN
BgkqhkiG9w0BAQEFAAOCAQ8AMIIBCgKCAQEAxbOqa5AG3Anba8XgdhHh3g+GxumJ
ve3ldFI8solySsRnPD4e1M2Ci1ulVczV5a/ZdDj6B8eK3NvHg7R4N37ukce8HelN
13pajEK4wQ8+qulmSP1wYEth2pcr52yj5q4nX8aJTrKXRE6aYKNlMVqZTclaLp5W
RwJE73Lus6YFB6jSeKUsXL0YduHchfe0bTf7WM/JzHJpHgpHC6EoE6BFhI2W9IY+
p1EX4o6jcEbkRrX+i+8zp3L7CyvID0ijgbxRJx7h1C2zQU0XyNQ7B1pnonctrbx0
2J4HWEWGQ1Hy35kPHtf7YPtbIACzqUo8sooa9/W7ZfAawNABUNqLtbdJ8QIDAQAB
o4IBGDCCARQwCQYDVR0TBAIwADAsBglghkgBhvhCAQ0EHxYdT3BlblNTTCBHZW5l
cmF0ZWQgQ2VydGlmaWNhdGUwHQYDVR0OBBYEFJNl4NpB/cxwis1A42lPhzY+Ddnr
MIG5BgNVHSMEgbEwga6AFNaI8arBKwmMuFydzt9XOWImECCQoYGKpIGHMIGEMQsw
CQYDVQQGEwJDSDEQMA4GA1UECBMHVGh1cmdhdTEQMA4GA1UEBxMHS2VmaWtvbjET
MBEGA1UEChMKZ3VlbmdlbC5jaDEWMBQGA1UEAxMNQ0EgZ3VlbmdlbC5jaDEkMCIG
CSqGSIb3DQEJARYVcG9zdG1hc3RlckBndWVuZ2VsLmNoggkA5SU7pne9y/8wDQYJ
KoZIhvcNAQELBQADggIBAJycPgtK7EWnjYw9/SPcZMuUee3qxVgYiY0jYcVZ2zXQ
kvaHqHAyu350fqc+RCvMct2pXTPkYwiVUx3RKx8kv4EbFKEoN9jT4r82bpNFy5jK
elh14lXrDeyAirKfqlZaTiXLeARSkffMM3guMv3kDYH6CVfIZ7UfrYHERK90YdAe
TTTxCFpqKlbUZ18lpM7g9emKOVIWUCdnwGSY1aD080UcMBsrKQpYcwC5QeheUurv
geNMYGU65kawdo6bChrtAKabHziW/eGYEAaelDU7ZMkrPDbKSxtpdM4295m59+hl
YUbJQ/+f6M/Y/WEAGEdAkiNkQlbXNn9/kfF/biagkNqTP1WnrOgWKOsmVI+Cl5ru
WVBzt+hI7cv8t3maG2/GMJo3o/efCFOe8In5P1kJoK2XBFPY2FuA2KbElnPjX5SR
KwZl60VMd0W7c5i5zrMPIFhmhQonVilf69dTGlsFLdDFkqC/FYCAI4RyGj8Vz2gf
MpKdCzJ+V3E+Eip6R6K7h5NzcgsbyzB/RzvSeDm6ECIRoOvtl5ewBAhz9rR9dife
cI7jKk6+0SPVyQ2d9JmIYBIgyGWiTPiS1+uIJTdp4I+lpoqWvEYDYGFMrb5Uc8o+
njr+NTeR257kqIBFKuXgKMVTu0kh6XFVjilM19xP32JS1CL9CfPGtaDWvjhleptB
-----END CERTIFICATE-----
