Certificate:
    Data:
        Version: 3 (0x2)
        Serial Number: 346 (0x15a)
    Signature Algorithm: sha256WithRSAEncryption
        Issuer: C=CH, ST=Thurgau, L=Kefikon, O=guengel.ch, CN=CA guengel.ch/emailAddress=postmaster@guengel.ch
        Validity
            Not Before: Dec 29 14:40:01 2018 GMT
            Not After : Feb  2 14:40:01 2020 GMT
        Subject: C=CH, ST=Thurgau, O=guengel.ch, CN=merlin.virtual.kruemel.home/emailAddress=postmaster@guengel.ch
        Subject Public Key Info:
            Public Key Algorithm: rsaEncryption
                Public-Key: (2048 bit)
                Modulus:
                    00:c5:b3:aa:6b:90:06:dc:09:db:6b:c5:e0:76:11:
                    e1:de:0f:86:c6:e9:89:bd:ed:e5:74:52:3c:b2:89:
                    72:4a:c4:67:3c:3e:1e:d4:cd:82:8b:5b:a5:55:cc:
                    d5:e5:af:d9:74:38:fa:07:c7:8a:dc:db:c7:83:b4:
                    78:37:7e:ee:91:c7:bc:1d:e9:4d:d7:7a:5a:8c:42:
                    b8:c1:0f:3e:aa:e9:66:48:fd:70:60:4b:61:da:97:
                    2b:e7:6c:a3:e6:ae:27:5f:c6:89:4e:b2:97:44:4e:
                    9a:60:a3:65:31:5a:99:4d:c9:5a:2e:9e:56:47:02:
                    44:ef:72:ee:b3:a6:05:07:a8:d2:78:a5:2c:5c:bd:
                    18:76:e1:dc:85:f7:b4:6d:37:fb:58:cf:c9:cc:72:
                    69:1e:0a:47:0b:a1:28:13:a0:45:84:8d:96:f4:86:
                    3e:a7:51:17:e2:8e:a3:70:46:e4:46:b5:fe:8b:ef:
                    33:a7:72:fb:0b:2b:c8:0f:48:a3:81:bc:51:27:1e:
                    e1:d4:2d:b3:41:4d:17:c8:d4:3b:07:5a:67:a2:77:
                    2d:ad:bc:74:d8:9e:07:58:45:86:43:51:f2:df:99:
                    0f:1e:d7:fb:60:fb:5b:20:00:b3:a9:4a:3c:b2:8a:
                    1a:f7:f5:bb:65:f0:1a:c0:d0:01:50:da:8b:b5:b7:
                    49:f1
                Exponent: 65537 (0x10001)
        X509v3 extensions:
            X509v3 Basic Constraints: 
                CA:FALSE
            Netscape Comment: 
                OpenSSL Generated Certificate
            X509v3 Subject Key Identifier: 
                93:65:E0:DA:41:FD:CC:70:8A:CD:40:E3:69:4F:87:36:3E:0D:D9:EB
            X509v3 Authority Key Identifier: 
                keyid:D6:88:F1:AA:C1:2B:09:8C:B8:5C:9D:CE:DF:57:39:62:26:10:20:90
                DirName:/C=CH/ST=Thurgau/L=Kefikon/O=guengel.ch/CN=CA guengel.ch/emailAddress=postmaster@guengel.ch
                serial:E5:25:3B:A6:77:BD:CB:FF

    Signature Algorithm: sha256WithRSAEncryption
         ac:4f:92:d4:c2:1f:a8:08:0f:26:2c:de:53:13:21:c6:5f:b4:
         3b:3a:fc:43:06:42:df:93:14:2f:58:1b:d7:2e:fd:8b:3e:50:
         cc:0c:d3:4e:64:fb:d1:cd:87:29:ae:b1:a4:30:c9:82:93:98:
         6b:ff:32:6d:a4:ca:ad:46:dc:58:f1:05:b2:59:5f:ea:5a:e4:
         3a:3f:69:eb:d8:71:95:2e:5f:9b:dd:89:ad:18:f1:14:a4:8b:
         60:ce:7f:f5:4a:ce:a1:4c:6e:88:ce:b1:9f:8c:cb:f5:f2:e1:
         d5:df:ca:6d:d5:ee:84:81:85:96:d1:63:4a:45:9e:fb:24:3a:
         6d:29:c9:83:98:b0:9f:fd:75:9c:53:6b:57:8f:dd:2b:cd:e9:
         64:63:9e:81:56:7a:2f:b9:14:f5:bc:41:95:3a:11:1f:e4:0e:
         75:bd:90:f1:53:c6:a8:0c:c5:e7:da:5b:f1:2f:58:22:83:f4:
         31:fc:ae:d2:cf:72:3d:18:cd:81:31:b6:b6:fa:4b:80:58:43:
         b0:b6:20:f6:b4:41:de:3b:ed:51:70:c3:75:51:41:c2:3d:13:
         ec:c8:16:8c:c1:2e:2c:6c:10:7f:05:0b:d0:34:8a:5e:32:5a:
         4f:a3:ad:b9:9d:be:7d:ed:42:6b:18:d1:5b:7c:de:34:f3:6d:
         1f:a7:99:d1:b5:34:bb:9a:99:fb:be:2f:ca:61:54:a2:cf:6a:
         66:e0:a1:9e:f7:2c:92:ec:c4:28:35:80:be:6f:16:69:d7:ba:
         61:23:e4:74:af:1c:31:21:cc:ff:b6:bb:6c:88:7e:e4:6d:4c:
         c0:8a:0a:36:0e:6e:5a:84:32:f1:df:52:20:2a:5f:d9:e6:8d:
         94:c1:d4:08:f4:04:c2:7f:ad:45:20:13:83:4d:d0:f6:60:38:
         32:b0:f7:f6:8a:ab:1f:b8:1a:1d:db:e0:28:da:0c:74:ce:c1:
         cf:e5:5d:7c:b6:47:42:3c:d5:13:e6:ed:33:fb:ea:b0:21:3e:
         94:de:24:ec:9f:2d:5f:82:b4:9b:a8:3a:8c:da:f1:c8:a0:33:
         46:0f:7c:87:48:8d:9d:67:54:77:74:ac:10:d2:b4:78:06:85:
         61:a3:f0:17:b8:52:b7:d3:38:68:18:67:8a:ee:8e:ff:96:b9:
         20:86:3b:31:48:06:39:64:a4:e5:7c:da:80:36:fb:fa:16:a1:
         53:68:7c:fa:8a:a8:b7:73:14:35:81:66:68:3c:4e:01:ac:d3:
         c3:86:65:b9:7b:fa:a9:e3:73:e2:0f:73:b6:65:68:28:77:bc:
         6f:f5:e2:e6:e4:9a:52:c5:61:38:bd:3c:70:79:7b:02:49:12:
         40:08:4b:02:f5:95:35:fd
-----BEGIN CERTIFICATE-----
MIIFnDCCA4SgAwIBAgICAVowDQYJKoZIhvcNAQELBQAwgYQxCzAJBgNVBAYTAkNI
MRAwDgYDVQQIEwdUaHVyZ2F1MRAwDgYDVQQHEwdLZWZpa29uMRMwEQYDVQQKEwpn
dWVuZ2VsLmNoMRYwFAYDVQQDEw1DQSBndWVuZ2VsLmNoMSQwIgYJKoZIhvcNAQkB
FhVwb3N0bWFzdGVyQGd1ZW5nZWwuY2gwHhcNMTgxMjI5MTQ0MDAxWhcNMjAwMjAy
MTQ0MDAxWjCBgDELMAkGA1UEBhMCQ0gxEDAOBgNVBAgTB1RodXJnYXUxEzARBgNV
BAoTCmd1ZW5nZWwuY2gxJDAiBgNVBAMTG21lcmxpbi52aXJ0dWFsLmtydWVtZWwu
aG9tZTEkMCIGCSqGSIb3DQEJARYVcG9zdG1hc3RlckBndWVuZ2VsLmNoMIIBIjAN
BgkqhkiG9w0BAQEFAAOCAQ8AMIIBCgKCAQEAxbOqa5AG3Anba8XgdhHh3g+GxumJ
ve3ldFI8solySsRnPD4e1M2Ci1ulVczV5a/ZdDj6B8eK3NvHg7R4N37ukce8HelN
13pajEK4wQ8+qulmSP1wYEth2pcr52yj5q4nX8aJTrKXRE6aYKNlMVqZTclaLp5W
RwJE73Lus6YFB6jSeKUsXL0YduHchfe0bTf7WM/JzHJpHgpHC6EoE6BFhI2W9IY+
p1EX4o6jcEbkRrX+i+8zp3L7CyvID0ijgbxRJx7h1C2zQU0XyNQ7B1pnonctrbx0
2J4HWEWGQ1Hy35kPHtf7YPtbIACzqUo8sooa9/W7ZfAawNABUNqLtbdJ8QIDAQAB
o4IBGDCCARQwCQYDVR0TBAIwADAsBglghkgBhvhCAQ0EHxYdT3BlblNTTCBHZW5l
cmF0ZWQgQ2VydGlmaWNhdGUwHQYDVR0OBBYEFJNl4NpB/cxwis1A42lPhzY+Ddnr
MIG5BgNVHSMEgbEwga6AFNaI8arBKwmMuFydzt9XOWImECCQoYGKpIGHMIGEMQsw
CQYDVQQGEwJDSDEQMA4GA1UECBMHVGh1cmdhdTEQMA4GA1UEBxMHS2VmaWtvbjET
MBEGA1UEChMKZ3VlbmdlbC5jaDEWMBQGA1UEAxMNQ0EgZ3VlbmdlbC5jaDEkMCIG
CSqGSIb3DQEJARYVcG9zdG1hc3RlckBndWVuZ2VsLmNoggkA5SU7pne9y/8wDQYJ
KoZIhvcNAQELBQADggIBAKxPktTCH6gIDyYs3lMTIcZftDs6/EMGQt+TFC9YG9cu
/Ys+UMwM005k+9HNhymusaQwyYKTmGv/Mm2kyq1G3FjxBbJZX+pa5Do/aevYcZUu
X5vdia0Y8RSki2DOf/VKzqFMbojOsZ+My/Xy4dXfym3V7oSBhZbRY0pFnvskOm0p
yYOYsJ/9dZxTa1eP3SvN6WRjnoFWei+5FPW8QZU6ER/kDnW9kPFTxqgMxefaW/Ev
WCKD9DH8rtLPcj0YzYExtrb6S4BYQ7C2IPa0Qd477VFww3VRQcI9E+zIFozBLixs
EH8FC9A0il4yWk+jrbmdvn3tQmsY0Vt83jTzbR+nmdG1NLuamfu+L8phVKLPambg
oZ73LJLsxCg1gL5vFmnXumEj5HSvHDEhzP+2u2yIfuRtTMCKCjYOblqEMvHfUiAq
X9nmjZTB1Aj0BMJ/rUUgE4NN0PZgODKw9/aKqx+4Gh3b4CjaDHTOwc/lXXy2R0I8
1RPm7TP76rAhPpTeJOyfLV+CtJuoOoza8cigM0YPfIdIjZ1nVHd0rBDStHgGhWGj
8Be4UrfTOGgYZ4rujv+WuSCGOzFIBjlkpOV82oA2+/oWoVNofPqKqLdzFDWBZmg8
TgGs08OGZbl7+qnjc+IPc7ZlaCh3vG/14ubkmlLFYTi9PHB5ewJJEkAISwL1lTX9
-----END CERTIFICATE-----
