Certificate:
    Data:
        Version: 3 (0x2)
        Serial Number: 253 (0xfd)
    Signature Algorithm: sha256WithRSAEncryption
        Issuer: C=CH, ST=Thurgau, L=Kefikon, O=guengel.ch, CN=CA guengel.ch/emailAddress=postmaster@guengel.ch
        Validity
            Not Before: Nov 20 09:17:21 2016 GMT
            Not After : Apr  4 09:17:21 2018 GMT
        Subject: C=CH, ST=Thurgau, O=guengel.ch, CN=neger.virtual.kruemel.home/emailAddress=postmaster@guengel.ch
        Subject Public Key Info:
            Public Key Algorithm: rsaEncryption
                Public-Key: (2048 bit)
                Modulus:
                    00:9e:0f:51:67:96:28:28:9a:15:25:3a:ff:74:85:
                    df:11:e9:f7:b1:ee:7f:53:d1:24:41:f9:c0:b1:67:
                    98:99:29:fd:91:19:cd:12:d0:b8:ef:b1:db:d5:95:
                    9f:8f:ba:81:59:cf:55:a5:5f:ca:da:f5:2c:01:10:
                    de:a5:b3:71:26:62:38:4b:25:20:38:c5:b2:ca:29:
                    d4:9b:5c:e5:5b:8e:cc:41:09:05:d0:ca:59:cb:6e:
                    67:3d:91:2d:f7:7e:d1:8b:1c:45:e7:47:e8:c4:24:
                    d6:9f:54:84:ac:dd:86:3e:af:e3:66:92:39:f3:ed:
                    3a:a8:07:0d:c5:b9:35:14:bb:17:ca:02:17:4b:15:
                    09:06:2e:0a:83:aa:0d:3c:35:1d:45:25:3d:b7:4a:
                    f6:a6:af:2c:5b:39:4e:93:af:ae:1b:3a:45:c9:e2:
                    37:ec:d7:31:88:ae:c0:9d:78:c0:7c:94:11:dc:8d:
                    52:3f:68:84:ff:d1:a9:9b:0b:80:45:61:d3:78:cc:
                    80:45:51:c9:29:8c:09:89:e7:0e:18:ec:23:ea:3c:
                    bd:b2:f5:1d:ce:59:09:19:c7:f2:32:bd:37:1d:f6:
                    a9:ab:d6:a3:39:5a:c4:ca:4c:d4:47:db:7e:d6:0b:
                    65:77:a5:33:3b:51:e9:d4:bd:2e:69:b3:80:b8:86:
                    6a:93
                Exponent: 65537 (0x10001)
        X509v3 extensions:
            X509v3 Basic Constraints: 
                CA:FALSE
            Netscape Comment: 
                OpenSSL Generated Certificate
            X509v3 Subject Key Identifier: 
                06:7A:DA:6B:DA:A4:06:1B:DE:4B:12:CC:51:94:3D:13:5A:DD:B9:77
            X509v3 Authority Key Identifier: 
                keyid:D6:88:F1:AA:C1:2B:09:8C:B8:5C:9D:CE:DF:57:39:62:26:10:20:90
                DirName:/C=CH/ST=Thurgau/L=Kefikon/O=guengel.ch/CN=CA guengel.ch/emailAddress=postmaster@guengel.ch
                serial:E5:25:3B:A6:77:BD:CB:FF

    Signature Algorithm: sha256WithRSAEncryption
         d6:48:b0:22:df:49:14:9a:b8:a3:6c:d2:a1:c8:96:c5:f8:aa:
         66:88:19:a3:5c:91:c2:02:b0:a6:79:1b:dd:2a:63:53:8f:32:
         a2:dd:c7:18:30:94:a4:cf:ad:73:4a:42:08:f7:db:87:c5:c7:
         35:29:7f:bb:68:88:a6:20:77:a4:4a:36:79:fe:fc:22:cf:15:
         9f:97:ad:51:36:b4:d3:ea:7b:7c:2b:b3:29:1f:55:90:fa:11:
         4e:f7:a0:fe:d9:15:d2:88:f8:88:fc:f3:93:57:97:55:6f:3e:
         52:b5:94:c1:dd:c0:1f:2f:74:c4:ee:78:c6:c6:df:01:97:2f:
         b1:aa:cf:5b:31:a6:e4:16:d5:8e:fc:4b:30:25:da:e1:cd:f3:
         a6:68:43:5d:4f:20:24:46:c9:a2:e4:8d:c2:26:c2:7c:95:51:
         ff:87:55:2a:36:4c:32:10:bf:df:42:37:9b:98:18:d1:04:c1:
         a2:ab:70:aa:e3:d9:68:1e:80:a1:47:73:a4:55:0d:8b:ad:0a:
         a2:29:52:e0:1d:d0:2f:79:53:88:6f:3b:a5:a3:a4:c5:1d:1b:
         28:26:b0:c4:2a:0e:36:4a:9f:b3:29:86:f5:ed:af:91:60:0c:
         c9:79:87:89:54:5d:0d:c5:47:5f:82:39:bf:0a:c5:4b:33:9c:
         16:8c:d2:e9:9d:0a:ed:c7:a1:5f:aa:0e:11:33:61:35:18:09:
         5f:78:fb:10:bc:a9:98:33:41:51:22:2d:5b:18:5e:aa:58:20:
         1c:b9:b2:79:70:9b:88:40:68:41:c4:3e:f6:72:04:03:0b:7d:
         9b:db:92:89:7f:9f:a2:8b:d1:d2:5e:86:2c:ea:66:04:c7:9d:
         1e:63:be:e7:7a:ee:cf:16:8f:1f:90:7b:03:20:26:8e:01:55:
         a7:dc:63:81:05:e2:ad:3c:aa:cf:2c:29:8f:60:c3:7b:20:46:
         5d:cb:fd:88:31:46:0f:0b:ea:8c:8d:85:ee:24:5d:3b:c6:78:
         97:cc:eb:de:70:d4:22:08:37:9e:f5:b5:f8:d4:1a:3e:5e:f9:
         57:c8:53:6b:97:1f:12:0c:cc:82:c2:00:2a:bc:04:61:4a:ed:
         64:b8:53:e1:69:a3:9b:af:e2:66:4b:d8:cf:97:a0:c2:74:9a:
         a6:7e:ae:4d:c1:9b:9a:52:9c:0b:29:57:d6:29:43:cf:1e:89:
         71:4a:8f:31:cb:88:8d:b3:19:cf:5c:54:5b:97:06:c6:ab:f7:
         1a:9c:00:93:b0:80:ee:8e:7d:cf:e5:87:1e:88:ba:81:66:74:
         bc:44:7f:02:0b:f9:1f:77:17:7c:31:04:bc:95:50:ac:03:53:
         31:b3:1e:d4:28:c7:5f:6d
-----BEGIN CERTIFICATE-----
MIIFmjCCA4KgAwIBAgICAP0wDQYJKoZIhvcNAQELBQAwgYQxCzAJBgNVBAYTAkNI
MRAwDgYDVQQIEwdUaHVyZ2F1MRAwDgYDVQQHEwdLZWZpa29uMRMwEQYDVQQKEwpn
dWVuZ2VsLmNoMRYwFAYDVQQDEw1DQSBndWVuZ2VsLmNoMSQwIgYJKoZIhvcNAQkB
FhVwb3N0bWFzdGVyQGd1ZW5nZWwuY2gwHhcNMTYxMTIwMDkxNzIxWhcNMTgwNDA0
MDkxNzIxWjB/MQswCQYDVQQGEwJDSDEQMA4GA1UECBMHVGh1cmdhdTETMBEGA1UE
ChMKZ3VlbmdlbC5jaDEjMCEGA1UEAxMabmVnZXIudmlydHVhbC5rcnVlbWVsLmhv
bWUxJDAiBgkqhkiG9w0BCQEWFXBvc3RtYXN0ZXJAZ3VlbmdlbC5jaDCCASIwDQYJ
KoZIhvcNAQEBBQADggEPADCCAQoCggEBAJ4PUWeWKCiaFSU6/3SF3xHp97Huf1PR
JEH5wLFnmJkp/ZEZzRLQuO+x29WVn4+6gVnPVaVfytr1LAEQ3qWzcSZiOEslIDjF
ssop1Jtc5VuOzEEJBdDKWctuZz2RLfd+0YscRedH6MQk1p9UhKzdhj6v42aSOfPt
OqgHDcW5NRS7F8oCF0sVCQYuCoOqDTw1HUUlPbdK9qavLFs5TpOvrhs6RcniN+zX
MYiuwJ14wHyUEdyNUj9ohP/RqZsLgEVh03jMgEVRySmMCYnnDhjsI+o8vbL1Hc5Z
CRnH8jK9Nx32qavWozlaxMpM1EfbftYLZXelMztR6dS9LmmzgLiGapMCAwEAAaOC
ARgwggEUMAkGA1UdEwQCMAAwLAYJYIZIAYb4QgENBB8WHU9wZW5TU0wgR2VuZXJh
dGVkIENlcnRpZmljYXRlMB0GA1UdDgQWBBQGetpr2qQGG95LEsxRlD0TWt25dzCB
uQYDVR0jBIGxMIGugBTWiPGqwSsJjLhcnc7fVzliJhAgkKGBiqSBhzCBhDELMAkG
A1UEBhMCQ0gxEDAOBgNVBAgTB1RodXJnYXUxEDAOBgNVBAcTB0tlZmlrb24xEzAR
BgNVBAoTCmd1ZW5nZWwuY2gxFjAUBgNVBAMTDUNBIGd1ZW5nZWwuY2gxJDAiBgkq
hkiG9w0BCQEWFXBvc3RtYXN0ZXJAZ3VlbmdlbC5jaIIJAOUlO6Z3vcv/MA0GCSqG
SIb3DQEBCwUAA4ICAQDWSLAi30kUmrijbNKhyJbF+KpmiBmjXJHCArCmeRvdKmNT
jzKi3ccYMJSkz61zSkII99uHxcc1KX+7aIimIHekSjZ5/vwizxWfl61RNrTT6nt8
K7MpH1WQ+hFO96D+2RXSiPiI/POTV5dVbz5StZTB3cAfL3TE7njGxt8Bly+xqs9b
MabkFtWO/EswJdrhzfOmaENdTyAkRsmi5I3CJsJ8lVH/h1UqNkwyEL/fQjebmBjR
BMGiq3Cq49loHoChR3OkVQ2LrQqiKVLgHdAveVOIbzulo6TFHRsoJrDEKg42Sp+z
KYb17a+RYAzJeYeJVF0NxUdfgjm/CsVLM5wWjNLpnQrtx6Ffqg4RM2E1GAlfePsQ
vKmYM0FRIi1bGF6qWCAcubJ5cJuIQGhBxD72cgQDC32b25KJf5+ii9HSXoYs6mYE
x50eY77neu7PFo8fkHsDICaOAVWn3GOBBeKtPKrPLCmPYMN7IEZdy/2IMUYPC+qM
jYXuJF07xniXzOvecNQiCDee9bX41Bo+XvlXyFNrlx8SDMyCwgAqvARhSu1kuFPh
aaObr+JmS9jPl6DCdJqmfq5NwZuaUpwLKVfWKUPPHolxSo8xy4iNsxnPXFRblwbG
q/canACTsIDujn3P5YceiLqBZnS8RH8CC/kfdxd8MQS8lVCsA1Mxsx7UKMdfbQ==
-----END CERTIFICATE-----
