Certificate:
    Data:
        Version: 3 (0x2)
        Serial Number: 308 (0x134)
    Signature Algorithm: sha256WithRSAEncryption
        Issuer: C=CH, ST=Thurgau, L=Kefikon, O=guengel.ch, CN=CA guengel.ch/emailAddress=postmaster@guengel.ch
        Validity
            Not Before: Jan  6 18:02:59 2018 GMT
            Not After : Feb 10 18:02:59 2019 GMT
        Subject: C=CH, ST=Thurgau, O=guengel.ch, CN=neger.virtual.kruemel.home/emailAddress=postmaster@guengel.ch
        Subject Public Key Info:
            Public Key Algorithm: rsaEncryption
                Public-Key: (2048 bit)
                Modulus:
                    00:9e:0f:51:67:96:28:28:9a:15:25:3a:ff:74:85:
                    df:11:e9:f7:b1:ee:7f:53:d1:24:41:f9:c0:b1:67:
                    98:99:29:fd:91:19:cd:12:d0:b8:ef:b1:db:d5:95:
                    9f:8f:ba:81:59:cf:55:a5:5f:ca:da:f5:2c:01:10:
                    de:a5:b3:71:26:62:38:4b:25:20:38:c5:b2:ca:29:
                    d4:9b:5c:e5:5b:8e:cc:41:09:05:d0:ca:59:cb:6e:
                    67:3d:91:2d:f7:7e:d1:8b:1c:45:e7:47:e8:c4:24:
                    d6:9f:54:84:ac:dd:86:3e:af:e3:66:92:39:f3:ed:
                    3a:a8:07:0d:c5:b9:35:14:bb:17:ca:02:17:4b:15:
                    09:06:2e:0a:83:aa:0d:3c:35:1d:45:25:3d:b7:4a:
                    f6:a6:af:2c:5b:39:4e:93:af:ae:1b:3a:45:c9:e2:
                    37:ec:d7:31:88:ae:c0:9d:78:c0:7c:94:11:dc:8d:
                    52:3f:68:84:ff:d1:a9:9b:0b:80:45:61:d3:78:cc:
                    80:45:51:c9:29:8c:09:89:e7:0e:18:ec:23:ea:3c:
                    bd:b2:f5:1d:ce:59:09:19:c7:f2:32:bd:37:1d:f6:
                    a9:ab:d6:a3:39:5a:c4:ca:4c:d4:47:db:7e:d6:0b:
                    65:77:a5:33:3b:51:e9:d4:bd:2e:69:b3:80:b8:86:
                    6a:93
                Exponent: 65537 (0x10001)
        X509v3 extensions:
            X509v3 Basic Constraints: 
                CA:FALSE
            Netscape Comment: 
                OpenSSL Generated Certificate
            X509v3 Subject Key Identifier: 
                06:7A:DA:6B:DA:A4:06:1B:DE:4B:12:CC:51:94:3D:13:5A:DD:B9:77
            X509v3 Authority Key Identifier: 
                keyid:D6:88:F1:AA:C1:2B:09:8C:B8:5C:9D:CE:DF:57:39:62:26:10:20:90
                DirName:/C=CH/ST=Thurgau/L=Kefikon/O=guengel.ch/CN=CA guengel.ch/emailAddress=postmaster@guengel.ch
                serial:E5:25:3B:A6:77:BD:CB:FF

    Signature Algorithm: sha256WithRSAEncryption
         8d:c8:44:e7:be:5c:5b:3e:8d:d1:53:89:1c:54:d5:f6:28:8b:
         1e:84:bb:ba:f0:b7:e8:1d:14:92:0f:b7:04:93:23:9c:68:24:
         ef:32:3e:3b:9f:06:c8:74:e1:f1:4c:0f:a6:25:c2:73:ae:71:
         bc:f3:e7:80:27:7a:44:8f:03:85:c5:49:86:3e:27:de:68:a3:
         fd:ee:64:4d:55:96:3c:ca:d5:ba:e7:44:11:3c:59:0c:e3:38:
         82:6b:04:b9:21:60:19:d0:3f:a2:dc:86:9f:1f:42:04:b0:f4:
         fa:6e:0b:bd:05:61:9e:85:da:e6:83:2c:37:29:46:d4:c3:c9:
         2a:98:e7:2a:35:9a:c8:c0:68:e8:e8:48:65:c8:bc:f5:63:07:
         db:55:cd:4b:0f:e2:31:fb:0c:6a:8f:a4:c4:15:95:e4:b6:59:
         66:6d:53:b3:37:6c:95:13:db:2d:6d:fa:a4:66:2a:f3:ae:17:
         ec:70:89:04:9a:0c:c1:62:1f:16:5c:2a:5b:dc:f7:f0:7d:00:
         bc:e0:e0:4b:fa:28:3a:6d:18:f1:e4:5a:12:cc:2a:79:5b:f2:
         d3:17:38:dd:c0:9a:c6:ae:85:8f:e3:db:30:bc:0d:8d:2f:77:
         80:72:13:85:3a:4d:9a:6e:f0:ab:0d:09:b2:a7:b8:cf:74:fd:
         a3:80:5d:2b:3f:18:ba:22:2f:23:03:44:dd:0b:2f:f5:8d:be:
         ff:be:40:75:1d:c3:95:88:d0:02:25:29:d5:39:f6:6e:69:7f:
         1d:f6:e0:86:1a:b0:08:1b:a9:82:8c:b0:da:55:53:c1:38:f5:
         9f:7b:45:7f:1d:0b:6a:0f:3b:20:ea:f8:fd:66:79:19:33:71:
         c6:d9:0f:79:ea:5a:0a:37:6e:d3:ec:e3:d8:0a:a7:66:11:50:
         6d:94:2a:3c:88:7a:f6:b3:08:7f:a1:df:30:3e:b8:0d:fc:e6:
         39:09:90:c6:75:a5:ce:5e:e2:39:73:f9:6b:fb:04:83:be:bb:
         0f:8e:10:b3:5a:02:55:6b:79:be:10:01:18:0b:04:ae:cb:f8:
         fd:a5:36:90:3f:7c:c8:0e:bc:50:f9:bb:99:d5:ef:fd:dd:b5:
         28:57:d7:4a:59:1c:09:d9:83:41:d4:ae:a7:5f:d5:b8:8b:93:
         4d:f9:cd:f9:02:0a:62:dc:0c:d6:31:8e:9b:83:fd:48:ff:dd:
         d0:c5:88:06:22:90:f6:70:82:d1:20:d0:26:29:0e:5e:48:41:
         58:2d:84:a5:f6:3a:0d:97:8a:a6:38:ee:fc:80:c2:ca:12:08:
         99:cf:7f:c7:4a:a1:ab:8b:54:58:62:f3:f0:03:bf:16:52:7d:
         7c:e9:9d:1b:8e:04:4c:1f
-----BEGIN CERTIFICATE-----
MIIFmjCCA4KgAwIBAgICATQwDQYJKoZIhvcNAQELBQAwgYQxCzAJBgNVBAYTAkNI
MRAwDgYDVQQIEwdUaHVyZ2F1MRAwDgYDVQQHEwdLZWZpa29uMRMwEQYDVQQKEwpn
dWVuZ2VsLmNoMRYwFAYDVQQDEw1DQSBndWVuZ2VsLmNoMSQwIgYJKoZIhvcNAQkB
FhVwb3N0bWFzdGVyQGd1ZW5nZWwuY2gwHhcNMTgwMTA2MTgwMjU5WhcNMTkwMjEw
MTgwMjU5WjB/MQswCQYDVQQGEwJDSDEQMA4GA1UECBMHVGh1cmdhdTETMBEGA1UE
ChMKZ3VlbmdlbC5jaDEjMCEGA1UEAxMabmVnZXIudmlydHVhbC5rcnVlbWVsLmhv
bWUxJDAiBgkqhkiG9w0BCQEWFXBvc3RtYXN0ZXJAZ3VlbmdlbC5jaDCCASIwDQYJ
KoZIhvcNAQEBBQADggEPADCCAQoCggEBAJ4PUWeWKCiaFSU6/3SF3xHp97Huf1PR
JEH5wLFnmJkp/ZEZzRLQuO+x29WVn4+6gVnPVaVfytr1LAEQ3qWzcSZiOEslIDjF
ssop1Jtc5VuOzEEJBdDKWctuZz2RLfd+0YscRedH6MQk1p9UhKzdhj6v42aSOfPt
OqgHDcW5NRS7F8oCF0sVCQYuCoOqDTw1HUUlPbdK9qavLFs5TpOvrhs6RcniN+zX
MYiuwJ14wHyUEdyNUj9ohP/RqZsLgEVh03jMgEVRySmMCYnnDhjsI+o8vbL1Hc5Z
CRnH8jK9Nx32qavWozlaxMpM1EfbftYLZXelMztR6dS9LmmzgLiGapMCAwEAAaOC
ARgwggEUMAkGA1UdEwQCMAAwLAYJYIZIAYb4QgENBB8WHU9wZW5TU0wgR2VuZXJh
dGVkIENlcnRpZmljYXRlMB0GA1UdDgQWBBQGetpr2qQGG95LEsxRlD0TWt25dzCB
uQYDVR0jBIGxMIGugBTWiPGqwSsJjLhcnc7fVzliJhAgkKGBiqSBhzCBhDELMAkG
A1UEBhMCQ0gxEDAOBgNVBAgTB1RodXJnYXUxEDAOBgNVBAcTB0tlZmlrb24xEzAR
BgNVBAoTCmd1ZW5nZWwuY2gxFjAUBgNVBAMTDUNBIGd1ZW5nZWwuY2gxJDAiBgkq
hkiG9w0BCQEWFXBvc3RtYXN0ZXJAZ3VlbmdlbC5jaIIJAOUlO6Z3vcv/MA0GCSqG
SIb3DQEBCwUAA4ICAQCNyETnvlxbPo3RU4kcVNX2KIsehLu68LfoHRSSD7cEkyOc
aCTvMj47nwbIdOHxTA+mJcJzrnG88+eAJ3pEjwOFxUmGPifeaKP97mRNVZY8ytW6
50QRPFkM4ziCawS5IWAZ0D+i3IafH0IEsPT6bgu9BWGehdrmgyw3KUbUw8kqmOcq
NZrIwGjo6EhlyLz1YwfbVc1LD+Ix+wxqj6TEFZXktllmbVOzN2yVE9stbfqkZirz
rhfscIkEmgzBYh8WXCpb3PfwfQC84OBL+ig6bRjx5FoSzCp5W/LTFzjdwJrGroWP
49swvA2NL3eAchOFOk2abvCrDQmyp7jPdP2jgF0rPxi6Ii8jA0TdCy/1jb7/vkB1
HcOViNACJSnVOfZuaX8d9uCGGrAIG6mCjLDaVVPBOPWfe0V/HQtqDzsg6vj9ZnkZ
M3HG2Q956loKN27T7OPYCqdmEVBtlCo8iHr2swh/od8wPrgN/OY5CZDGdaXOXuI5
c/lr+wSDvrsPjhCzWgJVa3m+EAEYCwSuy/j9pTaQP3zIDrxQ+buZ1e/93bUoV9dK
WRwJ2YNB1K6nX9W4i5NN+c35Agpi3AzWMY6bg/1I/93QxYgGIpD2cILRINAmKQ5e
SEFYLYSl9joNl4qmOO78gMLKEgiZz3/HSqGri1RYYvPwA78WUn186Z0bjgRMHw==
-----END CERTIFICATE-----
