Certificate:
    Data:
        Version: 3 (0x2)
        Serial Number: 347 (0x15b)
    Signature Algorithm: sha256WithRSAEncryption
        Issuer: C=CH, ST=Thurgau, L=Kefikon, O=guengel.ch, CN=CA guengel.ch/emailAddress=postmaster@guengel.ch
        Validity
            Not Before: Dec 29 14:40:01 2018 GMT
            Not After : Feb  2 14:40:01 2020 GMT
        Subject: C=CH, ST=Thurgau, O=guengel.ch, CN=neger.virtual.kruemel.home/emailAddress=postmaster@guengel.ch
        Subject Public Key Info:
            Public Key Algorithm: rsaEncryption
                Public-Key: (2048 bit)
                Modulus:
                    00:9e:0f:51:67:96:28:28:9a:15:25:3a:ff:74:85:
                    df:11:e9:f7:b1:ee:7f:53:d1:24:41:f9:c0:b1:67:
                    98:99:29:fd:91:19:cd:12:d0:b8:ef:b1:db:d5:95:
                    9f:8f:ba:81:59:cf:55:a5:5f:ca:da:f5:2c:01:10:
                    de:a5:b3:71:26:62:38:4b:25:20:38:c5:b2:ca:29:
                    d4:9b:5c:e5:5b:8e:cc:41:09:05:d0:ca:59:cb:6e:
                    67:3d:91:2d:f7:7e:d1:8b:1c:45:e7:47:e8:c4:24:
                    d6:9f:54:84:ac:dd:86:3e:af:e3:66:92:39:f3:ed:
                    3a:a8:07:0d:c5:b9:35:14:bb:17:ca:02:17:4b:15:
                    09:06:2e:0a:83:aa:0d:3c:35:1d:45:25:3d:b7:4a:
                    f6:a6:af:2c:5b:39:4e:93:af:ae:1b:3a:45:c9:e2:
                    37:ec:d7:31:88:ae:c0:9d:78:c0:7c:94:11:dc:8d:
                    52:3f:68:84:ff:d1:a9:9b:0b:80:45:61:d3:78:cc:
                    80:45:51:c9:29:8c:09:89:e7:0e:18:ec:23:ea:3c:
                    bd:b2:f5:1d:ce:59:09:19:c7:f2:32:bd:37:1d:f6:
                    a9:ab:d6:a3:39:5a:c4:ca:4c:d4:47:db:7e:d6:0b:
                    65:77:a5:33:3b:51:e9:d4:bd:2e:69:b3:80:b8:86:
                    6a:93
                Exponent: 65537 (0x10001)
        X509v3 extensions:
            X509v3 Basic Constraints: 
                CA:FALSE
            Netscape Comment: 
                OpenSSL Generated Certificate
            X509v3 Subject Key Identifier: 
                06:7A:DA:6B:DA:A4:06:1B:DE:4B:12:CC:51:94:3D:13:5A:DD:B9:77
            X509v3 Authority Key Identifier: 
                keyid:D6:88:F1:AA:C1:2B:09:8C:B8:5C:9D:CE:DF:57:39:62:26:10:20:90
                DirName:/C=CH/ST=Thurgau/L=Kefikon/O=guengel.ch/CN=CA guengel.ch/emailAddress=postmaster@guengel.ch
                serial:E5:25:3B:A6:77:BD:CB:FF

    Signature Algorithm: sha256WithRSAEncryption
         70:de:f5:c8:f5:d0:56:a1:fb:2b:6d:93:a6:7e:97:6f:b3:e2:
         bd:aa:50:c1:ab:1c:fa:b4:53:1c:07:4b:38:a0:01:a5:e3:51:
         49:ec:49:a2:02:7c:09:2a:3e:d7:04:6d:09:80:1c:ae:2a:3d:
         1f:86:94:44:18:72:7c:c0:2e:69:12:9c:3a:c3:81:0b:a2:ed:
         ba:e4:9d:1a:2a:53:b6:d4:2a:db:cb:6f:f6:00:bf:db:f9:76:
         fb:71:f6:5f:20:c8:83:3b:ae:35:dc:53:1d:59:85:fe:ad:90:
         25:8f:38:63:be:e0:ef:a9:a8:26:c2:ca:b2:ec:fd:c9:42:6c:
         d7:f4:67:06:99:89:db:cd:30:a4:be:d2:8e:38:47:b2:86:cb:
         8d:c3:82:c4:00:1c:b0:f4:a6:cf:45:c1:46:f3:5a:9f:db:11:
         fc:5f:fc:cf:71:9c:3e:49:7b:cc:bb:b2:0f:45:c0:a3:a2:c0:
         b1:22:26:4f:dc:ea:b9:15:d7:49:4e:9d:2f:d0:81:ae:39:00:
         9a:d4:3d:64:e0:36:66:44:e1:ac:70:74:ea:11:25:ff:6c:df:
         88:e3:3b:f3:ed:75:08:12:ef:dc:db:5e:52:6f:22:7f:9d:ec:
         f1:fb:6c:24:63:34:ae:c4:b3:c2:5e:ab:5f:9b:55:59:0f:82:
         bc:d9:f7:a7:37:13:1b:27:ad:6e:ce:89:4d:21:e8:21:dc:74:
         4b:87:77:61:d6:a7:3d:7d:78:75:fb:b8:39:34:96:f2:2c:8e:
         96:bb:2f:64:c3:c4:52:27:29:cf:ea:9c:21:31:e7:d3:34:25:
         36:e3:9e:2a:05:6d:82:41:86:53:6e:5d:a2:b3:e8:b2:75:e3:
         ed:e4:c1:29:f1:1c:c1:5f:53:79:6d:78:89:6b:47:a0:bf:73:
         4b:bb:79:01:ea:46:17:a4:29:fc:ea:fe:8e:d7:5b:bd:7b:de:
         60:52:5b:c8:9a:45:a1:6d:f7:97:af:44:1c:c8:38:a4:73:7b:
         b4:8e:1f:15:37:96:26:72:c5:0c:91:99:44:7c:74:e1:63:62:
         94:ee:67:b7:0e:97:2e:62:cf:b7:38:44:5f:9e:59:7e:e6:26:
         d0:38:a2:0a:26:8c:af:8f:90:38:53:07:b4:76:a8:59:24:e4:
         84:ac:80:e7:38:79:28:4e:18:9f:cf:f7:1e:b4:d2:82:5e:56:
         e7:d8:e8:38:3b:98:0b:f4:01:1b:31:f0:3a:93:61:4d:3b:e6:
         a0:19:35:68:ff:12:d2:11:6d:cd:82:e2:fa:f0:5f:0b:fa:36:
         8a:2b:0b:a8:77:6b:7e:e8:de:35:33:0e:1d:48:79:0f:70:92:
         b3:e5:43:d3:32:57:86:0c
-----BEGIN CERTIFICATE-----
MIIFmjCCA4KgAwIBAgICAVswDQYJKoZIhvcNAQELBQAwgYQxCzAJBgNVBAYTAkNI
MRAwDgYDVQQIEwdUaHVyZ2F1MRAwDgYDVQQHEwdLZWZpa29uMRMwEQYDVQQKEwpn
dWVuZ2VsLmNoMRYwFAYDVQQDEw1DQSBndWVuZ2VsLmNoMSQwIgYJKoZIhvcNAQkB
FhVwb3N0bWFzdGVyQGd1ZW5nZWwuY2gwHhcNMTgxMjI5MTQ0MDAxWhcNMjAwMjAy
MTQ0MDAxWjB/MQswCQYDVQQGEwJDSDEQMA4GA1UECBMHVGh1cmdhdTETMBEGA1UE
ChMKZ3VlbmdlbC5jaDEjMCEGA1UEAxMabmVnZXIudmlydHVhbC5rcnVlbWVsLmhv
bWUxJDAiBgkqhkiG9w0BCQEWFXBvc3RtYXN0ZXJAZ3VlbmdlbC5jaDCCASIwDQYJ
KoZIhvcNAQEBBQADggEPADCCAQoCggEBAJ4PUWeWKCiaFSU6/3SF3xHp97Huf1PR
JEH5wLFnmJkp/ZEZzRLQuO+x29WVn4+6gVnPVaVfytr1LAEQ3qWzcSZiOEslIDjF
ssop1Jtc5VuOzEEJBdDKWctuZz2RLfd+0YscRedH6MQk1p9UhKzdhj6v42aSOfPt
OqgHDcW5NRS7F8oCF0sVCQYuCoOqDTw1HUUlPbdK9qavLFs5TpOvrhs6RcniN+zX
MYiuwJ14wHyUEdyNUj9ohP/RqZsLgEVh03jMgEVRySmMCYnnDhjsI+o8vbL1Hc5Z
CRnH8jK9Nx32qavWozlaxMpM1EfbftYLZXelMztR6dS9LmmzgLiGapMCAwEAAaOC
ARgwggEUMAkGA1UdEwQCMAAwLAYJYIZIAYb4QgENBB8WHU9wZW5TU0wgR2VuZXJh
dGVkIENlcnRpZmljYXRlMB0GA1UdDgQWBBQGetpr2qQGG95LEsxRlD0TWt25dzCB
uQYDVR0jBIGxMIGugBTWiPGqwSsJjLhcnc7fVzliJhAgkKGBiqSBhzCBhDELMAkG
A1UEBhMCQ0gxEDAOBgNVBAgTB1RodXJnYXUxEDAOBgNVBAcTB0tlZmlrb24xEzAR
BgNVBAoTCmd1ZW5nZWwuY2gxFjAUBgNVBAMTDUNBIGd1ZW5nZWwuY2gxJDAiBgkq
hkiG9w0BCQEWFXBvc3RtYXN0ZXJAZ3VlbmdlbC5jaIIJAOUlO6Z3vcv/MA0GCSqG
SIb3DQEBCwUAA4ICAQBw3vXI9dBWofsrbZOmfpdvs+K9qlDBqxz6tFMcB0s4oAGl
41FJ7EmiAnwJKj7XBG0JgByuKj0fhpREGHJ8wC5pEpw6w4ELou265J0aKlO21Crb
y2/2AL/b+Xb7cfZfIMiDO6413FMdWYX+rZAljzhjvuDvqagmwsqy7P3JQmzX9GcG
mYnbzTCkvtKOOEeyhsuNw4LEAByw9KbPRcFG81qf2xH8X/zPcZw+SXvMu7IPRcCj
osCxIiZP3Oq5FddJTp0v0IGuOQCa1D1k4DZmROGscHTqESX/bN+I4zvz7XUIEu/c
215SbyJ/nezx+2wkYzSuxLPCXqtfm1VZD4K82fenNxMbJ61uzolNIegh3HRLh3dh
1qc9fXh1+7g5NJbyLI6Wuy9kw8RSJynP6pwhMefTNCU2454qBW2CQYZTbl2is+iy
dePt5MEp8RzBX1N5bXiJa0egv3NLu3kB6kYXpCn86v6O11u9e95gUlvImkWhbfeX
r0QcyDikc3u0jh8VN5YmcsUMkZlEfHThY2KU7me3DpcuYs+3OERfnll+5ibQOKIK
Joyvj5A4Uwe0dqhZJOSErIDnOHkoThifz/cetNKCXlbn2Og4O5gL9AEbMfA6k2FN
O+agGTVo/xLSEW3NguL68F8L+jaKKwuod2t+6N41Mw4dSHkPcJKz5UPTMleGDA==
-----END CERTIFICATE-----
