Certificate:
    Data:
        Version: 3 (0x2)
        Serial Number: 254 (0xfe)
    Signature Algorithm: sha256WithRSAEncryption
        Issuer: C=CH, ST=Thurgau, L=Kefikon, O=guengel.ch, CN=CA guengel.ch/emailAddress=postmaster@guengel.ch
        Validity
            Not Before: Nov 20 09:17:22 2016 GMT
            Not After : Apr  4 09:17:22 2018 GMT
        Subject: C=CH, ST=Thurgau, O=guengel.ch, CN=netbsd32.virtual.kruemel.home/emailAddress=postmaster@guengel.ch
        Subject Public Key Info:
            Public Key Algorithm: rsaEncryption
                Public-Key: (2048 bit)
                Modulus:
                    00:de:5e:f3:a6:0c:d2:43:1e:31:85:a4:12:16:fd:
                    82:49:6d:50:c8:6b:c2:f4:5a:89:da:49:bb:2c:98:
                    ee:a6:da:e5:2b:39:b4:3b:ad:1a:c8:0a:65:20:28:
                    e6:ff:ec:b5:32:be:77:b6:d3:a5:8e:ec:9f:fe:b8:
                    b0:68:e3:2f:7c:23:b6:39:ff:17:87:b0:3f:98:62:
                    9e:92:65:d0:fe:64:4c:ee:22:55:43:f7:ea:66:ca:
                    69:ad:59:5c:dd:a8:ad:11:2c:c0:05:0f:f4:0f:b9:
                    f5:48:f0:11:9e:65:e4:b9:a1:20:7e:a7:e7:f2:e7:
                    5f:7e:fb:cb:31:87:63:72:f0:e9:2e:51:b4:f9:f5:
                    bb:33:eb:7b:25:05:a3:e5:ad:7d:07:48:49:7d:6b:
                    91:34:0d:de:90:a4:7e:e2:88:fa:32:a7:0e:d3:68:
                    5a:ca:3e:05:e8:58:53:1f:56:75:df:c0:b9:8c:a8:
                    d8:16:60:ba:0e:7c:2b:d8:4b:2f:c3:6a:f2:0a:13:
                    5d:ce:b5:c9:3b:97:5c:03:be:63:c8:96:4a:2b:a5:
                    9c:02:08:35:24:c1:42:83:3a:86:d3:16:eb:79:bb:
                    06:f8:9c:57:54:b1:c7:ae:c5:13:54:9d:ea:de:33:
                    a7:55:0e:ba:18:8f:8a:cc:79:ff:c5:0a:97:6f:aa:
                    a0:49
                Exponent: 65537 (0x10001)
        X509v3 extensions:
            X509v3 Basic Constraints: 
                CA:FALSE
            Netscape Comment: 
                OpenSSL Generated Certificate
            X509v3 Subject Key Identifier: 
                0C:E6:94:48:37:6F:A0:58:91:3A:80:B8:EA:03:11:AD:71:B0:76:3E
            X509v3 Authority Key Identifier: 
                keyid:D6:88:F1:AA:C1:2B:09:8C:B8:5C:9D:CE:DF:57:39:62:26:10:20:90
                DirName:/C=CH/ST=Thurgau/L=Kefikon/O=guengel.ch/CN=CA guengel.ch/emailAddress=postmaster@guengel.ch
                serial:E5:25:3B:A6:77:BD:CB:FF

    Signature Algorithm: sha256WithRSAEncryption
         5d:29:bb:ed:57:e6:99:27:9c:e0:cd:2f:c7:85:12:3d:fa:8e:
         4c:17:91:81:73:3c:13:25:49:8e:01:a1:97:b7:ec:d1:57:2c:
         90:4f:1c:cd:fc:92:4b:cc:7c:a1:b2:62:ee:d1:b4:62:31:0f:
         09:ab:aa:07:f1:6e:ea:46:f3:e2:10:01:ba:41:63:51:ca:a3:
         22:ee:97:8c:76:e9:9c:cd:8f:3f:88:85:05:fe:16:74:ab:68:
         0e:99:0c:f0:bc:e7:bb:5e:63:06:b9:07:17:c3:4a:7c:74:92:
         f4:2c:c7:55:be:95:eb:70:74:c4:69:37:1c:d3:9b:d2:dc:30:
         3c:0e:74:07:54:54:00:d8:6c:ca:25:93:b7:98:6b:da:52:43:
         46:52:8b:c9:f5:19:4f:53:df:c1:65:6f:1a:9e:ad:ab:9e:ab:
         79:44:36:6e:07:15:41:23:5f:5f:59:5d:7c:08:8f:93:51:c5:
         24:2d:be:c5:c2:97:23:e7:6e:8a:ee:4d:4a:ed:64:c1:b8:ee:
         64:6b:ff:99:f8:93:6d:86:26:55:cf:60:45:9b:dd:ea:97:30:
         d5:23:9b:20:c1:54:84:02:8c:03:13:c6:2a:df:ea:e8:6f:28:
         10:13:dd:83:23:ae:6c:b9:7c:4f:49:f1:de:c4:d2:72:10:67:
         6f:77:aa:51:4f:92:fa:d2:d4:9b:02:20:74:9d:7b:19:86:a0:
         89:d2:3c:62:38:d0:e1:8e:3c:82:f5:a8:35:37:16:97:8f:fe:
         99:72:e3:f6:b7:ae:0e:fb:3b:e6:63:2b:96:be:d6:42:88:8f:
         57:dc:be:48:ef:25:13:09:56:fb:7c:a0:e6:e5:95:09:47:b5:
         18:09:f8:d5:29:e1:52:83:e9:78:dd:46:46:cb:91:bf:fe:68:
         e3:f0:be:3d:c6:b9:7b:4f:a1:68:13:b5:66:fa:1d:3a:be:d2:
         93:38:30:76:b7:db:2a:f7:e4:8c:8f:54:20:79:a7:52:4b:e9:
         8b:22:26:25:cc:70:08:64:b7:08:62:29:68:11:6f:03:64:86:
         41:24:7e:9d:fa:9d:75:c4:b8:c9:0d:d3:d3:aa:dc:9c:70:15:
         06:a7:cd:59:ab:8d:d6:63:53:88:e3:0c:c0:6d:de:d1:a5:7d:
         a5:0c:d2:5e:1c:f3:0a:b6:b3:90:0a:f6:33:d7:0d:db:7f:91:
         17:80:f9:e6:ef:88:91:15:62:0d:59:6f:89:fd:76:66:5a:cb:
         34:db:e2:3a:60:2e:6b:8f:33:bc:7a:ad:11:61:d0:ad:86:85:
         77:01:b3:8c:8c:c9:c1:56:18:01:d9:2e:7c:ab:74:59:e7:c9:
         27:9b:09:f6:96:87:7c:78
-----BEGIN CERTIFICATE-----
MIIFnjCCA4agAwIBAgICAP4wDQYJKoZIhvcNAQELBQAwgYQxCzAJBgNVBAYTAkNI
MRAwDgYDVQQIEwdUaHVyZ2F1MRAwDgYDVQQHEwdLZWZpa29uMRMwEQYDVQQKEwpn
dWVuZ2VsLmNoMRYwFAYDVQQDEw1DQSBndWVuZ2VsLmNoMSQwIgYJKoZIhvcNAQkB
FhVwb3N0bWFzdGVyQGd1ZW5nZWwuY2gwHhcNMTYxMTIwMDkxNzIyWhcNMTgwNDA0
MDkxNzIyWjCBgjELMAkGA1UEBhMCQ0gxEDAOBgNVBAgTB1RodXJnYXUxEzARBgNV
BAoTCmd1ZW5nZWwuY2gxJjAkBgNVBAMTHW5ldGJzZDMyLnZpcnR1YWwua3J1ZW1l
bC5ob21lMSQwIgYJKoZIhvcNAQkBFhVwb3N0bWFzdGVyQGd1ZW5nZWwuY2gwggEi
MA0GCSqGSIb3DQEBAQUAA4IBDwAwggEKAoIBAQDeXvOmDNJDHjGFpBIW/YJJbVDI
a8L0WonaSbssmO6m2uUrObQ7rRrICmUgKOb/7LUyvne206WO7J/+uLBo4y98I7Y5
/xeHsD+YYp6SZdD+ZEzuIlVD9+pmymmtWVzdqK0RLMAFD/QPufVI8BGeZeS5oSB+
p+fy519++8sxh2Ny8OkuUbT59bsz63slBaPlrX0HSEl9a5E0Dd6QpH7iiPoypw7T
aFrKPgXoWFMfVnXfwLmMqNgWYLoOfCvYSy/DavIKE13Otck7l1wDvmPIlkorpZwC
CDUkwUKDOobTFut5uwb4nFdUsceuxRNUnereM6dVDroYj4rMef/FCpdvqqBJAgMB
AAGjggEYMIIBFDAJBgNVHRMEAjAAMCwGCWCGSAGG+EIBDQQfFh1PcGVuU1NMIEdl
bmVyYXRlZCBDZXJ0aWZpY2F0ZTAdBgNVHQ4EFgQUDOaUSDdvoFiROoC46gMRrXGw
dj4wgbkGA1UdIwSBsTCBroAU1ojxqsErCYy4XJ3O31c5YiYQIJChgYqkgYcwgYQx
CzAJBgNVBAYTAkNIMRAwDgYDVQQIEwdUaHVyZ2F1MRAwDgYDVQQHEwdLZWZpa29u
MRMwEQYDVQQKEwpndWVuZ2VsLmNoMRYwFAYDVQQDEw1DQSBndWVuZ2VsLmNoMSQw
IgYJKoZIhvcNAQkBFhVwb3N0bWFzdGVyQGd1ZW5nZWwuY2iCCQDlJTumd73L/zAN
BgkqhkiG9w0BAQsFAAOCAgEAXSm77VfmmSec4M0vx4USPfqOTBeRgXM8EyVJjgGh
l7fs0VcskE8czfySS8x8obJi7tG0YjEPCauqB/Fu6kbz4hABukFjUcqjIu6XjHbp
nM2PP4iFBf4WdKtoDpkM8Lznu15jBrkHF8NKfHSS9CzHVb6V63B0xGk3HNOb0tww
PA50B1RUANhsyiWTt5hr2lJDRlKLyfUZT1PfwWVvGp6tq56reUQ2bgcVQSNfX1ld
fAiPk1HFJC2+xcKXI+duiu5NSu1kwbjuZGv/mfiTbYYmVc9gRZvd6pcw1SObIMFU
hAKMAxPGKt/q6G8oEBPdgyOubLl8T0nx3sTSchBnb3eqUU+S+tLUmwIgdJ17GYag
idI8YjjQ4Y48gvWoNTcWl4/+mXLj9reuDvs75mMrlr7WQoiPV9y+SO8lEwlW+3yg
5uWVCUe1GAn41SnhUoPpeN1GRsuRv/5o4/C+Pca5e0+haBO1ZvodOr7Skzgwdrfb
KvfkjI9UIHmnUkvpiyImJcxwCGS3CGIpaBFvA2SGQSR+nfqddcS4yQ3T06rcnHAV
BqfNWauN1mNTiOMMwG3e0aV9pQzSXhzzCrazkAr2M9cN23+RF4D55u+IkRViDVlv
if12ZlrLNNviOmAua48zvHqtEWHQrYaFdwGzjIzJwVYYAdkufKt0WefJJ5sJ9paH
fHg=
-----END CERTIFICATE-----
