Certificate:
    Data:
        Version: 3 (0x2)
        Serial Number: 255 (0xff)
    Signature Algorithm: sha256WithRSAEncryption
        Issuer: C=CH, ST=Thurgau, L=Kefikon, O=guengel.ch, CN=CA guengel.ch/emailAddress=postmaster@guengel.ch
        Validity
            Not Before: Nov 20 09:17:22 2016 GMT
            Not After : Apr  4 09:17:22 2018 GMT
        Subject: C=CH, ST=Thurgau, O=guengel.ch, CN=nimitz.virtual.kruemel.home/emailAddress=postmaster@guengel.ch
        Subject Public Key Info:
            Public Key Algorithm: rsaEncryption
                Public-Key: (2048 bit)
                Modulus:
                    00:ac:17:ed:78:f8:b2:74:0b:0a:a7:d6:6c:fb:ed:
                    d6:31:2a:a8:ca:fd:a4:e2:31:a0:af:94:e8:63:92:
                    19:53:9f:ac:3e:d9:40:4c:d1:36:c1:1a:0d:39:56:
                    a5:12:11:3a:92:97:03:d3:6d:d8:88:0b:07:83:02:
                    19:46:37:78:3c:37:b0:8b:a3:a5:f2:dc:ea:59:81:
                    37:73:d6:2a:f0:9a:f7:f4:23:67:56:43:04:41:20:
                    9a:72:67:f5:00:79:33:7e:f7:f3:76:7e:35:29:14:
                    9c:35:10:f4:b7:27:dc:f0:a0:8f:df:45:dc:3f:e2:
                    06:26:78:4d:fd:99:e7:7a:bc:32:0d:54:7b:4e:55:
                    b5:ee:56:fb:1c:d8:16:fd:75:62:3e:3d:ae:e0:0b:
                    59:2f:d6:9d:89:33:9c:30:74:9a:3b:56:1e:26:52:
                    5e:a5:c8:4a:68:46:6e:2a:a0:f2:37:d8:7a:16:67:
                    0b:4e:e1:a1:13:99:8a:a9:6e:7e:52:d3:b4:ca:81:
                    bd:74:a7:62:3c:7a:58:b0:f6:c1:f6:19:f1:8c:0d:
                    24:46:8f:5c:18:bf:03:67:5e:8d:6b:1a:8a:06:e9:
                    62:74:1a:11:1e:17:ba:ab:4c:4e:cc:8c:f9:d7:61:
                    86:57:3d:eb:bf:05:76:56:69:0c:96:57:f6:b9:37:
                    0c:71
                Exponent: 65537 (0x10001)
        X509v3 extensions:
            X509v3 Basic Constraints: 
                CA:FALSE
            Netscape Comment: 
                OpenSSL Generated Certificate
            X509v3 Subject Key Identifier: 
                E7:06:DE:DB:56:AE:8D:0D:D2:0A:8F:55:FA:8B:A9:35:44:DC:19:F2
            X509v3 Authority Key Identifier: 
                keyid:D6:88:F1:AA:C1:2B:09:8C:B8:5C:9D:CE:DF:57:39:62:26:10:20:90
                DirName:/C=CH/ST=Thurgau/L=Kefikon/O=guengel.ch/CN=CA guengel.ch/emailAddress=postmaster@guengel.ch
                serial:E5:25:3B:A6:77:BD:CB:FF

    Signature Algorithm: sha256WithRSAEncryption
         5a:35:c4:75:24:f9:73:76:5d:f2:b8:1c:f7:59:93:21:df:33:
         cd:ab:b9:e0:c7:17:eb:82:d0:9b:a8:e4:c9:66:7e:a7:69:d8:
         a4:cd:06:09:8c:89:2d:ac:87:0c:d2:dc:02:ca:50:99:a8:b1:
         a7:ee:a4:d6:39:ce:a2:91:d5:a1:02:3f:c2:c8:53:a5:f9:36:
         db:25:f2:96:8d:50:80:ca:04:95:2d:9b:ae:df:06:d1:48:dd:
         ff:a3:8f:5e:3d:a6:8e:96:04:dc:8c:9b:ae:bf:63:78:ee:a8:
         99:32:2c:c1:87:03:64:3a:a1:2e:29:9e:b3:a8:4e:cc:42:a2:
         cd:47:44:92:21:ef:52:c4:fa:e1:a6:0c:91:03:a1:5a:22:1c:
         38:ff:95:38:4a:c4:03:8a:58:ee:80:90:c3:9f:95:d4:2a:ac:
         3d:ff:4d:65:42:d1:96:83:63:f5:15:82:91:a5:06:3c:82:dd:
         f7:80:e6:5f:9f:dc:4d:d8:63:59:3c:4e:e5:00:ba:f8:73:63:
         8d:53:95:19:20:4c:25:4c:97:c6:92:27:ae:b9:5a:e2:4e:89:
         fd:87:4c:a4:27:70:e2:fb:69:ed:bf:2c:e2:69:40:8c:c0:3b:
         62:61:4d:70:11:0b:fb:f7:ff:57:75:8b:2e:4e:09:8b:a5:bb:
         fd:ca:6f:9f:d8:0b:f5:ef:25:a8:a0:08:bf:d1:c9:1f:35:15:
         90:c1:6c:d0:dd:4d:da:ad:e8:b5:c7:66:1d:cf:e0:b3:3c:48:
         a0:0e:42:1f:ea:a4:14:bf:5f:71:4a:1f:73:27:f6:20:2b:6b:
         be:79:63:65:11:21:f0:3f:74:d2:6f:ab:88:98:42:4c:2b:e2:
         c6:ad:49:89:8c:f0:c9:66:22:24:0c:07:c5:be:8d:bf:9b:90:
         48:72:84:47:97:bf:39:12:53:87:6c:5a:18:39:40:ee:ef:84:
         d1:a1:cf:1e:e1:0c:e8:ed:2f:68:46:06:ff:b3:e0:0b:ba:e7:
         9c:58:e8:15:0e:89:52:b4:c3:06:35:b2:65:7b:48:2c:36:a7:
         52:41:ed:60:43:e1:cb:dc:3c:5e:d6:2f:a3:45:27:9b:41:75:
         77:e7:7f:1e:7a:03:e4:4a:b1:bc:b0:89:cb:50:a0:fc:8c:f2:
         46:0e:0f:63:73:b1:06:89:e6:cc:95:ee:93:39:84:3b:62:9c:
         ff:24:62:e6:cb:0f:99:51:4a:f6:1c:d0:f1:32:0d:60:c7:f5:
         32:ee:48:cf:15:a7:e3:5c:d3:f7:a8:6e:2e:20:21:d7:94:05:
         2c:a8:bb:97:78:99:64:59:8f:4d:90:cb:1c:c1:5b:23:b5:21:
         56:8b:c6:93:b6:c0:73:93
-----BEGIN CERTIFICATE-----
MIIFnDCCA4SgAwIBAgICAP8wDQYJKoZIhvcNAQELBQAwgYQxCzAJBgNVBAYTAkNI
MRAwDgYDVQQIEwdUaHVyZ2F1MRAwDgYDVQQHEwdLZWZpa29uMRMwEQYDVQQKEwpn
dWVuZ2VsLmNoMRYwFAYDVQQDEw1DQSBndWVuZ2VsLmNoMSQwIgYJKoZIhvcNAQkB
FhVwb3N0bWFzdGVyQGd1ZW5nZWwuY2gwHhcNMTYxMTIwMDkxNzIyWhcNMTgwNDA0
MDkxNzIyWjCBgDELMAkGA1UEBhMCQ0gxEDAOBgNVBAgTB1RodXJnYXUxEzARBgNV
BAoTCmd1ZW5nZWwuY2gxJDAiBgNVBAMTG25pbWl0ei52aXJ0dWFsLmtydWVtZWwu
aG9tZTEkMCIGCSqGSIb3DQEJARYVcG9zdG1hc3RlckBndWVuZ2VsLmNoMIIBIjAN
BgkqhkiG9w0BAQEFAAOCAQ8AMIIBCgKCAQEArBftePiydAsKp9Zs++3WMSqoyv2k
4jGgr5ToY5IZU5+sPtlATNE2wRoNOValEhE6kpcD023YiAsHgwIZRjd4PDewi6Ol
8tzqWYE3c9Yq8Jr39CNnVkMEQSCacmf1AHkzfvfzdn41KRScNRD0tyfc8KCP30Xc
P+IGJnhN/ZnnerwyDVR7TlW17lb7HNgW/XViPj2u4AtZL9adiTOcMHSaO1YeJlJe
pchKaEZuKqDyN9h6FmcLTuGhE5mKqW5+UtO0yoG9dKdiPHpYsPbB9hnxjA0kRo9c
GL8DZ16NaxqKBulidBoRHhe6q0xOzIz512GGVz3rvwV2VmkMllf2uTcMcQIDAQAB
o4IBGDCCARQwCQYDVR0TBAIwADAsBglghkgBhvhCAQ0EHxYdT3BlblNTTCBHZW5l
cmF0ZWQgQ2VydGlmaWNhdGUwHQYDVR0OBBYEFOcG3ttWro0N0gqPVfqLqTVE3Bny
MIG5BgNVHSMEgbEwga6AFNaI8arBKwmMuFydzt9XOWImECCQoYGKpIGHMIGEMQsw
CQYDVQQGEwJDSDEQMA4GA1UECBMHVGh1cmdhdTEQMA4GA1UEBxMHS2VmaWtvbjET
MBEGA1UEChMKZ3VlbmdlbC5jaDEWMBQGA1UEAxMNQ0EgZ3VlbmdlbC5jaDEkMCIG
CSqGSIb3DQEJARYVcG9zdG1hc3RlckBndWVuZ2VsLmNoggkA5SU7pne9y/8wDQYJ
KoZIhvcNAQELBQADggIBAFo1xHUk+XN2XfK4HPdZkyHfM82rueDHF+uC0Juo5Mlm
fqdp2KTNBgmMiS2shwzS3ALKUJmosafupNY5zqKR1aECP8LIU6X5Ntsl8paNUIDK
BJUtm67fBtFI3f+jj149po6WBNyMm66/Y3juqJkyLMGHA2Q6oS4pnrOoTsxCos1H
RJIh71LE+uGmDJEDoVoiHDj/lThKxAOKWO6AkMOfldQqrD3/TWVC0ZaDY/UVgpGl
BjyC3feA5l+f3E3YY1k8TuUAuvhzY41TlRkgTCVMl8aSJ665WuJOif2HTKQncOL7
ae2/LOJpQIzAO2JhTXARC/v3/1d1iy5OCYulu/3Kb5/YC/XvJaigCL/RyR81FZDB
bNDdTdqt6LXHZh3P4LM8SKAOQh/qpBS/X3FKH3Mn9iAra755Y2URIfA/dNJvq4iY
Qkwr4satSYmM8MlmIiQMB8W+jb+bkEhyhEeXvzkSU4dsWhg5QO7vhNGhzx7hDOjt
L2hGBv+z4Au655xY6BUOiVK0wwY1smV7SCw2p1JB7WBD4cvcPF7WL6NFJ5tBdXfn
fx56A+RKsbywictQoPyM8kYOD2NzsQaJ5syV7pM5hDtinP8kYubLD5lRSvYc0PEy
DWDH9TLuSM8Vp+Nc0/eobi4gIdeUBSyou5d4mWRZj02QyxzBWyO1IVaLxpO2wHOT
-----END CERTIFICATE-----
