Certificate:
    Data:
        Version: 3 (0x2)
        Serial Number: 310 (0x136)
    Signature Algorithm: sha256WithRSAEncryption
        Issuer: C=CH, ST=Thurgau, L=Kefikon, O=guengel.ch, CN=CA guengel.ch/emailAddress=postmaster@guengel.ch
        Validity
            Not Before: Jan  6 18:02:59 2018 GMT
            Not After : Feb 10 18:02:59 2019 GMT
        Subject: C=CH, ST=Thurgau, O=guengel.ch, CN=nostromo.kruemel.home/emailAddress=postmaster@guengel.ch
        Subject Public Key Info:
            Public Key Algorithm: rsaEncryption
                Public-Key: (2048 bit)
                Modulus:
                    00:aa:7f:46:95:27:b2:4e:33:89:a9:72:fe:af:3d:
                    56:40:89:af:b8:cd:29:b5:ff:55:cd:f7:60:09:ac:
                    77:b8:fb:a1:24:67:8f:6f:e4:9c:ba:03:04:5c:bf:
                    44:3c:93:41:ac:46:f3:54:c4:cd:00:94:4f:64:f0:
                    39:a9:34:4d:70:5b:69:25:ab:ce:72:ab:a9:ff:36:
                    9a:4d:7d:22:80:01:93:a4:72:81:dc:85:1e:63:a3:
                    2f:19:69:b6:a0:0d:d3:ee:2f:3d:64:d7:ac:8a:13:
                    27:ea:6d:4a:f8:ff:7c:e8:c8:55:c6:39:7c:c5:54:
                    d8:39:56:b9:cb:a1:98:c5:cb:9e:2a:ef:ab:0e:ab:
                    46:b2:db:37:bc:cf:69:d4:41:14:cb:81:c7:b1:99:
                    4b:d4:f0:31:ba:dc:67:24:d5:2a:3d:3a:8d:f0:d7:
                    36:de:dd:e3:b8:7d:ad:36:db:39:dd:f4:97:36:49:
                    d9:30:d2:3f:6d:a5:38:e9:33:25:33:1a:09:a1:55:
                    f3:9d:e5:b7:ae:f2:15:3b:a3:de:65:6c:a6:02:7b:
                    98:95:b4:86:89:9d:77:0b:74:5f:22:f3:9a:78:6f:
                    2d:14:e8:95:11:40:22:3e:1a:9c:3c:5e:4a:dd:7f:
                    c7:45:de:e3:01:74:47:7f:6f:6b:38:05:33:ce:73:
                    99:2b
                Exponent: 65537 (0x10001)
        X509v3 extensions:
            X509v3 Basic Constraints: 
                CA:FALSE
            Netscape Comment: 
                OpenSSL Generated Certificate
            X509v3 Subject Key Identifier: 
                3C:4F:1D:14:DC:68:03:85:CE:89:D2:3D:3D:19:3F:5D:3B:78:2F:6D
            X509v3 Authority Key Identifier: 
                keyid:D6:88:F1:AA:C1:2B:09:8C:B8:5C:9D:CE:DF:57:39:62:26:10:20:90
                DirName:/C=CH/ST=Thurgau/L=Kefikon/O=guengel.ch/CN=CA guengel.ch/emailAddress=postmaster@guengel.ch
                serial:E5:25:3B:A6:77:BD:CB:FF

    Signature Algorithm: sha256WithRSAEncryption
         5b:c8:4c:22:65:51:d9:15:d8:60:bd:17:5a:3b:2e:4a:60:b2:
         09:62:0b:1e:85:84:c7:3c:25:f8:c1:99:ff:13:4f:ba:53:80:
         91:4e:74:ce:a5:e8:72:0f:6c:38:6f:aa:74:56:20:15:05:d9:
         d7:f9:68:00:f0:bd:e1:d0:b0:72:d6:d2:89:c8:44:1f:a3:dd:
         2e:ec:ac:dd:1d:26:36:5c:4f:32:a4:24:4d:b6:8e:e2:d7:75:
         81:22:a2:00:d9:cf:1c:f3:76:d4:01:22:da:ca:bd:f3:48:f7:
         7d:15:ff:0e:f8:39:f8:a6:bb:a3:c2:fc:34:11:3a:86:28:f8:
         1c:80:8d:a8:00:b1:c4:99:94:30:5e:d0:4d:5a:56:2f:61:fa:
         59:b4:4a:32:76:f4:e0:71:0e:88:28:db:5d:71:0c:e6:ce:cf:
         61:c3:0c:fe:8f:03:cf:6e:3b:78:c0:b5:1e:b4:f6:da:05:59:
         94:7d:9b:63:c4:f8:a4:21:39:35:e5:63:f9:5f:a4:4a:55:7f:
         4c:8c:40:a6:57:0e:41:70:36:a7:2a:29:53:0d:4b:09:ef:72:
         eb:e4:fe:33:96:b3:19:83:18:54:63:e3:04:2c:89:d4:fa:52:
         f4:7b:0e:47:68:e1:cb:4f:a0:b1:c2:86:af:b7:f5:ce:4a:42:
         1c:1a:72:af:00:75:a1:e9:17:2e:81:17:72:ef:04:40:9f:46:
         b7:0c:34:2c:6d:46:75:14:69:12:af:47:34:db:19:e9:14:28:
         6f:42:90:cc:74:df:34:20:81:32:44:d8:62:4b:bf:66:3b:fe:
         39:df:a3:d4:b8:01:2a:d4:d0:21:4e:13:39:e9:74:e4:49:05:
         36:87:f1:71:26:de:34:75:1b:45:c4:54:97:59:12:5e:53:24:
         b3:e7:c4:c9:92:10:21:ad:a2:d2:36:3a:f4:4b:d3:b9:e7:73:
         5d:fd:90:89:8c:bb:75:90:6f:e0:28:c6:32:ed:d7:4e:06:87:
         cd:6d:28:d7:41:47:cd:83:22:94:10:8c:92:5b:7d:0a:9e:d2:
         45:2a:26:4c:f7:f1:db:35:3c:a1:a5:8b:a5:a1:3b:0b:19:7d:
         aa:9d:ea:72:44:17:68:8b:68:d3:cf:cd:af:20:f1:57:93:fc:
         d6:83:c3:74:8a:54:64:d2:a0:73:1d:b8:cf:b1:e4:0a:e3:74:
         4d:e8:75:09:88:81:45:72:2c:d1:68:2d:e5:4d:62:e6:74:66:
         35:e9:42:20:ef:da:3d:7a:79:10:3f:cc:51:18:81:f0:44:d1:
         7d:1f:fd:77:ae:2b:ab:0a:c4:7c:5f:76:b0:bc:30:4a:90:50:
         33:2e:bd:c7:ad:d8:65:e6
-----BEGIN CERTIFICATE-----
MIIFlTCCA32gAwIBAgICATYwDQYJKoZIhvcNAQELBQAwgYQxCzAJBgNVBAYTAkNI
MRAwDgYDVQQIEwdUaHVyZ2F1MRAwDgYDVQQHEwdLZWZpa29uMRMwEQYDVQQKEwpn
dWVuZ2VsLmNoMRYwFAYDVQQDEw1DQSBndWVuZ2VsLmNoMSQwIgYJKoZIhvcNAQkB
FhVwb3N0bWFzdGVyQGd1ZW5nZWwuY2gwHhcNMTgwMTA2MTgwMjU5WhcNMTkwMjEw
MTgwMjU5WjB6MQswCQYDVQQGEwJDSDEQMA4GA1UECBMHVGh1cmdhdTETMBEGA1UE
ChMKZ3VlbmdlbC5jaDEeMBwGA1UEAxMVbm9zdHJvbW8ua3J1ZW1lbC5ob21lMSQw
IgYJKoZIhvcNAQkBFhVwb3N0bWFzdGVyQGd1ZW5nZWwuY2gwggEiMA0GCSqGSIb3
DQEBAQUAA4IBDwAwggEKAoIBAQCqf0aVJ7JOM4mpcv6vPVZAia+4zSm1/1XN92AJ
rHe4+6EkZ49v5Jy6AwRcv0Q8k0GsRvNUxM0AlE9k8DmpNE1wW2klq85yq6n/NppN
fSKAAZOkcoHchR5joy8ZabagDdPuLz1k16yKEyfqbUr4/3zoyFXGOXzFVNg5VrnL
oZjFy54q76sOq0ay2ze8z2nUQRTLgcexmUvU8DG63Gck1So9Oo3w1zbe3eO4fa02
2znd9Jc2Sdkw0j9tpTjpMyUzGgmhVfOd5beu8hU7o95lbKYCe5iVtIaJnXcLdF8i
85p4by0U6JURQCI+Gpw8Xkrdf8dF3uMBdEd/b2s4BTPOc5krAgMBAAGjggEYMIIB
FDAJBgNVHRMEAjAAMCwGCWCGSAGG+EIBDQQfFh1PcGVuU1NMIEdlbmVyYXRlZCBD
ZXJ0aWZpY2F0ZTAdBgNVHQ4EFgQUPE8dFNxoA4XOidI9PRk/XTt4L20wgbkGA1Ud
IwSBsTCBroAU1ojxqsErCYy4XJ3O31c5YiYQIJChgYqkgYcwgYQxCzAJBgNVBAYT
AkNIMRAwDgYDVQQIEwdUaHVyZ2F1MRAwDgYDVQQHEwdLZWZpa29uMRMwEQYDVQQK
EwpndWVuZ2VsLmNoMRYwFAYDVQQDEw1DQSBndWVuZ2VsLmNoMSQwIgYJKoZIhvcN
AQkBFhVwb3N0bWFzdGVyQGd1ZW5nZWwuY2iCCQDlJTumd73L/zANBgkqhkiG9w0B
AQsFAAOCAgEAW8hMImVR2RXYYL0XWjsuSmCyCWILHoWExzwl+MGZ/xNPulOAkU50
zqXocg9sOG+qdFYgFQXZ1/loAPC94dCwctbSichEH6PdLuys3R0mNlxPMqQkTbaO
4td1gSKiANnPHPN21AEi2sq980j3fRX/Dvg5+Ka7o8L8NBE6hij4HICNqACxxJmU
MF7QTVpWL2H6WbRKMnb04HEOiCjbXXEM5s7PYcMM/o8Dz247eMC1HrT22gVZlH2b
Y8T4pCE5NeVj+V+kSlV/TIxAplcOQXA2pyopUw1LCe9y6+T+M5azGYMYVGPjBCyJ
1PpS9HsOR2jhy0+gscKGr7f1zkpCHBpyrwB1oekXLoEXcu8EQJ9Gtww0LG1GdRRp
Eq9HNNsZ6RQob0KQzHTfNCCBMkTYYku/Zjv+Od+j1LgBKtTQIU4TOel05EkFNofx
cSbeNHUbRcRUl1kSXlMks+fEyZIQIa2i0jY69EvTuedzXf2QiYy7dZBv4CjGMu3X
TgaHzW0o10FHzYMilBCMklt9Cp7SRSomTPfx2zU8oaWLpaE7Cxl9qp3qckQXaIto
08/NryDxV5P81oPDdIpUZNKgcx24z7HkCuN0Teh1CYiBRXIs0Wgt5U1i5nRmNelC
IO/aPXp5ED/MURiB8ETRfR/9d64rqwrEfF92sLwwSpBQMy69x63YZeY=
-----END CERTIFICATE-----
