Certificate:
    Data:
        Version: 3 (0x2)
        Serial Number: 349 (0x15d)
    Signature Algorithm: sha256WithRSAEncryption
        Issuer: C=CH, ST=Thurgau, L=Kefikon, O=guengel.ch, CN=CA guengel.ch/emailAddress=postmaster@guengel.ch
        Validity
            Not Before: Dec 29 14:40:02 2018 GMT
            Not After : Feb  2 14:40:02 2020 GMT
        Subject: C=CH, ST=Thurgau, O=guengel.ch, CN=nostromo.kruemel.home/emailAddress=postmaster@guengel.ch
        Subject Public Key Info:
            Public Key Algorithm: rsaEncryption
                Public-Key: (2048 bit)
                Modulus:
                    00:aa:7f:46:95:27:b2:4e:33:89:a9:72:fe:af:3d:
                    56:40:89:af:b8:cd:29:b5:ff:55:cd:f7:60:09:ac:
                    77:b8:fb:a1:24:67:8f:6f:e4:9c:ba:03:04:5c:bf:
                    44:3c:93:41:ac:46:f3:54:c4:cd:00:94:4f:64:f0:
                    39:a9:34:4d:70:5b:69:25:ab:ce:72:ab:a9:ff:36:
                    9a:4d:7d:22:80:01:93:a4:72:81:dc:85:1e:63:a3:
                    2f:19:69:b6:a0:0d:d3:ee:2f:3d:64:d7:ac:8a:13:
                    27:ea:6d:4a:f8:ff:7c:e8:c8:55:c6:39:7c:c5:54:
                    d8:39:56:b9:cb:a1:98:c5:cb:9e:2a:ef:ab:0e:ab:
                    46:b2:db:37:bc:cf:69:d4:41:14:cb:81:c7:b1:99:
                    4b:d4:f0:31:ba:dc:67:24:d5:2a:3d:3a:8d:f0:d7:
                    36:de:dd:e3:b8:7d:ad:36:db:39:dd:f4:97:36:49:
                    d9:30:d2:3f:6d:a5:38:e9:33:25:33:1a:09:a1:55:
                    f3:9d:e5:b7:ae:f2:15:3b:a3:de:65:6c:a6:02:7b:
                    98:95:b4:86:89:9d:77:0b:74:5f:22:f3:9a:78:6f:
                    2d:14:e8:95:11:40:22:3e:1a:9c:3c:5e:4a:dd:7f:
                    c7:45:de:e3:01:74:47:7f:6f:6b:38:05:33:ce:73:
                    99:2b
                Exponent: 65537 (0x10001)
        X509v3 extensions:
            X509v3 Basic Constraints: 
                CA:FALSE
            Netscape Comment: 
                OpenSSL Generated Certificate
            X509v3 Subject Key Identifier: 
                3C:4F:1D:14:DC:68:03:85:CE:89:D2:3D:3D:19:3F:5D:3B:78:2F:6D
            X509v3 Authority Key Identifier: 
                keyid:D6:88:F1:AA:C1:2B:09:8C:B8:5C:9D:CE:DF:57:39:62:26:10:20:90
                DirName:/C=CH/ST=Thurgau/L=Kefikon/O=guengel.ch/CN=CA guengel.ch/emailAddress=postmaster@guengel.ch
                serial:E5:25:3B:A6:77:BD:CB:FF

    Signature Algorithm: sha256WithRSAEncryption
         65:a9:61:53:4c:86:02:be:d2:ad:6a:54:b0:51:04:71:24:d7:
         59:35:ab:68:96:05:b7:d7:25:ba:74:e2:0e:b9:e6:97:2e:85:
         00:ae:55:c6:77:53:ba:24:18:f8:5c:8b:4a:4d:23:3b:b4:a6:
         d0:35:c7:bc:f1:63:25:9c:f7:c6:3e:7c:f8:16:d6:ee:a6:14:
         03:e4:39:7f:d8:b9:4c:60:95:a1:8e:92:62:a9:7f:9f:bd:8f:
         8c:6f:92:50:69:37:36:db:08:78:14:46:83:1c:2d:c0:47:d1:
         48:64:c5:0b:45:c4:56:2a:fb:72:6b:29:63:bb:fa:9a:7d:f7:
         1c:5d:20:1f:11:f5:8f:8b:63:23:eb:aa:94:31:77:59:61:4f:
         59:94:14:a8:b1:78:73:3f:d3:de:c0:c8:4f:56:44:48:1c:55:
         16:ca:4b:32:27:46:ba:fc:29:76:89:ae:d1:ff:1a:67:7d:8d:
         57:41:7d:b3:7f:f6:32:d5:63:ea:7d:ab:84:56:d1:60:97:39:
         c9:35:81:02:1e:b4:8d:e4:cc:25:aa:d1:ae:67:de:2d:7f:4b:
         da:d3:e0:33:b5:4e:3d:ed:93:78:80:c2:84:26:66:c8:16:62:
         3b:41:2b:8d:13:43:e4:fe:9b:24:74:3d:10:61:cc:6d:cc:27:
         ea:b7:cf:27:f9:6c:67:82:d7:d5:a6:f0:67:2a:0c:47:ed:3c:
         7d:61:1b:3a:3c:36:0a:dc:f2:86:61:38:3f:81:f4:7f:30:04:
         e5:cd:bf:dd:c0:32:4b:94:5f:50:04:b7:30:d7:90:dc:a4:c2:
         b4:5d:d9:f2:1c:4b:00:82:92:53:b2:b8:d0:9e:f5:c8:80:e4:
         fd:66:15:c9:73:b6:61:b2:35:8a:90:de:95:9b:35:5d:06:b4:
         e0:3e:b2:91:d7:18:c6:94:7a:48:07:86:46:14:ff:a1:3f:6b:
         31:ab:0a:73:f5:16:e4:7c:1f:f9:fb:dd:82:a9:c3:c9:7d:1c:
         dd:3d:7e:3f:04:88:5e:38:10:d2:62:b1:f0:06:fe:68:1b:58:
         1b:d7:f8:a0:0b:8a:58:89:e4:39:88:13:b8:2a:5d:72:31:c2:
         98:4a:82:8f:e6:d6:f8:02:3a:9b:e5:08:0e:a2:2f:32:48:4e:
         f2:2c:93:d8:b4:4d:15:ca:97:d1:17:c4:89:0d:ba:70:41:fa:
         e1:6a:7a:1a:c3:6d:20:84:f5:2e:23:ab:e5:55:ca:66:5b:61:
         f1:53:25:84:ab:7e:fc:b2:81:c2:db:7b:e9:23:52:d3:f8:b3:
         95:ab:a3:01:06:93:29:2d:95:52:5d:f1:8f:73:4f:18:06:2f:
         27:c9:01:5c:ee:8b:81:08
-----BEGIN CERTIFICATE-----
MIIFlTCCA32gAwIBAgICAV0wDQYJKoZIhvcNAQELBQAwgYQxCzAJBgNVBAYTAkNI
MRAwDgYDVQQIEwdUaHVyZ2F1MRAwDgYDVQQHEwdLZWZpa29uMRMwEQYDVQQKEwpn
dWVuZ2VsLmNoMRYwFAYDVQQDEw1DQSBndWVuZ2VsLmNoMSQwIgYJKoZIhvcNAQkB
FhVwb3N0bWFzdGVyQGd1ZW5nZWwuY2gwHhcNMTgxMjI5MTQ0MDAyWhcNMjAwMjAy
MTQ0MDAyWjB6MQswCQYDVQQGEwJDSDEQMA4GA1UECBMHVGh1cmdhdTETMBEGA1UE
ChMKZ3VlbmdlbC5jaDEeMBwGA1UEAxMVbm9zdHJvbW8ua3J1ZW1lbC5ob21lMSQw
IgYJKoZIhvcNAQkBFhVwb3N0bWFzdGVyQGd1ZW5nZWwuY2gwggEiMA0GCSqGSIb3
DQEBAQUAA4IBDwAwggEKAoIBAQCqf0aVJ7JOM4mpcv6vPVZAia+4zSm1/1XN92AJ
rHe4+6EkZ49v5Jy6AwRcv0Q8k0GsRvNUxM0AlE9k8DmpNE1wW2klq85yq6n/NppN
fSKAAZOkcoHchR5joy8ZabagDdPuLz1k16yKEyfqbUr4/3zoyFXGOXzFVNg5VrnL
oZjFy54q76sOq0ay2ze8z2nUQRTLgcexmUvU8DG63Gck1So9Oo3w1zbe3eO4fa02
2znd9Jc2Sdkw0j9tpTjpMyUzGgmhVfOd5beu8hU7o95lbKYCe5iVtIaJnXcLdF8i
85p4by0U6JURQCI+Gpw8Xkrdf8dF3uMBdEd/b2s4BTPOc5krAgMBAAGjggEYMIIB
FDAJBgNVHRMEAjAAMCwGCWCGSAGG+EIBDQQfFh1PcGVuU1NMIEdlbmVyYXRlZCBD
ZXJ0aWZpY2F0ZTAdBgNVHQ4EFgQUPE8dFNxoA4XOidI9PRk/XTt4L20wgbkGA1Ud
IwSBsTCBroAU1ojxqsErCYy4XJ3O31c5YiYQIJChgYqkgYcwgYQxCzAJBgNVBAYT
AkNIMRAwDgYDVQQIEwdUaHVyZ2F1MRAwDgYDVQQHEwdLZWZpa29uMRMwEQYDVQQK
EwpndWVuZ2VsLmNoMRYwFAYDVQQDEw1DQSBndWVuZ2VsLmNoMSQwIgYJKoZIhvcN
AQkBFhVwb3N0bWFzdGVyQGd1ZW5nZWwuY2iCCQDlJTumd73L/zANBgkqhkiG9w0B
AQsFAAOCAgEAZalhU0yGAr7SrWpUsFEEcSTXWTWraJYFt9clunTiDrnmly6FAK5V
xndTuiQY+FyLSk0jO7Sm0DXHvPFjJZz3xj58+BbW7qYUA+Q5f9i5TGCVoY6SYql/
n72PjG+SUGk3NtsIeBRGgxwtwEfRSGTFC0XEVir7cmspY7v6mn33HF0gHxH1j4tj
I+uqlDF3WWFPWZQUqLF4cz/T3sDIT1ZESBxVFspLMidGuvwpdomu0f8aZ32NV0F9
s3/2MtVj6n2rhFbRYJc5yTWBAh60jeTMJarRrmfeLX9L2tPgM7VOPe2TeIDChCZm
yBZiO0ErjRND5P6bJHQ9EGHMbcwn6rfPJ/lsZ4LX1abwZyoMR+08fWEbOjw2Ctzy
hmE4P4H0fzAE5c2/3cAyS5RfUAS3MNeQ3KTCtF3Z8hxLAIKSU7K40J71yIDk/WYV
yXO2YbI1ipDelZs1XQa04D6ykdcYxpR6SAeGRhT/oT9rMasKc/UW5Hwf+fvdgqnD
yX0c3T1+PwSIXjgQ0mKx8Ab+aBtYG9f4oAuKWInkOYgTuCpdcjHCmEqCj+bW+AI6
m+UIDqIvMkhO8iyT2LRNFcqX0RfEiQ26cEH64Wp6GsNtIIT1LiOr5VXKZlth8VMl
hKt+/LKBwtt76SNS0/izlaujAQaTKS2VUl3xj3NPGAYvJ8kBXO6LgQg=
-----END CERTIFICATE-----
