Certificate:
    Data:
        Version: 3 (0x2)
        Serial Number: 257 (0x101)
    Signature Algorithm: sha256WithRSAEncryption
        Issuer: C=CH, ST=Thurgau, L=Kefikon, O=guengel.ch, CN=CA guengel.ch/emailAddress=postmaster@guengel.ch
        Validity
            Not Before: Nov 20 09:17:24 2016 GMT
            Not After : Apr  4 09:17:24 2018 GMT
        Subject: C=CH, ST=Thurgau, O=guengel.ch, CN=odin.kruemel.home/emailAddress=postmaster@guengel.ch
        Subject Public Key Info:
            Public Key Algorithm: rsaEncryption
                Public-Key: (2048 bit)
                Modulus:
                    00:c0:cd:b6:9f:90:1f:9d:d4:2a:43:bd:d8:48:ab:
                    44:56:21:05:a6:89:7e:8b:aa:ab:51:9f:72:ee:9a:
                    8a:36:79:70:21:40:a7:fc:ce:d1:17:07:91:c5:1c:
                    0c:c4:de:7b:02:7d:12:6e:0a:b2:af:a1:e1:7f:0c:
                    4a:b3:17:12:2b:07:e7:e7:cd:75:f6:5c:12:da:46:
                    9b:5b:ca:e1:e9:02:67:a9:c1:62:fb:cc:c4:d1:0c:
                    1f:f7:1d:57:51:1b:b3:b8:c9:06:21:ff:ad:a2:58:
                    ef:f4:0b:bf:50:bf:b1:0f:95:dd:81:18:72:60:9e:
                    11:d4:53:9f:53:1c:b5:48:8e:97:01:48:ad:f8:ac:
                    b9:fa:95:5a:58:97:8c:41:4a:36:ae:3a:05:08:76:
                    be:81:17:ed:a0:3c:80:6c:72:1e:5f:63:17:c1:77:
                    4a:f7:27:2c:83:27:f3:6b:95:ca:5d:91:51:87:89:
                    24:3e:01:df:50:d6:a6:1f:b6:54:0f:8c:27:c3:d6:
                    9c:34:22:7a:17:43:a9:8a:14:c0:b9:d3:c9:bc:7a:
                    9d:3a:43:15:d4:ef:de:d2:7e:5e:25:76:9c:33:b1:
                    14:ed:d0:33:73:99:8a:63:32:94:af:0b:5c:c1:0a:
                    13:0f:6f:30:72:2a:62:61:04:5f:fe:4e:b0:69:34:
                    ff:65
                Exponent: 65537 (0x10001)
        X509v3 extensions:
            X509v3 Basic Constraints: 
                CA:FALSE
            Netscape Comment: 
                OpenSSL Generated Certificate
            X509v3 Subject Key Identifier: 
                9D:FB:D8:84:CB:66:C9:9C:2E:3D:A9:63:6C:1B:F2:71:B9:84:4E:DA
            X509v3 Authority Key Identifier: 
                keyid:D6:88:F1:AA:C1:2B:09:8C:B8:5C:9D:CE:DF:57:39:62:26:10:20:90
                DirName:/C=CH/ST=Thurgau/L=Kefikon/O=guengel.ch/CN=CA guengel.ch/emailAddress=postmaster@guengel.ch
                serial:E5:25:3B:A6:77:BD:CB:FF

    Signature Algorithm: sha256WithRSAEncryption
         05:2e:23:fa:e0:8d:5d:22:98:12:08:bd:76:ec:66:63:17:b7:
         9c:e8:47:8e:fa:3e:c0:b4:fe:95:93:64:e3:3d:32:27:9c:bd:
         db:7b:5d:e6:05:14:6d:1f:ed:5f:19:df:64:86:29:b3:b4:11:
         ca:3b:28:1e:50:d7:5d:33:ea:3e:eb:5d:64:c9:24:00:66:7e:
         3c:7f:b9:74:64:a1:9a:b3:a9:1d:27:39:75:fd:69:4a:6b:05:
         e0:c7:f4:69:8b:30:b3:f7:46:8e:4b:a4:80:df:d8:06:19:da:
         dd:9e:b7:06:15:9e:24:7f:7b:cc:9a:43:99:c5:3f:8c:02:96:
         aa:ca:8f:a0:da:56:6b:b9:e4:4c:ec:ef:89:48:9a:05:fe:84:
         ef:6f:9b:e4:cd:db:92:5f:04:ed:84:3c:db:9d:ad:13:94:64:
         1d:b4:8d:e6:7e:a9:e8:b4:6d:06:27:d9:d0:9a:69:f6:8f:ff:
         90:1f:dc:fd:de:6a:c3:9e:75:41:b4:96:1f:71:d0:79:2b:08:
         13:59:a6:86:b0:61:9c:84:68:ff:45:cb:c9:3e:a8:0c:cd:8f:
         95:65:d2:fd:fc:3b:4d:5a:a1:96:fd:fa:66:4e:3b:f9:ca:68:
         12:41:38:56:d7:87:79:71:a5:8e:24:7d:c8:c6:88:f6:94:74:
         20:ab:72:a9:ce:82:ec:8a:a1:43:1f:4d:fb:80:0e:67:46:ef:
         80:9d:0a:6e:bd:91:14:9d:c8:73:96:bd:3c:19:ac:30:9b:2f:
         ca:39:ac:9c:58:42:b8:97:c5:1c:20:90:67:0a:70:f6:22:3f:
         54:ba:19:41:2a:aa:66:ee:69:4d:1b:c3:d9:cc:ce:4a:f4:b1:
         7b:4c:ea:02:9e:19:50:a6:4b:66:cc:32:0f:6f:4a:55:f1:6a:
         34:6a:e4:8a:09:c5:6b:a6:22:db:54:c7:34:11:64:52:99:53:
         98:6a:52:77:30:b0:0e:4a:06:3c:c2:e6:d3:39:14:e1:ca:3f:
         76:c2:8d:a3:2e:ef:68:d1:75:d0:4f:76:0c:32:5e:a2:07:74:
         bf:c0:d7:ca:85:dc:f3:ce:70:e9:da:81:2a:ec:03:ad:2f:52:
         e9:97:ce:01:c4:5d:25:0f:86:3f:c9:a0:05:2e:89:3a:b9:b9:
         26:5b:5c:2e:55:06:b2:5f:5f:70:24:10:c0:e2:8d:c9:d7:92:
         97:88:99:50:e9:98:87:17:54:a4:da:83:fb:75:04:34:fc:04:
         f3:5b:ea:11:12:ea:c4:d3:45:1e:2e:6f:04:70:aa:b0:e5:f3:
         38:0f:7f:49:02:ec:fd:ec:15:75:b7:32:3e:bb:c9:93:17:0b:
         7e:c7:37:c9:e9:18:fa:e8
-----BEGIN CERTIFICATE-----
MIIFkTCCA3mgAwIBAgICAQEwDQYJKoZIhvcNAQELBQAwgYQxCzAJBgNVBAYTAkNI
MRAwDgYDVQQIEwdUaHVyZ2F1MRAwDgYDVQQHEwdLZWZpa29uMRMwEQYDVQQKEwpn
dWVuZ2VsLmNoMRYwFAYDVQQDEw1DQSBndWVuZ2VsLmNoMSQwIgYJKoZIhvcNAQkB
FhVwb3N0bWFzdGVyQGd1ZW5nZWwuY2gwHhcNMTYxMTIwMDkxNzI0WhcNMTgwNDA0
MDkxNzI0WjB2MQswCQYDVQQGEwJDSDEQMA4GA1UECBMHVGh1cmdhdTETMBEGA1UE
ChMKZ3VlbmdlbC5jaDEaMBgGA1UEAxMRb2Rpbi5rcnVlbWVsLmhvbWUxJDAiBgkq
hkiG9w0BCQEWFXBvc3RtYXN0ZXJAZ3VlbmdlbC5jaDCCASIwDQYJKoZIhvcNAQEB
BQADggEPADCCAQoCggEBAMDNtp+QH53UKkO92EirRFYhBaaJfouqq1Gfcu6aijZ5
cCFAp/zO0RcHkcUcDMTeewJ9Em4Ksq+h4X8MSrMXEisH5+fNdfZcEtpGm1vK4ekC
Z6nBYvvMxNEMH/cdV1Ebs7jJBiH/raJY7/QLv1C/sQ+V3YEYcmCeEdRTn1MctUiO
lwFIrfisufqVWliXjEFKNq46BQh2voEX7aA8gGxyHl9jF8F3SvcnLIMn82uVyl2R
UYeJJD4B31DWph+2VA+MJ8PWnDQiehdDqYoUwLnTybx6nTpDFdTv3tJ+XiV2nDOx
FO3QM3OZimMylK8LXMEKEw9vMHIqYmEEX/5OsGk0/2UCAwEAAaOCARgwggEUMAkG
A1UdEwQCMAAwLAYJYIZIAYb4QgENBB8WHU9wZW5TU0wgR2VuZXJhdGVkIENlcnRp
ZmljYXRlMB0GA1UdDgQWBBSd+9iEy2bJnC49qWNsG/JxuYRO2jCBuQYDVR0jBIGx
MIGugBTWiPGqwSsJjLhcnc7fVzliJhAgkKGBiqSBhzCBhDELMAkGA1UEBhMCQ0gx
EDAOBgNVBAgTB1RodXJnYXUxEDAOBgNVBAcTB0tlZmlrb24xEzARBgNVBAoTCmd1
ZW5nZWwuY2gxFjAUBgNVBAMTDUNBIGd1ZW5nZWwuY2gxJDAiBgkqhkiG9w0BCQEW
FXBvc3RtYXN0ZXJAZ3VlbmdlbC5jaIIJAOUlO6Z3vcv/MA0GCSqGSIb3DQEBCwUA
A4ICAQAFLiP64I1dIpgSCL127GZjF7ec6EeO+j7AtP6Vk2TjPTInnL3be13mBRRt
H+1fGd9khimztBHKOygeUNddM+o+611kySQAZn48f7l0ZKGas6kdJzl1/WlKawXg
x/RpizCz90aOS6SA39gGGdrdnrcGFZ4kf3vMmkOZxT+MApaqyo+g2lZrueRM7O+J
SJoF/oTvb5vkzduSXwTthDzbna0TlGQdtI3mfqnotG0GJ9nQmmn2j/+QH9z93mrD
nnVBtJYfcdB5KwgTWaaGsGGchGj/RcvJPqgMzY+VZdL9/DtNWqGW/fpmTjv5ymgS
QThW14d5caWOJH3Ixoj2lHQgq3KpzoLsiqFDH037gA5nRu+AnQpuvZEUnchzlr08
Gawwmy/KOaycWEK4l8UcIJBnCnD2Ij9UuhlBKqpm7mlNG8PZzM5K9LF7TOoCnhlQ
pktmzDIPb0pV8Wo0auSKCcVrpiLbVMc0EWRSmVOYalJ3MLAOSgY8wubTORThyj92
wo2jLu9o0XXQT3YMMl6iB3S/wNfKhdzzznDp2oEq7AOtL1Lpl84BxF0lD4Y/yaAF
Lok6ubkmW1wuVQayX19wJBDA4o3J15KXiJlQ6ZiHF1Sk2oP7dQQ0/ATzW+oREurE
00UeLm8EcKqw5fM4D39JAuz97BV1tzI+u8mTFwt+xzfJ6Rj66A==
-----END CERTIFICATE-----
