Certificate:
    Data:
        Version: 3 (0x2)
        Serial Number: 350 (0x15e)
    Signature Algorithm: sha256WithRSAEncryption
        Issuer: C=CH, ST=Thurgau, L=Kefikon, O=guengel.ch, CN=CA guengel.ch/emailAddress=postmaster@guengel.ch
        Validity
            Not Before: Dec 29 14:40:03 2018 GMT
            Not After : Feb  2 14:40:03 2020 GMT
        Subject: C=CH, ST=Thurgau, O=guengel.ch, CN=odin.kruemel.home/emailAddress=postmaster@guengel.ch
        Subject Public Key Info:
            Public Key Algorithm: rsaEncryption
                Public-Key: (2048 bit)
                Modulus:
                    00:c0:cd:b6:9f:90:1f:9d:d4:2a:43:bd:d8:48:ab:
                    44:56:21:05:a6:89:7e:8b:aa:ab:51:9f:72:ee:9a:
                    8a:36:79:70:21:40:a7:fc:ce:d1:17:07:91:c5:1c:
                    0c:c4:de:7b:02:7d:12:6e:0a:b2:af:a1:e1:7f:0c:
                    4a:b3:17:12:2b:07:e7:e7:cd:75:f6:5c:12:da:46:
                    9b:5b:ca:e1:e9:02:67:a9:c1:62:fb:cc:c4:d1:0c:
                    1f:f7:1d:57:51:1b:b3:b8:c9:06:21:ff:ad:a2:58:
                    ef:f4:0b:bf:50:bf:b1:0f:95:dd:81:18:72:60:9e:
                    11:d4:53:9f:53:1c:b5:48:8e:97:01:48:ad:f8:ac:
                    b9:fa:95:5a:58:97:8c:41:4a:36:ae:3a:05:08:76:
                    be:81:17:ed:a0:3c:80:6c:72:1e:5f:63:17:c1:77:
                    4a:f7:27:2c:83:27:f3:6b:95:ca:5d:91:51:87:89:
                    24:3e:01:df:50:d6:a6:1f:b6:54:0f:8c:27:c3:d6:
                    9c:34:22:7a:17:43:a9:8a:14:c0:b9:d3:c9:bc:7a:
                    9d:3a:43:15:d4:ef:de:d2:7e:5e:25:76:9c:33:b1:
                    14:ed:d0:33:73:99:8a:63:32:94:af:0b:5c:c1:0a:
                    13:0f:6f:30:72:2a:62:61:04:5f:fe:4e:b0:69:34:
                    ff:65
                Exponent: 65537 (0x10001)
        X509v3 extensions:
            X509v3 Basic Constraints: 
                CA:FALSE
            Netscape Comment: 
                OpenSSL Generated Certificate
            X509v3 Subject Key Identifier: 
                9D:FB:D8:84:CB:66:C9:9C:2E:3D:A9:63:6C:1B:F2:71:B9:84:4E:DA
            X509v3 Authority Key Identifier: 
                keyid:D6:88:F1:AA:C1:2B:09:8C:B8:5C:9D:CE:DF:57:39:62:26:10:20:90
                DirName:/C=CH/ST=Thurgau/L=Kefikon/O=guengel.ch/CN=CA guengel.ch/emailAddress=postmaster@guengel.ch
                serial:E5:25:3B:A6:77:BD:CB:FF

    Signature Algorithm: sha256WithRSAEncryption
         a6:56:30:4c:c4:2e:11:13:a8:5f:f1:93:49:9c:b4:6d:b4:d0:
         71:b5:bf:59:91:b3:0f:dd:f2:7b:1f:f4:95:15:30:50:3b:99:
         3e:37:d1:fa:41:72:90:b8:f8:23:e4:72:07:6e:d9:de:80:b8:
         54:76:c1:13:b8:cd:7d:ba:6e:cc:df:38:a2:72:4d:1a:2c:c2:
         be:65:66:82:7b:78:94:cc:c4:4b:51:81:66:4c:c0:e5:85:ab:
         17:f1:8e:82:8f:3d:76:67:bf:f4:37:df:ba:cd:3d:03:6c:3a:
         11:9b:a6:01:bc:64:15:87:57:66:1d:55:b0:59:cb:78:d6:46:
         0e:8f:b7:5e:15:d5:b5:1f:12:3f:0c:5d:73:b4:65:d7:90:53:
         d4:b7:79:c5:28:1b:c7:6d:c6:c0:51:bb:9a:58:96:52:a1:94:
         d5:ed:01:9e:46:8c:68:58:74:eb:b3:4c:88:ea:f0:49:55:38:
         3c:05:ef:4a:3c:5f:57:ac:6b:d6:c9:56:ef:39:d8:5d:43:bb:
         61:46:45:50:e6:8d:b0:16:c6:56:1f:a9:44:b6:ce:8a:4d:8d:
         0a:86:4c:b7:72:37:3b:71:23:e3:00:ba:b5:49:63:4c:77:7e:
         7e:4a:26:0c:2f:0a:85:85:56:d2:ef:53:25:17:49:8e:92:80:
         a7:d6:48:1b:c7:85:66:93:e9:56:aa:a7:40:56:42:ca:d5:fa:
         84:0b:1b:7e:e3:7e:4a:b9:5b:78:19:2b:b6:20:38:b7:3e:f9:
         39:26:fe:cd:81:ec:2f:0c:8f:6b:41:c1:51:7d:f4:8c:25:64:
         ee:00:21:71:63:8c:9d:31:5b:92:ce:9e:1a:ea:70:7e:27:43:
         bd:09:68:98:92:c0:00:71:91:fa:5f:af:bf:db:be:82:da:f6:
         ea:26:20:b1:57:93:b1:30:5a:76:5c:87:72:13:c1:de:db:a2:
         a6:61:ed:f0:82:8d:ad:97:cb:9c:a6:80:d5:c9:2f:a8:6b:fb:
         e0:e3:ca:48:91:bf:93:35:dc:80:80:29:59:73:1c:73:ec:a6:
         d2:1d:35:df:0a:fa:1d:ce:26:d9:ff:23:47:a5:f8:26:f2:91:
         b7:2c:d0:98:0c:e8:da:30:50:86:a9:15:47:8e:68:ab:b7:f7:
         17:95:a5:e6:76:e4:be:b1:94:54:6a:8a:ae:68:c6:2a:2c:15:
         f3:d3:a7:56:e1:e0:55:5e:1a:cd:1f:24:32:b4:fa:30:c1:95:
         d9:2f:42:35:8e:55:02:29:f6:47:84:27:de:e5:81:43:fe:14:
         b5:e2:3d:bc:1d:5d:9b:3f:33:34:49:b1:80:cb:dc:aa:77:37:
         cd:a3:0e:7e:61:ba:ea:d1
-----BEGIN CERTIFICATE-----
MIIFkTCCA3mgAwIBAgICAV4wDQYJKoZIhvcNAQELBQAwgYQxCzAJBgNVBAYTAkNI
MRAwDgYDVQQIEwdUaHVyZ2F1MRAwDgYDVQQHEwdLZWZpa29uMRMwEQYDVQQKEwpn
dWVuZ2VsLmNoMRYwFAYDVQQDEw1DQSBndWVuZ2VsLmNoMSQwIgYJKoZIhvcNAQkB
FhVwb3N0bWFzdGVyQGd1ZW5nZWwuY2gwHhcNMTgxMjI5MTQ0MDAzWhcNMjAwMjAy
MTQ0MDAzWjB2MQswCQYDVQQGEwJDSDEQMA4GA1UECBMHVGh1cmdhdTETMBEGA1UE
ChMKZ3VlbmdlbC5jaDEaMBgGA1UEAxMRb2Rpbi5rcnVlbWVsLmhvbWUxJDAiBgkq
hkiG9w0BCQEWFXBvc3RtYXN0ZXJAZ3VlbmdlbC5jaDCCASIwDQYJKoZIhvcNAQEB
BQADggEPADCCAQoCggEBAMDNtp+QH53UKkO92EirRFYhBaaJfouqq1Gfcu6aijZ5
cCFAp/zO0RcHkcUcDMTeewJ9Em4Ksq+h4X8MSrMXEisH5+fNdfZcEtpGm1vK4ekC
Z6nBYvvMxNEMH/cdV1Ebs7jJBiH/raJY7/QLv1C/sQ+V3YEYcmCeEdRTn1MctUiO
lwFIrfisufqVWliXjEFKNq46BQh2voEX7aA8gGxyHl9jF8F3SvcnLIMn82uVyl2R
UYeJJD4B31DWph+2VA+MJ8PWnDQiehdDqYoUwLnTybx6nTpDFdTv3tJ+XiV2nDOx
FO3QM3OZimMylK8LXMEKEw9vMHIqYmEEX/5OsGk0/2UCAwEAAaOCARgwggEUMAkG
A1UdEwQCMAAwLAYJYIZIAYb4QgENBB8WHU9wZW5TU0wgR2VuZXJhdGVkIENlcnRp
ZmljYXRlMB0GA1UdDgQWBBSd+9iEy2bJnC49qWNsG/JxuYRO2jCBuQYDVR0jBIGx
MIGugBTWiPGqwSsJjLhcnc7fVzliJhAgkKGBiqSBhzCBhDELMAkGA1UEBhMCQ0gx
EDAOBgNVBAgTB1RodXJnYXUxEDAOBgNVBAcTB0tlZmlrb24xEzARBgNVBAoTCmd1
ZW5nZWwuY2gxFjAUBgNVBAMTDUNBIGd1ZW5nZWwuY2gxJDAiBgkqhkiG9w0BCQEW
FXBvc3RtYXN0ZXJAZ3VlbmdlbC5jaIIJAOUlO6Z3vcv/MA0GCSqGSIb3DQEBCwUA
A4ICAQCmVjBMxC4RE6hf8ZNJnLRttNBxtb9ZkbMP3fJ7H/SVFTBQO5k+N9H6QXKQ
uPgj5HIHbtnegLhUdsETuM19um7M3ziick0aLMK+ZWaCe3iUzMRLUYFmTMDlhasX
8Y6Cjz12Z7/0N9+6zT0DbDoRm6YBvGQVh1dmHVWwWct41kYOj7deFdW1HxI/DF1z
tGXXkFPUt3nFKBvHbcbAUbuaWJZSoZTV7QGeRoxoWHTrs0yI6vBJVTg8Be9KPF9X
rGvWyVbvOdhdQ7thRkVQ5o2wFsZWH6lEts6KTY0Khky3cjc7cSPjALq1SWNMd35+
SiYMLwqFhVbS71MlF0mOkoCn1kgbx4Vmk+lWqqdAVkLK1fqECxt+435KuVt4GSu2
IDi3Pvk5Jv7NgewvDI9rQcFRffSMJWTuACFxY4ydMVuSzp4a6nB+J0O9CWiYksAA
cZH6X6+/276C2vbqJiCxV5OxMFp2XIdyE8He26KmYe3wgo2tl8ucpoDVyS+oa/vg
48pIkb+TNdyAgClZcxxz7KbSHTXfCvodzibZ/yNHpfgm8pG3LNCYDOjaMFCGqRVH
jmirt/cXlaXmduS+sZRUaoquaMYqLBXz06dW4eBVXhrNHyQytPowwZXZL0I1jlUC
KfZHhCfe5YFD/hS14j28HV2bPzM0SbGAy9yqdzfNow5+Ybrq0Q==
-----END CERTIFICATE-----
