Certificate:
    Data:
        Version: 3 (0x2)
        Serial Number: 311 (0x137)
    Signature Algorithm: sha256WithRSAEncryption
        Issuer: C=CH, ST=Thurgau, L=Kefikon, O=guengel.ch, CN=CA guengel.ch/emailAddress=postmaster@guengel.ch
        Validity
            Not Before: Jan  6 18:02:59 2018 GMT
            Not After : Feb 10 18:02:59 2019 GMT
        Subject: C=CH, ST=Thurgau, O=guengel.ch, CN=odin.kruemel.home/emailAddress=postmaster@guengel.ch
        Subject Public Key Info:
            Public Key Algorithm: rsaEncryption
                Public-Key: (2048 bit)
                Modulus:
                    00:c0:cd:b6:9f:90:1f:9d:d4:2a:43:bd:d8:48:ab:
                    44:56:21:05:a6:89:7e:8b:aa:ab:51:9f:72:ee:9a:
                    8a:36:79:70:21:40:a7:fc:ce:d1:17:07:91:c5:1c:
                    0c:c4:de:7b:02:7d:12:6e:0a:b2:af:a1:e1:7f:0c:
                    4a:b3:17:12:2b:07:e7:e7:cd:75:f6:5c:12:da:46:
                    9b:5b:ca:e1:e9:02:67:a9:c1:62:fb:cc:c4:d1:0c:
                    1f:f7:1d:57:51:1b:b3:b8:c9:06:21:ff:ad:a2:58:
                    ef:f4:0b:bf:50:bf:b1:0f:95:dd:81:18:72:60:9e:
                    11:d4:53:9f:53:1c:b5:48:8e:97:01:48:ad:f8:ac:
                    b9:fa:95:5a:58:97:8c:41:4a:36:ae:3a:05:08:76:
                    be:81:17:ed:a0:3c:80:6c:72:1e:5f:63:17:c1:77:
                    4a:f7:27:2c:83:27:f3:6b:95:ca:5d:91:51:87:89:
                    24:3e:01:df:50:d6:a6:1f:b6:54:0f:8c:27:c3:d6:
                    9c:34:22:7a:17:43:a9:8a:14:c0:b9:d3:c9:bc:7a:
                    9d:3a:43:15:d4:ef:de:d2:7e:5e:25:76:9c:33:b1:
                    14:ed:d0:33:73:99:8a:63:32:94:af:0b:5c:c1:0a:
                    13:0f:6f:30:72:2a:62:61:04:5f:fe:4e:b0:69:34:
                    ff:65
                Exponent: 65537 (0x10001)
        X509v3 extensions:
            X509v3 Basic Constraints: 
                CA:FALSE
            Netscape Comment: 
                OpenSSL Generated Certificate
            X509v3 Subject Key Identifier: 
                9D:FB:D8:84:CB:66:C9:9C:2E:3D:A9:63:6C:1B:F2:71:B9:84:4E:DA
            X509v3 Authority Key Identifier: 
                keyid:D6:88:F1:AA:C1:2B:09:8C:B8:5C:9D:CE:DF:57:39:62:26:10:20:90
                DirName:/C=CH/ST=Thurgau/L=Kefikon/O=guengel.ch/CN=CA guengel.ch/emailAddress=postmaster@guengel.ch
                serial:E5:25:3B:A6:77:BD:CB:FF

    Signature Algorithm: sha256WithRSAEncryption
         d1:24:2d:b8:a6:1e:57:06:5e:80:d3:75:5a:90:f9:40:32:d1:
         51:7a:80:8c:4c:e0:18:6e:62:9c:ab:c5:e2:1c:34:d4:ee:b3:
         82:ed:2c:73:8b:72:71:da:0c:31:21:b4:d8:06:dc:c7:24:7d:
         2e:26:7c:e9:e7:f1:bf:c9:9f:73:48:df:07:5f:02:c2:ed:b5:
         5f:8d:d7:94:93:c9:31:2a:9c:74:c7:37:96:15:a1:0c:e9:23:
         38:f4:44:a0:04:49:dd:55:7e:4f:87:24:9b:88:d6:cd:55:a4:
         90:b5:bf:3c:77:07:59:4d:2e:9f:0c:84:82:40:f4:47:0c:a5:
         77:eb:74:95:0e:ff:1c:39:69:22:b6:b8:79:ad:6a:ec:dd:14:
         70:d3:65:12:f7:5c:fd:12:b4:79:bc:d4:f9:4e:ca:4f:41:43:
         a4:1d:d2:59:74:91:f7:1f:d7:33:66:74:b1:69:b4:16:60:a7:
         c7:a9:52:d9:d7:4d:d6:63:4a:d9:3c:7a:99:1a:bf:20:9b:d3:
         02:cb:e4:20:eb:76:ca:36:40:d2:d6:20:a8:28:ca:ce:f5:2a:
         e5:2d:1b:a2:b3:27:7b:f3:8d:18:28:b7:02:d4:51:5a:1f:72:
         c4:12:af:f1:01:de:e6:b1:99:c4:d2:81:2a:08:cd:81:6f:63:
         ca:01:b8:74:e6:d1:b4:d0:62:31:89:4a:b8:6b:56:38:b1:57:
         5f:45:3e:aa:64:fd:ef:55:26:b6:ca:9f:d8:c3:b7:9e:d8:8d:
         ab:4a:02:57:89:d7:f9:fa:d9:22:45:a8:6b:fd:9a:e9:b3:d9:
         4e:95:54:88:5d:91:e3:73:40:f0:f9:8f:9a:97:d5:52:9f:30:
         73:5a:76:db:48:6b:83:aa:3a:57:87:9d:29:00:60:2b:02:af:
         67:16:1d:0d:74:28:a5:4c:1e:48:a5:f5:cc:05:7e:8e:b0:f6:
         bf:86:f7:60:ab:73:7a:78:f5:17:31:3c:70:2e:0b:f3:86:32:
         ac:d7:80:8b:42:69:b8:06:81:af:11:4c:94:75:ea:96:f2:70:
         60:5d:84:34:97:28:f6:f7:aa:3d:cd:15:fb:93:84:ea:ab:69:
         a2:1e:35:0c:c8:7c:61:ac:f2:d2:5e:de:7d:59:f9:1b:ea:81:
         22:96:90:3f:69:d9:62:ff:0a:57:9d:a2:78:ad:9a:2c:19:c1:
         ae:5a:aa:47:c7:f3:b1:d6:6e:83:d9:36:8a:10:9e:19:df:e6:
         12:18:27:c4:0c:0e:b0:28:1b:65:63:6b:56:4b:0d:58:8e:bc:
         d2:18:98:54:50:f6:30:a3:1d:42:ff:88:0e:d3:ee:44:d7:0b:
         e9:23:77:a3:8f:9e:2c:c1
-----BEGIN CERTIFICATE-----
MIIFkTCCA3mgAwIBAgICATcwDQYJKoZIhvcNAQELBQAwgYQxCzAJBgNVBAYTAkNI
MRAwDgYDVQQIEwdUaHVyZ2F1MRAwDgYDVQQHEwdLZWZpa29uMRMwEQYDVQQKEwpn
dWVuZ2VsLmNoMRYwFAYDVQQDEw1DQSBndWVuZ2VsLmNoMSQwIgYJKoZIhvcNAQkB
FhVwb3N0bWFzdGVyQGd1ZW5nZWwuY2gwHhcNMTgwMTA2MTgwMjU5WhcNMTkwMjEw
MTgwMjU5WjB2MQswCQYDVQQGEwJDSDEQMA4GA1UECBMHVGh1cmdhdTETMBEGA1UE
ChMKZ3VlbmdlbC5jaDEaMBgGA1UEAxMRb2Rpbi5rcnVlbWVsLmhvbWUxJDAiBgkq
hkiG9w0BCQEWFXBvc3RtYXN0ZXJAZ3VlbmdlbC5jaDCCASIwDQYJKoZIhvcNAQEB
BQADggEPADCCAQoCggEBAMDNtp+QH53UKkO92EirRFYhBaaJfouqq1Gfcu6aijZ5
cCFAp/zO0RcHkcUcDMTeewJ9Em4Ksq+h4X8MSrMXEisH5+fNdfZcEtpGm1vK4ekC
Z6nBYvvMxNEMH/cdV1Ebs7jJBiH/raJY7/QLv1C/sQ+V3YEYcmCeEdRTn1MctUiO
lwFIrfisufqVWliXjEFKNq46BQh2voEX7aA8gGxyHl9jF8F3SvcnLIMn82uVyl2R
UYeJJD4B31DWph+2VA+MJ8PWnDQiehdDqYoUwLnTybx6nTpDFdTv3tJ+XiV2nDOx
FO3QM3OZimMylK8LXMEKEw9vMHIqYmEEX/5OsGk0/2UCAwEAAaOCARgwggEUMAkG
A1UdEwQCMAAwLAYJYIZIAYb4QgENBB8WHU9wZW5TU0wgR2VuZXJhdGVkIENlcnRp
ZmljYXRlMB0GA1UdDgQWBBSd+9iEy2bJnC49qWNsG/JxuYRO2jCBuQYDVR0jBIGx
MIGugBTWiPGqwSsJjLhcnc7fVzliJhAgkKGBiqSBhzCBhDELMAkGA1UEBhMCQ0gx
EDAOBgNVBAgTB1RodXJnYXUxEDAOBgNVBAcTB0tlZmlrb24xEzARBgNVBAoTCmd1
ZW5nZWwuY2gxFjAUBgNVBAMTDUNBIGd1ZW5nZWwuY2gxJDAiBgkqhkiG9w0BCQEW
FXBvc3RtYXN0ZXJAZ3VlbmdlbC5jaIIJAOUlO6Z3vcv/MA0GCSqGSIb3DQEBCwUA
A4ICAQDRJC24ph5XBl6A03VakPlAMtFReoCMTOAYbmKcq8XiHDTU7rOC7Sxzi3Jx
2gwxIbTYBtzHJH0uJnzp5/G/yZ9zSN8HXwLC7bVfjdeUk8kxKpx0xzeWFaEM6SM4
9ESgBEndVX5PhySbiNbNVaSQtb88dwdZTS6fDISCQPRHDKV363SVDv8cOWkitrh5
rWrs3RRw02US91z9ErR5vNT5TspPQUOkHdJZdJH3H9czZnSxabQWYKfHqVLZ103W
Y0rZPHqZGr8gm9MCy+Qg63bKNkDS1iCoKMrO9SrlLRuisyd7840YKLcC1FFaH3LE
Eq/xAd7msZnE0oEqCM2Bb2PKAbh05tG00GIxiUq4a1Y4sVdfRT6qZP3vVSa2yp/Y
w7ee2I2rSgJXidf5+tkiRahr/Zrps9lOlVSIXZHjc0Dw+Y+al9VSnzBzWnbbSGuD
qjpXh50pAGArAq9nFh0NdCilTB5IpfXMBX6OsPa/hvdgq3N6ePUXMTxwLgvzhjKs
14CLQmm4BoGvEUyUdeqW8nBgXYQ0lyj296o9zRX7k4Tqq2miHjUMyHxhrPLSXt59
Wfkb6oEilpA/adli/wpXnaJ4rZosGcGuWqpHx/Ox1m6D2TaKEJ4Z3+YSGCfEDA6w
KBtlY2tWSw1YjrzSGJhUUPYwox1C/4gO0+5E1wvpI3ejj54swQ==
-----END CERTIFICATE-----
