Certificate:
    Data:
        Version: 3 (0x2)
        Serial Number:
            3c:2e:8d:f5:c9:39:d1:8b:9e:f0:bb:d9:8f:a3:b3:82:88:b9:1e:bc
        Signature Algorithm: sha256WithRSAEncryption
        Issuer: C=CH, ST=Thurgau, L=Kefikon, O=guengel.ch, CN=CA 2022/emailAddress=postmaster@guengel.ch
        Validity
            Not Before: Feb 11 14:00:11 2022 GMT
            Not After : Mar 18 14:00:11 2023 GMT
        Subject: C=CH, ST=Thurgau, O=guengel.ch, CN=optimusprime.kruemel.home/emailAddress=postmaster@guengel.ch
        Subject Public Key Info:
            Public Key Algorithm: rsaEncryption
                RSA Public-Key: (2048 bit)
                Modulus:
                    00:dc:ed:be:ea:15:25:fc:39:7c:32:75:40:3e:3d:
                    93:95:9a:2a:5a:7f:e9:d9:c6:c5:e7:ea:f3:07:ba:
                    bb:a0:07:3b:3b:af:bc:71:5d:82:b3:38:dc:dd:60:
                    f0:ca:8e:72:72:57:ff:94:7c:6f:63:2b:09:40:d5:
                    a5:bf:70:8f:a1:45:03:e6:7c:6c:10:97:c7:d1:2a:
                    b3:fc:d4:65:da:e2:10:64:e1:c1:a6:71:c9:f9:07:
                    7e:8a:1a:12:38:61:d0:0f:69:6c:32:bb:85:2c:84:
                    80:9a:70:81:53:ca:67:8b:d8:18:74:a2:85:89:84:
                    a7:b0:46:a1:77:77:27:5f:c7:ae:84:0c:9f:f7:dd:
                    92:22:23:5a:74:26:3d:8f:74:44:5e:09:d9:e5:87:
                    11:b1:6d:0d:3c:21:15:77:c9:db:96:ae:7e:98:a8:
                    fb:47:01:ff:f7:bc:dc:85:c6:6f:4e:dc:01:9b:be:
                    c0:03:46:93:07:5d:fb:3a:1f:91:53:4d:99:51:c2:
                    db:4b:c1:fe:8a:39:ff:da:9b:3e:99:6a:2f:cd:53:
                    e4:78:45:14:20:64:f1:f4:ee:08:eb:32:e3:94:b4:
                    07:90:87:8e:11:cd:be:b2:09:74:52:df:a8:54:12:
                    4e:c7:6d:0f:6e:de:73:b0:e8:a9:7d:42:ee:80:f8:
                    1b:a7
                Exponent: 65537 (0x10001)
        X509v3 extensions:
            X509v3 Basic Constraints: critical
                CA:FALSE
            X509v3 Key Usage: 
                Digital Signature, Key Encipherment, Key Agreement
            X509v3 Subject Key Identifier: 
                61:DC:82:9A:D4:C7:DB:4B:1C:1F:BA:C7:52:47:EF:D8:AA:16:57:A1
            X509v3 Authority Key Identifier: 
                keyid:22:20:0D:51:40:61:42:BE:DD:BA:D9:C9:C1:77:B6:93:28:C3:99:EC
                DirName:/C=CH/ST=Thurgau/L=Kefikon/O=guengel.ch/CN=CA 2022/emailAddress=postmaster@guengel.ch
                serial:6D:29:90:54:E9:17:E9:C2:6A:E6:52:AD:84:4E:30:8E:6E:57:FB:1C

            Netscape Cert Type: 
                SSL Client, SSL Server
            X509v3 Extended Key Usage: 
                TLS Web Server Authentication, TLS Web Client Authentication
    Signature Algorithm: sha256WithRSAEncryption
         46:c3:ab:cc:d9:0e:d0:64:01:a0:08:f0:88:42:86:03:52:0c:
         90:06:d8:5f:0f:40:94:7e:2a:69:e2:b9:c8:6a:ed:e4:b7:17:
         57:72:d8:27:09:c0:1e:0f:bf:e1:a8:34:32:99:a6:67:fa:5c:
         44:27:18:f6:a9:c6:46:10:c7:eb:08:e7:cc:86:42:ef:2b:53:
         ec:9a:69:f6:d5:84:3c:4a:70:0b:04:77:da:2e:47:ad:86:83:
         e6:79:af:65:6d:de:24:f4:02:ae:71:c3:53:1e:6b:66:f8:c5:
         b2:7c:25:3a:db:41:0f:31:77:b4:22:76:c7:ce:37:fa:42:55:
         51:ac:5b:df:b4:9f:cf:a9:c3:3f:92:6e:60:a3:73:67:51:74:
         a0:0c:bc:d5:6a:cd:cf:69:29:f0:d5:ad:3e:7e:d5:a6:ff:c8:
         81:6a:36:44:82:f2:2e:28:7b:7b:13:e6:35:c5:c0:d5:2d:10:
         c7:60:a3:25:5e:52:04:13:8e:89:66:ee:3d:5f:31:a8:f2:e5:
         c1:38:31:3f:35:54:d6:9e:d6:6c:d5:1e:e9:79:99:0d:c4:81:
         07:46:4c:d6:e6:3d:8b:39:43:e4:ce:27:4d:4b:b0:b7:0e:1a:
         d6:0c:14:6b:5e:ef:0e:53:a2:16:5a:9b:20:ef:59:b1:e6:80:
         1f:58:29:88:eb:97:88:b6:5a:b7:cd:58:a4:dd:95:43:e1:04:
         0a:c9:1e:14:fb:11:28:8c:8a:31:86:1c:f2:4c:af:a4:8a:c3:
         7f:c5:20:9e:12:eb:44:28:8b:46:24:95:ba:06:51:dc:35:d7:
         3a:c3:90:aa:01:27:03:f4:9d:ea:33:0f:6a:f0:ed:1c:3b:f8:
         36:6b:c4:3d:39:2c:73:a2:8e:a8:63:42:53:f7:f2:80:37:28:
         5d:5c:ce:72:22:d2:e3:01:90:6d:77:f0:3a:97:52:0f:72:df:
         6e:e5:b9:69:f1:1f:e8:e0:0a:17:05:4f:71:c1:1f:43:dd:9d:
         6e:22:d2:ed:5d:6b:77:d6:3b:8c:e5:1a:0b:64:6d:7d:5c:ce:
         20:68:18:b4:74:34:ee:5a:b1:eb:15:54:88:4e:f2:b9:70:28:
         68:ac:9f:19:b1:fd:95:b4:c5:44:b9:ea:a0:2e:c8:de:a7:21:
         7d:3d:96:bd:80:7e:80:79:45:e1:2b:88:1b:c1:e6:cc:19:95:
         4b:95:2d:5e:08:94:45:70:ec:e7:16:4a:cf:f4:9b:03:2b:cd:
         6b:6f:b1:7c:f7:9d:e8:a6:8e:59:dc:c3:3e:22:e0:f1:f5:32:
         c0:f8:1b:96:ec:98:42:3c:48:dd:36:ec:29:f1:6d:5a:b7:21:
         e8:ca:6c:55:36:ec:cb:5b
-----BEGIN CERTIFICATE-----
MIIFvDCCA6SgAwIBAgIUPC6N9ck50Yue8LvZj6Ozgoi5HrwwDQYJKoZIhvcNAQEL
BQAwfjELMAkGA1UEBhMCQ0gxEDAOBgNVBAgTB1RodXJnYXUxEDAOBgNVBAcTB0tl
Zmlrb24xEzARBgNVBAoTCmd1ZW5nZWwuY2gxEDAOBgNVBAMTB0NBIDIwMjIxJDAi
BgkqhkiG9w0BCQEWFXBvc3RtYXN0ZXJAZ3VlbmdlbC5jaDAeFw0yMjAyMTExNDAw
MTFaFw0yMzAzMTgxNDAwMTFaMH4xCzAJBgNVBAYTAkNIMRAwDgYDVQQIEwdUaHVy
Z2F1MRMwEQYDVQQKEwpndWVuZ2VsLmNoMSIwIAYDVQQDExlvcHRpbXVzcHJpbWUu
a3J1ZW1lbC5ob21lMSQwIgYJKoZIhvcNAQkBFhVwb3N0bWFzdGVyQGd1ZW5nZWwu
Y2gwggEiMA0GCSqGSIb3DQEBAQUAA4IBDwAwggEKAoIBAQDc7b7qFSX8OXwydUA+
PZOVmipaf+nZxsXn6vMHurugBzs7r7xxXYKzONzdYPDKjnJyV/+UfG9jKwlA1aW/
cI+hRQPmfGwQl8fRKrP81GXa4hBk4cGmccn5B36KGhI4YdAPaWwyu4UshICacIFT
ymeL2Bh0ooWJhKewRqF3dydfx66EDJ/33ZIiI1p0Jj2PdEReCdnlhxGxbQ08IRV3
yduWrn6YqPtHAf/3vNyFxm9O3AGbvsADRpMHXfs6H5FTTZlRwttLwf6KOf/amz6Z
ai/NU+R4RRQgZPH07gjrMuOUtAeQh44Rzb6yCXRS36hUEk7HbQ9u3nOw6Kl9Qu6A
+BunAgMBAAGjggEwMIIBLDAMBgNVHRMBAf8EAjAAMAsGA1UdDwQEAwIDqDAdBgNV
HQ4EFgQUYdyCmtTH20scH7rHUkfv2KoWV6Ewgb0GA1UdIwSBtTCBsoAUIiANUUBh
Qr7dutnJwXe2kyjDmeyhgYOkgYAwfjELMAkGA1UEBhMCQ0gxEDAOBgNVBAgTB1Ro
dXJnYXUxEDAOBgNVBAcTB0tlZmlrb24xEzARBgNVBAoTCmd1ZW5nZWwuY2gxEDAO
BgNVBAMTB0NBIDIwMjIxJDAiBgkqhkiG9w0BCQEWFXBvc3RtYXN0ZXJAZ3Vlbmdl
bC5jaIIUbSmQVOkX6cJq5lKthE4wjm5X+xwwEQYJYIZIAYb4QgEBBAQDAgbAMB0G
A1UdJQQWMBQGCCsGAQUFBwMBBggrBgEFBQcDAjANBgkqhkiG9w0BAQsFAAOCAgEA
RsOrzNkO0GQBoAjwiEKGA1IMkAbYXw9AlH4qaeK5yGrt5LcXV3LYJwnAHg+/4ag0
MpmmZ/pcRCcY9qnGRhDH6wjnzIZC7ytT7Jpp9tWEPEpwCwR32i5HrYaD5nmvZW3e
JPQCrnHDUx5rZvjFsnwlOttBDzF3tCJ2x843+kJVUaxb37Sfz6nDP5JuYKNzZ1F0
oAy81WrNz2kp8NWtPn7Vpv/IgWo2RILyLih7exPmNcXA1S0Qx2CjJV5SBBOOiWbu
PV8xqPLlwTgxPzVU1p7WbNUe6XmZDcSBB0ZM1uY9izlD5M4nTUuwtw4a1gwUa17v
DlOiFlqbIO9ZseaAH1gpiOuXiLZat81YpN2VQ+EECskeFPsRKIyKMYYc8kyvpIrD
f8UgnhLrRCiLRiSVugZR3DXXOsOQqgEnA/Sd6jMPavDtHDv4NmvEPTksc6KOqGNC
U/fygDcoXVzOciLS4wGQbXfwOpdSD3LfbuW5afEf6OAKFwVPccEfQ92dbiLS7V1r
d9Y7jOUaC2RtfVzOIGgYtHQ07lqx6xVUiE7yuXAoaKyfGbH9lbTFRLnqoC7I3qch
fT2WvYB+gHlF4SuIG8HmzBmVS5UtXgiURXDs5xZKz/SbAyvNa2+xfPed6KaOWdzD
PiLg8fUywPgbluyYQjxI3TbsKfFtWrch6MpsVTbsy1s=
-----END CERTIFICATE-----
