Certificate:
    Data:
        Version: 3 (0x2)
        Serial Number: 463 (0x1cf)
        Signature Algorithm: sha256WithRSAEncryption
        Issuer: C=CH, ST=Thurgau, L=Kefikon, O=guengel.ch, CN=CA guengel.ch/emailAddress=postmaster@guengel.ch
        Validity
            Not Before: Feb 11 07:07:11 2022 GMT
            Not After : Mar 18 07:07:11 2023 GMT
        Subject: C=CH, ST=Thurgau, O=guengel.ch, CN=optimusprime.kruemel.home/emailAddress=postmaster@guengel.ch
        Subject Public Key Info:
            Public Key Algorithm: rsaEncryption
                RSA Public-Key: (2048 bit)
                Modulus:
                    00:cb:9d:e9:d2:64:47:9a:3e:c5:45:b7:a1:fb:b5:
                    73:68:80:86:7a:c9:de:e2:67:29:9a:5e:d2:8c:3f:
                    92:5c:d6:9b:fb:81:82:23:53:ff:9a:92:95:95:b1:
                    6c:d9:a6:6f:fc:bb:c6:77:d6:a8:2f:78:0b:13:03:
                    bb:b4:a7:02:53:67:0e:db:0b:74:3f:bc:80:7d:e3:
                    4e:5a:7a:36:67:9b:c9:ed:37:40:cd:c8:a6:16:69:
                    8d:2e:5d:b0:7b:36:89:9e:cf:04:52:1b:e8:cd:20:
                    6e:e4:a8:c7:ba:3f:d8:d8:d3:bb:ac:24:17:9d:c8:
                    ab:f3:75:ae:32:2a:9c:c9:03:f7:ba:d1:21:93:29:
                    23:a2:ea:09:e3:0e:30:06:83:eb:87:e0:42:f2:bd:
                    e3:2e:aa:d7:f5:aa:da:f9:40:ce:9c:41:83:23:1a:
                    a8:f7:65:9c:db:04:7c:2b:6e:57:af:6f:ef:11:e4:
                    0d:e0:c1:b8:ce:d1:ce:45:8c:c4:67:da:77:e0:66:
                    4c:b0:5a:96:1e:25:b9:f0:b6:28:3d:c6:31:1c:7c:
                    2b:d6:db:2a:3e:22:7c:67:5a:60:de:7e:06:b4:87:
                    75:6c:dd:14:04:e3:45:04:d9:f6:70:dc:6f:c1:7c:
                    d6:8b:7e:e8:b9:c9:91:6a:9a:1c:96:11:ad:02:08:
                    de:db
                Exponent: 65537 (0x10001)
        X509v3 extensions:
            X509v3 Key Usage: 
                Digital Signature, Key Encipherment, Key Agreement
            X509v3 Basic Constraints: critical
                CA:FALSE
            Netscape Cert Type: 
                SSL Client, SSL Server
            X509v3 Extended Key Usage: 
                TLS Web Server Authentication, TLS Web Client Authentication
            X509v3 Subject Alternative Name: 
                DNS:optimusprime.kruemel.home
            X509v3 Subject Key Identifier: 
                02:E1:23:FB:8A:51:AC:55:15:BC:AC:00:3C:BD:76:D6:3B:AB:94:BA
            X509v3 Authority Key Identifier: 
                keyid:D6:88:F1:AA:C1:2B:09:8C:B8:5C:9D:CE:DF:57:39:62:26:10:20:90
                DirName:/C=CH/ST=Thurgau/L=Kefikon/O=guengel.ch/CN=CA guengel.ch/emailAddress=postmaster@guengel.ch
                serial:E5:25:3B:A6:77:BD:CB:FF

    Signature Algorithm: sha256WithRSAEncryption
         70:20:7b:05:9d:84:62:23:47:15:1e:8c:51:5b:8e:ae:81:44:
         f2:ec:6d:e3:2a:cf:fc:6a:d2:f9:d9:ab:3d:72:07:f9:76:63:
         0d:69:c1:ce:d5:01:5f:ac:60:dd:93:04:f1:c4:c1:ed:80:5a:
         af:b8:f6:c0:8f:6d:19:25:7d:b5:1a:f9:66:29:36:c0:3e:a8:
         dc:90:3c:97:f9:32:0f:55:37:4f:4c:73:a3:10:76:23:bd:12:
         92:63:b6:57:3b:79:fb:25:50:05:ed:ba:a1:c9:50:21:ba:9b:
         a0:e9:52:03:aa:7c:d0:ed:f5:8b:3a:6b:c0:ca:08:96:b1:f5:
         5a:4b:93:09:ef:f5:56:82:a8:c5:3e:6f:c8:ab:2c:ae:24:e0:
         2c:f0:65:60:cf:06:80:03:6c:2f:53:7a:7f:d1:29:b8:12:67:
         5f:28:ca:08:76:f7:e8:db:3f:aa:34:aa:aa:76:38:1c:91:a4:
         f7:b2:a2:86:79:87:b7:ea:65:e2:0d:41:84:b7:91:b7:19:be:
         e3:17:f3:c5:fd:07:6d:d4:52:fd:df:c4:e8:8e:b5:10:d6:b7:
         4d:80:b0:9b:e2:fc:1d:ba:65:66:0e:b1:d5:61:11:68:55:ff:
         2e:9c:87:27:1d:3a:e4:59:da:5d:c3:3e:d7:45:68:95:e4:06:
         cd:43:4f:ce:bc:d5:8d:96:90:8d:fb:fc:7d:cb:3a:d6:fd:10:
         5e:9d:22:b5:0c:10:57:cd:f7:c1:01:ee:a8:bb:87:4a:c4:c9:
         70:60:e0:8c:6e:e4:9a:6e:99:1b:c2:ae:97:37:e2:a3:07:16:
         5c:ab:4d:94:43:77:a4:57:5b:22:64:82:89:0a:7b:ff:46:c1:
         18:5c:6a:32:78:a0:43:24:28:ca:4c:bb:d4:59:b9:3d:71:b5:
         4b:e0:c6:a2:35:79:08:37:bb:61:28:0b:3e:a9:5d:6e:aa:25:
         e4:ca:52:d1:6b:f7:08:da:b1:e2:e4:de:40:c5:ff:66:01:ee:
         95:2a:74:93:6c:ef:43:51:80:f5:54:52:46:be:e7:02:0e:72:
         cc:bf:ca:5b:0e:e7:18:72:3a:be:54:d0:86:33:9c:48:90:70:
         cd:ca:ee:a6:b2:33:c3:6b:96:ce:54:18:98:65:ab:b2:d0:ef:
         3d:5c:4c:c6:77:ff:23:d3:dc:23:10:cc:1e:0d:23:16:11:00:
         c6:2c:0c:17:f0:9b:07:39:68:45:f4:93:1f:99:2a:a3:53:21:
         34:8a:ef:ad:a4:bf:b8:3a:ac:dd:ca:98:37:8b:cb:13:eb:13:
         be:c4:a8:3a:85:56:e7:af:32:22:d4:bb:22:9e:da:f3:72:9f:
         d2:0d:40:0f:34:51:c7:46
-----BEGIN CERTIFICATE-----
MIIF0zCCA7ugAwIBAgICAc8wDQYJKoZIhvcNAQELBQAwgYQxCzAJBgNVBAYTAkNI
MRAwDgYDVQQIEwdUaHVyZ2F1MRAwDgYDVQQHEwdLZWZpa29uMRMwEQYDVQQKEwpn
dWVuZ2VsLmNoMRYwFAYDVQQDEw1DQSBndWVuZ2VsLmNoMSQwIgYJKoZIhvcNAQkB
FhVwb3N0bWFzdGVyQGd1ZW5nZWwuY2gwHhcNMjIwMjExMDcwNzExWhcNMjMwMzE4
MDcwNzExWjB+MQswCQYDVQQGEwJDSDEQMA4GA1UECBMHVGh1cmdhdTETMBEGA1UE
ChMKZ3VlbmdlbC5jaDEiMCAGA1UEAxMZb3B0aW11c3ByaW1lLmtydWVtZWwuaG9t
ZTEkMCIGCSqGSIb3DQEJARYVcG9zdG1hc3RlckBndWVuZ2VsLmNoMIIBIjANBgkq
hkiG9w0BAQEFAAOCAQ8AMIIBCgKCAQEAy53p0mRHmj7FRbeh+7VzaICGesne4mcp
ml7SjD+SXNab+4GCI1P/mpKVlbFs2aZv/LvGd9aoL3gLEwO7tKcCU2cO2wt0P7yA
feNOWno2Z5vJ7TdAzcimFmmNLl2wezaJns8EUhvozSBu5KjHuj/Y2NO7rCQXncir
83WuMiqcyQP3utEhkykjouoJ4w4wBoPrh+BC8r3jLqrX9ara+UDOnEGDIxqo92Wc
2wR8K25Xr2/vEeQN4MG4ztHORYzEZ9p34GZMsFqWHiW58LYoPcYxHHwr1tsqPiJ8
Z1pg3n4GtId1bN0UBONFBNn2cNxvwXzWi37oucmRapoclhGtAgje2wIDAQABo4IB
UjCCAU4wCwYDVR0PBAQDAgOoMAwGA1UdEwEB/wQCMAAwEQYJYIZIAYb4QgEBBAQD
AgbAMB0GA1UdJQQWMBQGCCsGAQUFBwMBBggrBgEFBQcDAjAkBgNVHREEHTAbghlv
cHRpbXVzcHJpbWUua3J1ZW1lbC5ob21lMB0GA1UdDgQWBBQC4SP7ilGsVRW8rAA8
vXbWO6uUujCBuQYDVR0jBIGxMIGugBTWiPGqwSsJjLhcnc7fVzliJhAgkKGBiqSB
hzCBhDELMAkGA1UEBhMCQ0gxEDAOBgNVBAgTB1RodXJnYXUxEDAOBgNVBAcTB0tl
Zmlrb24xEzARBgNVBAoTCmd1ZW5nZWwuY2gxFjAUBgNVBAMTDUNBIGd1ZW5nZWwu
Y2gxJDAiBgkqhkiG9w0BCQEWFXBvc3RtYXN0ZXJAZ3VlbmdlbC5jaIIJAOUlO6Z3
vcv/MA0GCSqGSIb3DQEBCwUAA4ICAQBwIHsFnYRiI0cVHoxRW46ugUTy7G3jKs/8
atL52as9cgf5dmMNacHO1QFfrGDdkwTxxMHtgFqvuPbAj20ZJX21GvlmKTbAPqjc
kDyX+TIPVTdPTHOjEHYjvRKSY7ZXO3n7JVAF7bqhyVAhupug6VIDqnzQ7fWLOmvA
ygiWsfVaS5MJ7/VWgqjFPm/IqyyuJOAs8GVgzwaAA2wvU3p/0Sm4EmdfKMoIdvfo
2z+qNKqqdjgckaT3sqKGeYe36mXiDUGEt5G3Gb7jF/PF/Qdt1FL938TojrUQ1rdN
gLCb4vwdumVmDrHVYRFoVf8unIcnHTrkWdpdwz7XRWiV5AbNQ0/OvNWNlpCN+/x9
yzrW/RBenSK1DBBXzffBAe6ou4dKxMlwYOCMbuSabpkbwq6XN+KjBxZcq02UQ3ek
V1siZIKJCnv/RsEYXGoyeKBDJCjKTLvUWbk9cbVL4MaiNXkIN7thKAs+qV1uqiXk
ylLRa/cI2rHi5N5Axf9mAe6VKnSTbO9DUYD1VFJGvucCDnLMv8pbDucYcjq+VNCG
M5xIkHDNyu6msjPDa5bOVBiYZauy0O89XEzGd/8j09wjEMweDSMWEQDGLAwX8JsH
OWhF9JMfmSqjUyE0iu+tpL+4Oqzdypg3i8sT6xO+xKg6hVbnrzIi1Lsintrzcp/S
DUAPNFHHRg==
-----END CERTIFICATE-----
