Certificate:
    Data:
        Version: 3 (0x2)
        Serial Number:
            22:1d:3c:70:b4:46:3d:02:e5:fb:0e:ed:1f:b0:e1:93:f4:ab:71:bc
        Signature Algorithm: sha256WithRSAEncryption
        Issuer: C=CH, ST=Thurgau, L=Kefikon, O=guengel.ch, CN=CA 2022/emailAddress=postmaster@guengel.ch
        Validity
            Not Before: Feb 28 06:42:57 2023 GMT
            Not After : Apr  3 06:42:57 2024 GMT
        Subject: C=CH, ST=Thurgau, O=guengel.ch, CN=optimusprime.kruemel.home/emailAddress=postmaster@guengel.ch
        Subject Public Key Info:
            Public Key Algorithm: rsaEncryption
                RSA Public-Key: (2048 bit)
                Modulus:
                    00:bd:21:bf:81:55:30:64:d3:a0:e7:2f:79:e9:4f:
                    f9:62:76:59:e1:26:c6:b5:4c:27:07:8c:f4:07:f9:
                    e7:96:34:24:d0:7e:27:2f:d7:7e:73:de:1e:1c:1d:
                    46:6b:37:90:90:a4:83:9f:b1:ab:aa:ab:cc:c6:bb:
                    b5:06:6e:19:3d:45:52:9a:c6:4d:1c:49:d7:7d:41:
                    4c:5c:7f:10:97:98:bf:5d:b7:31:fd:e8:25:61:3c:
                    5e:10:0b:28:11:33:89:92:8d:c6:df:b1:38:23:85:
                    39:05:a0:25:ca:90:74:24:0c:58:f9:94:25:f5:49:
                    40:e8:a2:7c:be:d7:24:0c:83:a8:2e:82:14:ed:7a:
                    ae:a2:6a:82:0a:6e:6d:1c:80:40:70:58:ec:39:bb:
                    ac:c7:b0:59:87:ec:00:39:3f:ba:d6:78:bc:b1:e9:
                    9f:2d:54:4a:7d:65:4f:40:8b:b5:b0:45:3b:e2:3c:
                    f5:f0:30:fd:be:24:ef:37:b8:0f:df:a4:d6:83:05:
                    97:4f:7b:cf:99:90:b7:14:ed:a4:6d:e0:c9:72:15:
                    fb:f9:1b:ef:7c:df:f8:af:d7:ee:99:92:f8:40:e6:
                    10:d9:92:f7:43:eb:ce:97:f6:3c:c5:50:99:be:0c:
                    89:11:f6:1c:81:b3:a2:1a:15:0b:e9:55:f3:09:cf:
                    de:27
                Exponent: 65537 (0x10001)
        X509v3 extensions:
            X509v3 Basic Constraints: critical
                CA:FALSE
            X509v3 Key Usage: 
                Digital Signature, Key Encipherment, Key Agreement
            X509v3 Subject Key Identifier: 
                A1:B6:3F:D2:24:16:47:44:22:E9:AD:30:B0:A0:8E:AA:17:9E:E9:CD
            X509v3 Authority Key Identifier: 
                keyid:22:20:0D:51:40:61:42:BE:DD:BA:D9:C9:C1:77:B6:93:28:C3:99:EC
                DirName:/C=CH/ST=Thurgau/L=Kefikon/O=guengel.ch/CN=CA 2022/emailAddress=postmaster@guengel.ch
                serial:6D:29:90:54:E9:17:E9:C2:6A:E6:52:AD:84:4E:30:8E:6E:57:FB:1C

            Netscape Cert Type: 
                SSL Client, SSL Server
            X509v3 Extended Key Usage: 
                TLS Web Server Authentication, TLS Web Client Authentication
            X509v3 Subject Alternative Name: 
                DNS:optimusprime.kruemel.home
    Signature Algorithm: sha256WithRSAEncryption
         21:ac:58:14:34:63:2c:1e:d3:da:05:c9:bc:59:c4:e7:ac:da:
         b0:71:cf:37:4d:e5:7b:c0:24:03:11:64:05:61:90:9b:89:03:
         f7:c5:b6:98:a1:41:fc:8e:b0:60:6a:12:bf:49:59:be:66:cc:
         e9:e9:6d:95:95:88:48:a6:1c:f9:2a:92:40:da:2d:1f:6d:5a:
         84:4e:19:41:8b:d5:b4:c6:57:96:99:ca:b6:8e:cc:c2:46:cd:
         09:2c:7c:a8:33:72:22:b6:3c:e6:30:ff:bd:b3:4f:34:3c:f6:
         18:d8:b5:59:53:63:02:82:bc:c3:10:e9:34:a3:64:c6:01:24:
         77:ce:23:fc:7e:86:a4:d1:62:c2:10:c4:bb:22:99:2e:a5:fe:
         80:90:63:97:64:70:5b:39:c0:9f:54:a7:9d:58:4e:37:15:bd:
         a5:9c:eb:71:86:63:12:7e:b3:4d:5e:70:d3:1d:8d:fd:9b:bd:
         78:f6:78:87:e8:12:88:35:91:27:4f:d9:82:83:41:6a:d3:ab:
         32:2b:ee:93:1e:0d:ec:bc:24:b8:4d:35:7a:43:72:d4:0f:0f:
         13:f9:7d:1f:33:2e:4f:7d:ef:a7:35:8e:c5:30:04:ed:0f:fc:
         9f:3d:cf:5f:29:12:f6:1c:bb:f6:d9:fd:7f:60:66:d5:77:ac:
         d9:ed:7c:83:cd:4d:dc:17:4c:d0:fa:d3:88:08:c0:bf:e8:ec:
         39:61:7c:e0:55:e1:ca:06:b4:e9:b4:15:87:c9:ff:f1:e0:55:
         22:0b:2f:31:f2:f8:e1:32:c6:75:ef:53:b9:f2:42:5f:e8:c0:
         70:cc:4f:55:24:52:c6:e8:a7:5a:ee:92:18:ee:35:ff:cc:f9:
         48:04:04:f2:71:8e:ad:ba:67:79:34:0a:67:75:bb:5e:48:23:
         d5:3f:dc:28:59:9d:7b:27:5e:46:b0:fe:19:3b:fe:67:b6:93:
         53:75:51:bb:aa:96:55:0f:21:7c:13:37:42:e8:49:db:30:96:
         43:74:98:4b:33:a9:18:f8:be:91:35:54:2c:31:9e:9a:46:f6:
         14:b1:55:9f:5e:95:3f:f0:5c:b6:d6:6c:48:0e:16:75:a9:0f:
         04:a1:37:e0:7e:cd:9f:57:d4:49:14:7d:d7:67:31:d3:ab:6d:
         9a:ae:62:34:f3:b8:c4:2b:ae:a8:c7:de:cd:a2:07:5b:2e:19:
         65:64:ca:d0:2b:74:86:24:b9:37:e6:7e:10:b1:8e:94:3d:27:
         b9:30:88:d3:39:60:d1:8a:a6:48:d1:84:9e:a7:3b:80:e6:43:
         bf:23:33:f5:45:42:81:ab:51:61:03:ea:f1:43:54:ca:86:4c:
         be:b9:ab:b5:ca:50:83:a7
-----BEGIN CERTIFICATE-----
MIIF4jCCA8qgAwIBAgIUIh08cLRGPQLl+w7tH7Dhk/SrcbwwDQYJKoZIhvcNAQEL
BQAwfjELMAkGA1UEBhMCQ0gxEDAOBgNVBAgTB1RodXJnYXUxEDAOBgNVBAcTB0tl
Zmlrb24xEzARBgNVBAoTCmd1ZW5nZWwuY2gxEDAOBgNVBAMTB0NBIDIwMjIxJDAi
BgkqhkiG9w0BCQEWFXBvc3RtYXN0ZXJAZ3VlbmdlbC5jaDAeFw0yMzAyMjgwNjQy
NTdaFw0yNDA0MDMwNjQyNTdaMH4xCzAJBgNVBAYTAkNIMRAwDgYDVQQIEwdUaHVy
Z2F1MRMwEQYDVQQKEwpndWVuZ2VsLmNoMSIwIAYDVQQDExlvcHRpbXVzcHJpbWUu
a3J1ZW1lbC5ob21lMSQwIgYJKoZIhvcNAQkBFhVwb3N0bWFzdGVyQGd1ZW5nZWwu
Y2gwggEiMA0GCSqGSIb3DQEBAQUAA4IBDwAwggEKAoIBAQC9Ib+BVTBk06DnL3np
T/lidlnhJsa1TCcHjPQH+eeWNCTQficv135z3h4cHUZrN5CQpIOfsauqq8zGu7UG
bhk9RVKaxk0cSdd9QUxcfxCXmL9dtzH96CVhPF4QCygRM4mSjcbfsTgjhTkFoCXK
kHQkDFj5lCX1SUDoony+1yQMg6gughTteq6iaoIKbm0cgEBwWOw5u6zHsFmH7AA5
P7rWeLyx6Z8tVEp9ZU9Ai7WwRTviPPXwMP2+JO83uA/fpNaDBZdPe8+ZkLcU7aRt
4MlyFfv5G+983/iv1+6ZkvhA5hDZkvdD686X9jzFUJm+DIkR9hyBs6IaFQvpVfMJ
z94nAgMBAAGjggFWMIIBUjAMBgNVHRMBAf8EAjAAMAsGA1UdDwQEAwIDqDAdBgNV
HQ4EFgQUobY/0iQWR0Qi6a0wsKCOqhee6c0wgb0GA1UdIwSBtTCBsoAUIiANUUBh
Qr7dutnJwXe2kyjDmeyhgYOkgYAwfjELMAkGA1UEBhMCQ0gxEDAOBgNVBAgTB1Ro
dXJnYXUxEDAOBgNVBAcTB0tlZmlrb24xEzARBgNVBAoTCmd1ZW5nZWwuY2gxEDAO
BgNVBAMTB0NBIDIwMjIxJDAiBgkqhkiG9w0BCQEWFXBvc3RtYXN0ZXJAZ3Vlbmdl
bC5jaIIUbSmQVOkX6cJq5lKthE4wjm5X+xwwEQYJYIZIAYb4QgEBBAQDAgbAMB0G
A1UdJQQWMBQGCCsGAQUFBwMBBggrBgEFBQcDAjAkBgNVHREEHTAbghlvcHRpbXVz
cHJpbWUua3J1ZW1lbC5ob21lMA0GCSqGSIb3DQEBCwUAA4ICAQAhrFgUNGMsHtPa
Bcm8WcTnrNqwcc83TeV7wCQDEWQFYZCbiQP3xbaYoUH8jrBgahK/SVm+Zszp6W2V
lYhIphz5KpJA2i0fbVqEThlBi9W0xleWmcq2jszCRs0JLHyoM3IitjzmMP+9s080
PPYY2LVZU2MCgrzDEOk0o2TGASR3ziP8foak0WLCEMS7Ipkupf6AkGOXZHBbOcCf
VKedWE43Fb2lnOtxhmMSfrNNXnDTHY39m7149niH6BKINZEnT9mCg0Fq06syK+6T
Hg3svCS4TTV6Q3LUDw8T+X0fMy5Pfe+nNY7FMATtD/yfPc9fKRL2HLv22f1/YGbV
d6zZ7XyDzU3cF0zQ+tOICMC/6Ow5YXzgVeHKBrTptBWHyf/x4FUiCy8x8vjhMsZ1
71O58kJf6MBwzE9VJFLG6Kda7pIY7jX/zPlIBATycY6tumd5NApndbteSCPVP9wo
WZ17J15GsP4ZO/5ntpNTdVG7qpZVDyF8EzdC6EnbMJZDdJhLM6kY+L6RNVQsMZ6a
RvYUsVWfXpU/8Fy21mxIDhZ1qQ8EoTfgfs2fV9RJFH3XZzHTq22armI087jEK66o
x97NogdbLhllZMrQK3SGJLk35n4QsY6UPSe5MIjTOWDRiqZI0YSepzuA5kO/IzP1
RUKBq1FhA+rxQ1TKhky+uau1ylCDpw==
-----END CERTIFICATE-----
