Certificate:
    Data:
        Version: 3 (0x2)
        Serial Number: 378 (0x17a)
        Signature Algorithm: sha256WithRSAEncryption
        Issuer: C=CH, ST=Thurgau, L=Kefikon, O=guengel.ch, CN=CA guengel.ch/emailAddress=postmaster@guengel.ch
        Validity
            Not Before: Jan  3 10:08:53 2020 GMT
            Not After : Feb  6 10:08:53 2021 GMT
        Subject: C=CH, ST=Thurgau, O=guengel.ch, CN=optimusprime.kruemel.home/emailAddress=postmaster@guengel.ch
        Subject Public Key Info:
            Public Key Algorithm: rsaEncryption
                RSA Public-Key: (2048 bit)
                Modulus:
                    00:cb:9d:e9:d2:64:47:9a:3e:c5:45:b7:a1:fb:b5:
                    73:68:80:86:7a:c9:de:e2:67:29:9a:5e:d2:8c:3f:
                    92:5c:d6:9b:fb:81:82:23:53:ff:9a:92:95:95:b1:
                    6c:d9:a6:6f:fc:bb:c6:77:d6:a8:2f:78:0b:13:03:
                    bb:b4:a7:02:53:67:0e:db:0b:74:3f:bc:80:7d:e3:
                    4e:5a:7a:36:67:9b:c9:ed:37:40:cd:c8:a6:16:69:
                    8d:2e:5d:b0:7b:36:89:9e:cf:04:52:1b:e8:cd:20:
                    6e:e4:a8:c7:ba:3f:d8:d8:d3:bb:ac:24:17:9d:c8:
                    ab:f3:75:ae:32:2a:9c:c9:03:f7:ba:d1:21:93:29:
                    23:a2:ea:09:e3:0e:30:06:83:eb:87:e0:42:f2:bd:
                    e3:2e:aa:d7:f5:aa:da:f9:40:ce:9c:41:83:23:1a:
                    a8:f7:65:9c:db:04:7c:2b:6e:57:af:6f:ef:11:e4:
                    0d:e0:c1:b8:ce:d1:ce:45:8c:c4:67:da:77:e0:66:
                    4c:b0:5a:96:1e:25:b9:f0:b6:28:3d:c6:31:1c:7c:
                    2b:d6:db:2a:3e:22:7c:67:5a:60:de:7e:06:b4:87:
                    75:6c:dd:14:04:e3:45:04:d9:f6:70:dc:6f:c1:7c:
                    d6:8b:7e:e8:b9:c9:91:6a:9a:1c:96:11:ad:02:08:
                    de:db
                Exponent: 65537 (0x10001)
        X509v3 extensions:
            X509v3 Basic Constraints: 
                CA:FALSE
            Netscape Comment: 
                OpenSSL Generated Certificate
            X509v3 Subject Key Identifier: 
                02:E1:23:FB:8A:51:AC:55:15:BC:AC:00:3C:BD:76:D6:3B:AB:94:BA
            X509v3 Authority Key Identifier: 
                keyid:D6:88:F1:AA:C1:2B:09:8C:B8:5C:9D:CE:DF:57:39:62:26:10:20:90
                DirName:/C=CH/ST=Thurgau/L=Kefikon/O=guengel.ch/CN=CA guengel.ch/emailAddress=postmaster@guengel.ch
                serial:E5:25:3B:A6:77:BD:CB:FF

    Signature Algorithm: sha256WithRSAEncryption
         52:ab:63:c6:04:02:12:ef:17:55:e0:15:aa:40:ef:91:b5:db:
         2f:6d:05:5d:6c:41:91:46:f7:b2:2a:fb:d9:13:e9:8b:cc:8b:
         95:81:ca:67:22:42:e2:d8:4c:8f:e4:c5:1b:75:6c:42:f9:70:
         a9:39:b1:a4:0c:1c:20:0a:19:c6:13:5b:93:5e:9e:fe:f2:68:
         0f:70:80:be:a1:59:8c:f6:9a:ec:4c:bc:4d:cd:f3:8c:c9:ea:
         8d:92:ee:3e:a7:91:d9:de:fc:52:7f:6c:70:7e:94:00:dc:cd:
         42:04:d9:03:05:2c:df:dd:be:b5:aa:ac:75:84:f4:51:3d:46:
         99:ad:fc:4d:9c:93:6a:95:d1:d9:3c:35:28:27:dc:47:1d:46:
         d7:f2:0b:1e:23:21:72:25:31:eb:60:a8:f5:90:49:08:ff:ca:
         3a:9e:56:57:98:c5:f9:a0:50:8c:1b:dd:a6:69:3c:cd:01:ff:
         00:23:8b:b4:a5:cd:7f:1b:66:47:83:a0:74:57:1b:d6:33:05:
         8d:20:30:44:4d:18:3e:7b:10:e6:b5:a2:b4:24:80:07:12:aa:
         c6:cd:82:15:7f:0d:94:2e:d2:2f:65:1d:40:86:0e:84:06:a0:
         52:2d:8f:2b:98:be:b9:72:9b:e4:21:e2:66:e0:59:79:6a:9f:
         35:7a:80:c2:b6:7c:d5:ac:64:65:01:03:ba:04:4c:c4:31:6f:
         d9:72:b1:83:c1:a5:a3:5c:79:46:92:77:95:be:2e:90:df:76:
         ec:3b:e4:a4:cb:c4:36:38:1c:8a:e3:63:28:73:ba:c6:68:f9:
         f3:01:6c:cd:5e:97:e4:55:c2:ee:0a:5c:ae:56:cf:c9:b8:4e:
         ca:45:81:3b:90:96:65:0a:50:db:2f:d9:89:16:94:dd:ae:59:
         1e:80:ed:37:c8:c3:5a:3e:48:e0:01:fd:2a:c9:17:08:f0:66:
         36:91:4d:e1:3e:9e:87:0a:81:b7:8c:4d:8a:b5:de:16:7b:87:
         df:40:78:42:72:6c:86:3f:6f:07:9a:f6:50:20:f9:ed:c9:7a:
         f7:08:4c:1c:a0:46:ec:68:9d:19:35:97:e7:c9:bb:36:55:75:
         b7:02:fb:a4:63:7e:07:4f:2d:90:73:d2:e1:c3:56:0e:c7:78:
         0f:6f:ff:7a:93:c1:e4:6b:18:13:44:68:f2:85:ff:49:63:f2:
         e2:16:f0:67:e0:46:d9:09:83:eb:2c:b0:63:1d:f7:bd:8d:b6:
         49:2f:59:6b:ad:73:7d:c0:dc:32:cf:23:84:f4:dc:1f:9d:31:
         a5:d1:e8:c1:6e:da:cd:28:69:86:26:42:0a:59:27:fa:d8:c1:
         a4:3d:65:9e:32:2c:37:df
-----BEGIN CERTIFICATE-----
MIIFmTCCA4GgAwIBAgICAXowDQYJKoZIhvcNAQELBQAwgYQxCzAJBgNVBAYTAkNI
MRAwDgYDVQQIEwdUaHVyZ2F1MRAwDgYDVQQHEwdLZWZpa29uMRMwEQYDVQQKEwpn
dWVuZ2VsLmNoMRYwFAYDVQQDEw1DQSBndWVuZ2VsLmNoMSQwIgYJKoZIhvcNAQkB
FhVwb3N0bWFzdGVyQGd1ZW5nZWwuY2gwHhcNMjAwMTAzMTAwODUzWhcNMjEwMjA2
MTAwODUzWjB+MQswCQYDVQQGEwJDSDEQMA4GA1UECBMHVGh1cmdhdTETMBEGA1UE
ChMKZ3VlbmdlbC5jaDEiMCAGA1UEAxMZb3B0aW11c3ByaW1lLmtydWVtZWwuaG9t
ZTEkMCIGCSqGSIb3DQEJARYVcG9zdG1hc3RlckBndWVuZ2VsLmNoMIIBIjANBgkq
hkiG9w0BAQEFAAOCAQ8AMIIBCgKCAQEAy53p0mRHmj7FRbeh+7VzaICGesne4mcp
ml7SjD+SXNab+4GCI1P/mpKVlbFs2aZv/LvGd9aoL3gLEwO7tKcCU2cO2wt0P7yA
feNOWno2Z5vJ7TdAzcimFmmNLl2wezaJns8EUhvozSBu5KjHuj/Y2NO7rCQXncir
83WuMiqcyQP3utEhkykjouoJ4w4wBoPrh+BC8r3jLqrX9ara+UDOnEGDIxqo92Wc
2wR8K25Xr2/vEeQN4MG4ztHORYzEZ9p34GZMsFqWHiW58LYoPcYxHHwr1tsqPiJ8
Z1pg3n4GtId1bN0UBONFBNn2cNxvwXzWi37oucmRapoclhGtAgje2wIDAQABo4IB
GDCCARQwCQYDVR0TBAIwADAsBglghkgBhvhCAQ0EHxYdT3BlblNTTCBHZW5lcmF0
ZWQgQ2VydGlmaWNhdGUwHQYDVR0OBBYEFALhI/uKUaxVFbysADy9dtY7q5S6MIG5
BgNVHSMEgbEwga6AFNaI8arBKwmMuFydzt9XOWImECCQoYGKpIGHMIGEMQswCQYD
VQQGEwJDSDEQMA4GA1UECBMHVGh1cmdhdTEQMA4GA1UEBxMHS2VmaWtvbjETMBEG
A1UEChMKZ3VlbmdlbC5jaDEWMBQGA1UEAxMNQ0EgZ3VlbmdlbC5jaDEkMCIGCSqG
SIb3DQEJARYVcG9zdG1hc3RlckBndWVuZ2VsLmNoggkA5SU7pne9y/8wDQYJKoZI
hvcNAQELBQADggIBAFKrY8YEAhLvF1XgFapA75G12y9tBV1sQZFG97Iq+9kT6YvM
i5WBymciQuLYTI/kxRt1bEL5cKk5saQMHCAKGcYTW5Nenv7yaA9wgL6hWYz2muxM
vE3N84zJ6o2S7j6nkdne/FJ/bHB+lADczUIE2QMFLN/dvrWqrHWE9FE9Rpmt/E2c
k2qV0dk8NSgn3EcdRtfyCx4jIXIlMetgqPWQSQj/yjqeVleYxfmgUIwb3aZpPM0B
/wAji7SlzX8bZkeDoHRXG9YzBY0gMERNGD57EOa1orQkgAcSqsbNghV/DZQu0i9l
HUCGDoQGoFItjyuYvrlym+Qh4mbgWXlqnzV6gMK2fNWsZGUBA7oETMQxb9lysYPB
paNceUaSd5W+LpDfduw75KTLxDY4HIrjYyhzusZo+fMBbM1el+RVwu4KXK5Wz8m4
TspFgTuQlmUKUNsv2YkWlN2uWR6A7TfIw1o+SOAB/SrJFwjwZjaRTeE+nocKgbeM
TYq13hZ7h99AeEJybIY/bwea9lAg+e3JevcITBygRuxonRk1l+fJuzZVdbcC+6Rj
fgdPLZBz0uHDVg7HeA9v/3qTweRrGBNEaPKF/0lj8uIW8GfgRtkJg+sssGMd972N
tkkvWWutc33A3DLPI4T03B+dMaXR6MFu2s0oaYYmQgpZJ/rYwaQ9ZZ4yLDff
-----END CERTIFICATE-----
