Certificate:
    Data:
        Version: 3 (0x2)
        Serial Number: 312 (0x138)
    Signature Algorithm: sha256WithRSAEncryption
        Issuer: C=CH, ST=Thurgau, L=Kefikon, O=guengel.ch, CN=CA guengel.ch/emailAddress=postmaster@guengel.ch
        Validity
            Not Before: Jan  6 18:03:00 2018 GMT
            Not After : Feb 10 18:03:00 2019 GMT
        Subject: C=CH, ST=Thurgau, O=guengel.ch, CN=optimusprime.kruemel.home/emailAddress=postmaster@guengel.ch
        Subject Public Key Info:
            Public Key Algorithm: rsaEncryption
                Public-Key: (2048 bit)
                Modulus:
                    00:cb:9d:e9:d2:64:47:9a:3e:c5:45:b7:a1:fb:b5:
                    73:68:80:86:7a:c9:de:e2:67:29:9a:5e:d2:8c:3f:
                    92:5c:d6:9b:fb:81:82:23:53:ff:9a:92:95:95:b1:
                    6c:d9:a6:6f:fc:bb:c6:77:d6:a8:2f:78:0b:13:03:
                    bb:b4:a7:02:53:67:0e:db:0b:74:3f:bc:80:7d:e3:
                    4e:5a:7a:36:67:9b:c9:ed:37:40:cd:c8:a6:16:69:
                    8d:2e:5d:b0:7b:36:89:9e:cf:04:52:1b:e8:cd:20:
                    6e:e4:a8:c7:ba:3f:d8:d8:d3:bb:ac:24:17:9d:c8:
                    ab:f3:75:ae:32:2a:9c:c9:03:f7:ba:d1:21:93:29:
                    23:a2:ea:09:e3:0e:30:06:83:eb:87:e0:42:f2:bd:
                    e3:2e:aa:d7:f5:aa:da:f9:40:ce:9c:41:83:23:1a:
                    a8:f7:65:9c:db:04:7c:2b:6e:57:af:6f:ef:11:e4:
                    0d:e0:c1:b8:ce:d1:ce:45:8c:c4:67:da:77:e0:66:
                    4c:b0:5a:96:1e:25:b9:f0:b6:28:3d:c6:31:1c:7c:
                    2b:d6:db:2a:3e:22:7c:67:5a:60:de:7e:06:b4:87:
                    75:6c:dd:14:04:e3:45:04:d9:f6:70:dc:6f:c1:7c:
                    d6:8b:7e:e8:b9:c9:91:6a:9a:1c:96:11:ad:02:08:
                    de:db
                Exponent: 65537 (0x10001)
        X509v3 extensions:
            X509v3 Basic Constraints: 
                CA:FALSE
            Netscape Comment: 
                OpenSSL Generated Certificate
            X509v3 Subject Key Identifier: 
                02:E1:23:FB:8A:51:AC:55:15:BC:AC:00:3C:BD:76:D6:3B:AB:94:BA
            X509v3 Authority Key Identifier: 
                keyid:D6:88:F1:AA:C1:2B:09:8C:B8:5C:9D:CE:DF:57:39:62:26:10:20:90
                DirName:/C=CH/ST=Thurgau/L=Kefikon/O=guengel.ch/CN=CA guengel.ch/emailAddress=postmaster@guengel.ch
                serial:E5:25:3B:A6:77:BD:CB:FF

    Signature Algorithm: sha256WithRSAEncryption
         67:32:54:1c:ed:06:e7:40:08:41:c7:28:74:45:58:c3:13:ea:
         b9:c3:68:8d:a2:7f:c8:48:2e:f2:a3:ff:df:43:81:60:4b:af:
         ac:1a:ec:5a:0c:0e:a8:07:ea:4b:ae:e5:33:d3:b9:d8:2a:8f:
         cf:c9:e1:23:c3:d0:74:34:ef:12:d0:c8:f5:14:c8:50:ac:36:
         c9:ec:75:95:56:22:0b:03:84:c3:4d:50:c6:1f:b8:c3:9e:1f:
         26:fd:3e:c0:0a:d9:f0:3b:b1:12:61:35:12:38:0e:a5:a0:f7:
         7c:83:b2:41:35:94:5b:f0:a6:5d:d3:13:15:f1:a1:cc:59:c2:
         26:31:7b:04:51:ec:ed:df:f9:91:6b:a4:63:df:15:2d:df:05:
         3f:87:0d:25:3c:42:af:39:83:91:db:ca:16:d3:e0:26:46:7c:
         41:1c:c6:c7:4d:0b:48:26:b5:19:b0:6e:8f:c7:8d:c9:17:99:
         1f:ef:70:18:de:bd:70:d5:d9:b8:df:42:97:be:e8:ff:53:2e:
         ba:2b:e5:b4:9b:fc:f1:6a:9f:d2:92:27:22:24:e3:46:77:2c:
         17:e7:f1:b0:8b:e5:dc:5a:8c:e4:96:7a:81:98:4c:b8:8f:3d:
         d1:ec:9f:bf:3d:0d:ad:e8:b2:8c:e9:82:9e:65:cc:42:c4:66:
         e8:da:73:ac:c3:a3:65:25:a5:54:96:d7:bb:77:a5:1b:df:68:
         a4:10:75:ce:fa:e3:a1:22:ae:4f:c9:8f:dd:aa:66:9a:0b:b2:
         e7:3c:b7:c2:a3:1c:f5:ab:62:a9:d5:eb:69:2d:b7:1c:c1:3c:
         8a:e7:3c:16:99:fd:f4:8c:94:34:07:3a:14:4c:97:4c:48:55:
         38:d4:7b:de:e8:0b:1e:d6:70:ae:f4:d3:99:e6:2b:cb:5b:db:
         04:54:bf:c2:09:4a:a0:b0:9b:ad:0d:38:2c:47:c7:06:6b:35:
         09:6b:8b:ad:1e:f2:f9:3b:0e:a9:7a:e9:0b:27:46:22:aa:0a:
         1a:5c:77:e0:0d:93:23:de:dc:e4:d1:11:89:12:2e:c4:21:05:
         4b:c1:6f:1b:a5:3c:9f:46:45:78:9b:26:a4:78:00:35:f1:12:
         8d:1a:ab:b6:ca:58:28:ad:e6:6a:f4:45:f8:dc:eb:ed:b9:8a:
         ea:b9:ea:08:d8:04:1b:31:3c:ac:61:b3:44:b8:cc:a5:51:b0:
         f1:e4:39:53:31:29:61:c8:83:b2:fb:dd:e2:57:27:84:e3:88:
         5f:ef:a0:12:49:3d:b3:5c:47:e5:d6:5b:c3:4a:19:ce:d2:a3:
         56:b2:ec:d3:b4:c0:89:a9:6e:d7:8c:9b:c0:99:d3:92:59:83:
         33:26:ed:61:37:75:3f:d4
-----BEGIN CERTIFICATE-----
MIIFmTCCA4GgAwIBAgICATgwDQYJKoZIhvcNAQELBQAwgYQxCzAJBgNVBAYTAkNI
MRAwDgYDVQQIEwdUaHVyZ2F1MRAwDgYDVQQHEwdLZWZpa29uMRMwEQYDVQQKEwpn
dWVuZ2VsLmNoMRYwFAYDVQQDEw1DQSBndWVuZ2VsLmNoMSQwIgYJKoZIhvcNAQkB
FhVwb3N0bWFzdGVyQGd1ZW5nZWwuY2gwHhcNMTgwMTA2MTgwMzAwWhcNMTkwMjEw
MTgwMzAwWjB+MQswCQYDVQQGEwJDSDEQMA4GA1UECBMHVGh1cmdhdTETMBEGA1UE
ChMKZ3VlbmdlbC5jaDEiMCAGA1UEAxMZb3B0aW11c3ByaW1lLmtydWVtZWwuaG9t
ZTEkMCIGCSqGSIb3DQEJARYVcG9zdG1hc3RlckBndWVuZ2VsLmNoMIIBIjANBgkq
hkiG9w0BAQEFAAOCAQ8AMIIBCgKCAQEAy53p0mRHmj7FRbeh+7VzaICGesne4mcp
ml7SjD+SXNab+4GCI1P/mpKVlbFs2aZv/LvGd9aoL3gLEwO7tKcCU2cO2wt0P7yA
feNOWno2Z5vJ7TdAzcimFmmNLl2wezaJns8EUhvozSBu5KjHuj/Y2NO7rCQXncir
83WuMiqcyQP3utEhkykjouoJ4w4wBoPrh+BC8r3jLqrX9ara+UDOnEGDIxqo92Wc
2wR8K25Xr2/vEeQN4MG4ztHORYzEZ9p34GZMsFqWHiW58LYoPcYxHHwr1tsqPiJ8
Z1pg3n4GtId1bN0UBONFBNn2cNxvwXzWi37oucmRapoclhGtAgje2wIDAQABo4IB
GDCCARQwCQYDVR0TBAIwADAsBglghkgBhvhCAQ0EHxYdT3BlblNTTCBHZW5lcmF0
ZWQgQ2VydGlmaWNhdGUwHQYDVR0OBBYEFALhI/uKUaxVFbysADy9dtY7q5S6MIG5
BgNVHSMEgbEwga6AFNaI8arBKwmMuFydzt9XOWImECCQoYGKpIGHMIGEMQswCQYD
VQQGEwJDSDEQMA4GA1UECBMHVGh1cmdhdTEQMA4GA1UEBxMHS2VmaWtvbjETMBEG
A1UEChMKZ3VlbmdlbC5jaDEWMBQGA1UEAxMNQ0EgZ3VlbmdlbC5jaDEkMCIGCSqG
SIb3DQEJARYVcG9zdG1hc3RlckBndWVuZ2VsLmNoggkA5SU7pne9y/8wDQYJKoZI
hvcNAQELBQADggIBAGcyVBztBudACEHHKHRFWMMT6rnDaI2if8hILvKj/99DgWBL
r6wa7FoMDqgH6kuu5TPTudgqj8/J4SPD0HQ07xLQyPUUyFCsNsnsdZVWIgsDhMNN
UMYfuMOeHyb9PsAK2fA7sRJhNRI4DqWg93yDskE1lFvwpl3TExXxocxZwiYxewRR
7O3f+ZFrpGPfFS3fBT+HDSU8Qq85g5HbyhbT4CZGfEEcxsdNC0gmtRmwbo/HjckX
mR/vcBjevXDV2bjfQpe+6P9TLror5bSb/PFqn9KSJyIk40Z3LBfn8bCL5dxajOSW
eoGYTLiPPdHsn789Da3osozpgp5lzELEZujac6zDo2UlpVSW17t3pRvfaKQQdc76
46Eirk/Jj92qZpoLsuc8t8KjHPWrYqnV62kttxzBPIrnPBaZ/fSMlDQHOhRMl0xI
VTjUe97oCx7WcK7005nmK8tb2wRUv8IJSqCwm60NOCxHxwZrNQlri60e8vk7Dql6
6QsnRiKqChpcd+ANkyPe3OTREYkSLsQhBUvBbxulPJ9GRXibJqR4ADXxEo0aq7bK
WCit5mr0Rfjc6+25iuq56gjYBBsxPKxhs0S4zKVRsPHkOVMxKWHIg7L73eJXJ4Tj
iF/voBJJPbNcR+XWW8NKGc7So1ay7NO0wImpbteMm8CZ05JZgzMm7WE3dT/U
-----END CERTIFICATE-----
