Certificate:
    Data:
        Version: 3 (0x2)
        Serial Number: 351 (0x15f)
    Signature Algorithm: sha256WithRSAEncryption
        Issuer: C=CH, ST=Thurgau, L=Kefikon, O=guengel.ch, CN=CA guengel.ch/emailAddress=postmaster@guengel.ch
        Validity
            Not Before: Dec 29 14:40:03 2018 GMT
            Not After : Feb  2 14:40:03 2020 GMT
        Subject: C=CH, ST=Thurgau, O=guengel.ch, CN=optimusprime.kruemel.home/emailAddress=postmaster@guengel.ch
        Subject Public Key Info:
            Public Key Algorithm: rsaEncryption
                Public-Key: (2048 bit)
                Modulus:
                    00:cb:9d:e9:d2:64:47:9a:3e:c5:45:b7:a1:fb:b5:
                    73:68:80:86:7a:c9:de:e2:67:29:9a:5e:d2:8c:3f:
                    92:5c:d6:9b:fb:81:82:23:53:ff:9a:92:95:95:b1:
                    6c:d9:a6:6f:fc:bb:c6:77:d6:a8:2f:78:0b:13:03:
                    bb:b4:a7:02:53:67:0e:db:0b:74:3f:bc:80:7d:e3:
                    4e:5a:7a:36:67:9b:c9:ed:37:40:cd:c8:a6:16:69:
                    8d:2e:5d:b0:7b:36:89:9e:cf:04:52:1b:e8:cd:20:
                    6e:e4:a8:c7:ba:3f:d8:d8:d3:bb:ac:24:17:9d:c8:
                    ab:f3:75:ae:32:2a:9c:c9:03:f7:ba:d1:21:93:29:
                    23:a2:ea:09:e3:0e:30:06:83:eb:87:e0:42:f2:bd:
                    e3:2e:aa:d7:f5:aa:da:f9:40:ce:9c:41:83:23:1a:
                    a8:f7:65:9c:db:04:7c:2b:6e:57:af:6f:ef:11:e4:
                    0d:e0:c1:b8:ce:d1:ce:45:8c:c4:67:da:77:e0:66:
                    4c:b0:5a:96:1e:25:b9:f0:b6:28:3d:c6:31:1c:7c:
                    2b:d6:db:2a:3e:22:7c:67:5a:60:de:7e:06:b4:87:
                    75:6c:dd:14:04:e3:45:04:d9:f6:70:dc:6f:c1:7c:
                    d6:8b:7e:e8:b9:c9:91:6a:9a:1c:96:11:ad:02:08:
                    de:db
                Exponent: 65537 (0x10001)
        X509v3 extensions:
            X509v3 Basic Constraints: 
                CA:FALSE
            Netscape Comment: 
                OpenSSL Generated Certificate
            X509v3 Subject Key Identifier: 
                02:E1:23:FB:8A:51:AC:55:15:BC:AC:00:3C:BD:76:D6:3B:AB:94:BA
            X509v3 Authority Key Identifier: 
                keyid:D6:88:F1:AA:C1:2B:09:8C:B8:5C:9D:CE:DF:57:39:62:26:10:20:90
                DirName:/C=CH/ST=Thurgau/L=Kefikon/O=guengel.ch/CN=CA guengel.ch/emailAddress=postmaster@guengel.ch
                serial:E5:25:3B:A6:77:BD:CB:FF

    Signature Algorithm: sha256WithRSAEncryption
         bf:5f:05:27:f2:f4:0a:64:e9:aa:ab:79:ec:29:4d:5f:dd:6d:
         11:ff:54:15:10:47:1d:8e:21:f6:06:0e:4a:77:1e:7b:9f:21:
         e4:fb:52:5f:62:c9:e4:ab:59:d7:cd:23:14:c3:22:f0:59:99:
         fa:dd:5c:f7:44:5c:c8:43:db:e1:ae:b2:83:c4:c5:18:80:a9:
         30:24:9b:e5:05:ce:60:93:2e:e6:3f:6c:09:ed:58:73:5c:5e:
         b3:24:35:f1:f9:6a:08:34:8e:c0:59:4b:2e:0b:e7:74:17:37:
         48:99:42:71:5c:29:e9:f3:0c:e0:52:a5:df:a1:29:db:a3:c8:
         47:c9:d3:f4:1a:f2:e2:99:d4:27:eb:f1:6a:27:2e:9d:f1:be:
         24:2c:1f:d8:03:08:4e:57:e6:b7:e5:18:8f:a4:ce:e2:a9:cf:
         2d:0f:1a:71:72:23:01:07:62:96:4e:d0:81:dc:cf:c0:d8:3f:
         54:93:d1:1f:9c:22:2c:d3:a9:06:33:71:65:dd:56:f6:91:15:
         80:28:ea:84:ba:eb:74:7d:b2:51:c1:50:fb:cb:40:c3:e8:1d:
         dc:e6:5b:73:c1:bf:d0:18:23:f1:e7:6b:c3:45:03:f7:c7:fc:
         4e:20:7c:21:73:ed:32:75:c1:57:d5:90:d3:c8:57:29:cd:af:
         46:52:1f:63:49:ed:33:16:b3:b1:c9:b7:61:7a:08:60:dc:cd:
         65:28:a6:ae:c2:51:c2:ed:24:57:86:de:c8:e2:06:8e:26:2a:
         8d:47:83:5a:51:55:6f:17:1d:50:31:2c:6b:91:48:72:82:d4:
         59:36:75:ab:12:23:ae:de:6b:5b:27:db:2e:c0:19:f0:a0:fb:
         ea:6a:98:7f:a8:f8:fb:4d:04:d0:64:e1:bb:45:c0:b1:81:e2:
         9e:27:b0:87:fa:99:0b:1a:58:83:e4:f2:10:7c:e9:db:56:3b:
         82:1a:9d:85:68:f0:76:25:e5:d7:21:e1:dd:9c:48:06:16:d0:
         56:8f:fc:34:ff:0a:cf:01:2f:de:4a:e1:a4:c5:b6:74:24:6f:
         ee:b4:94:fd:ea:bf:2c:29:ee:a7:51:cd:6f:ba:29:07:6c:eb:
         85:ba:13:cd:7e:21:e8:25:1b:da:23:93:83:33:4b:0f:93:0a:
         12:05:71:6d:27:19:01:a4:72:8c:03:98:69:8e:1a:6d:da:75:
         37:e1:40:32:6d:58:90:0d:a4:8f:55:6d:05:03:3f:0b:a6:39:
         48:fc:98:92:37:e1:77:4b:bd:b1:6e:e7:3f:67:e6:2f:e6:e7:
         81:34:94:50:e6:ef:20:2f:91:2d:db:31:ba:1b:24:74:cd:0c:
         0b:ff:bf:42:4e:ce:be:1c
-----BEGIN CERTIFICATE-----
MIIFmTCCA4GgAwIBAgICAV8wDQYJKoZIhvcNAQELBQAwgYQxCzAJBgNVBAYTAkNI
MRAwDgYDVQQIEwdUaHVyZ2F1MRAwDgYDVQQHEwdLZWZpa29uMRMwEQYDVQQKEwpn
dWVuZ2VsLmNoMRYwFAYDVQQDEw1DQSBndWVuZ2VsLmNoMSQwIgYJKoZIhvcNAQkB
FhVwb3N0bWFzdGVyQGd1ZW5nZWwuY2gwHhcNMTgxMjI5MTQ0MDAzWhcNMjAwMjAy
MTQ0MDAzWjB+MQswCQYDVQQGEwJDSDEQMA4GA1UECBMHVGh1cmdhdTETMBEGA1UE
ChMKZ3VlbmdlbC5jaDEiMCAGA1UEAxMZb3B0aW11c3ByaW1lLmtydWVtZWwuaG9t
ZTEkMCIGCSqGSIb3DQEJARYVcG9zdG1hc3RlckBndWVuZ2VsLmNoMIIBIjANBgkq
hkiG9w0BAQEFAAOCAQ8AMIIBCgKCAQEAy53p0mRHmj7FRbeh+7VzaICGesne4mcp
ml7SjD+SXNab+4GCI1P/mpKVlbFs2aZv/LvGd9aoL3gLEwO7tKcCU2cO2wt0P7yA
feNOWno2Z5vJ7TdAzcimFmmNLl2wezaJns8EUhvozSBu5KjHuj/Y2NO7rCQXncir
83WuMiqcyQP3utEhkykjouoJ4w4wBoPrh+BC8r3jLqrX9ara+UDOnEGDIxqo92Wc
2wR8K25Xr2/vEeQN4MG4ztHORYzEZ9p34GZMsFqWHiW58LYoPcYxHHwr1tsqPiJ8
Z1pg3n4GtId1bN0UBONFBNn2cNxvwXzWi37oucmRapoclhGtAgje2wIDAQABo4IB
GDCCARQwCQYDVR0TBAIwADAsBglghkgBhvhCAQ0EHxYdT3BlblNTTCBHZW5lcmF0
ZWQgQ2VydGlmaWNhdGUwHQYDVR0OBBYEFALhI/uKUaxVFbysADy9dtY7q5S6MIG5
BgNVHSMEgbEwga6AFNaI8arBKwmMuFydzt9XOWImECCQoYGKpIGHMIGEMQswCQYD
VQQGEwJDSDEQMA4GA1UECBMHVGh1cmdhdTEQMA4GA1UEBxMHS2VmaWtvbjETMBEG
A1UEChMKZ3VlbmdlbC5jaDEWMBQGA1UEAxMNQ0EgZ3VlbmdlbC5jaDEkMCIGCSqG
SIb3DQEJARYVcG9zdG1hc3RlckBndWVuZ2VsLmNoggkA5SU7pne9y/8wDQYJKoZI
hvcNAQELBQADggIBAL9fBSfy9Apk6aqreewpTV/dbRH/VBUQRx2OIfYGDkp3Hnuf
IeT7Ul9iyeSrWdfNIxTDIvBZmfrdXPdEXMhD2+GusoPExRiAqTAkm+UFzmCTLuY/
bAntWHNcXrMkNfH5agg0jsBZSy4L53QXN0iZQnFcKenzDOBSpd+hKdujyEfJ0/Qa
8uKZ1Cfr8WonLp3xviQsH9gDCE5X5rflGI+kzuKpzy0PGnFyIwEHYpZO0IHcz8DY
P1ST0R+cIizTqQYzcWXdVvaRFYAo6oS663R9slHBUPvLQMPoHdzmW3PBv9AYI/Hn
a8NFA/fH/E4gfCFz7TJ1wVfVkNPIVynNr0ZSH2NJ7TMWs7HJt2F6CGDczWUopq7C
UcLtJFeG3sjiBo4mKo1Hg1pRVW8XHVAxLGuRSHKC1Fk2dasSI67ea1sn2y7AGfCg
++pqmH+o+PtNBNBk4btFwLGB4p4nsIf6mQsaWIPk8hB86dtWO4IanYVo8HYl5dch
4d2cSAYW0FaP/DT/Cs8BL95K4aTFtnQkb+60lP3qvywp7qdRzW+6KQds64W6E81+
IeglG9ojk4MzSw+TChIFcW0nGQGkcowDmGmOGm3adTfhQDJtWJANpI9VbQUDPwum
OUj8mJI34XdLvbFu5z9n5i/m54E0lFDm7yAvkS3bMbobJHTNDAv/v0JOzr4c
-----END CERTIFICATE-----
