Certificate:
    Data:
        Version: 3 (0x2)
        Serial Number:
            26:1b:a8:d4:a9:ff:ef:a2:8b:72:35:dd:8c:ca:bb:91:c8:3f:14:66
        Signature Algorithm: sha256WithRSAEncryption
        Issuer: C=CH, ST=Thurgau, L=Kefikon, O=guengel.ch, CN=CA 2022/emailAddress=postmaster@guengel.ch
        Validity
            Not Before: Feb 22 18:38:25 2022 GMT
            Not After : Mar 29 18:38:25 2023 GMT
        Subject: C=CH, ST=Thurgau, O=guengel.ch, CN=optimusprime.kruemel.home/emailAddress=postmaster@guengel.ch
        Subject Public Key Info:
            Public Key Algorithm: rsaEncryption
                RSA Public-Key: (2048 bit)
                Modulus:
                    00:bd:21:bf:81:55:30:64:d3:a0:e7:2f:79:e9:4f:
                    f9:62:76:59:e1:26:c6:b5:4c:27:07:8c:f4:07:f9:
                    e7:96:34:24:d0:7e:27:2f:d7:7e:73:de:1e:1c:1d:
                    46:6b:37:90:90:a4:83:9f:b1:ab:aa:ab:cc:c6:bb:
                    b5:06:6e:19:3d:45:52:9a:c6:4d:1c:49:d7:7d:41:
                    4c:5c:7f:10:97:98:bf:5d:b7:31:fd:e8:25:61:3c:
                    5e:10:0b:28:11:33:89:92:8d:c6:df:b1:38:23:85:
                    39:05:a0:25:ca:90:74:24:0c:58:f9:94:25:f5:49:
                    40:e8:a2:7c:be:d7:24:0c:83:a8:2e:82:14:ed:7a:
                    ae:a2:6a:82:0a:6e:6d:1c:80:40:70:58:ec:39:bb:
                    ac:c7:b0:59:87:ec:00:39:3f:ba:d6:78:bc:b1:e9:
                    9f:2d:54:4a:7d:65:4f:40:8b:b5:b0:45:3b:e2:3c:
                    f5:f0:30:fd:be:24:ef:37:b8:0f:df:a4:d6:83:05:
                    97:4f:7b:cf:99:90:b7:14:ed:a4:6d:e0:c9:72:15:
                    fb:f9:1b:ef:7c:df:f8:af:d7:ee:99:92:f8:40:e6:
                    10:d9:92:f7:43:eb:ce:97:f6:3c:c5:50:99:be:0c:
                    89:11:f6:1c:81:b3:a2:1a:15:0b:e9:55:f3:09:cf:
                    de:27
                Exponent: 65537 (0x10001)
        X509v3 extensions:
            X509v3 Basic Constraints: critical
                CA:FALSE
            X509v3 Key Usage: 
                Digital Signature, Key Encipherment, Key Agreement
            X509v3 Subject Key Identifier: 
                A1:B6:3F:D2:24:16:47:44:22:E9:AD:30:B0:A0:8E:AA:17:9E:E9:CD
            X509v3 Authority Key Identifier: 
                keyid:22:20:0D:51:40:61:42:BE:DD:BA:D9:C9:C1:77:B6:93:28:C3:99:EC
                DirName:/C=CH/ST=Thurgau/L=Kefikon/O=guengel.ch/CN=CA 2022/emailAddress=postmaster@guengel.ch
                serial:6D:29:90:54:E9:17:E9:C2:6A:E6:52:AD:84:4E:30:8E:6E:57:FB:1C

            Netscape Cert Type: 
                SSL Client, SSL Server
            X509v3 Extended Key Usage: 
                TLS Web Server Authentication, TLS Web Client Authentication
            X509v3 Subject Alternative Name: 
                DNS:optimusprime.kruemel.home
    Signature Algorithm: sha256WithRSAEncryption
         43:1e:a0:c4:d4:c6:c7:76:46:50:2d:e3:01:4d:ef:0e:7b:05:
         69:fe:a3:2a:4e:38:1b:20:8f:d8:46:39:77:ef:30:62:6f:d4:
         08:4a:68:0f:85:f5:6b:66:98:9c:c5:81:99:eb:d7:21:d3:03:
         6b:0e:57:8b:c7:0d:c2:32:2c:ca:8f:53:43:f9:1e:b1:f2:09:
         47:c2:5b:17:68:d1:b0:89:be:61:25:64:07:ce:34:5a:73:59:
         ba:0f:af:18:a5:8a:99:d4:60:46:5e:ca:2a:83:5f:4b:7a:cb:
         b8:37:50:14:55:71:21:85:5e:fc:b3:6e:96:10:95:ad:70:c1:
         50:74:b9:e3:a3:32:d8:db:7c:de:8a:99:7a:74:d5:68:bb:b5:
         cd:4e:a0:75:ba:cc:d0:0b:8b:57:c3:a2:c2:80:b1:51:91:69:
         8f:34:9a:9d:53:38:57:b0:83:cc:cc:07:9f:df:c4:36:66:3b:
         21:e7:4e:44:39:e4:26:97:46:e0:e6:85:e1:3c:72:a7:0f:9f:
         5a:dc:76:05:9f:57:91:45:a6:79:6f:d8:d6:ae:af:56:31:52:
         35:7c:12:46:a6:f6:ce:f7:0d:f8:37:ec:92:ca:93:83:0d:8b:
         eb:02:ed:a9:60:86:72:a9:bf:a3:f0:9d:2c:c8:af:28:78:40:
         bf:f5:c3:8a:6b:47:5c:e4:0e:1e:0a:5d:5f:bf:69:35:5d:16:
         0b:c4:9f:f9:88:48:86:09:11:ee:1e:c6:46:b0:46:5a:98:bb:
         18:92:0e:ca:31:85:20:5a:54:1b:be:a4:e2:05:f7:57:5e:76:
         63:08:8d:a4:44:25:39:74:81:e0:6d:5b:e0:5c:cb:ac:8a:85:
         c5:45:17:75:e0:d0:3b:b6:7b:96:e6:bf:dd:aa:47:cb:ec:8a:
         e4:f2:72:a9:1e:e9:da:14:38:da:3c:77:14:3e:27:d6:23:67:
         a3:19:cb:b6:3a:14:15:62:2e:aa:10:38:11:68:54:e6:8c:20:
         d8:93:7d:a4:bd:f8:9d:9d:f3:e6:8f:ea:cf:00:51:c1:10:c7:
         e9:d8:7d:42:b3:a5:bf:c2:d9:89:d7:27:8e:a9:31:a5:04:43:
         15:68:23:77:44:d4:59:16:5b:8a:13:8e:00:c4:ce:f3:76:1d:
         22:aa:5d:6c:68:d6:dc:a8:d1:f1:4b:f7:bd:90:1c:59:30:50:
         69:48:11:4d:c7:27:54:d0:7c:e9:77:b5:6f:2b:b0:5b:c2:35:
         38:b7:e3:12:cf:d8:33:db:4c:7e:b6:e4:5c:2a:05:f2:17:bf:
         a3:58:d6:bc:ae:65:44:f7:10:09:49:20:4e:9c:2d:ad:6a:37:
         6c:da:a6:ca:ff:a7:50:f4
-----BEGIN CERTIFICATE-----
MIIF4jCCA8qgAwIBAgIUJhuo1Kn/76KLcjXdjMq7kcg/FGYwDQYJKoZIhvcNAQEL
BQAwfjELMAkGA1UEBhMCQ0gxEDAOBgNVBAgTB1RodXJnYXUxEDAOBgNVBAcTB0tl
Zmlrb24xEzARBgNVBAoTCmd1ZW5nZWwuY2gxEDAOBgNVBAMTB0NBIDIwMjIxJDAi
BgkqhkiG9w0BCQEWFXBvc3RtYXN0ZXJAZ3VlbmdlbC5jaDAeFw0yMjAyMjIxODM4
MjVaFw0yMzAzMjkxODM4MjVaMH4xCzAJBgNVBAYTAkNIMRAwDgYDVQQIEwdUaHVy
Z2F1MRMwEQYDVQQKEwpndWVuZ2VsLmNoMSIwIAYDVQQDExlvcHRpbXVzcHJpbWUu
a3J1ZW1lbC5ob21lMSQwIgYJKoZIhvcNAQkBFhVwb3N0bWFzdGVyQGd1ZW5nZWwu
Y2gwggEiMA0GCSqGSIb3DQEBAQUAA4IBDwAwggEKAoIBAQC9Ib+BVTBk06DnL3np
T/lidlnhJsa1TCcHjPQH+eeWNCTQficv135z3h4cHUZrN5CQpIOfsauqq8zGu7UG
bhk9RVKaxk0cSdd9QUxcfxCXmL9dtzH96CVhPF4QCygRM4mSjcbfsTgjhTkFoCXK
kHQkDFj5lCX1SUDoony+1yQMg6gughTteq6iaoIKbm0cgEBwWOw5u6zHsFmH7AA5
P7rWeLyx6Z8tVEp9ZU9Ai7WwRTviPPXwMP2+JO83uA/fpNaDBZdPe8+ZkLcU7aRt
4MlyFfv5G+983/iv1+6ZkvhA5hDZkvdD686X9jzFUJm+DIkR9hyBs6IaFQvpVfMJ
z94nAgMBAAGjggFWMIIBUjAMBgNVHRMBAf8EAjAAMAsGA1UdDwQEAwIDqDAdBgNV
HQ4EFgQUobY/0iQWR0Qi6a0wsKCOqhee6c0wgb0GA1UdIwSBtTCBsoAUIiANUUBh
Qr7dutnJwXe2kyjDmeyhgYOkgYAwfjELMAkGA1UEBhMCQ0gxEDAOBgNVBAgTB1Ro
dXJnYXUxEDAOBgNVBAcTB0tlZmlrb24xEzARBgNVBAoTCmd1ZW5nZWwuY2gxEDAO
BgNVBAMTB0NBIDIwMjIxJDAiBgkqhkiG9w0BCQEWFXBvc3RtYXN0ZXJAZ3Vlbmdl
bC5jaIIUbSmQVOkX6cJq5lKthE4wjm5X+xwwEQYJYIZIAYb4QgEBBAQDAgbAMB0G
A1UdJQQWMBQGCCsGAQUFBwMBBggrBgEFBQcDAjAkBgNVHREEHTAbghlvcHRpbXVz
cHJpbWUua3J1ZW1lbC5ob21lMA0GCSqGSIb3DQEBCwUAA4ICAQBDHqDE1MbHdkZQ
LeMBTe8OewVp/qMqTjgbII/YRjl37zBib9QISmgPhfVrZpicxYGZ69ch0wNrDleL
xw3CMizKj1ND+R6x8glHwlsXaNGwib5hJWQHzjRac1m6D68YpYqZ1GBGXsoqg19L
esu4N1AUVXEhhV78s26WEJWtcMFQdLnjozLY23zeipl6dNVou7XNTqB1uszQC4tX
w6LCgLFRkWmPNJqdUzhXsIPMzAef38Q2Zjsh505EOeQml0bg5oXhPHKnD59a3HYF
n1eRRaZ5b9jWrq9WMVI1fBJGpvbO9w34N+ySypODDYvrAu2pYIZyqb+j8J0syK8o
eEC/9cOKa0dc5A4eCl1fv2k1XRYLxJ/5iEiGCRHuHsZGsEZamLsYkg7KMYUgWlQb
vqTiBfdXXnZjCI2kRCU5dIHgbVvgXMusioXFRRd14NA7tnuW5r/dqkfL7Irk8nKp
HunaFDjaPHcUPifWI2ejGcu2OhQVYi6qEDgRaFTmjCDYk32kvfidnfPmj+rPAFHB
EMfp2H1Cs6W/wtmJ1yeOqTGlBEMVaCN3RNRZFluKE44AxM7zdh0iql1saNbcqNHx
S/e9kBxZMFBpSBFNxydU0Hzpd7VvK7BbwjU4t+MSz9gz20x+tuRcKgXyF7+jWNa8
rmVE9xAJSSBOnC2tajds2qbK/6dQ9A==
-----END CERTIFICATE-----
