Certificate:
    Data:
        Version: 3 (0x2)
        Serial Number:
            3d:6c:2f:83:a7:e3:ba:7e:61:25:53:d9:d6:ed:21:1e:be:57:ca:d3
        Signature Algorithm: sha256WithRSAEncryption
        Issuer: C=CH, ST=Thurgau, L=Kefikon, O=guengel.ch, CN=CA 2022/emailAddress=postmaster@guengel.ch
        Validity
            Not Before: Jan  3 14:04:25 2025 GMT
            Not After : Feb  7 14:04:25 2026 GMT
        Subject: C=CH, ST=Thurgau, O=guengel.ch, CN=optimusprime.kruemel.home/emailAddress=postmaster@guengel.ch
        Subject Public Key Info:
            Public Key Algorithm: rsaEncryption
                Public-Key: (2048 bit)
                Modulus:
                    00:bd:21:bf:81:55:30:64:d3:a0:e7:2f:79:e9:4f:
                    f9:62:76:59:e1:26:c6:b5:4c:27:07:8c:f4:07:f9:
                    e7:96:34:24:d0:7e:27:2f:d7:7e:73:de:1e:1c:1d:
                    46:6b:37:90:90:a4:83:9f:b1:ab:aa:ab:cc:c6:bb:
                    b5:06:6e:19:3d:45:52:9a:c6:4d:1c:49:d7:7d:41:
                    4c:5c:7f:10:97:98:bf:5d:b7:31:fd:e8:25:61:3c:
                    5e:10:0b:28:11:33:89:92:8d:c6:df:b1:38:23:85:
                    39:05:a0:25:ca:90:74:24:0c:58:f9:94:25:f5:49:
                    40:e8:a2:7c:be:d7:24:0c:83:a8:2e:82:14:ed:7a:
                    ae:a2:6a:82:0a:6e:6d:1c:80:40:70:58:ec:39:bb:
                    ac:c7:b0:59:87:ec:00:39:3f:ba:d6:78:bc:b1:e9:
                    9f:2d:54:4a:7d:65:4f:40:8b:b5:b0:45:3b:e2:3c:
                    f5:f0:30:fd:be:24:ef:37:b8:0f:df:a4:d6:83:05:
                    97:4f:7b:cf:99:90:b7:14:ed:a4:6d:e0:c9:72:15:
                    fb:f9:1b:ef:7c:df:f8:af:d7:ee:99:92:f8:40:e6:
                    10:d9:92:f7:43:eb:ce:97:f6:3c:c5:50:99:be:0c:
                    89:11:f6:1c:81:b3:a2:1a:15:0b:e9:55:f3:09:cf:
                    de:27
                Exponent: 65537 (0x10001)
        X509v3 extensions:
            X509v3 Basic Constraints: critical
                CA:FALSE
            X509v3 Key Usage: 
                Digital Signature, Key Encipherment, Key Agreement
            X509v3 Subject Key Identifier: 
                A1:B6:3F:D2:24:16:47:44:22:E9:AD:30:B0:A0:8E:AA:17:9E:E9:CD
            X509v3 Authority Key Identifier: 
                keyid:22:20:0D:51:40:61:42:BE:DD:BA:D9:C9:C1:77:B6:93:28:C3:99:EC
                DirName:/C=CH/ST=Thurgau/L=Kefikon/O=guengel.ch/CN=CA 2022/emailAddress=postmaster@guengel.ch
                serial:6D:29:90:54:E9:17:E9:C2:6A:E6:52:AD:84:4E:30:8E:6E:57:FB:1C
            Netscape Cert Type: 
                SSL Client, SSL Server
            X509v3 Extended Key Usage: 
                TLS Web Server Authentication, TLS Web Client Authentication
            X509v3 Subject Alternative Name: 
                DNS:optimusprime.kruemel.home
    Signature Algorithm: sha256WithRSAEncryption
    Signature Value:
        ae:6a:ff:05:05:54:ba:ad:fa:93:f4:20:ff:47:f8:e0:24:15:
        0e:d4:2e:b8:43:69:6b:fc:3e:18:a8:a4:ea:12:91:5a:d6:bb:
        11:e6:da:ba:b2:04:9d:67:74:59:e1:07:31:dc:6e:cd:49:77:
        ad:95:51:68:21:7f:59:d6:d9:cf:55:c5:0c:32:c4:43:16:09:
        83:05:99:63:10:0a:05:b8:44:f2:45:5f:17:5d:e0:2a:72:fb:
        bb:c8:95:47:90:76:fd:d7:e8:a9:80:56:fa:c9:d2:b5:d5:c5:
        5f:32:85:48:a6:ec:1c:62:57:94:cb:ac:ba:1e:7e:29:b4:4e:
        60:46:8a:6c:07:f5:4d:18:ef:1e:ab:a3:88:85:44:26:d0:86:
        cc:f0:da:00:0e:5d:93:63:89:4d:23:e2:50:be:bd:5b:3d:66:
        da:1b:fc:7d:1b:e4:d6:02:a6:d7:32:19:12:84:52:86:bb:38:
        84:8b:42:f4:7c:9c:f3:95:8c:fc:3c:75:4b:7e:c5:17:09:a6:
        28:25:ab:f2:ed:83:85:6d:6f:2b:04:be:ae:72:41:19:cc:24:
        4d:2c:59:ba:60:65:67:4d:11:f4:05:82:2f:d1:e4:67:f4:59:
        37:3d:f9:4f:d9:17:90:4e:10:de:29:77:cf:c7:e1:85:69:64:
        5c:4b:7f:c7:dc:bf:3f:1c:2f:2e:a3:12:f8:52:9f:d5:70:e8:
        fe:d0:6c:c5:34:53:84:22:22:1f:b0:a8:b3:5e:91:a2:0b:e8:
        21:9d:b6:56:07:cc:64:a8:a2:82:71:b5:32:4e:46:30:09:88:
        20:45:ab:8c:4b:7c:54:02:d6:9b:7c:d5:6b:52:92:dd:7f:1f:
        e2:97:75:ba:df:91:fb:e7:55:10:e6:47:ce:33:5b:e4:61:f8:
        d3:15:23:fb:19:77:7b:e7:9d:b2:b5:8b:a1:80:66:01:2d:b3:
        87:15:50:c0:ce:99:d6:aa:8b:05:ad:1e:77:28:43:ff:9f:23:
        10:11:aa:d0:33:a7:60:32:2a:a0:d3:62:08:a6:12:ae:ce:cd:
        37:5a:d4:d7:96:c1:c5:9e:89:0b:0a:a5:e3:22:16:a5:37:a1:
        6d:1f:64:07:18:1c:6d:4f:c7:6b:c9:25:97:a9:fe:66:b7:01:
        a6:56:02:f2:73:70:23:ef:fd:c4:20:e7:21:de:90:fa:36:b4:
        3e:fd:17:63:bb:08:52:cf:5c:3e:f1:23:9c:ba:5c:df:db:75:
        9b:6e:b1:ad:00:6a:c4:3e:46:8c:4b:9e:87:d4:f1:6b:e9:93:
        95:d2:9a:22:51:ec:98:77:8f:71:f4:92:7b:d4:50:68:80:e8:
        32:a3:2f:b1:26:b7:51:89
-----BEGIN CERTIFICATE-----
MIIF4jCCA8qgAwIBAgIUPWwvg6fjun5hJVPZ1u0hHr5XytMwDQYJKoZIhvcNAQEL
BQAwfjELMAkGA1UEBhMCQ0gxEDAOBgNVBAgTB1RodXJnYXUxEDAOBgNVBAcTB0tl
Zmlrb24xEzARBgNVBAoTCmd1ZW5nZWwuY2gxEDAOBgNVBAMTB0NBIDIwMjIxJDAi
BgkqhkiG9w0BCQEWFXBvc3RtYXN0ZXJAZ3VlbmdlbC5jaDAeFw0yNTAxMDMxNDA0
MjVaFw0yNjAyMDcxNDA0MjVaMH4xCzAJBgNVBAYTAkNIMRAwDgYDVQQIEwdUaHVy
Z2F1MRMwEQYDVQQKEwpndWVuZ2VsLmNoMSIwIAYDVQQDExlvcHRpbXVzcHJpbWUu
a3J1ZW1lbC5ob21lMSQwIgYJKoZIhvcNAQkBFhVwb3N0bWFzdGVyQGd1ZW5nZWwu
Y2gwggEiMA0GCSqGSIb3DQEBAQUAA4IBDwAwggEKAoIBAQC9Ib+BVTBk06DnL3np
T/lidlnhJsa1TCcHjPQH+eeWNCTQficv135z3h4cHUZrN5CQpIOfsauqq8zGu7UG
bhk9RVKaxk0cSdd9QUxcfxCXmL9dtzH96CVhPF4QCygRM4mSjcbfsTgjhTkFoCXK
kHQkDFj5lCX1SUDoony+1yQMg6gughTteq6iaoIKbm0cgEBwWOw5u6zHsFmH7AA5
P7rWeLyx6Z8tVEp9ZU9Ai7WwRTviPPXwMP2+JO83uA/fpNaDBZdPe8+ZkLcU7aRt
4MlyFfv5G+983/iv1+6ZkvhA5hDZkvdD686X9jzFUJm+DIkR9hyBs6IaFQvpVfMJ
z94nAgMBAAGjggFWMIIBUjAMBgNVHRMBAf8EAjAAMAsGA1UdDwQEAwIDqDAdBgNV
HQ4EFgQUobY/0iQWR0Qi6a0wsKCOqhee6c0wgb0GA1UdIwSBtTCBsoAUIiANUUBh
Qr7dutnJwXe2kyjDmeyhgYOkgYAwfjELMAkGA1UEBhMCQ0gxEDAOBgNVBAgTB1Ro
dXJnYXUxEDAOBgNVBAcTB0tlZmlrb24xEzARBgNVBAoTCmd1ZW5nZWwuY2gxEDAO
BgNVBAMTB0NBIDIwMjIxJDAiBgkqhkiG9w0BCQEWFXBvc3RtYXN0ZXJAZ3Vlbmdl
bC5jaIIUbSmQVOkX6cJq5lKthE4wjm5X+xwwEQYJYIZIAYb4QgEBBAQDAgbAMB0G
A1UdJQQWMBQGCCsGAQUFBwMBBggrBgEFBQcDAjAkBgNVHREEHTAbghlvcHRpbXVz
cHJpbWUua3J1ZW1lbC5ob21lMA0GCSqGSIb3DQEBCwUAA4ICAQCuav8FBVS6rfqT
9CD/R/jgJBUO1C64Q2lr/D4YqKTqEpFa1rsR5tq6sgSdZ3RZ4Qcx3G7NSXetlVFo
IX9Z1tnPVcUMMsRDFgmDBZljEAoFuETyRV8XXeAqcvu7yJVHkHb91+ipgFb6ydK1
1cVfMoVIpuwcYleUy6y6Hn4ptE5gRopsB/VNGO8eq6OIhUQm0IbM8NoADl2TY4lN
I+JQvr1bPWbaG/x9G+TWAqbXMhkShFKGuziEi0L0fJzzlYz8PHVLfsUXCaYoJavy
7YOFbW8rBL6uckEZzCRNLFm6YGVnTRH0BYIv0eRn9Fk3PflP2ReQThDeKXfPx+GF
aWRcS3/H3L8/HC8uoxL4Up/VcOj+0GzFNFOEIiIfsKizXpGiC+ghnbZWB8xkqKKC
cbUyTkYwCYggRauMS3xUAtabfNVrUpLdfx/il3W635H751UQ5kfOM1vkYfjTFSP7
GXd7552ytYuhgGYBLbOHFVDAzpnWqosFrR53KEP/nyMQEarQM6dgMiqg02IIphKu
zs03WtTXlsHFnokLCqXjIhalN6FtH2QHGBxtT8drySWXqf5mtwGmVgLyc3Aj7/3E
IOch3pD6NrQ+/RdjuwhSz1w+8SOculzf23WbbrGtAGrEPkaMS56H1PFr6ZOV0poi
UeyYd49x9JJ71FBogOgyoy+xJrdRiQ==
-----END CERTIFICATE-----
