Certificate:
    Data:
        Version: 3 (0x2)
        Serial Number: 434 (0x1b2)
        Signature Algorithm: sha256WithRSAEncryption
        Issuer: C=CH, ST=Thurgau, L=Kefikon, O=guengel.ch, CN=CA guengel.ch/emailAddress=postmaster@guengel.ch
        Validity
            Not Before: Feb  6 15:17:56 2021 GMT
            Not After : Mar 13 15:17:56 2022 GMT
        Subject: C=CH, ST=Thurgau, O=guengel.ch, CN=optimusprime.kruemel.home/emailAddress=postmaster@guengel.ch
        Subject Public Key Info:
            Public Key Algorithm: rsaEncryption
                RSA Public-Key: (2048 bit)
                Modulus:
                    00:cb:9d:e9:d2:64:47:9a:3e:c5:45:b7:a1:fb:b5:
                    73:68:80:86:7a:c9:de:e2:67:29:9a:5e:d2:8c:3f:
                    92:5c:d6:9b:fb:81:82:23:53:ff:9a:92:95:95:b1:
                    6c:d9:a6:6f:fc:bb:c6:77:d6:a8:2f:78:0b:13:03:
                    bb:b4:a7:02:53:67:0e:db:0b:74:3f:bc:80:7d:e3:
                    4e:5a:7a:36:67:9b:c9:ed:37:40:cd:c8:a6:16:69:
                    8d:2e:5d:b0:7b:36:89:9e:cf:04:52:1b:e8:cd:20:
                    6e:e4:a8:c7:ba:3f:d8:d8:d3:bb:ac:24:17:9d:c8:
                    ab:f3:75:ae:32:2a:9c:c9:03:f7:ba:d1:21:93:29:
                    23:a2:ea:09:e3:0e:30:06:83:eb:87:e0:42:f2:bd:
                    e3:2e:aa:d7:f5:aa:da:f9:40:ce:9c:41:83:23:1a:
                    a8:f7:65:9c:db:04:7c:2b:6e:57:af:6f:ef:11:e4:
                    0d:e0:c1:b8:ce:d1:ce:45:8c:c4:67:da:77:e0:66:
                    4c:b0:5a:96:1e:25:b9:f0:b6:28:3d:c6:31:1c:7c:
                    2b:d6:db:2a:3e:22:7c:67:5a:60:de:7e:06:b4:87:
                    75:6c:dd:14:04:e3:45:04:d9:f6:70:dc:6f:c1:7c:
                    d6:8b:7e:e8:b9:c9:91:6a:9a:1c:96:11:ad:02:08:
                    de:db
                Exponent: 65537 (0x10001)
        X509v3 extensions:
            X509v3 Key Usage: 
                Digital Signature, Key Encipherment, Key Agreement
            X509v3 Basic Constraints: critical
                CA:FALSE
            Netscape Cert Type: 
                SSL Client, SSL Server
            X509v3 Extended Key Usage: 
                TLS Web Server Authentication, TLS Web Client Authentication
            X509v3 Subject Alternative Name: 
                DNS:optimusprime.kruemel.home
            X509v3 Subject Key Identifier: 
                02:E1:23:FB:8A:51:AC:55:15:BC:AC:00:3C:BD:76:D6:3B:AB:94:BA
            X509v3 Authority Key Identifier: 
                keyid:D6:88:F1:AA:C1:2B:09:8C:B8:5C:9D:CE:DF:57:39:62:26:10:20:90
                DirName:/C=CH/ST=Thurgau/L=Kefikon/O=guengel.ch/CN=CA guengel.ch/emailAddress=postmaster@guengel.ch
                serial:E5:25:3B:A6:77:BD:CB:FF

    Signature Algorithm: sha256WithRSAEncryption
         24:a5:09:fb:82:53:2c:1f:c3:39:7d:4d:34:63:55:48:21:87:
         ac:f1:14:ed:25:d1:74:e3:53:92:8f:1b:f7:53:00:c8:9c:55:
         32:7e:b2:a7:ee:b8:6a:23:1d:d2:54:d6:7a:1e:48:63:f2:63:
         4f:5b:7b:b0:e4:f6:48:12:2c:bd:54:12:31:65:f5:29:e7:42:
         fb:19:4f:74:26:17:bf:e5:64:58:b5:82:aa:9c:49:73:61:11:
         e4:7e:d4:ba:a4:85:1c:70:17:f6:67:47:48:05:b1:7d:4a:8b:
         1d:1a:c3:8c:0c:b3:92:1a:21:f6:37:35:e7:65:a5:14:e9:82:
         6e:04:3d:f6:3f:47:71:80:73:b8:75:80:52:ff:b1:65:c6:10:
         b2:0c:34:80:28:ff:02:c4:d7:b1:3b:32:cf:21:33:47:3a:5e:
         1a:05:57:b9:7c:c4:27:f3:12:03:45:87:78:b2:80:6e:a3:d8:
         fc:b0:28:73:fb:f7:20:90:4b:16:66:9d:9b:f5:fb:a3:d5:c1:
         59:a0:4d:65:49:26:0e:1b:a4:aa:ce:5a:20:f3:9f:54:d8:8f:
         6b:8d:01:c9:5d:64:dd:5d:3e:de:41:96:77:99:94:25:72:54:
         31:6d:ba:60:fb:ef:39:72:0a:aa:69:d2:90:8e:12:ce:cb:05:
         fc:d4:23:29:65:d9:35:f0:7b:29:f2:ed:59:e0:94:19:b4:67:
         31:ab:8f:9f:81:bd:ca:a8:81:81:13:2e:b6:03:60:32:4b:59:
         c5:97:33:c7:2d:b3:19:4a:38:14:6c:d5:3b:b1:1e:09:db:6a:
         74:b6:bc:23:ed:5c:70:7e:7f:31:61:ad:25:18:58:07:3b:63:
         8a:68:65:93:fb:72:ad:34:d9:c6:e1:4f:1c:5e:f2:5a:4e:88:
         b0:56:c4:01:33:8b:af:08:20:f5:3c:c9:74:36:2e:68:f7:4e:
         8b:f4:ef:9a:17:ae:13:79:1f:4a:43:21:91:b8:16:15:96:62:
         8a:28:65:69:2d:fc:ed:af:70:96:93:e4:4e:d4:a7:7d:f7:f5:
         f5:9f:39:e4:c4:0f:b0:e6:1c:d9:b6:f1:3c:d0:26:e7:db:ae:
         ab:af:d8:58:cd:16:d1:ff:ec:31:55:1c:e9:ab:31:f6:3a:c0:
         43:5f:35:63:b7:7e:86:be:c6:4d:5c:e2:6c:bf:b4:2e:5d:cb:
         65:b8:ad:30:94:71:c2:e8:5e:4f:27:d4:a4:e3:61:e9:c4:7d:
         97:01:d1:b2:33:2b:dd:b7:ed:4b:e2:87:90:ee:2e:34:2a:c6:
         2d:7e:4d:b5:e8:6c:75:27:a7:f4:00:09:e5:33:17:9f:93:6d:
         c3:f7:72:8f:1f:ec:5f:7c
-----BEGIN CERTIFICATE-----
MIIF0zCCA7ugAwIBAgICAbIwDQYJKoZIhvcNAQELBQAwgYQxCzAJBgNVBAYTAkNI
MRAwDgYDVQQIEwdUaHVyZ2F1MRAwDgYDVQQHEwdLZWZpa29uMRMwEQYDVQQKEwpn
dWVuZ2VsLmNoMRYwFAYDVQQDEw1DQSBndWVuZ2VsLmNoMSQwIgYJKoZIhvcNAQkB
FhVwb3N0bWFzdGVyQGd1ZW5nZWwuY2gwHhcNMjEwMjA2MTUxNzU2WhcNMjIwMzEz
MTUxNzU2WjB+MQswCQYDVQQGEwJDSDEQMA4GA1UECBMHVGh1cmdhdTETMBEGA1UE
ChMKZ3VlbmdlbC5jaDEiMCAGA1UEAxMZb3B0aW11c3ByaW1lLmtydWVtZWwuaG9t
ZTEkMCIGCSqGSIb3DQEJARYVcG9zdG1hc3RlckBndWVuZ2VsLmNoMIIBIjANBgkq
hkiG9w0BAQEFAAOCAQ8AMIIBCgKCAQEAy53p0mRHmj7FRbeh+7VzaICGesne4mcp
ml7SjD+SXNab+4GCI1P/mpKVlbFs2aZv/LvGd9aoL3gLEwO7tKcCU2cO2wt0P7yA
feNOWno2Z5vJ7TdAzcimFmmNLl2wezaJns8EUhvozSBu5KjHuj/Y2NO7rCQXncir
83WuMiqcyQP3utEhkykjouoJ4w4wBoPrh+BC8r3jLqrX9ara+UDOnEGDIxqo92Wc
2wR8K25Xr2/vEeQN4MG4ztHORYzEZ9p34GZMsFqWHiW58LYoPcYxHHwr1tsqPiJ8
Z1pg3n4GtId1bN0UBONFBNn2cNxvwXzWi37oucmRapoclhGtAgje2wIDAQABo4IB
UjCCAU4wCwYDVR0PBAQDAgOoMAwGA1UdEwEB/wQCMAAwEQYJYIZIAYb4QgEBBAQD
AgbAMB0GA1UdJQQWMBQGCCsGAQUFBwMBBggrBgEFBQcDAjAkBgNVHREEHTAbghlv
cHRpbXVzcHJpbWUua3J1ZW1lbC5ob21lMB0GA1UdDgQWBBQC4SP7ilGsVRW8rAA8
vXbWO6uUujCBuQYDVR0jBIGxMIGugBTWiPGqwSsJjLhcnc7fVzliJhAgkKGBiqSB
hzCBhDELMAkGA1UEBhMCQ0gxEDAOBgNVBAgTB1RodXJnYXUxEDAOBgNVBAcTB0tl
Zmlrb24xEzARBgNVBAoTCmd1ZW5nZWwuY2gxFjAUBgNVBAMTDUNBIGd1ZW5nZWwu
Y2gxJDAiBgkqhkiG9w0BCQEWFXBvc3RtYXN0ZXJAZ3VlbmdlbC5jaIIJAOUlO6Z3
vcv/MA0GCSqGSIb3DQEBCwUAA4ICAQAkpQn7glMsH8M5fU00Y1VIIYes8RTtJdF0
41OSjxv3UwDInFUyfrKn7rhqIx3SVNZ6Hkhj8mNPW3uw5PZIEiy9VBIxZfUp50L7
GU90Jhe/5WRYtYKqnElzYRHkftS6pIUccBf2Z0dIBbF9SosdGsOMDLOSGiH2NzXn
ZaUU6YJuBD32P0dxgHO4dYBS/7FlxhCyDDSAKP8CxNexOzLPITNHOl4aBVe5fMQn
8xIDRYd4soBuo9j8sChz+/cgkEsWZp2b9fuj1cFZoE1lSSYOG6Sqzlog859U2I9r
jQHJXWTdXT7eQZZ3mZQlclQxbbpg++85cgqqadKQjhLOywX81CMpZdk18Hsp8u1Z
4JQZtGcxq4+fgb3KqIGBEy62A2AyS1nFlzPHLbMZSjgUbNU7sR4J22p0trwj7Vxw
fn8xYa0lGFgHO2OKaGWT+3KtNNnG4U8cXvJaToiwVsQBM4uvCCD1PMl0Ni5o906L
9O+aF64TeR9KQyGRuBYVlmKKKGVpLfztr3CWk+RO1Kd99/X1nznkxA+w5hzZtvE8
0Cbn266rr9hYzRbR/+wxVRzpqzH2OsBDXzVjt36GvsZNXOJsv7QuXctluK0wlHHC
6F5PJ9Sk42HpxH2XAdGyMyvdt+1L4oeQ7i40KsYtfk216Gx1J6f0AAnlMxefk23D
93KPH+xffA==
-----END CERTIFICATE-----
