Certificate:
    Data:
        Version: 3 (0x2)
        Serial Number: 416 (0x1a0)
        Signature Algorithm: sha256WithRSAEncryption
        Issuer: C=CH, ST=Thurgau, L=Kefikon, O=guengel.ch, CN=CA guengel.ch/emailAddress=postmaster@guengel.ch
        Validity
            Not Before: Dec 24 08:03:26 2020 GMT
            Not After : Jan 28 08:03:26 2022 GMT
        Subject: C=CH, ST=Thurgau, O=guengel.ch, CN=optimusprime.kruemel.home/emailAddress=postmaster@guengel.ch
        Subject Public Key Info:
            Public Key Algorithm: rsaEncryption
                RSA Public-Key: (2048 bit)
                Modulus:
                    00:cb:9d:e9:d2:64:47:9a:3e:c5:45:b7:a1:fb:b5:
                    73:68:80:86:7a:c9:de:e2:67:29:9a:5e:d2:8c:3f:
                    92:5c:d6:9b:fb:81:82:23:53:ff:9a:92:95:95:b1:
                    6c:d9:a6:6f:fc:bb:c6:77:d6:a8:2f:78:0b:13:03:
                    bb:b4:a7:02:53:67:0e:db:0b:74:3f:bc:80:7d:e3:
                    4e:5a:7a:36:67:9b:c9:ed:37:40:cd:c8:a6:16:69:
                    8d:2e:5d:b0:7b:36:89:9e:cf:04:52:1b:e8:cd:20:
                    6e:e4:a8:c7:ba:3f:d8:d8:d3:bb:ac:24:17:9d:c8:
                    ab:f3:75:ae:32:2a:9c:c9:03:f7:ba:d1:21:93:29:
                    23:a2:ea:09:e3:0e:30:06:83:eb:87:e0:42:f2:bd:
                    e3:2e:aa:d7:f5:aa:da:f9:40:ce:9c:41:83:23:1a:
                    a8:f7:65:9c:db:04:7c:2b:6e:57:af:6f:ef:11:e4:
                    0d:e0:c1:b8:ce:d1:ce:45:8c:c4:67:da:77:e0:66:
                    4c:b0:5a:96:1e:25:b9:f0:b6:28:3d:c6:31:1c:7c:
                    2b:d6:db:2a:3e:22:7c:67:5a:60:de:7e:06:b4:87:
                    75:6c:dd:14:04:e3:45:04:d9:f6:70:dc:6f:c1:7c:
                    d6:8b:7e:e8:b9:c9:91:6a:9a:1c:96:11:ad:02:08:
                    de:db
                Exponent: 65537 (0x10001)
        X509v3 extensions:
            X509v3 Key Usage: 
                Digital Signature, Key Encipherment, Key Agreement
            X509v3 Basic Constraints: critical
                CA:FALSE
            Netscape Cert Type: 
                SSL Client, SSL Server
            X509v3 Extended Key Usage: 
                TLS Web Server Authentication, TLS Web Client Authentication
            X509v3 Subject Alternative Name: 
                DNS:optimusprime.kruemel.home
            X509v3 Subject Key Identifier: 
                02:E1:23:FB:8A:51:AC:55:15:BC:AC:00:3C:BD:76:D6:3B:AB:94:BA
            X509v3 Authority Key Identifier: 
                keyid:D6:88:F1:AA:C1:2B:09:8C:B8:5C:9D:CE:DF:57:39:62:26:10:20:90
                DirName:/C=CH/ST=Thurgau/L=Kefikon/O=guengel.ch/CN=CA guengel.ch/emailAddress=postmaster@guengel.ch
                serial:E5:25:3B:A6:77:BD:CB:FF

    Signature Algorithm: sha256WithRSAEncryption
         3d:12:2f:9f:88:b1:ee:48:a2:21:85:c0:55:61:b6:43:74:2e:
         7c:d9:44:5e:e1:1c:45:56:fc:54:79:a3:50:13:01:43:4f:d9:
         83:d5:93:c4:a2:8c:e5:c1:a3:e6:87:57:48:41:38:e3:ff:29:
         8e:47:8a:82:c3:1b:9f:18:1f:a8:2d:97:13:6f:1c:b7:ea:71:
         ac:c0:83:0c:76:1c:80:80:1f:40:86:b3:1b:80:4b:54:e2:5b:
         ca:bd:b6:ac:d2:a1:f4:2f:09:7b:2f:e9:f1:8a:b3:ba:85:de:
         b0:b1:d6:87:a5:26:11:7b:11:29:05:92:75:6f:12:ea:7c:27:
         f0:74:a2:7b:ae:5a:d1:87:13:ea:c7:d0:cd:b2:50:2b:7a:53:
         8a:fb:22:36:30:ac:29:ae:fc:e2:22:fa:45:7a:06:79:fc:2c:
         8c:09:b5:b6:42:ac:71:81:1c:ff:4b:01:c7:04:de:92:30:98:
         76:ee:dc:79:c3:c0:b8:ae:55:60:1a:71:8b:3a:aa:82:70:6b:
         4b:c3:cf:43:5e:a4:ca:6a:aa:db:be:69:1b:be:ec:16:e6:96:
         1b:91:37:e6:74:5f:08:f7:7f:d7:81:3e:26:8e:bd:c2:2f:c2:
         21:e1:8f:c8:a5:1f:e6:45:13:1f:ae:79:0f:72:d0:7b:66:cd:
         ca:a4:9c:b1:b1:a7:88:99:da:1d:c9:30:d4:09:8a:aa:c7:03:
         06:57:8a:1a:bc:87:c4:62:56:a5:c2:8a:0b:dc:23:a0:d2:67:
         25:8d:77:38:14:5d:4b:ad:e3:85:63:04:48:ff:c8:c1:85:c7:
         67:8b:17:06:24:7b:2c:62:f6:2c:bc:a1:03:9c:ff:3e:dc:04:
         af:21:5c:e2:1a:a1:f8:27:13:5a:24:f8:68:11:38:87:f4:4f:
         5e:8e:df:1a:b5:ac:27:b7:84:01:af:3c:9e:71:b7:b6:1a:7e:
         1c:aa:da:04:6f:95:ef:6f:ba:83:b2:b9:80:6c:8e:d9:3a:06:
         22:a1:99:98:e8:a0:86:da:1f:45:cd:7b:3a:09:af:a9:84:af:
         0e:dc:15:12:c1:0f:3a:84:ba:9d:40:c6:82:f8:a5:7a:7c:50:
         c6:d4:05:74:a3:58:e7:65:32:a2:59:1d:eb:94:45:1d:3a:75:
         9a:9c:f1:08:56:51:e7:0f:cb:92:ba:1f:86:b6:c2:85:bf:41:
         2a:0b:ee:a1:1d:da:6b:de:93:09:5c:5e:d1:20:ff:9d:56:1a:
         3c:c6:5b:32:28:69:8b:2e:1f:77:e0:85:f6:09:19:3f:11:b5:
         9e:05:80:8a:05:5d:50:c0:0c:2d:4b:d6:e3:a9:b8:4d:a8:da:
         b6:4f:8a:dd:46:58:40:ad
-----BEGIN CERTIFICATE-----
MIIF0zCCA7ugAwIBAgICAaAwDQYJKoZIhvcNAQELBQAwgYQxCzAJBgNVBAYTAkNI
MRAwDgYDVQQIEwdUaHVyZ2F1MRAwDgYDVQQHEwdLZWZpa29uMRMwEQYDVQQKEwpn
dWVuZ2VsLmNoMRYwFAYDVQQDEw1DQSBndWVuZ2VsLmNoMSQwIgYJKoZIhvcNAQkB
FhVwb3N0bWFzdGVyQGd1ZW5nZWwuY2gwHhcNMjAxMjI0MDgwMzI2WhcNMjIwMTI4
MDgwMzI2WjB+MQswCQYDVQQGEwJDSDEQMA4GA1UECBMHVGh1cmdhdTETMBEGA1UE
ChMKZ3VlbmdlbC5jaDEiMCAGA1UEAxMZb3B0aW11c3ByaW1lLmtydWVtZWwuaG9t
ZTEkMCIGCSqGSIb3DQEJARYVcG9zdG1hc3RlckBndWVuZ2VsLmNoMIIBIjANBgkq
hkiG9w0BAQEFAAOCAQ8AMIIBCgKCAQEAy53p0mRHmj7FRbeh+7VzaICGesne4mcp
ml7SjD+SXNab+4GCI1P/mpKVlbFs2aZv/LvGd9aoL3gLEwO7tKcCU2cO2wt0P7yA
feNOWno2Z5vJ7TdAzcimFmmNLl2wezaJns8EUhvozSBu5KjHuj/Y2NO7rCQXncir
83WuMiqcyQP3utEhkykjouoJ4w4wBoPrh+BC8r3jLqrX9ara+UDOnEGDIxqo92Wc
2wR8K25Xr2/vEeQN4MG4ztHORYzEZ9p34GZMsFqWHiW58LYoPcYxHHwr1tsqPiJ8
Z1pg3n4GtId1bN0UBONFBNn2cNxvwXzWi37oucmRapoclhGtAgje2wIDAQABo4IB
UjCCAU4wCwYDVR0PBAQDAgOoMAwGA1UdEwEB/wQCMAAwEQYJYIZIAYb4QgEBBAQD
AgbAMB0GA1UdJQQWMBQGCCsGAQUFBwMBBggrBgEFBQcDAjAkBgNVHREEHTAbghlv
cHRpbXVzcHJpbWUua3J1ZW1lbC5ob21lMB0GA1UdDgQWBBQC4SP7ilGsVRW8rAA8
vXbWO6uUujCBuQYDVR0jBIGxMIGugBTWiPGqwSsJjLhcnc7fVzliJhAgkKGBiqSB
hzCBhDELMAkGA1UEBhMCQ0gxEDAOBgNVBAgTB1RodXJnYXUxEDAOBgNVBAcTB0tl
Zmlrb24xEzARBgNVBAoTCmd1ZW5nZWwuY2gxFjAUBgNVBAMTDUNBIGd1ZW5nZWwu
Y2gxJDAiBgkqhkiG9w0BCQEWFXBvc3RtYXN0ZXJAZ3VlbmdlbC5jaIIJAOUlO6Z3
vcv/MA0GCSqGSIb3DQEBCwUAA4ICAQA9Ei+fiLHuSKIhhcBVYbZDdC582URe4RxF
VvxUeaNQEwFDT9mD1ZPEoozlwaPmh1dIQTjj/ymOR4qCwxufGB+oLZcTbxy36nGs
wIMMdhyAgB9AhrMbgEtU4lvKvbas0qH0Lwl7L+nxirO6hd6wsdaHpSYRexEpBZJ1
bxLqfCfwdKJ7rlrRhxPqx9DNslArelOK+yI2MKwprvziIvpFegZ5/CyMCbW2Qqxx
gRz/SwHHBN6SMJh27tx5w8C4rlVgGnGLOqqCcGtLw89DXqTKaqrbvmkbvuwW5pYb
kTfmdF8I93/XgT4mjr3CL8Ih4Y/IpR/mRRMfrnkPctB7Zs3KpJyxsaeImdodyTDU
CYqqxwMGV4oavIfEYlalwooL3COg0mcljXc4FF1LreOFYwRI/8jBhcdnixcGJHss
YvYsvKEDnP8+3ASvIVziGqH4JxNaJPhoETiH9E9ejt8atawnt4QBrzyecbe2Gn4c
qtoEb5Xvb7qDsrmAbI7ZOgYioZmY6KCG2h9FzXs6Ca+phK8O3BUSwQ86hLqdQMaC
+KV6fFDG1AV0o1jnZTKiWR3rlEUdOnWanPEIVlHnD8uSuh+GtsKFv0EqC+6hHdpr
3pMJXF7RIP+dVho8xlsyKGmLLh934IX2CRk/EbWeBYCKBV1QwAwtS9bjqbhNqNq2
T4rdRlhArQ==
-----END CERTIFICATE-----
