Certificate:
    Data:
        Version: 3 (0x2)
        Serial Number:
            47:25:0a:3c:08:c4:d0:e2:ea:8b:3f:2f:1c:1f:1e:15:aa:76:15:d2
        Signature Algorithm: sha256WithRSAEncryption
        Issuer: C=CH, ST=Thurgau, L=Kefikon, O=guengel.ch, CN=CA 2022/emailAddress=postmaster@guengel.ch
        Validity
            Not Before: Dec 30 08:44:37 2023 GMT
            Not After : Feb  2 08:44:37 2025 GMT
        Subject: C=CH, ST=Thurgau, O=guengel.ch, CN=optimusprime.kruemel.home/emailAddress=postmaster@guengel.ch
        Subject Public Key Info:
            Public Key Algorithm: rsaEncryption
                RSA Public-Key: (2048 bit)
                Modulus:
                    00:bd:21:bf:81:55:30:64:d3:a0:e7:2f:79:e9:4f:
                    f9:62:76:59:e1:26:c6:b5:4c:27:07:8c:f4:07:f9:
                    e7:96:34:24:d0:7e:27:2f:d7:7e:73:de:1e:1c:1d:
                    46:6b:37:90:90:a4:83:9f:b1:ab:aa:ab:cc:c6:bb:
                    b5:06:6e:19:3d:45:52:9a:c6:4d:1c:49:d7:7d:41:
                    4c:5c:7f:10:97:98:bf:5d:b7:31:fd:e8:25:61:3c:
                    5e:10:0b:28:11:33:89:92:8d:c6:df:b1:38:23:85:
                    39:05:a0:25:ca:90:74:24:0c:58:f9:94:25:f5:49:
                    40:e8:a2:7c:be:d7:24:0c:83:a8:2e:82:14:ed:7a:
                    ae:a2:6a:82:0a:6e:6d:1c:80:40:70:58:ec:39:bb:
                    ac:c7:b0:59:87:ec:00:39:3f:ba:d6:78:bc:b1:e9:
                    9f:2d:54:4a:7d:65:4f:40:8b:b5:b0:45:3b:e2:3c:
                    f5:f0:30:fd:be:24:ef:37:b8:0f:df:a4:d6:83:05:
                    97:4f:7b:cf:99:90:b7:14:ed:a4:6d:e0:c9:72:15:
                    fb:f9:1b:ef:7c:df:f8:af:d7:ee:99:92:f8:40:e6:
                    10:d9:92:f7:43:eb:ce:97:f6:3c:c5:50:99:be:0c:
                    89:11:f6:1c:81:b3:a2:1a:15:0b:e9:55:f3:09:cf:
                    de:27
                Exponent: 65537 (0x10001)
        X509v3 extensions:
            X509v3 Basic Constraints: critical
                CA:FALSE
            X509v3 Key Usage: 
                Digital Signature, Key Encipherment, Key Agreement
            X509v3 Subject Key Identifier: 
                A1:B6:3F:D2:24:16:47:44:22:E9:AD:30:B0:A0:8E:AA:17:9E:E9:CD
            X509v3 Authority Key Identifier: 
                keyid:22:20:0D:51:40:61:42:BE:DD:BA:D9:C9:C1:77:B6:93:28:C3:99:EC
                DirName:/C=CH/ST=Thurgau/L=Kefikon/O=guengel.ch/CN=CA 2022/emailAddress=postmaster@guengel.ch
                serial:6D:29:90:54:E9:17:E9:C2:6A:E6:52:AD:84:4E:30:8E:6E:57:FB:1C

            Netscape Cert Type: 
                SSL Client, SSL Server
            X509v3 Extended Key Usage: 
                TLS Web Server Authentication, TLS Web Client Authentication
            X509v3 Subject Alternative Name: 
                DNS:optimusprime.kruemel.home
    Signature Algorithm: sha256WithRSAEncryption
         ab:0c:91:42:dd:98:37:b4:92:31:f8:f1:e9:9c:03:b6:8a:b7:
         67:76:e7:9d:48:09:10:d6:da:6b:dc:c1:a7:6f:5e:17:1c:b5:
         5f:77:18:05:a2:ab:b0:28:11:74:a0:be:da:b9:a1:87:a2:29:
         7a:2e:ec:6e:87:b5:3a:35:a0:3d:c6:c5:56:f9:1a:f6:79:8a:
         86:fd:c5:cf:6d:f9:39:7d:9a:88:9f:ae:be:7c:7f:d9:52:49:
         38:17:e9:90:2b:d4:e6:85:90:62:4d:80:ba:1b:ea:73:bb:01:
         3b:84:df:bb:b6:84:4b:9f:58:d2:48:7c:0a:88:4d:ee:da:39:
         ee:a3:db:10:c8:31:7c:e8:36:dd:10:cd:09:86:62:49:bb:4e:
         c1:02:77:b1:75:26:7d:12:d9:f2:65:81:a6:8d:e5:79:20:0d:
         b6:73:ec:31:93:92:f4:4c:ab:b6:0f:08:3d:22:4a:02:87:15:
         ac:b7:5f:f9:fa:da:13:7b:10:d7:0e:67:1e:a8:a2:90:f0:8d:
         6b:42:e3:77:19:31:a7:78:fc:a3:b8:52:80:fb:de:d7:53:62:
         4d:19:b3:f9:f7:91:f1:12:f6:58:11:32:47:7e:9b:21:b4:7a:
         ac:d6:da:d4:5c:58:2d:84:91:ed:9d:87:94:cd:6a:b9:7a:b4:
         c5:34:bd:0c:6b:5c:ec:f7:0d:a0:d8:70:d5:56:b8:56:92:d1:
         1e:7e:11:08:0d:66:fe:c1:96:f6:4d:a3:03:2f:42:77:23:9c:
         a4:27:a5:3b:05:2d:4a:d5:fd:5f:5e:55:37:38:c9:a1:de:d3:
         0f:5e:98:c1:15:08:fe:ec:e4:b0:d1:26:dc:65:58:27:3f:7e:
         ee:89:8a:dc:a7:c6:63:83:8b:5b:18:6b:b9:55:d3:18:42:14:
         cd:26:74:e0:ed:5b:7f:55:95:28:b6:fe:9a:ed:61:aa:03:8e:
         c5:f5:58:16:a7:03:cc:5e:72:b4:ce:c3:be:e6:2f:df:3b:e1:
         63:72:5c:ae:20:34:20:1f:5e:96:83:5c:b0:2d:d1:de:7e:70:
         a0:87:b7:a3:a2:53:44:c2:68:ef:82:90:fc:3a:c1:cf:de:0b:
         8b:34:08:1b:57:d6:cd:44:7b:91:78:38:44:1b:40:74:74:55:
         a5:eb:81:48:9a:e6:04:72:e2:ef:c3:33:98:74:13:ca:0f:e7:
         7a:62:c5:d2:3e:a2:3d:4f:92:af:e8:c0:f1:84:23:ec:04:3f:
         ac:61:90:bf:3c:3d:40:20:ce:ec:89:cb:91:e0:db:a4:fc:ee:
         2b:90:b7:90:97:df:7e:3f:23:dd:14:ec:b2:64:c4:45:af:d8:
         fd:a8:b1:3a:e7:17:6d:07
-----BEGIN CERTIFICATE-----
MIIF4jCCA8qgAwIBAgIURyUKPAjE0OLqiz8vHB8eFap2FdIwDQYJKoZIhvcNAQEL
BQAwfjELMAkGA1UEBhMCQ0gxEDAOBgNVBAgTB1RodXJnYXUxEDAOBgNVBAcTB0tl
Zmlrb24xEzARBgNVBAoTCmd1ZW5nZWwuY2gxEDAOBgNVBAMTB0NBIDIwMjIxJDAi
BgkqhkiG9w0BCQEWFXBvc3RtYXN0ZXJAZ3VlbmdlbC5jaDAeFw0yMzEyMzAwODQ0
MzdaFw0yNTAyMDIwODQ0MzdaMH4xCzAJBgNVBAYTAkNIMRAwDgYDVQQIEwdUaHVy
Z2F1MRMwEQYDVQQKEwpndWVuZ2VsLmNoMSIwIAYDVQQDExlvcHRpbXVzcHJpbWUu
a3J1ZW1lbC5ob21lMSQwIgYJKoZIhvcNAQkBFhVwb3N0bWFzdGVyQGd1ZW5nZWwu
Y2gwggEiMA0GCSqGSIb3DQEBAQUAA4IBDwAwggEKAoIBAQC9Ib+BVTBk06DnL3np
T/lidlnhJsa1TCcHjPQH+eeWNCTQficv135z3h4cHUZrN5CQpIOfsauqq8zGu7UG
bhk9RVKaxk0cSdd9QUxcfxCXmL9dtzH96CVhPF4QCygRM4mSjcbfsTgjhTkFoCXK
kHQkDFj5lCX1SUDoony+1yQMg6gughTteq6iaoIKbm0cgEBwWOw5u6zHsFmH7AA5
P7rWeLyx6Z8tVEp9ZU9Ai7WwRTviPPXwMP2+JO83uA/fpNaDBZdPe8+ZkLcU7aRt
4MlyFfv5G+983/iv1+6ZkvhA5hDZkvdD686X9jzFUJm+DIkR9hyBs6IaFQvpVfMJ
z94nAgMBAAGjggFWMIIBUjAMBgNVHRMBAf8EAjAAMAsGA1UdDwQEAwIDqDAdBgNV
HQ4EFgQUobY/0iQWR0Qi6a0wsKCOqhee6c0wgb0GA1UdIwSBtTCBsoAUIiANUUBh
Qr7dutnJwXe2kyjDmeyhgYOkgYAwfjELMAkGA1UEBhMCQ0gxEDAOBgNVBAgTB1Ro
dXJnYXUxEDAOBgNVBAcTB0tlZmlrb24xEzARBgNVBAoTCmd1ZW5nZWwuY2gxEDAO
BgNVBAMTB0NBIDIwMjIxJDAiBgkqhkiG9w0BCQEWFXBvc3RtYXN0ZXJAZ3Vlbmdl
bC5jaIIUbSmQVOkX6cJq5lKthE4wjm5X+xwwEQYJYIZIAYb4QgEBBAQDAgbAMB0G
A1UdJQQWMBQGCCsGAQUFBwMBBggrBgEFBQcDAjAkBgNVHREEHTAbghlvcHRpbXVz
cHJpbWUua3J1ZW1lbC5ob21lMA0GCSqGSIb3DQEBCwUAA4ICAQCrDJFC3Zg3tJIx
+PHpnAO2irdnduedSAkQ1tpr3MGnb14XHLVfdxgFoquwKBF0oL7auaGHoil6Luxu
h7U6NaA9xsVW+Rr2eYqG/cXPbfk5fZqIn66+fH/ZUkk4F+mQK9TmhZBiTYC6G+pz
uwE7hN+7toRLn1jSSHwKiE3u2jnuo9sQyDF86DbdEM0JhmJJu07BAnexdSZ9Etny
ZYGmjeV5IA22c+wxk5L0TKu2Dwg9IkoChxWst1/5+toTexDXDmceqKKQ8I1rQuN3
GTGnePyjuFKA+97XU2JNGbP595HxEvZYETJHfpshtHqs1trUXFgthJHtnYeUzWq5
erTFNL0Ma1zs9w2g2HDVVrhWktEefhEIDWb+wZb2TaMDL0J3I5ykJ6U7BS1K1f1f
XlU3OMmh3tMPXpjBFQj+7OSw0SbcZVgnP37uiYrcp8Zjg4tbGGu5VdMYQhTNJnTg
7Vt/VZUotv6a7WGqA47F9VgWpwPMXnK0zsO+5i/fO+FjclyuIDQgH16Wg1ywLdHe
fnCgh7ejolNEwmjvgpD8OsHP3guLNAgbV9bNRHuReDhEG0B0dFWl64FImuYEcuLv
wzOYdBPKD+d6YsXSPqI9T5Kv6MDxhCPsBD+sYZC/PD1AIM7sicuR4Nuk/O4rkLeQ
l99+PyPdFOyyZMRFr9j9qLE65xdtBw==
-----END CERTIFICATE-----
