Certificate:
    Data:
        Version: 3 (0x2)
        Serial Number: 259 (0x103)
    Signature Algorithm: sha256WithRSAEncryption
        Issuer: C=CH, ST=Thurgau, L=Kefikon, O=guengel.ch, CN=CA guengel.ch/emailAddress=postmaster@guengel.ch
        Validity
            Not Before: Nov 20 09:17:25 2016 GMT
            Not After : Apr  4 09:17:25 2018 GMT
        Subject: C=CH, ST=Thurgau, O=guengel.ch, CN=phoebe.virtual.kruemel.home/emailAddress=postmaster@guengel.ch
        Subject Public Key Info:
            Public Key Algorithm: rsaEncryption
                Public-Key: (2048 bit)
                Modulus:
                    00:d0:78:30:90:54:6b:ee:2b:73:48:78:d0:33:fe:
                    da:26:e9:1c:f4:dc:fb:33:62:83:ab:62:49:99:8f:
                    8e:60:84:99:69:1b:ff:f0:d2:9c:dd:fe:1b:18:b1:
                    b5:cb:5a:7a:0e:9c:df:0a:c3:b0:88:1c:7d:8d:c6:
                    66:65:7b:32:39:4c:b2:41:8a:f4:04:50:89:8a:03:
                    e6:f4:38:c5:be:20:c0:ca:f6:ed:58:e2:6c:eb:b1:
                    58:16:d8:a5:f7:b6:6c:46:26:97:92:d8:2b:78:f1:
                    4d:63:ce:3d:d9:b5:48:d7:92:80:83:04:0f:f9:a4:
                    50:1c:5c:de:7b:a4:32:fd:ff:ed:49:c5:90:02:f1:
                    a3:7d:20:d2:e9:6d:08:ca:dd:b8:48:ed:5d:82:10:
                    09:3b:a7:fc:6f:97:30:55:2b:bf:95:f5:fe:51:31:
                    69:a0:22:9a:11:6c:89:93:40:ab:47:ab:0b:e2:bc:
                    49:93:fd:87:16:82:8e:70:06:23:3c:90:79:79:bd:
                    cc:73:9f:e3:42:64:37:f4:14:c4:19:37:42:9d:0f:
                    b8:59:45:17:0d:6d:ee:70:fe:34:6a:70:0f:87:97:
                    27:6b:a9:c8:2e:a1:33:73:2f:54:74:f0:a8:c9:64:
                    f3:f0:5a:51:79:13:bf:30:c9:dd:70:10:50:05:68:
                    ba:17
                Exponent: 65537 (0x10001)
        X509v3 extensions:
            X509v3 Basic Constraints: 
                CA:FALSE
            Netscape Comment: 
                OpenSSL Generated Certificate
            X509v3 Subject Key Identifier: 
                B2:EB:62:22:BA:60:26:2A:0D:13:D7:73:47:20:A2:AE:AF:70:D2:98
            X509v3 Authority Key Identifier: 
                keyid:D6:88:F1:AA:C1:2B:09:8C:B8:5C:9D:CE:DF:57:39:62:26:10:20:90
                DirName:/C=CH/ST=Thurgau/L=Kefikon/O=guengel.ch/CN=CA guengel.ch/emailAddress=postmaster@guengel.ch
                serial:E5:25:3B:A6:77:BD:CB:FF

    Signature Algorithm: sha256WithRSAEncryption
         76:02:86:8b:1b:cc:c9:dd:d6:bc:aa:ac:29:29:bd:99:7e:ec:
         60:01:35:99:58:82:8c:5e:c9:9d:4b:8b:89:38:ec:44:b0:1f:
         73:17:4c:70:ad:99:86:81:d0:d9:7e:7a:3c:d8:23:b6:c0:97:
         ac:c7:b9:52:60:02:3c:6d:37:11:91:ef:66:2a:ac:45:b3:30:
         b5:78:71:ae:93:ca:eb:74:b2:01:e6:79:cb:ba:d5:6a:3b:fb:
         04:0c:97:f4:42:74:5b:ab:b4:64:b3:7e:cd:e6:b0:f9:14:77:
         cb:e6:6a:85:30:15:b1:2f:d8:bd:48:00:fd:bd:48:62:d0:d0:
         f9:17:9d:c3:d7:93:68:44:31:bb:e8:06:98:83:1c:fa:e2:e1:
         19:41:ce:14:8f:16:10:0e:c2:cb:cb:cc:21:fd:b5:54:3a:ff:
         31:2d:2d:38:0d:d3:79:58:55:dd:20:eb:20:e2:94:03:1f:a6:
         5a:49:f6:34:d9:37:39:52:21:4d:47:ae:45:cb:19:95:a6:39:
         b3:66:68:ef:72:36:c1:92:0f:b7:0f:9e:a9:b7:27:e6:47:44:
         24:bb:52:b6:ad:a0:d9:6c:9c:f3:f5:19:de:68:d6:c7:67:05:
         3f:f8:5b:81:27:93:81:80:8a:50:a2:6d:89:b7:be:7f:d0:1a:
         df:a0:46:b2:bd:5e:d2:10:52:5c:67:4f:73:23:e4:fa:fb:d7:
         5c:cc:df:71:b3:8d:5c:fd:4c:68:7d:ca:9d:ff:63:5c:0b:7a:
         57:61:09:26:1f:3e:1b:70:df:5f:2a:fc:ff:2a:6a:ff:f2:0e:
         2f:9c:26:57:08:b3:96:bc:f1:c7:47:e6:a1:4d:73:0d:27:86:
         b4:50:08:3f:71:4e:67:05:75:cc:de:49:cd:88:41:6f:f2:78:
         d1:8a:65:96:b9:fa:59:25:0d:6d:91:84:b5:10:ae:aa:fc:42:
         96:09:40:8e:da:40:76:53:cb:f0:75:ec:bf:fd:3c:d4:87:d5:
         b6:b0:05:c2:84:8c:93:a1:32:f0:ed:1b:a8:23:34:1e:a5:82:
         b5:4d:bf:e0:2f:39:b3:5e:ce:fc:ab:43:06:5a:f5:23:51:f1:
         4d:54:99:c0:28:97:74:3e:1f:61:89:c7:56:75:d7:8e:92:b9:
         c2:7a:a0:ec:7b:73:27:37:2c:86:74:d0:6e:68:d2:93:3a:22:
         45:c7:d8:74:b6:b5:7e:aa:21:23:ea:31:7f:c2:85:71:ac:c2:
         1f:36:34:12:b9:ee:25:24:a5:3b:99:99:db:bb:4f:4c:75:da:
         5f:90:4f:e6:f9:fc:4d:43:26:e3:f1:aa:43:76:5e:a5:7d:30:
         81:2b:a0:a4:5e:7d:38:9a
-----BEGIN CERTIFICATE-----
MIIFnDCCA4SgAwIBAgICAQMwDQYJKoZIhvcNAQELBQAwgYQxCzAJBgNVBAYTAkNI
MRAwDgYDVQQIEwdUaHVyZ2F1MRAwDgYDVQQHEwdLZWZpa29uMRMwEQYDVQQKEwpn
dWVuZ2VsLmNoMRYwFAYDVQQDEw1DQSBndWVuZ2VsLmNoMSQwIgYJKoZIhvcNAQkB
FhVwb3N0bWFzdGVyQGd1ZW5nZWwuY2gwHhcNMTYxMTIwMDkxNzI1WhcNMTgwNDA0
MDkxNzI1WjCBgDELMAkGA1UEBhMCQ0gxEDAOBgNVBAgTB1RodXJnYXUxEzARBgNV
BAoTCmd1ZW5nZWwuY2gxJDAiBgNVBAMTG3Bob2ViZS52aXJ0dWFsLmtydWVtZWwu
aG9tZTEkMCIGCSqGSIb3DQEJARYVcG9zdG1hc3RlckBndWVuZ2VsLmNoMIIBIjAN
BgkqhkiG9w0BAQEFAAOCAQ8AMIIBCgKCAQEA0HgwkFRr7itzSHjQM/7aJukc9Nz7
M2KDq2JJmY+OYISZaRv/8NKc3f4bGLG1y1p6DpzfCsOwiBx9jcZmZXsyOUyyQYr0
BFCJigPm9DjFviDAyvbtWOJs67FYFtil97ZsRiaXktgrePFNY8492bVI15KAgwQP
+aRQHFzee6Qy/f/tScWQAvGjfSDS6W0Iyt24SO1dghAJO6f8b5cwVSu/lfX+UTFp
oCKaEWyJk0CrR6sL4rxJk/2HFoKOcAYjPJB5eb3Mc5/jQmQ39BTEGTdCnQ+4WUUX
DW3ucP40anAPh5cna6nILqEzcy9UdPCoyWTz8FpReRO/MMndcBBQBWi6FwIDAQAB
o4IBGDCCARQwCQYDVR0TBAIwADAsBglghkgBhvhCAQ0EHxYdT3BlblNTTCBHZW5l
cmF0ZWQgQ2VydGlmaWNhdGUwHQYDVR0OBBYEFLLrYiK6YCYqDRPXc0cgoq6vcNKY
MIG5BgNVHSMEgbEwga6AFNaI8arBKwmMuFydzt9XOWImECCQoYGKpIGHMIGEMQsw
CQYDVQQGEwJDSDEQMA4GA1UECBMHVGh1cmdhdTEQMA4GA1UEBxMHS2VmaWtvbjET
MBEGA1UEChMKZ3VlbmdlbC5jaDEWMBQGA1UEAxMNQ0EgZ3VlbmdlbC5jaDEkMCIG
CSqGSIb3DQEJARYVcG9zdG1hc3RlckBndWVuZ2VsLmNoggkA5SU7pne9y/8wDQYJ
KoZIhvcNAQELBQADggIBAHYChosbzMnd1ryqrCkpvZl+7GABNZlYgoxeyZ1Li4k4
7ESwH3MXTHCtmYaB0Nl+ejzYI7bAl6zHuVJgAjxtNxGR72YqrEWzMLV4ca6Tyut0
sgHmecu61Wo7+wQMl/RCdFurtGSzfs3msPkUd8vmaoUwFbEv2L1IAP29SGLQ0PkX
ncPXk2hEMbvoBpiDHPri4RlBzhSPFhAOwsvLzCH9tVQ6/zEtLTgN03lYVd0g6yDi
lAMfplpJ9jTZNzlSIU1HrkXLGZWmObNmaO9yNsGSD7cPnqm3J+ZHRCS7UratoNls
nPP1Gd5o1sdnBT/4W4Enk4GAilCibYm3vn/QGt+gRrK9XtIQUlxnT3Mj5Pr711zM
33GzjVz9TGh9yp3/Y1wLeldhCSYfPhtw318q/P8qav/yDi+cJlcIs5a88cdH5qFN
cw0nhrRQCD9xTmcFdczeSc2IQW/yeNGKZZa5+lklDW2RhLUQrqr8QpYJQI7aQHZT
y/B17L/9PNSH1bawBcKEjJOhMvDtG6gjNB6lgrVNv+AvObNezvyrQwZa9SNR8U1U
mcAol3Q+H2GJx1Z1146SucJ6oOx7cyc3LIZ00G5o0pM6IkXH2HS2tX6qISPqMX/C
hXGswh82NBK57iUkpTuZmdu7T0x12l+QT+b5/E1DJuPxqkN2XqV9MIEroKRefTia
-----END CERTIFICATE-----
