Certificate:
    Data:
        Version: 3 (0x2)
        Serial Number: 352 (0x160)
    Signature Algorithm: sha256WithRSAEncryption
        Issuer: C=CH, ST=Thurgau, L=Kefikon, O=guengel.ch, CN=CA guengel.ch/emailAddress=postmaster@guengel.ch
        Validity
            Not Before: Dec 29 14:40:03 2018 GMT
            Not After : Feb  2 14:40:03 2020 GMT
        Subject: C=CH, ST=Thurgau, O=guengel.ch, CN=phoebe.virtual.kruemel.home/emailAddress=postmaster@guengel.ch
        Subject Public Key Info:
            Public Key Algorithm: rsaEncryption
                Public-Key: (2048 bit)
                Modulus:
                    00:d0:78:30:90:54:6b:ee:2b:73:48:78:d0:33:fe:
                    da:26:e9:1c:f4:dc:fb:33:62:83:ab:62:49:99:8f:
                    8e:60:84:99:69:1b:ff:f0:d2:9c:dd:fe:1b:18:b1:
                    b5:cb:5a:7a:0e:9c:df:0a:c3:b0:88:1c:7d:8d:c6:
                    66:65:7b:32:39:4c:b2:41:8a:f4:04:50:89:8a:03:
                    e6:f4:38:c5:be:20:c0:ca:f6:ed:58:e2:6c:eb:b1:
                    58:16:d8:a5:f7:b6:6c:46:26:97:92:d8:2b:78:f1:
                    4d:63:ce:3d:d9:b5:48:d7:92:80:83:04:0f:f9:a4:
                    50:1c:5c:de:7b:a4:32:fd:ff:ed:49:c5:90:02:f1:
                    a3:7d:20:d2:e9:6d:08:ca:dd:b8:48:ed:5d:82:10:
                    09:3b:a7:fc:6f:97:30:55:2b:bf:95:f5:fe:51:31:
                    69:a0:22:9a:11:6c:89:93:40:ab:47:ab:0b:e2:bc:
                    49:93:fd:87:16:82:8e:70:06:23:3c:90:79:79:bd:
                    cc:73:9f:e3:42:64:37:f4:14:c4:19:37:42:9d:0f:
                    b8:59:45:17:0d:6d:ee:70:fe:34:6a:70:0f:87:97:
                    27:6b:a9:c8:2e:a1:33:73:2f:54:74:f0:a8:c9:64:
                    f3:f0:5a:51:79:13:bf:30:c9:dd:70:10:50:05:68:
                    ba:17
                Exponent: 65537 (0x10001)
        X509v3 extensions:
            X509v3 Basic Constraints: 
                CA:FALSE
            Netscape Comment: 
                OpenSSL Generated Certificate
            X509v3 Subject Key Identifier: 
                B2:EB:62:22:BA:60:26:2A:0D:13:D7:73:47:20:A2:AE:AF:70:D2:98
            X509v3 Authority Key Identifier: 
                keyid:D6:88:F1:AA:C1:2B:09:8C:B8:5C:9D:CE:DF:57:39:62:26:10:20:90
                DirName:/C=CH/ST=Thurgau/L=Kefikon/O=guengel.ch/CN=CA guengel.ch/emailAddress=postmaster@guengel.ch
                serial:E5:25:3B:A6:77:BD:CB:FF

    Signature Algorithm: sha256WithRSAEncryption
         32:66:1f:d9:c2:3e:b2:fa:6a:22:e7:28:fd:78:3a:ff:18:36:
         b8:55:1a:f4:2c:84:a2:f4:55:0b:80:b1:d3:45:17:65:5e:70:
         01:20:1f:d0:d3:2c:a7:03:0f:d9:9a:c0:fd:79:43:19:7a:1b:
         79:20:79:41:72:6b:07:b8:40:dd:a7:cc:ef:14:36:8a:9e:17:
         19:bd:7b:f9:98:0f:1e:94:32:03:6f:2f:84:0c:db:2f:79:cb:
         33:26:39:5c:aa:05:0a:f5:7f:f1:33:4b:a7:a4:32:af:f0:a5:
         0a:5b:78:5a:82:5b:e2:2d:0d:36:dc:dc:50:5f:f6:60:df:06:
         d1:b9:1d:be:a6:23:6f:07:b4:ad:5d:da:2f:93:21:13:d9:3b:
         8c:03:df:07:0a:75:89:e8:a2:ca:61:de:9e:dd:92:89:f2:b0:
         7e:76:0f:e5:03:b8:82:8a:dd:26:ae:27:a7:93:c6:fd:64:21:
         02:a7:6e:23:c4:65:74:17:7d:9a:f0:38:ac:11:1b:a4:40:4a:
         b4:88:43:a8:54:22:14:83:8d:e7:4f:1e:c8:4a:3e:d6:40:60:
         ea:6b:0a:06:f3:1d:48:dd:f2:01:e6:a8:8b:1d:da:56:1e:b2:
         4d:78:1c:95:ce:69:4b:11:3a:a3:df:15:c2:70:ac:ad:e4:f9:
         a2:1e:f4:f1:1e:ae:02:1c:ee:04:9e:af:31:e8:88:d3:03:68:
         0b:36:d9:73:74:8e:b9:c1:29:04:23:d3:40:02:02:d7:b3:40:
         c7:9f:09:93:ed:66:04:e1:21:d5:1d:43:92:5a:d3:f7:fd:a1:
         c5:11:96:c5:d1:8c:bb:94:dd:e3:dd:f4:d5:53:9e:88:7f:eb:
         d9:e5:f7:02:a5:d8:92:dc:e3:4b:61:26:5c:51:d4:d7:56:0b:
         1b:c7:b1:b1:6c:99:02:46:9a:0d:f6:0a:96:35:cb:44:33:e5:
         d0:38:c0:c5:de:fa:00:de:0b:79:13:98:3f:5b:b2:98:0e:38:
         a8:4d:2a:5f:bd:cc:02:5f:2a:22:3e:7d:d5:a2:08:54:ad:f7:
         a7:ce:bf:19:a3:a6:3f:dd:6b:f3:4d:ae:6b:ef:e7:85:8a:b4:
         77:9d:63:9e:fd:53:0c:86:79:dd:35:d3:61:07:01:09:0e:ed:
         c9:67:02:98:42:3b:db:16:70:9e:68:d8:b3:25:aa:ae:e8:5c:
         fc:44:6d:f6:b5:7e:ba:49:9a:c8:c1:97:08:4c:32:e1:8f:9b:
         48:b4:e0:6c:c5:93:f9:da:4a:1c:de:ac:27:3c:6f:9e:68:e0:
         80:16:80:35:64:39:78:59:4c:40:48:75:04:0d:31:52:e8:76:
         ce:95:65:31:2f:ae:00:bb
-----BEGIN CERTIFICATE-----
MIIFnDCCA4SgAwIBAgICAWAwDQYJKoZIhvcNAQELBQAwgYQxCzAJBgNVBAYTAkNI
MRAwDgYDVQQIEwdUaHVyZ2F1MRAwDgYDVQQHEwdLZWZpa29uMRMwEQYDVQQKEwpn
dWVuZ2VsLmNoMRYwFAYDVQQDEw1DQSBndWVuZ2VsLmNoMSQwIgYJKoZIhvcNAQkB
FhVwb3N0bWFzdGVyQGd1ZW5nZWwuY2gwHhcNMTgxMjI5MTQ0MDAzWhcNMjAwMjAy
MTQ0MDAzWjCBgDELMAkGA1UEBhMCQ0gxEDAOBgNVBAgTB1RodXJnYXUxEzARBgNV
BAoTCmd1ZW5nZWwuY2gxJDAiBgNVBAMTG3Bob2ViZS52aXJ0dWFsLmtydWVtZWwu
aG9tZTEkMCIGCSqGSIb3DQEJARYVcG9zdG1hc3RlckBndWVuZ2VsLmNoMIIBIjAN
BgkqhkiG9w0BAQEFAAOCAQ8AMIIBCgKCAQEA0HgwkFRr7itzSHjQM/7aJukc9Nz7
M2KDq2JJmY+OYISZaRv/8NKc3f4bGLG1y1p6DpzfCsOwiBx9jcZmZXsyOUyyQYr0
BFCJigPm9DjFviDAyvbtWOJs67FYFtil97ZsRiaXktgrePFNY8492bVI15KAgwQP
+aRQHFzee6Qy/f/tScWQAvGjfSDS6W0Iyt24SO1dghAJO6f8b5cwVSu/lfX+UTFp
oCKaEWyJk0CrR6sL4rxJk/2HFoKOcAYjPJB5eb3Mc5/jQmQ39BTEGTdCnQ+4WUUX
DW3ucP40anAPh5cna6nILqEzcy9UdPCoyWTz8FpReRO/MMndcBBQBWi6FwIDAQAB
o4IBGDCCARQwCQYDVR0TBAIwADAsBglghkgBhvhCAQ0EHxYdT3BlblNTTCBHZW5l
cmF0ZWQgQ2VydGlmaWNhdGUwHQYDVR0OBBYEFLLrYiK6YCYqDRPXc0cgoq6vcNKY
MIG5BgNVHSMEgbEwga6AFNaI8arBKwmMuFydzt9XOWImECCQoYGKpIGHMIGEMQsw
CQYDVQQGEwJDSDEQMA4GA1UECBMHVGh1cmdhdTEQMA4GA1UEBxMHS2VmaWtvbjET
MBEGA1UEChMKZ3VlbmdlbC5jaDEWMBQGA1UEAxMNQ0EgZ3VlbmdlbC5jaDEkMCIG
CSqGSIb3DQEJARYVcG9zdG1hc3RlckBndWVuZ2VsLmNoggkA5SU7pne9y/8wDQYJ
KoZIhvcNAQELBQADggIBADJmH9nCPrL6aiLnKP14Ov8YNrhVGvQshKL0VQuAsdNF
F2VecAEgH9DTLKcDD9mawP15Qxl6G3kgeUFyawe4QN2nzO8UNoqeFxm9e/mYDx6U
MgNvL4QM2y95yzMmOVyqBQr1f/EzS6ekMq/wpQpbeFqCW+ItDTbc3FBf9mDfBtG5
Hb6mI28HtK1d2i+TIRPZO4wD3wcKdYnoosph3p7dkonysH52D+UDuIKK3SauJ6eT
xv1kIQKnbiPEZXQXfZrwOKwRG6RASrSIQ6hUIhSDjedPHshKPtZAYOprCgbzHUjd
8gHmqIsd2lYesk14HJXOaUsROqPfFcJwrK3k+aIe9PEergIc7gSerzHoiNMDaAs2
2XN0jrnBKQQj00ACAtezQMefCZPtZgThIdUdQ5Ja0/f9ocURlsXRjLuU3ePd9NVT
noh/69nl9wKl2JLc40thJlxR1NdWCxvHsbFsmQJGmg32CpY1y0Qz5dA4wMXe+gDe
C3kTmD9bspgOOKhNKl+9zAJfKiI+fdWiCFSt96fOvxmjpj/da/NNrmvv54WKtHed
Y579UwyGed0102EHAQkO7clnAphCO9sWcJ5o2LMlqq7oXPxEbfa1frpJmsjBlwhM
MuGPm0i04GzFk/naShzerCc8b55o4IAWgDVkOXhZTEBIdQQNMVLods6VZTEvrgC7
-----END CERTIFICATE-----
