Certificate:
    Data:
        Version: 3 (0x2)
        Serial Number: 313 (0x139)
    Signature Algorithm: sha256WithRSAEncryption
        Issuer: C=CH, ST=Thurgau, L=Kefikon, O=guengel.ch, CN=CA guengel.ch/emailAddress=postmaster@guengel.ch
        Validity
            Not Before: Jan  6 18:03:00 2018 GMT
            Not After : Feb 10 18:03:00 2019 GMT
        Subject: C=CH, ST=Thurgau, O=guengel.ch, CN=phoebe.virtual.kruemel.home/emailAddress=postmaster@guengel.ch
        Subject Public Key Info:
            Public Key Algorithm: rsaEncryption
                Public-Key: (2048 bit)
                Modulus:
                    00:d0:78:30:90:54:6b:ee:2b:73:48:78:d0:33:fe:
                    da:26:e9:1c:f4:dc:fb:33:62:83:ab:62:49:99:8f:
                    8e:60:84:99:69:1b:ff:f0:d2:9c:dd:fe:1b:18:b1:
                    b5:cb:5a:7a:0e:9c:df:0a:c3:b0:88:1c:7d:8d:c6:
                    66:65:7b:32:39:4c:b2:41:8a:f4:04:50:89:8a:03:
                    e6:f4:38:c5:be:20:c0:ca:f6:ed:58:e2:6c:eb:b1:
                    58:16:d8:a5:f7:b6:6c:46:26:97:92:d8:2b:78:f1:
                    4d:63:ce:3d:d9:b5:48:d7:92:80:83:04:0f:f9:a4:
                    50:1c:5c:de:7b:a4:32:fd:ff:ed:49:c5:90:02:f1:
                    a3:7d:20:d2:e9:6d:08:ca:dd:b8:48:ed:5d:82:10:
                    09:3b:a7:fc:6f:97:30:55:2b:bf:95:f5:fe:51:31:
                    69:a0:22:9a:11:6c:89:93:40:ab:47:ab:0b:e2:bc:
                    49:93:fd:87:16:82:8e:70:06:23:3c:90:79:79:bd:
                    cc:73:9f:e3:42:64:37:f4:14:c4:19:37:42:9d:0f:
                    b8:59:45:17:0d:6d:ee:70:fe:34:6a:70:0f:87:97:
                    27:6b:a9:c8:2e:a1:33:73:2f:54:74:f0:a8:c9:64:
                    f3:f0:5a:51:79:13:bf:30:c9:dd:70:10:50:05:68:
                    ba:17
                Exponent: 65537 (0x10001)
        X509v3 extensions:
            X509v3 Basic Constraints: 
                CA:FALSE
            Netscape Comment: 
                OpenSSL Generated Certificate
            X509v3 Subject Key Identifier: 
                B2:EB:62:22:BA:60:26:2A:0D:13:D7:73:47:20:A2:AE:AF:70:D2:98
            X509v3 Authority Key Identifier: 
                keyid:D6:88:F1:AA:C1:2B:09:8C:B8:5C:9D:CE:DF:57:39:62:26:10:20:90
                DirName:/C=CH/ST=Thurgau/L=Kefikon/O=guengel.ch/CN=CA guengel.ch/emailAddress=postmaster@guengel.ch
                serial:E5:25:3B:A6:77:BD:CB:FF

    Signature Algorithm: sha256WithRSAEncryption
         6e:16:d1:18:37:52:ec:e6:c9:32:fd:d6:ca:7a:4c:6a:25:95:
         76:6a:37:fb:8a:20:85:96:8c:91:3a:bc:10:09:75:2b:84:36:
         03:3b:4c:db:2a:2d:0e:6b:88:dc:80:eb:42:d6:d4:0a:68:ff:
         59:f2:44:3b:28:9c:c4:6e:4f:e3:49:cc:75:24:b1:ea:ab:d8:
         84:59:e2:d9:bb:bd:0d:ad:bb:4d:f4:10:2f:3c:09:eb:06:24:
         18:81:3d:fa:ef:61:71:05:07:87:2a:68:6f:1a:b3:49:5f:c0:
         92:b7:c6:1b:1d:0e:4f:02:bc:72:da:22:d0:d6:fc:c0:3d:71:
         ac:32:3e:70:1b:ae:86:8a:72:6c:60:77:0c:27:94:2a:83:5a:
         ce:07:f7:cb:c2:eb:28:45:ca:2d:75:8b:14:1a:87:57:7b:32:
         98:a0:a0:7b:4a:63:08:5f:ac:4b:26:c3:ac:c4:91:63:88:1c:
         4a:35:1a:a7:ce:64:26:79:b8:1c:d6:48:70:87:95:12:1a:25:
         3d:82:dd:f7:ea:88:58:52:f6:47:4d:15:e2:25:92:2b:07:91:
         0e:be:30:db:e3:d2:bb:45:23:30:84:9b:6f:d4:91:6f:ee:56:
         7d:ee:5a:87:49:30:ba:3d:ec:ac:29:b9:3d:1b:ae:2d:e3:a9:
         23:f8:87:fb:a8:06:65:ac:d0:aa:d4:f0:98:04:4d:70:9d:7b:
         3e:a1:11:8b:8e:3b:b7:18:aa:a2:e4:e1:44:a3:49:2b:6f:14:
         0a:e0:67:b9:0b:15:77:64:1c:7f:be:c4:02:81:a5:ac:b0:10:
         20:ac:58:34:01:72:c3:ea:85:f8:38:3b:f2:14:ff:2e:a9:61:
         45:c5:3f:15:9d:8d:89:95:a8:2e:d9:ef:62:17:a7:82:99:74:
         58:d7:de:df:81:50:9e:96:42:20:ae:a2:ce:1c:14:c4:21:22:
         f3:9b:8c:dd:f8:ac:17:19:88:e1:40:04:c4:09:eb:63:07:0e:
         d1:3b:10:6c:58:b5:5a:8d:6c:d6:c8:07:fe:56:03:e6:bb:e5:
         4e:d2:68:09:9c:58:be:5e:04:9a:8f:dd:a4:88:5e:1c:dc:42:
         33:c3:d7:01:fc:b3:8a:1b:c7:b4:c7:e4:f5:e3:16:40:a7:ac:
         e9:54:24:1a:06:9d:ad:ca:65:52:b3:27:5c:53:e2:e1:f0:9c:
         79:c8:84:e6:6a:eb:32:4c:31:bd:f6:ff:2e:0b:5c:9f:2f:96:
         0d:2b:9e:68:68:24:f5:c8:41:a1:a4:81:1c:0b:09:59:e7:9d:
         d6:72:bc:36:3c:4b:fd:93:41:6c:21:f6:8b:76:dc:9e:f7:20:
         b4:75:0f:de:93:8f:33:d1
-----BEGIN CERTIFICATE-----
MIIFnDCCA4SgAwIBAgICATkwDQYJKoZIhvcNAQELBQAwgYQxCzAJBgNVBAYTAkNI
MRAwDgYDVQQIEwdUaHVyZ2F1MRAwDgYDVQQHEwdLZWZpa29uMRMwEQYDVQQKEwpn
dWVuZ2VsLmNoMRYwFAYDVQQDEw1DQSBndWVuZ2VsLmNoMSQwIgYJKoZIhvcNAQkB
FhVwb3N0bWFzdGVyQGd1ZW5nZWwuY2gwHhcNMTgwMTA2MTgwMzAwWhcNMTkwMjEw
MTgwMzAwWjCBgDELMAkGA1UEBhMCQ0gxEDAOBgNVBAgTB1RodXJnYXUxEzARBgNV
BAoTCmd1ZW5nZWwuY2gxJDAiBgNVBAMTG3Bob2ViZS52aXJ0dWFsLmtydWVtZWwu
aG9tZTEkMCIGCSqGSIb3DQEJARYVcG9zdG1hc3RlckBndWVuZ2VsLmNoMIIBIjAN
BgkqhkiG9w0BAQEFAAOCAQ8AMIIBCgKCAQEA0HgwkFRr7itzSHjQM/7aJukc9Nz7
M2KDq2JJmY+OYISZaRv/8NKc3f4bGLG1y1p6DpzfCsOwiBx9jcZmZXsyOUyyQYr0
BFCJigPm9DjFviDAyvbtWOJs67FYFtil97ZsRiaXktgrePFNY8492bVI15KAgwQP
+aRQHFzee6Qy/f/tScWQAvGjfSDS6W0Iyt24SO1dghAJO6f8b5cwVSu/lfX+UTFp
oCKaEWyJk0CrR6sL4rxJk/2HFoKOcAYjPJB5eb3Mc5/jQmQ39BTEGTdCnQ+4WUUX
DW3ucP40anAPh5cna6nILqEzcy9UdPCoyWTz8FpReRO/MMndcBBQBWi6FwIDAQAB
o4IBGDCCARQwCQYDVR0TBAIwADAsBglghkgBhvhCAQ0EHxYdT3BlblNTTCBHZW5l
cmF0ZWQgQ2VydGlmaWNhdGUwHQYDVR0OBBYEFLLrYiK6YCYqDRPXc0cgoq6vcNKY
MIG5BgNVHSMEgbEwga6AFNaI8arBKwmMuFydzt9XOWImECCQoYGKpIGHMIGEMQsw
CQYDVQQGEwJDSDEQMA4GA1UECBMHVGh1cmdhdTEQMA4GA1UEBxMHS2VmaWtvbjET
MBEGA1UEChMKZ3VlbmdlbC5jaDEWMBQGA1UEAxMNQ0EgZ3VlbmdlbC5jaDEkMCIG
CSqGSIb3DQEJARYVcG9zdG1hc3RlckBndWVuZ2VsLmNoggkA5SU7pne9y/8wDQYJ
KoZIhvcNAQELBQADggIBAG4W0Rg3UuzmyTL91sp6TGollXZqN/uKIIWWjJE6vBAJ
dSuENgM7TNsqLQ5riNyA60LW1Apo/1nyRDsonMRuT+NJzHUkseqr2IRZ4tm7vQ2t
u030EC88CesGJBiBPfrvYXEFB4cqaG8as0lfwJK3xhsdDk8CvHLaItDW/MA9cawy
PnAbroaKcmxgdwwnlCqDWs4H98vC6yhFyi11ixQah1d7MpigoHtKYwhfrEsmw6zE
kWOIHEo1GqfOZCZ5uBzWSHCHlRIaJT2C3ffqiFhS9kdNFeIlkisHkQ6+MNvj0rtF
IzCEm2/UkW/uVn3uWodJMLo97KwpuT0bri3jqSP4h/uoBmWs0KrU8JgETXCdez6h
EYuOO7cYqqLk4USjSStvFArgZ7kLFXdkHH++xAKBpaywECCsWDQBcsPqhfg4O/IU
/y6pYUXFPxWdjYmVqC7Z72IXp4KZdFjX3t+BUJ6WQiCuos4cFMQhIvObjN34rBcZ
iOFABMQJ62MHDtE7EGxYtVqNbNbIB/5WA+a75U7SaAmcWL5eBJqP3aSIXhzcQjPD
1wH8s4obx7TH5PXjFkCnrOlUJBoGna3KZVKzJ1xT4uHwnHnIhOZq6zJMMb32/y4L
XJ8vlg0rnmhoJPXIQaGkgRwLCVnnndZyvDY8S/2TQWwh9ot23J73ILR1D96TjzPR
-----END CERTIFICATE-----
