Certificate:
    Data:
        Version: 3 (0x2)
        Serial Number:
            09:d7:8d:1d:56:c4:0d:44:d3:65:0a:1d:0c:1b:59:90:92:72:26:29
        Signature Algorithm: sha256WithRSAEncryption
        Issuer: C=CH, ST=Thurgau, L=Kefikon, O=guengel.ch, CN=CA 2022/emailAddress=postmaster@guengel.ch
        Validity
            Not Before: Feb 11 14:03:59 2022 GMT
            Not After : Mar 18 14:03:59 2023 GMT
        Subject: C=CH, ST=Thurgau, O=guengel.ch, CN=pi-1.k8s.kruemel.home/emailAddress=postmaster@guengel.ch
        Subject Public Key Info:
            Public Key Algorithm: rsaEncryption
                RSA Public-Key: (2048 bit)
                Modulus:
                    00:cc:1c:d9:c3:62:e9:f7:c3:ab:f0:6c:33:04:b4:
                    09:24:51:77:1a:7c:1d:cf:06:a7:ee:1a:c5:8c:c4:
                    a3:a7:4e:60:03:6a:fc:12:60:a1:b9:48:c8:7e:f4:
                    6b:91:58:93:20:30:c6:69:89:a9:7a:72:0e:f9:f0:
                    5e:da:34:02:0d:fc:19:f4:2a:c1:fd:0e:11:7c:00:
                    da:7f:ad:cd:81:64:95:70:df:d7:47:7e:70:b4:76:
                    6a:dc:a5:6e:0c:98:2f:cf:2b:2f:09:ef:6b:69:94:
                    41:02:d2:58:a2:92:0e:b8:f7:55:0b:7e:82:38:05:
                    c1:fc:13:62:2c:44:e1:22:59:f1:65:1e:0a:51:54:
                    43:ba:b6:53:45:b6:50:32:10:72:17:fb:7d:2f:c9:
                    6d:4d:8c:53:75:33:b8:95:1e:9c:85:d4:07:da:2e:
                    93:36:22:aa:7c:66:4e:f4:f6:a7:66:27:08:77:ad:
                    4a:a1:d7:b1:8b:cd:02:00:8a:60:87:0f:47:27:5d:
                    c5:41:36:7f:4a:49:8f:ad:b1:23:5a:1a:93:68:c1:
                    3d:85:28:41:b3:9f:02:5a:e0:ba:89:3a:f7:f7:5a:
                    29:1d:04:b8:b3:5e:99:91:5b:4f:40:3b:a4:fa:c8:
                    88:07:43:45:1b:79:76:5e:66:93:58:ef:b5:2b:1f:
                    94:51
                Exponent: 65537 (0x10001)
        X509v3 extensions:
            X509v3 Basic Constraints: critical
                CA:FALSE
            X509v3 Key Usage: 
                Digital Signature, Key Encipherment, Key Agreement
            X509v3 Subject Key Identifier: 
                DE:3C:05:99:1F:68:5D:59:8A:51:5D:83:AC:A9:88:0B:FA:E3:A1:37
            X509v3 Authority Key Identifier: 
                keyid:22:20:0D:51:40:61:42:BE:DD:BA:D9:C9:C1:77:B6:93:28:C3:99:EC
                DirName:/C=CH/ST=Thurgau/L=Kefikon/O=guengel.ch/CN=CA 2022/emailAddress=postmaster@guengel.ch
                serial:6D:29:90:54:E9:17:E9:C2:6A:E6:52:AD:84:4E:30:8E:6E:57:FB:1C

            Netscape Cert Type: 
                SSL Client, SSL Server
            X509v3 Extended Key Usage: 
                TLS Web Server Authentication, TLS Web Client Authentication
    Signature Algorithm: sha256WithRSAEncryption
         73:c6:5e:33:4c:cb:7f:00:27:64:62:59:ee:f3:ff:3b:76:0a:
         8e:39:dd:b0:14:ef:8f:f0:4f:ed:d4:88:25:d5:8a:18:e3:6b:
         d3:db:cf:f6:b4:00:4b:01:64:9b:a6:fc:60:cd:d6:aa:9d:76:
         7a:c6:8d:e3:ac:1d:5f:e1:59:87:85:28:31:34:67:c6:53:ce:
         0b:ec:e1:fc:7b:80:23:2d:94:1b:4c:04:0c:0c:86:05:4a:00:
         11:6e:f4:e8:09:55:3a:b7:71:49:72:09:4e:e3:1b:31:e5:1e:
         d7:1b:72:9e:01:e7:5b:e7:f7:a3:46:96:a8:cf:06:00:f9:54:
         a1:73:7d:c2:7d:03:d1:0c:e2:e5:6e:38:13:31:43:19:7f:a7:
         34:ec:8f:64:cc:59:70:33:e5:3b:1d:fd:29:d1:03:66:1a:36:
         d5:fe:f7:60:36:8a:e9:fa:28:2c:2e:fa:e7:68:4d:b4:99:08:
         1c:47:58:f5:e3:59:10:df:3e:e5:88:ff:11:0b:dd:f4:0d:6e:
         78:e9:79:46:de:a9:1c:79:30:f0:a1:02:55:f7:2f:4d:81:1c:
         bc:4d:df:5f:12:bb:b3:2e:f8:88:cd:54:bb:fc:0b:1b:a3:86:
         8f:a7:b9:6b:41:5e:87:49:6b:16:6a:54:84:ce:f5:9f:9a:9e:
         7e:ba:33:82:3b:58:86:ec:cf:e1:3d:90:7a:ad:1b:1f:8a:2d:
         f3:2d:e1:47:b5:ef:b1:b2:9f:d5:aa:66:38:57:a6:77:db:7a:
         f1:61:d0:03:13:0e:4a:47:07:2a:65:d2:54:0c:70:75:f0:49:
         03:2d:80:c8:03:fb:13:29:83:04:f5:3b:7c:b5:52:25:cd:2f:
         5e:8b:b5:33:48:e5:2c:d3:fd:40:54:c2:8a:19:04:c7:e1:48:
         70:e3:8c:80:ce:68:ba:30:94:dc:a4:f6:a1:41:30:38:21:c5:
         1c:39:72:23:24:38:69:4f:79:46:38:04:86:25:5e:f6:0c:4d:
         dd:96:aa:e6:fe:c3:18:f1:39:4e:ec:3d:a5:70:e9:bd:2e:37:
         ea:0a:40:60:15:65:0f:bb:e6:e4:98:ec:02:19:a0:f3:cd:df:
         62:42:24:32:7b:34:6d:47:45:37:4b:f5:57:2f:90:70:41:de:
         d3:65:a6:24:19:4b:1a:d8:c4:9a:07:78:be:b7:c0:30:f7:66:
         1d:46:5a:28:a4:f0:95:df:52:b0:69:48:14:fc:5a:bc:ac:09:
         02:8c:df:fd:7f:67:2d:51:cb:a8:10:f5:1b:b3:ec:3c:62:46:
         3a:f1:00:e6:12:b9:1f:13:07:52:57:97:52:38:ea:3e:20:60:
         67:14:0c:e6:7e:ed:48:e7
-----BEGIN CERTIFICATE-----
MIIFuDCCA6CgAwIBAgIUCdeNHVbEDUTTZQodDBtZkJJyJikwDQYJKoZIhvcNAQEL
BQAwfjELMAkGA1UEBhMCQ0gxEDAOBgNVBAgTB1RodXJnYXUxEDAOBgNVBAcTB0tl
Zmlrb24xEzARBgNVBAoTCmd1ZW5nZWwuY2gxEDAOBgNVBAMTB0NBIDIwMjIxJDAi
BgkqhkiG9w0BCQEWFXBvc3RtYXN0ZXJAZ3VlbmdlbC5jaDAeFw0yMjAyMTExNDAz
NTlaFw0yMzAzMTgxNDAzNTlaMHoxCzAJBgNVBAYTAkNIMRAwDgYDVQQIEwdUaHVy
Z2F1MRMwEQYDVQQKEwpndWVuZ2VsLmNoMR4wHAYDVQQDExVwaS0xLms4cy5rcnVl
bWVsLmhvbWUxJDAiBgkqhkiG9w0BCQEWFXBvc3RtYXN0ZXJAZ3VlbmdlbC5jaDCC
ASIwDQYJKoZIhvcNAQEBBQADggEPADCCAQoCggEBAMwc2cNi6ffDq/BsMwS0CSRR
dxp8Hc8Gp+4axYzEo6dOYANq/BJgoblIyH70a5FYkyAwxmmJqXpyDvnwXto0Ag38
GfQqwf0OEXwA2n+tzYFklXDf10d+cLR2atylbgyYL88rLwnva2mUQQLSWKKSDrj3
VQt+gjgFwfwTYixE4SJZ8WUeClFUQ7q2U0W2UDIQchf7fS/JbU2MU3UzuJUenIXU
B9oukzYiqnxmTvT2p2YnCHetSqHXsYvNAgCKYIcPRyddxUE2f0pJj62xI1oak2jB
PYUoQbOfAlrguok69/daKR0EuLNemZFbT0A7pPrIiAdDRRt5dl5mk1jvtSsflFEC
AwEAAaOCATAwggEsMAwGA1UdEwEB/wQCMAAwCwYDVR0PBAQDAgOoMB0GA1UdDgQW
BBTePAWZH2hdWYpRXYOsqYgL+uOhNzCBvQYDVR0jBIG1MIGygBQiIA1RQGFCvt26
2cnBd7aTKMOZ7KGBg6SBgDB+MQswCQYDVQQGEwJDSDEQMA4GA1UECBMHVGh1cmdh
dTEQMA4GA1UEBxMHS2VmaWtvbjETMBEGA1UEChMKZ3VlbmdlbC5jaDEQMA4GA1UE
AxMHQ0EgMjAyMjEkMCIGCSqGSIb3DQEJARYVcG9zdG1hc3RlckBndWVuZ2VsLmNo
ghRtKZBU6RfpwmrmUq2ETjCOblf7HDARBglghkgBhvhCAQEEBAMCBsAwHQYDVR0l
BBYwFAYIKwYBBQUHAwEGCCsGAQUFBwMCMA0GCSqGSIb3DQEBCwUAA4ICAQBzxl4z
TMt/ACdkYlnu8/87dgqOOd2wFO+P8E/t1Igl1YoY42vT28/2tABLAWSbpvxgzdaq
nXZ6xo3jrB1f4VmHhSgxNGfGU84L7OH8e4AjLZQbTAQMDIYFSgARbvToCVU6t3FJ
cglO4xsx5R7XG3KeAedb5/ejRpaozwYA+VShc33CfQPRDOLlbjgTMUMZf6c07I9k
zFlwM+U7Hf0p0QNmGjbV/vdgNorp+igsLvrnaE20mQgcR1j141kQ3z7liP8RC930
DW546XlG3qkceTDwoQJV9y9NgRy8Td9fEruzLviIzVS7/Asbo4aPp7lrQV6HSWsW
alSEzvWfmp5+ujOCO1iG7M/hPZB6rRsfii3zLeFHte+xsp/VqmY4V6Z323rxYdAD
Ew5KRwcqZdJUDHB18EkDLYDIA/sTKYME9Tt8tVIlzS9ei7UzSOUs0/1AVMKKGQTH
4Uhw44yAzmi6MJTcpPahQTA4IcUcOXIjJDhpT3lGOASGJV72DE3dlqrm/sMY8TlO
7D2lcOm9LjfqCkBgFWUPu+bkmOwCGaDzzd9iQiQyezRtR0U3S/VXL5BwQd7TZaYk
GUsa2MSaB3i+t8Aw92YdRloopPCV31KwaUgU/Fq8rAkCjN/9f2ctUcuoEPUbs+w8
YkY68QDmErkfEwdSV5dSOOo+IGBnFAzmfu1I5w==
-----END CERTIFICATE-----
