Certificate:
    Data:
        Version: 3 (0x2)
        Serial Number: 464 (0x1d0)
        Signature Algorithm: sha256WithRSAEncryption
        Issuer: C=CH, ST=Thurgau, L=Kefikon, O=guengel.ch, CN=CA guengel.ch/emailAddress=postmaster@guengel.ch
        Validity
            Not Before: Feb 11 07:07:13 2022 GMT
            Not After : Mar 18 07:07:13 2023 GMT
        Subject: C=CH, ST=Thurgau, O=guengel.ch, CN=pi-1.k8s.kruemel.home/emailAddress=postmaster@guengel.ch
        Subject Public Key Info:
            Public Key Algorithm: rsaEncryption
                RSA Public-Key: (2048 bit)
                Modulus:
                    00:dd:cc:df:5a:5f:d0:c6:2f:11:58:0c:76:1b:29:
                    5f:b1:ea:50:97:fb:da:60:7a:bf:8e:c2:98:6f:9b:
                    86:3c:37:03:8e:7c:43:69:c9:a4:84:ea:63:19:23:
                    eb:b9:b7:e6:87:34:4c:69:ab:42:0b:33:ee:dd:9c:
                    26:c1:f4:26:5b:3a:45:59:c8:60:08:5a:07:cf:34:
                    c8:a1:50:bf:01:c1:5c:39:f9:ed:12:0c:65:47:c4:
                    28:a3:94:08:dc:68:aa:63:55:3f:b6:8d:bb:28:09:
                    7e:ae:31:01:5d:74:8d:d3:bb:45:25:18:7c:ec:45:
                    cc:63:9f:1d:e8:e2:9a:1e:39:5c:e4:55:ef:14:f2:
                    67:aa:1f:c1:c7:78:89:8b:0a:cf:dc:84:60:bd:eb:
                    c0:6f:54:b4:26:d4:71:db:a0:f3:57:57:1a:a1:1f:
                    f8:77:87:78:a9:35:c3:c1:67:00:cf:b1:f8:07:54:
                    ca:88:af:d8:ec:97:47:5c:4c:53:53:c0:6d:63:c3:
                    8e:fb:1e:09:08:c2:bf:2e:8d:a2:62:08:76:21:8d:
                    ab:2f:c9:18:59:3a:74:2d:ba:6e:c8:f7:21:41:14:
                    af:f9:cb:5b:66:90:e3:cc:1a:07:cd:63:fa:09:90:
                    76:72:cc:fa:6a:f2:ed:b1:68:a7:dc:ac:33:39:5b:
                    7c:0f
                Exponent: 65537 (0x10001)
        X509v3 extensions:
            X509v3 Key Usage: 
                Digital Signature, Key Encipherment, Key Agreement
            X509v3 Basic Constraints: critical
                CA:FALSE
            Netscape Cert Type: 
                SSL Client, SSL Server
            X509v3 Extended Key Usage: 
                TLS Web Server Authentication, TLS Web Client Authentication
            X509v3 Subject Alternative Name: 
                DNS:pi-1.k8s.kruemel.home
            X509v3 Subject Key Identifier: 
                88:44:68:B0:93:32:9E:2A:22:41:0B:5A:E5:C5:6B:BC:F8:12:6B:F8
            X509v3 Authority Key Identifier: 
                keyid:D6:88:F1:AA:C1:2B:09:8C:B8:5C:9D:CE:DF:57:39:62:26:10:20:90
                DirName:/C=CH/ST=Thurgau/L=Kefikon/O=guengel.ch/CN=CA guengel.ch/emailAddress=postmaster@guengel.ch
                serial:E5:25:3B:A6:77:BD:CB:FF

    Signature Algorithm: sha256WithRSAEncryption
         57:e4:1f:a4:90:01:3e:cf:ff:71:a1:f8:78:e2:92:51:52:d1:
         4e:b1:a8:ca:49:8c:93:d0:ca:21:4d:7f:f6:bf:e3:03:b9:d3:
         51:21:eb:4a:c1:48:e9:6b:d3:57:f3:1e:4a:9f:15:a2:7b:c1:
         aa:cf:7b:41:08:11:bc:27:d1:03:72:4d:79:0a:aa:80:ff:ec:
         54:b0:e2:25:5e:10:5a:3e:7e:f1:dc:8d:36:be:a3:ed:60:e3:
         00:89:0e:89:75:88:66:ae:b6:b5:a9:8e:98:2a:3f:9a:d2:01:
         f9:34:ff:58:0a:a8:6e:3b:f9:db:a2:df:ad:ee:12:7c:9a:9b:
         81:b9:db:8f:5d:26:b1:54:94:ea:38:fe:1b:7c:ee:65:84:a2:
         70:79:46:48:a1:4f:82:f8:59:d1:b4:5f:8b:cc:0f:13:35:eb:
         4d:6d:0d:c0:fe:19:f9:dc:c2:f0:b6:da:f7:bb:03:05:00:cc:
         66:68:a0:23:70:79:b7:12:61:11:67:fb:70:65:68:55:04:1e:
         f5:97:0d:b6:34:34:3f:0e:da:6d:75:7e:61:c7:af:94:11:97:
         a8:c5:ba:30:09:d7:81:82:f8:c4:a2:8b:53:bd:73:b4:ad:07:
         33:95:57:c6:df:b7:09:86:e6:b8:e6:2d:9a:c5:98:0d:73:23:
         c0:52:70:56:65:53:93:9f:b2:a4:8a:73:a9:84:3b:d2:1a:22:
         7d:b1:4c:f7:41:28:80:42:b2:37:96:ef:73:e6:2f:cc:32:85:
         98:81:d6:ec:00:73:e0:ec:74:e2:9e:37:d9:fc:cd:34:32:46:
         4c:8d:9f:b6:c2:b0:e9:f5:a8:cf:0c:e5:ad:d6:16:cf:98:36:
         4d:3b:12:f9:42:96:59:f1:8f:30:25:f4:e2:5a:7b:44:b8:13:
         58:14:ac:b2:28:a4:b7:81:25:d4:36:39:bc:84:47:06:13:7b:
         e9:a2:82:60:b7:e8:31:42:9d:da:f9:55:95:b9:85:3d:bb:c6:
         13:3c:24:07:cf:f7:10:1e:ee:b3:6d:8f:d5:e9:62:75:7b:17:
         29:4d:be:72:39:ca:38:5f:fd:52:02:be:2e:6d:98:18:53:a9:
         b3:0c:21:15:2d:3f:80:b7:2c:e4:39:c1:54:bc:c9:a9:ff:09:
         a0:4e:77:d0:61:ab:44:30:80:8e:72:6c:b8:6c:ee:11:a9:e2:
         12:2d:38:69:a6:b0:04:12:9d:9d:25:f9:68:81:e9:35:eb:22:
         27:88:58:a8:67:49:00:40:e2:77:09:5d:38:be:26:86:69:01:
         d9:b3:f0:81:2a:36:2d:f4:10:b6:d2:aa:fb:03:f7:50:3b:cf:
         c9:f8:5c:b7:75:12:2e:6b
-----BEGIN CERTIFICATE-----
MIIFyzCCA7OgAwIBAgICAdAwDQYJKoZIhvcNAQELBQAwgYQxCzAJBgNVBAYTAkNI
MRAwDgYDVQQIEwdUaHVyZ2F1MRAwDgYDVQQHEwdLZWZpa29uMRMwEQYDVQQKEwpn
dWVuZ2VsLmNoMRYwFAYDVQQDEw1DQSBndWVuZ2VsLmNoMSQwIgYJKoZIhvcNAQkB
FhVwb3N0bWFzdGVyQGd1ZW5nZWwuY2gwHhcNMjIwMjExMDcwNzEzWhcNMjMwMzE4
MDcwNzEzWjB6MQswCQYDVQQGEwJDSDEQMA4GA1UECBMHVGh1cmdhdTETMBEGA1UE
ChMKZ3VlbmdlbC5jaDEeMBwGA1UEAxMVcGktMS5rOHMua3J1ZW1lbC5ob21lMSQw
IgYJKoZIhvcNAQkBFhVwb3N0bWFzdGVyQGd1ZW5nZWwuY2gwggEiMA0GCSqGSIb3
DQEBAQUAA4IBDwAwggEKAoIBAQDdzN9aX9DGLxFYDHYbKV+x6lCX+9pger+Owphv
m4Y8NwOOfENpyaSE6mMZI+u5t+aHNExpq0ILM+7dnCbB9CZbOkVZyGAIWgfPNMih
UL8BwVw5+e0SDGVHxCijlAjcaKpjVT+2jbsoCX6uMQFddI3Tu0UlGHzsRcxjnx3o
4poeOVzkVe8U8meqH8HHeImLCs/chGC968BvVLQm1HHboPNXVxqhH/h3h3ipNcPB
ZwDPsfgHVMqIr9jsl0dcTFNTwG1jw477HgkIwr8ujaJiCHYhjasvyRhZOnQtum7I
9yFBFK/5y1tmkOPMGgfNY/oJkHZyzPpq8u2xaKfcrDM5W3wPAgMBAAGjggFOMIIB
SjALBgNVHQ8EBAMCA6gwDAYDVR0TAQH/BAIwADARBglghkgBhvhCAQEEBAMCBsAw
HQYDVR0lBBYwFAYIKwYBBQUHAwEGCCsGAQUFBwMCMCAGA1UdEQQZMBeCFXBpLTEu
azhzLmtydWVtZWwuaG9tZTAdBgNVHQ4EFgQUiERosJMynioiQQta5cVrvPgSa/gw
gbkGA1UdIwSBsTCBroAU1ojxqsErCYy4XJ3O31c5YiYQIJChgYqkgYcwgYQxCzAJ
BgNVBAYTAkNIMRAwDgYDVQQIEwdUaHVyZ2F1MRAwDgYDVQQHEwdLZWZpa29uMRMw
EQYDVQQKEwpndWVuZ2VsLmNoMRYwFAYDVQQDEw1DQSBndWVuZ2VsLmNoMSQwIgYJ
KoZIhvcNAQkBFhVwb3N0bWFzdGVyQGd1ZW5nZWwuY2iCCQDlJTumd73L/zANBgkq
hkiG9w0BAQsFAAOCAgEAV+QfpJABPs//caH4eOKSUVLRTrGoykmMk9DKIU1/9r/j
A7nTUSHrSsFI6WvTV/MeSp8VonvBqs97QQgRvCfRA3JNeQqqgP/sVLDiJV4QWj5+
8dyNNr6j7WDjAIkOiXWIZq62tamOmCo/mtIB+TT/WAqobjv526Lfre4SfJqbgbnb
j10msVSU6jj+G3zuZYSicHlGSKFPgvhZ0bRfi8wPEzXrTW0NwP4Z+dzC8Lba97sD
BQDMZmigI3B5txJhEWf7cGVoVQQe9ZcNtjQ0Pw7abXV+YcevlBGXqMW6MAnXgYL4
xKKLU71ztK0HM5VXxt+3CYbmuOYtmsWYDXMjwFJwVmVTk5+ypIpzqYQ70hoifbFM
90EogEKyN5bvc+YvzDKFmIHW7ABz4Ox04p432fzNNDJGTI2ftsKw6fWozwzlrdYW
z5g2TTsS+UKWWfGPMCX04lp7RLgTWBSssiikt4El1DY5vIRHBhN76aKCYLfoMUKd
2vlVlbmFPbvGEzwkB8/3EB7us22P1elidXsXKU2+cjnKOF/9UgK+Lm2YGFOpswwh
FS0/gLcs5DnBVLzJqf8JoE530GGrRDCAjnJsuGzuEaniEi04aaawBBKdnSX5aIHp
NesiJ4hYqGdJAEDidwldOL4mhmkB2bPwgSo2LfQQttKq+wP3UDvPyfhct3USLms=
-----END CERTIFICATE-----
