Certificate:
    Data:
        Version: 3 (0x2)
        Serial Number:
            55:c6:ef:1e:12:f8:87:53:30:a3:28:ac:d6:52:ba:c7:79:35:44:20
        Signature Algorithm: sha256WithRSAEncryption
        Issuer: C=CH, ST=Thurgau, L=Kefikon, O=guengel.ch, CN=CA 2022/emailAddress=postmaster@guengel.ch
        Validity
            Not Before: Dec 30 08:44:39 2023 GMT
            Not After : Feb  2 08:44:39 2025 GMT
        Subject: C=CH, ST=Thurgau, O=guengel.ch, CN=pi-1.k8s.kruemel.home/emailAddress=postmaster@guengel.ch
        Subject Public Key Info:
            Public Key Algorithm: rsaEncryption
                RSA Public-Key: (2048 bit)
                Modulus:
                    00:cc:1c:d9:c3:62:e9:f7:c3:ab:f0:6c:33:04:b4:
                    09:24:51:77:1a:7c:1d:cf:06:a7:ee:1a:c5:8c:c4:
                    a3:a7:4e:60:03:6a:fc:12:60:a1:b9:48:c8:7e:f4:
                    6b:91:58:93:20:30:c6:69:89:a9:7a:72:0e:f9:f0:
                    5e:da:34:02:0d:fc:19:f4:2a:c1:fd:0e:11:7c:00:
                    da:7f:ad:cd:81:64:95:70:df:d7:47:7e:70:b4:76:
                    6a:dc:a5:6e:0c:98:2f:cf:2b:2f:09:ef:6b:69:94:
                    41:02:d2:58:a2:92:0e:b8:f7:55:0b:7e:82:38:05:
                    c1:fc:13:62:2c:44:e1:22:59:f1:65:1e:0a:51:54:
                    43:ba:b6:53:45:b6:50:32:10:72:17:fb:7d:2f:c9:
                    6d:4d:8c:53:75:33:b8:95:1e:9c:85:d4:07:da:2e:
                    93:36:22:aa:7c:66:4e:f4:f6:a7:66:27:08:77:ad:
                    4a:a1:d7:b1:8b:cd:02:00:8a:60:87:0f:47:27:5d:
                    c5:41:36:7f:4a:49:8f:ad:b1:23:5a:1a:93:68:c1:
                    3d:85:28:41:b3:9f:02:5a:e0:ba:89:3a:f7:f7:5a:
                    29:1d:04:b8:b3:5e:99:91:5b:4f:40:3b:a4:fa:c8:
                    88:07:43:45:1b:79:76:5e:66:93:58:ef:b5:2b:1f:
                    94:51
                Exponent: 65537 (0x10001)
        X509v3 extensions:
            X509v3 Basic Constraints: critical
                CA:FALSE
            X509v3 Key Usage: 
                Digital Signature, Key Encipherment, Key Agreement
            X509v3 Subject Key Identifier: 
                DE:3C:05:99:1F:68:5D:59:8A:51:5D:83:AC:A9:88:0B:FA:E3:A1:37
            X509v3 Authority Key Identifier: 
                keyid:22:20:0D:51:40:61:42:BE:DD:BA:D9:C9:C1:77:B6:93:28:C3:99:EC
                DirName:/C=CH/ST=Thurgau/L=Kefikon/O=guengel.ch/CN=CA 2022/emailAddress=postmaster@guengel.ch
                serial:6D:29:90:54:E9:17:E9:C2:6A:E6:52:AD:84:4E:30:8E:6E:57:FB:1C

            Netscape Cert Type: 
                SSL Client, SSL Server
            X509v3 Extended Key Usage: 
                TLS Web Server Authentication, TLS Web Client Authentication
    Signature Algorithm: sha256WithRSAEncryption
         2b:e3:a0:fb:c6:ce:86:9c:65:3c:4e:9d:16:76:25:71:10:a8:
         66:c8:7e:4d:f4:b4:55:33:71:00:70:82:6f:e6:76:b0:c0:f8:
         4d:fa:c0:4e:90:52:b2:4c:99:1b:3e:99:c4:95:66:d0:31:53:
         f8:8c:50:94:91:fb:b3:55:c1:dd:eb:dd:47:b0:4b:55:58:46:
         a2:17:65:02:de:2e:77:16:37:e3:3d:a4:cb:00:7e:37:72:86:
         62:35:54:c0:b9:29:7c:68:d3:09:0c:56:5e:9b:ed:6a:6f:da:
         20:34:b0:ae:2b:91:6c:8b:44:5d:74:e0:e1:2f:b9:44:43:86:
         8a:29:aa:e9:00:9f:60:69:4c:b2:e5:09:fc:2b:02:ea:37:79:
         66:4c:d7:fe:f4:fd:a1:b9:f2:11:08:36:53:f3:23:ca:e9:a8:
         16:38:82:2a:31:8f:ac:02:d4:ec:29:2e:d1:04:6a:ba:17:b3:
         4b:4e:2d:ad:d2:b5:b3:15:a4:25:de:aa:5b:57:1f:10:44:26:
         02:44:c1:f2:d3:d0:58:1a:a7:14:8d:9a:bf:c7:4c:15:d3:96:
         03:8e:62:e9:4b:b6:6b:11:c7:12:b1:ce:d9:0a:bb:47:c5:58:
         64:ea:94:37:28:27:fc:bc:54:cc:1a:d6:94:90:bd:57:72:4c:
         a7:d1:8d:f2:0c:69:9c:54:ea:e5:19:86:15:f5:80:0c:3c:8c:
         b6:bf:22:e4:22:b3:dc:1f:1e:32:6e:5b:75:83:ff:38:26:9d:
         d9:9d:6c:a3:47:39:44:a7:82:2b:bf:1b:91:0a:a8:94:95:f7:
         78:e9:10:ee:51:05:57:e8:45:99:ce:40:6e:2d:37:a2:1f:f4:
         6b:e7:05:2e:37:0d:bc:b4:27:f5:d0:72:fe:d2:6d:bc:f1:f7:
         9b:da:d8:fa:95:07:ef:16:50:e9:91:1c:c1:9d:50:e2:ac:7b:
         96:3a:07:98:95:5e:9d:d4:1a:cb:fe:88:9b:8b:8f:c3:c5:9a:
         5b:04:16:d2:e3:fd:6b:f5:a6:9d:49:87:2c:64:f8:0a:db:ac:
         69:78:4f:14:8d:3d:de:0b:48:59:1c:26:b9:25:9a:8e:a8:81:
         ca:50:98:3c:70:89:fb:16:e2:64:8c:f6:49:88:62:83:b7:52:
         d3:83:f7:cc:0e:a3:bb:71:36:28:9d:f8:ef:a6:9d:d5:b4:0a:
         2b:13:9f:d2:bc:49:0a:7e:8e:f9:81:e9:c5:ee:e3:a4:0b:22:
         63:a3:f0:2c:24:b1:79:c6:a4:98:48:a7:fa:4f:a2:46:d2:78:
         4b:c8:05:35:19:b4:d7:f2:40:d5:43:cc:44:ed:49:09:fb:01:
         d8:7a:a6:21:8a:d9:d0:16
-----BEGIN CERTIFICATE-----
MIIFuDCCA6CgAwIBAgIUVcbvHhL4h1Mwoyis1lK6x3k1RCAwDQYJKoZIhvcNAQEL
BQAwfjELMAkGA1UEBhMCQ0gxEDAOBgNVBAgTB1RodXJnYXUxEDAOBgNVBAcTB0tl
Zmlrb24xEzARBgNVBAoTCmd1ZW5nZWwuY2gxEDAOBgNVBAMTB0NBIDIwMjIxJDAi
BgkqhkiG9w0BCQEWFXBvc3RtYXN0ZXJAZ3VlbmdlbC5jaDAeFw0yMzEyMzAwODQ0
MzlaFw0yNTAyMDIwODQ0MzlaMHoxCzAJBgNVBAYTAkNIMRAwDgYDVQQIEwdUaHVy
Z2F1MRMwEQYDVQQKEwpndWVuZ2VsLmNoMR4wHAYDVQQDExVwaS0xLms4cy5rcnVl
bWVsLmhvbWUxJDAiBgkqhkiG9w0BCQEWFXBvc3RtYXN0ZXJAZ3VlbmdlbC5jaDCC
ASIwDQYJKoZIhvcNAQEBBQADggEPADCCAQoCggEBAMwc2cNi6ffDq/BsMwS0CSRR
dxp8Hc8Gp+4axYzEo6dOYANq/BJgoblIyH70a5FYkyAwxmmJqXpyDvnwXto0Ag38
GfQqwf0OEXwA2n+tzYFklXDf10d+cLR2atylbgyYL88rLwnva2mUQQLSWKKSDrj3
VQt+gjgFwfwTYixE4SJZ8WUeClFUQ7q2U0W2UDIQchf7fS/JbU2MU3UzuJUenIXU
B9oukzYiqnxmTvT2p2YnCHetSqHXsYvNAgCKYIcPRyddxUE2f0pJj62xI1oak2jB
PYUoQbOfAlrguok69/daKR0EuLNemZFbT0A7pPrIiAdDRRt5dl5mk1jvtSsflFEC
AwEAAaOCATAwggEsMAwGA1UdEwEB/wQCMAAwCwYDVR0PBAQDAgOoMB0GA1UdDgQW
BBTePAWZH2hdWYpRXYOsqYgL+uOhNzCBvQYDVR0jBIG1MIGygBQiIA1RQGFCvt26
2cnBd7aTKMOZ7KGBg6SBgDB+MQswCQYDVQQGEwJDSDEQMA4GA1UECBMHVGh1cmdh
dTEQMA4GA1UEBxMHS2VmaWtvbjETMBEGA1UEChMKZ3VlbmdlbC5jaDEQMA4GA1UE
AxMHQ0EgMjAyMjEkMCIGCSqGSIb3DQEJARYVcG9zdG1hc3RlckBndWVuZ2VsLmNo
ghRtKZBU6RfpwmrmUq2ETjCOblf7HDARBglghkgBhvhCAQEEBAMCBsAwHQYDVR0l
BBYwFAYIKwYBBQUHAwEGCCsGAQUFBwMCMA0GCSqGSIb3DQEBCwUAA4ICAQAr46D7
xs6GnGU8Tp0WdiVxEKhmyH5N9LRVM3EAcIJv5nawwPhN+sBOkFKyTJkbPpnElWbQ
MVP4jFCUkfuzVcHd691HsEtVWEaiF2UC3i53FjfjPaTLAH43coZiNVTAuSl8aNMJ
DFZem+1qb9ogNLCuK5Fsi0RddODhL7lEQ4aKKarpAJ9gaUyy5Qn8KwLqN3lmTNf+
9P2hufIRCDZT8yPK6agWOIIqMY+sAtTsKS7RBGq6F7NLTi2t0rWzFaQl3qpbVx8Q
RCYCRMHy09BYGqcUjZq/x0wV05YDjmLpS7ZrEccSsc7ZCrtHxVhk6pQ3KCf8vFTM
GtaUkL1Xckyn0Y3yDGmcVOrlGYYV9YAMPIy2vyLkIrPcHx4yblt1g/84Jp3ZnWyj
RzlEp4IrvxuRCqiUlfd46RDuUQVX6EWZzkBuLTeiH/Rr5wUuNw28tCf10HL+0m28
8feb2tj6lQfvFlDpkRzBnVDirHuWOgeYlV6d1BrL/oibi4/DxZpbBBbS4/1r9aad
SYcsZPgK26xpeE8UjT3eC0hZHCa5JZqOqIHKUJg8cIn7FuJkjPZJiGKDt1LTg/fM
DqO7cTYonfjvpp3VtAorE5/SvEkKfo75genF7uOkCyJjo/AsJLF5xqSYSKf6T6JG
0nhLyAU1GbTX8kDVQ8xE7UkJ+wHYeqYhitnQFg==
-----END CERTIFICATE-----
