Certificate:
    Data:
        Version: 3 (0x2)
        Serial Number: 435 (0x1b3)
        Signature Algorithm: sha256WithRSAEncryption
        Issuer: C=CH, ST=Thurgau, L=Kefikon, O=guengel.ch, CN=CA guengel.ch/emailAddress=postmaster@guengel.ch
        Validity
            Not Before: Feb  6 15:18:52 2021 GMT
            Not After : Mar 13 15:18:52 2022 GMT
        Subject: C=CH, ST=Thurgau, O=guengel.ch, CN=pi-1.k8s.kruemel.home/emailAddress=postmaster@guengel.ch
        Subject Public Key Info:
            Public Key Algorithm: rsaEncryption
                RSA Public-Key: (2048 bit)
                Modulus:
                    00:dd:cc:df:5a:5f:d0:c6:2f:11:58:0c:76:1b:29:
                    5f:b1:ea:50:97:fb:da:60:7a:bf:8e:c2:98:6f:9b:
                    86:3c:37:03:8e:7c:43:69:c9:a4:84:ea:63:19:23:
                    eb:b9:b7:e6:87:34:4c:69:ab:42:0b:33:ee:dd:9c:
                    26:c1:f4:26:5b:3a:45:59:c8:60:08:5a:07:cf:34:
                    c8:a1:50:bf:01:c1:5c:39:f9:ed:12:0c:65:47:c4:
                    28:a3:94:08:dc:68:aa:63:55:3f:b6:8d:bb:28:09:
                    7e:ae:31:01:5d:74:8d:d3:bb:45:25:18:7c:ec:45:
                    cc:63:9f:1d:e8:e2:9a:1e:39:5c:e4:55:ef:14:f2:
                    67:aa:1f:c1:c7:78:89:8b:0a:cf:dc:84:60:bd:eb:
                    c0:6f:54:b4:26:d4:71:db:a0:f3:57:57:1a:a1:1f:
                    f8:77:87:78:a9:35:c3:c1:67:00:cf:b1:f8:07:54:
                    ca:88:af:d8:ec:97:47:5c:4c:53:53:c0:6d:63:c3:
                    8e:fb:1e:09:08:c2:bf:2e:8d:a2:62:08:76:21:8d:
                    ab:2f:c9:18:59:3a:74:2d:ba:6e:c8:f7:21:41:14:
                    af:f9:cb:5b:66:90:e3:cc:1a:07:cd:63:fa:09:90:
                    76:72:cc:fa:6a:f2:ed:b1:68:a7:dc:ac:33:39:5b:
                    7c:0f
                Exponent: 65537 (0x10001)
        X509v3 extensions:
            X509v3 Key Usage: 
                Digital Signature, Key Encipherment, Key Agreement
            X509v3 Basic Constraints: critical
                CA:FALSE
            Netscape Cert Type: 
                SSL Client, SSL Server
            X509v3 Extended Key Usage: 
                TLS Web Server Authentication, TLS Web Client Authentication
            X509v3 Subject Alternative Name: 
                DNS:pi-1.k8s.kruemel.home
            X509v3 Subject Key Identifier: 
                88:44:68:B0:93:32:9E:2A:22:41:0B:5A:E5:C5:6B:BC:F8:12:6B:F8
            X509v3 Authority Key Identifier: 
                keyid:D6:88:F1:AA:C1:2B:09:8C:B8:5C:9D:CE:DF:57:39:62:26:10:20:90
                DirName:/C=CH/ST=Thurgau/L=Kefikon/O=guengel.ch/CN=CA guengel.ch/emailAddress=postmaster@guengel.ch
                serial:E5:25:3B:A6:77:BD:CB:FF

    Signature Algorithm: sha256WithRSAEncryption
         83:9d:0c:26:f8:b3:e9:bf:44:e0:70:2e:c8:26:3a:08:d9:32:
         61:43:b5:e9:4a:fc:4b:ec:12:40:78:e2:c1:36:4f:b1:4b:c8:
         d7:fe:12:28:76:1b:b3:0c:6f:46:38:aa:a3:1e:10:b5:a2:63:
         6a:ea:59:3f:f7:d8:de:e3:8c:8f:b6:24:3a:ab:3b:1a:43:9c:
         db:44:a7:16:a9:c3:c9:e9:47:fd:b3:8f:1b:b5:5d:d6:56:7c:
         b2:b5:12:5a:ef:92:d5:e4:49:0b:fe:06:37:b4:3a:57:3d:af:
         74:5d:6d:74:63:57:57:b7:88:ca:d6:76:dc:c5:c4:25:36:0b:
         9f:5e:29:7a:81:8f:7f:17:b7:a6:f3:0d:1d:d5:f7:f6:30:cb:
         b4:e8:8d:c2:04:eb:82:e7:d6:a1:1e:92:ec:1e:10:93:03:d0:
         5e:e6:5c:9f:11:d0:99:3d:f5:b6:ad:7d:d3:e9:ff:ee:a1:42:
         ed:a5:45:37:12:b0:fa:b0:92:70:d9:f3:ee:34:5b:d7:bb:b8:
         75:ef:1e:4b:8b:87:27:69:ee:39:05:e7:fb:81:e8:27:66:9e:
         2f:7b:f8:28:05:34:18:ed:ff:00:b5:6d:9e:0d:ca:05:6e:37:
         fb:5f:54:cc:cb:fe:9f:77:0a:a8:e3:b9:1d:24:c3:c3:e2:0f:
         48:74:7b:c7:f9:67:cb:5d:59:3e:25:7a:3c:0c:5c:d8:7d:e8:
         2c:21:11:33:c1:34:a5:1c:7a:06:58:dc:7b:f8:07:0e:40:48:
         28:be:a1:51:ae:b5:f2:f2:49:59:f8:c4:dd:c0:fc:7c:b0:f1:
         8a:6e:58:f0:bc:3f:f2:c0:b2:9e:ec:f2:bb:8c:f8:6d:91:85:
         87:c6:ef:bb:5b:12:98:da:76:ac:a5:eb:b5:52:f0:e1:20:2a:
         91:61:aa:9e:08:1e:70:de:05:4b:6b:80:bb:ec:3b:bd:18:00:
         e1:de:62:68:fa:0f:27:e9:b0:3a:99:cb:e2:d3:46:d9:7e:e6:
         19:90:94:69:6e:72:d4:f9:7e:27:06:a9:1f:d4:ef:40:3a:69:
         38:29:f4:9d:93:03:a3:8e:a5:bf:e1:d1:b7:0d:1f:57:68:75:
         81:0e:9a:ab:bf:ed:23:a5:2d:5d:14:98:33:8c:23:de:f0:52:
         50:23:77:dc:3a:68:1b:14:e4:df:35:43:d7:6b:5f:30:cc:3f:
         a4:a7:f0:0e:47:30:de:e0:2a:91:fc:2b:1c:91:10:16:ac:cb:
         67:e2:1d:21:8c:7f:8d:c0:3c:0e:0b:d6:d4:cd:bd:c6:2a:a5:
         f5:c0:0c:a4:60:34:97:18:fa:cb:d3:01:5a:16:c6:cd:85:a4:
         99:3e:06:07:70:8e:38:c3
-----BEGIN CERTIFICATE-----
MIIFyzCCA7OgAwIBAgICAbMwDQYJKoZIhvcNAQELBQAwgYQxCzAJBgNVBAYTAkNI
MRAwDgYDVQQIEwdUaHVyZ2F1MRAwDgYDVQQHEwdLZWZpa29uMRMwEQYDVQQKEwpn
dWVuZ2VsLmNoMRYwFAYDVQQDEw1DQSBndWVuZ2VsLmNoMSQwIgYJKoZIhvcNAQkB
FhVwb3N0bWFzdGVyQGd1ZW5nZWwuY2gwHhcNMjEwMjA2MTUxODUyWhcNMjIwMzEz
MTUxODUyWjB6MQswCQYDVQQGEwJDSDEQMA4GA1UECBMHVGh1cmdhdTETMBEGA1UE
ChMKZ3VlbmdlbC5jaDEeMBwGA1UEAxMVcGktMS5rOHMua3J1ZW1lbC5ob21lMSQw
IgYJKoZIhvcNAQkBFhVwb3N0bWFzdGVyQGd1ZW5nZWwuY2gwggEiMA0GCSqGSIb3
DQEBAQUAA4IBDwAwggEKAoIBAQDdzN9aX9DGLxFYDHYbKV+x6lCX+9pger+Owphv
m4Y8NwOOfENpyaSE6mMZI+u5t+aHNExpq0ILM+7dnCbB9CZbOkVZyGAIWgfPNMih
UL8BwVw5+e0SDGVHxCijlAjcaKpjVT+2jbsoCX6uMQFddI3Tu0UlGHzsRcxjnx3o
4poeOVzkVe8U8meqH8HHeImLCs/chGC968BvVLQm1HHboPNXVxqhH/h3h3ipNcPB
ZwDPsfgHVMqIr9jsl0dcTFNTwG1jw477HgkIwr8ujaJiCHYhjasvyRhZOnQtum7I
9yFBFK/5y1tmkOPMGgfNY/oJkHZyzPpq8u2xaKfcrDM5W3wPAgMBAAGjggFOMIIB
SjALBgNVHQ8EBAMCA6gwDAYDVR0TAQH/BAIwADARBglghkgBhvhCAQEEBAMCBsAw
HQYDVR0lBBYwFAYIKwYBBQUHAwEGCCsGAQUFBwMCMCAGA1UdEQQZMBeCFXBpLTEu
azhzLmtydWVtZWwuaG9tZTAdBgNVHQ4EFgQUiERosJMynioiQQta5cVrvPgSa/gw
gbkGA1UdIwSBsTCBroAU1ojxqsErCYy4XJ3O31c5YiYQIJChgYqkgYcwgYQxCzAJ
BgNVBAYTAkNIMRAwDgYDVQQIEwdUaHVyZ2F1MRAwDgYDVQQHEwdLZWZpa29uMRMw
EQYDVQQKEwpndWVuZ2VsLmNoMRYwFAYDVQQDEw1DQSBndWVuZ2VsLmNoMSQwIgYJ
KoZIhvcNAQkBFhVwb3N0bWFzdGVyQGd1ZW5nZWwuY2iCCQDlJTumd73L/zANBgkq
hkiG9w0BAQsFAAOCAgEAg50MJviz6b9E4HAuyCY6CNkyYUO16Ur8S+wSQHjiwTZP
sUvI1/4SKHYbswxvRjiqox4QtaJjaupZP/fY3uOMj7YkOqs7GkOc20SnFqnDyelH
/bOPG7Vd1lZ8srUSWu+S1eRJC/4GN7Q6Vz2vdF1tdGNXV7eIytZ23MXEJTYLn14p
eoGPfxe3pvMNHdX39jDLtOiNwgTrgufWoR6S7B4QkwPQXuZcnxHQmT31tq190+n/
7qFC7aVFNxKw+rCScNnz7jRb17u4de8eS4uHJ2nuOQXn+4HoJ2aeL3v4KAU0GO3/
ALVtng3KBW43+19UzMv+n3cKqOO5HSTDw+IPSHR7x/lny11ZPiV6PAxc2H3oLCER
M8E0pRx6Bljce/gHDkBIKL6hUa618vJJWfjE3cD8fLDxim5Y8Lw/8sCynuzyu4z4
bZGFh8bvu1sSmNp2rKXrtVLw4SAqkWGqnggecN4FS2uAu+w7vRgA4d5iaPoPJ+mw
OpnL4tNG2X7mGZCUaW5y1Pl+JwapH9TvQDppOCn0nZMDo46lv+HRtw0fV2h1gQ6a
q7/tI6UtXRSYM4wj3vBSUCN33DpoGxTk3zVD12tfMMw/pKfwDkcw3uAqkfwrHJEQ
FqzLZ+IdIYx/jcA8DgvW1M29xiql9cAMpGA0lxj6y9MBWhbGzYWkmT4GB3COOMM=
-----END CERTIFICATE-----
