Certificate:
    Data:
        Version: 3 (0x2)
        Serial Number:
            4e:fb:b9:17:8c:01:55:13:2f:69:45:94:cf:c5:79:68:d7:e6:5f:8d
        Signature Algorithm: sha256WithRSAEncryption
        Issuer: C=CH, ST=Thurgau, L=Kefikon, O=guengel.ch, CN=CA 2022/emailAddress=postmaster@guengel.ch
        Validity
            Not Before: Jan  3 14:04:26 2025 GMT
            Not After : Feb  7 14:04:26 2026 GMT
        Subject: C=CH, ST=Thurgau, O=guengel.ch, CN=pi-1.k8s.kruemel.home/emailAddress=postmaster@guengel.ch
        Subject Public Key Info:
            Public Key Algorithm: rsaEncryption
                Public-Key: (2048 bit)
                Modulus:
                    00:cc:1c:d9:c3:62:e9:f7:c3:ab:f0:6c:33:04:b4:
                    09:24:51:77:1a:7c:1d:cf:06:a7:ee:1a:c5:8c:c4:
                    a3:a7:4e:60:03:6a:fc:12:60:a1:b9:48:c8:7e:f4:
                    6b:91:58:93:20:30:c6:69:89:a9:7a:72:0e:f9:f0:
                    5e:da:34:02:0d:fc:19:f4:2a:c1:fd:0e:11:7c:00:
                    da:7f:ad:cd:81:64:95:70:df:d7:47:7e:70:b4:76:
                    6a:dc:a5:6e:0c:98:2f:cf:2b:2f:09:ef:6b:69:94:
                    41:02:d2:58:a2:92:0e:b8:f7:55:0b:7e:82:38:05:
                    c1:fc:13:62:2c:44:e1:22:59:f1:65:1e:0a:51:54:
                    43:ba:b6:53:45:b6:50:32:10:72:17:fb:7d:2f:c9:
                    6d:4d:8c:53:75:33:b8:95:1e:9c:85:d4:07:da:2e:
                    93:36:22:aa:7c:66:4e:f4:f6:a7:66:27:08:77:ad:
                    4a:a1:d7:b1:8b:cd:02:00:8a:60:87:0f:47:27:5d:
                    c5:41:36:7f:4a:49:8f:ad:b1:23:5a:1a:93:68:c1:
                    3d:85:28:41:b3:9f:02:5a:e0:ba:89:3a:f7:f7:5a:
                    29:1d:04:b8:b3:5e:99:91:5b:4f:40:3b:a4:fa:c8:
                    88:07:43:45:1b:79:76:5e:66:93:58:ef:b5:2b:1f:
                    94:51
                Exponent: 65537 (0x10001)
        X509v3 extensions:
            X509v3 Basic Constraints: critical
                CA:FALSE
            X509v3 Key Usage: 
                Digital Signature, Key Encipherment, Key Agreement
            X509v3 Subject Key Identifier: 
                DE:3C:05:99:1F:68:5D:59:8A:51:5D:83:AC:A9:88:0B:FA:E3:A1:37
            X509v3 Authority Key Identifier: 
                keyid:22:20:0D:51:40:61:42:BE:DD:BA:D9:C9:C1:77:B6:93:28:C3:99:EC
                DirName:/C=CH/ST=Thurgau/L=Kefikon/O=guengel.ch/CN=CA 2022/emailAddress=postmaster@guengel.ch
                serial:6D:29:90:54:E9:17:E9:C2:6A:E6:52:AD:84:4E:30:8E:6E:57:FB:1C
            Netscape Cert Type: 
                SSL Client, SSL Server
            X509v3 Extended Key Usage: 
                TLS Web Server Authentication, TLS Web Client Authentication
    Signature Algorithm: sha256WithRSAEncryption
    Signature Value:
        6e:19:89:8d:62:7f:a1:7c:bf:4f:30:8c:38:75:2a:ea:c9:1a:
        f3:55:31:1e:15:33:ea:7d:47:f4:4f:91:98:aa:c6:ba:3d:7b:
        47:ce:04:e5:cb:30:3f:92:94:96:4c:fb:ee:cb:6f:a6:b6:da:
        50:a6:61:38:04:39:45:40:12:cb:91:7c:71:55:81:66:24:21:
        b8:06:65:e7:89:f7:14:fc:fb:9a:d5:ab:b8:16:be:c5:ba:b9:
        ea:17:e3:db:1f:3d:4f:5b:c8:11:dd:a8:fd:68:e0:25:3a:7c:
        47:3e:11:84:d1:26:5d:23:48:2c:9a:01:7b:b4:96:86:20:1f:
        37:3a:68:d2:90:09:34:8b:4d:d3:9b:31:4c:b2:9d:d4:80:49:
        30:96:12:d0:09:15:18:39:ce:c0:46:e3:54:71:10:1c:09:2b:
        3b:65:47:00:8b:92:47:eb:92:b5:e6:89:2f:97:a8:84:90:54:
        e9:9d:db:94:30:f8:d3:27:bf:90:65:d1:0b:f7:e5:39:2f:e3:
        b8:6b:09:df:70:d0:0f:09:c7:1a:ea:da:27:32:2e:12:0a:09:
        00:ec:9e:20:37:35:e2:6f:d4:45:ae:90:78:65:bc:bf:5b:42:
        21:5a:4e:3e:3a:a2:96:3b:7a:b5:52:a7:68:5e:63:bf:21:20:
        3f:ed:66:bf:fb:de:ab:a6:4a:51:26:31:f3:5b:aa:8f:a5:ce:
        34:37:ab:ce:fb:63:6e:9b:13:3e:2b:6a:e9:bc:d1:c3:36:84:
        be:72:3c:cd:19:d5:8c:40:b1:02:38:0c:c5:d6:f7:f5:a8:cf:
        3f:25:87:2d:62:72:a0:98:92:95:d0:51:35:40:aa:21:f1:f9:
        cd:ac:d3:4b:9c:6f:e9:2f:27:2e:8d:f3:a3:fb:fe:63:01:90:
        98:0c:55:cb:7b:88:90:2b:db:96:c1:40:18:c8:96:ac:4e:5e:
        a0:0e:57:95:54:09:95:f2:27:ea:e0:a0:36:55:3b:db:df:ce:
        71:39:81:50:dd:5b:64:af:60:74:e9:9e:01:dd:59:7b:72:c5:
        c4:e7:ec:7d:be:b7:06:56:f8:57:1e:77:6f:17:6f:a7:eb:a7:
        1d:29:39:ad:ea:6b:23:d9:6c:4d:51:36:21:65:12:bb:7b:31:
        bc:da:d7:ae:a6:5f:a5:d3:7e:35:eb:33:14:6a:b2:e0:ca:83:
        b5:4e:fe:ca:55:f4:94:62:04:b5:12:3e:11:70:27:a1:21:0e:
        ed:28:aa:2b:27:d5:81:57:f3:82:1d:25:c7:46:0c:3c:ab:78:
        79:70:8b:b1:de:6f:d4:b7:30:32:53:bf:f6:2b:90:ea:5f:72:
        00:f9:46:ee:2a:96:53:f4
-----BEGIN CERTIFICATE-----
MIIFuDCCA6CgAwIBAgIUTvu5F4wBVRMvaUWUz8V5aNfmX40wDQYJKoZIhvcNAQEL
BQAwfjELMAkGA1UEBhMCQ0gxEDAOBgNVBAgTB1RodXJnYXUxEDAOBgNVBAcTB0tl
Zmlrb24xEzARBgNVBAoTCmd1ZW5nZWwuY2gxEDAOBgNVBAMTB0NBIDIwMjIxJDAi
BgkqhkiG9w0BCQEWFXBvc3RtYXN0ZXJAZ3VlbmdlbC5jaDAeFw0yNTAxMDMxNDA0
MjZaFw0yNjAyMDcxNDA0MjZaMHoxCzAJBgNVBAYTAkNIMRAwDgYDVQQIEwdUaHVy
Z2F1MRMwEQYDVQQKEwpndWVuZ2VsLmNoMR4wHAYDVQQDExVwaS0xLms4cy5rcnVl
bWVsLmhvbWUxJDAiBgkqhkiG9w0BCQEWFXBvc3RtYXN0ZXJAZ3VlbmdlbC5jaDCC
ASIwDQYJKoZIhvcNAQEBBQADggEPADCCAQoCggEBAMwc2cNi6ffDq/BsMwS0CSRR
dxp8Hc8Gp+4axYzEo6dOYANq/BJgoblIyH70a5FYkyAwxmmJqXpyDvnwXto0Ag38
GfQqwf0OEXwA2n+tzYFklXDf10d+cLR2atylbgyYL88rLwnva2mUQQLSWKKSDrj3
VQt+gjgFwfwTYixE4SJZ8WUeClFUQ7q2U0W2UDIQchf7fS/JbU2MU3UzuJUenIXU
B9oukzYiqnxmTvT2p2YnCHetSqHXsYvNAgCKYIcPRyddxUE2f0pJj62xI1oak2jB
PYUoQbOfAlrguok69/daKR0EuLNemZFbT0A7pPrIiAdDRRt5dl5mk1jvtSsflFEC
AwEAAaOCATAwggEsMAwGA1UdEwEB/wQCMAAwCwYDVR0PBAQDAgOoMB0GA1UdDgQW
BBTePAWZH2hdWYpRXYOsqYgL+uOhNzCBvQYDVR0jBIG1MIGygBQiIA1RQGFCvt26
2cnBd7aTKMOZ7KGBg6SBgDB+MQswCQYDVQQGEwJDSDEQMA4GA1UECBMHVGh1cmdh
dTEQMA4GA1UEBxMHS2VmaWtvbjETMBEGA1UEChMKZ3VlbmdlbC5jaDEQMA4GA1UE
AxMHQ0EgMjAyMjEkMCIGCSqGSIb3DQEJARYVcG9zdG1hc3RlckBndWVuZ2VsLmNo
ghRtKZBU6RfpwmrmUq2ETjCOblf7HDARBglghkgBhvhCAQEEBAMCBsAwHQYDVR0l
BBYwFAYIKwYBBQUHAwEGCCsGAQUFBwMCMA0GCSqGSIb3DQEBCwUAA4ICAQBuGYmN
Yn+hfL9PMIw4dSrqyRrzVTEeFTPqfUf0T5GYqsa6PXtHzgTlyzA/kpSWTPvuy2+m
ttpQpmE4BDlFQBLLkXxxVYFmJCG4BmXnifcU/Pua1au4Fr7FurnqF+PbHz1PW8gR
3aj9aOAlOnxHPhGE0SZdI0gsmgF7tJaGIB83OmjSkAk0i03TmzFMsp3UgEkwlhLQ
CRUYOc7ARuNUcRAcCSs7ZUcAi5JH65K15okvl6iEkFTpnduUMPjTJ7+QZdEL9+U5
L+O4awnfcNAPCcca6tonMi4SCgkA7J4gNzXib9RFrpB4Zby/W0IhWk4+OqKWO3q1
UqdoXmO/ISA/7Wa/+96rpkpRJjHzW6qPpc40N6vO+2NumxM+K2rpvNHDNoS+cjzN
GdWMQLECOAzF1vf1qM8/JYctYnKgmJKV0FE1QKoh8fnNrNNLnG/pLycujfOj+/5j
AZCYDFXLe4iQK9uWwUAYyJasTl6gDleVVAmV8ifq4KA2VTvb385xOYFQ3Vtkr2B0
6Z4B3Vl7csXE5+x9vrcGVvhXHndvF2+n66cdKTmt6msj2WxNUTYhZRK7ezG82teu
pl+l03416zMUarLgyoO1Tv7KVfSUYgS1Ej4RcCehIQ7tKKorJ9WBV/OCHSXHRgw8
q3h5cIux3m/UtzAyU7/2K5DqX3IA+UbuKpZT9A==
-----END CERTIFICATE-----
