Certificate:
    Data:
        Version: 3 (0x2)
        Serial Number:
            62:9b:4b:21:d4:8a:ff:52:5f:d6:a8:7f:e4:8e:d0:44:33:e7:ae:13
        Signature Algorithm: sha256WithRSAEncryption
        Issuer: C=CH, ST=Thurgau, L=Kefikon, O=guengel.ch, CN=CA 2022/emailAddress=postmaster@guengel.ch
        Validity
            Not Before: Feb 28 06:42:59 2023 GMT
            Not After : Apr  3 06:42:59 2024 GMT
        Subject: C=CH, ST=Thurgau, O=guengel.ch, CN=pi-1.k8s.kruemel.home/emailAddress=postmaster@guengel.ch
        Subject Public Key Info:
            Public Key Algorithm: rsaEncryption
                RSA Public-Key: (2048 bit)
                Modulus:
                    00:cc:1c:d9:c3:62:e9:f7:c3:ab:f0:6c:33:04:b4:
                    09:24:51:77:1a:7c:1d:cf:06:a7:ee:1a:c5:8c:c4:
                    a3:a7:4e:60:03:6a:fc:12:60:a1:b9:48:c8:7e:f4:
                    6b:91:58:93:20:30:c6:69:89:a9:7a:72:0e:f9:f0:
                    5e:da:34:02:0d:fc:19:f4:2a:c1:fd:0e:11:7c:00:
                    da:7f:ad:cd:81:64:95:70:df:d7:47:7e:70:b4:76:
                    6a:dc:a5:6e:0c:98:2f:cf:2b:2f:09:ef:6b:69:94:
                    41:02:d2:58:a2:92:0e:b8:f7:55:0b:7e:82:38:05:
                    c1:fc:13:62:2c:44:e1:22:59:f1:65:1e:0a:51:54:
                    43:ba:b6:53:45:b6:50:32:10:72:17:fb:7d:2f:c9:
                    6d:4d:8c:53:75:33:b8:95:1e:9c:85:d4:07:da:2e:
                    93:36:22:aa:7c:66:4e:f4:f6:a7:66:27:08:77:ad:
                    4a:a1:d7:b1:8b:cd:02:00:8a:60:87:0f:47:27:5d:
                    c5:41:36:7f:4a:49:8f:ad:b1:23:5a:1a:93:68:c1:
                    3d:85:28:41:b3:9f:02:5a:e0:ba:89:3a:f7:f7:5a:
                    29:1d:04:b8:b3:5e:99:91:5b:4f:40:3b:a4:fa:c8:
                    88:07:43:45:1b:79:76:5e:66:93:58:ef:b5:2b:1f:
                    94:51
                Exponent: 65537 (0x10001)
        X509v3 extensions:
            X509v3 Basic Constraints: critical
                CA:FALSE
            X509v3 Key Usage: 
                Digital Signature, Key Encipherment, Key Agreement
            X509v3 Subject Key Identifier: 
                DE:3C:05:99:1F:68:5D:59:8A:51:5D:83:AC:A9:88:0B:FA:E3:A1:37
            X509v3 Authority Key Identifier: 
                keyid:22:20:0D:51:40:61:42:BE:DD:BA:D9:C9:C1:77:B6:93:28:C3:99:EC
                DirName:/C=CH/ST=Thurgau/L=Kefikon/O=guengel.ch/CN=CA 2022/emailAddress=postmaster@guengel.ch
                serial:6D:29:90:54:E9:17:E9:C2:6A:E6:52:AD:84:4E:30:8E:6E:57:FB:1C

            Netscape Cert Type: 
                SSL Client, SSL Server
            X509v3 Extended Key Usage: 
                TLS Web Server Authentication, TLS Web Client Authentication
    Signature Algorithm: sha256WithRSAEncryption
         6d:5c:4e:57:67:6d:66:e4:6e:6c:64:e6:64:38:38:db:3c:1b:
         e9:c7:00:a3:75:c9:7f:12:f7:c8:27:a0:fd:31:2b:ce:d9:72:
         f8:f8:05:52:c9:3e:3e:d9:3a:b2:3b:52:7f:18:5b:7d:18:cd:
         57:71:83:b3:5f:50:4a:3b:33:52:d0:d2:a0:ec:8b:56:09:75:
         f4:a2:e7:7d:fc:f0:f5:19:93:d1:06:de:b5:90:f1:77:9d:62:
         a1:68:5e:d4:ad:b9:ae:29:ff:05:62:cc:c8:64:d9:ce:fd:83:
         ff:ba:12:6e:f8:c5:75:17:40:9c:3c:9d:6e:bb:1d:b4:6f:3c:
         04:0d:be:8d:65:68:1d:fd:51:c2:2e:98:3a:85:d5:7c:bd:a1:
         7f:01:03:44:78:51:1a:fd:41:3a:a5:78:fc:16:64:00:5a:34:
         e4:2c:14:3d:82:70:bd:ec:59:31:28:8c:5c:5c:27:c4:6b:77:
         6e:89:49:c0:ce:77:ef:15:78:7e:77:eb:24:d5:a5:24:2e:e4:
         7f:78:bd:78:0d:80:58:84:11:ac:a1:00:cb:70:89:a2:9b:fc:
         b4:6a:80:f6:48:fe:da:4e:c3:dc:0d:ef:e3:3d:08:2e:37:d1:
         30:c5:0d:a2:43:ff:f4:16:2e:f3:62:52:36:c5:c8:b9:f2:32:
         a4:5b:58:e5:93:05:d8:d3:9d:fe:15:ec:1f:11:13:df:4f:47:
         c3:78:fe:af:e4:97:5c:0c:43:c5:a0:4b:df:61:b5:c7:30:fa:
         5f:00:af:14:4f:be:1d:13:76:e7:65:fa:d1:0b:6a:e2:2d:68:
         f4:1b:e2:9a:4c:fe:cd:a6:f1:ca:b6:0a:e6:86:70:45:bd:48:
         14:c3:c8:9f:c7:c7:2d:77:8d:b3:21:bd:e8:9e:4d:4c:31:56:
         30:dd:0b:4d:66:42:09:3d:38:88:12:5e:67:63:b7:14:70:88:
         18:61:ae:3b:81:52:2a:14:62:07:19:f2:19:99:9b:74:ba:5f:
         40:d2:20:bf:b8:89:12:9a:55:bf:4e:fc:f1:bf:9f:80:35:15:
         b1:69:d8:3c:eb:61:15:77:9c:b9:ab:b7:fa:10:19:16:52:e1:
         57:ee:e0:03:8d:87:8f:c0:c7:87:90:74:8c:28:26:4d:0f:bc:
         cd:ad:c9:dd:75:ae:69:d3:73:36:6c:02:ca:76:c5:76:8e:fc:
         cb:7d:81:67:68:7e:a1:91:cd:8f:88:57:b1:11:33:b4:4a:c2:
         78:48:5c:63:72:07:72:22:dd:5d:5d:b9:68:56:97:de:c7:bb:
         b7:b6:37:4c:52:66:c3:9d:12:0c:eb:97:5d:76:b5:f3:a7:d3:
         4b:55:c7:10:87:58:f1:ac
-----BEGIN CERTIFICATE-----
MIIFuDCCA6CgAwIBAgIUYptLIdSK/1Jf1qh/5I7QRDPnrhMwDQYJKoZIhvcNAQEL
BQAwfjELMAkGA1UEBhMCQ0gxEDAOBgNVBAgTB1RodXJnYXUxEDAOBgNVBAcTB0tl
Zmlrb24xEzARBgNVBAoTCmd1ZW5nZWwuY2gxEDAOBgNVBAMTB0NBIDIwMjIxJDAi
BgkqhkiG9w0BCQEWFXBvc3RtYXN0ZXJAZ3VlbmdlbC5jaDAeFw0yMzAyMjgwNjQy
NTlaFw0yNDA0MDMwNjQyNTlaMHoxCzAJBgNVBAYTAkNIMRAwDgYDVQQIEwdUaHVy
Z2F1MRMwEQYDVQQKEwpndWVuZ2VsLmNoMR4wHAYDVQQDExVwaS0xLms4cy5rcnVl
bWVsLmhvbWUxJDAiBgkqhkiG9w0BCQEWFXBvc3RtYXN0ZXJAZ3VlbmdlbC5jaDCC
ASIwDQYJKoZIhvcNAQEBBQADggEPADCCAQoCggEBAMwc2cNi6ffDq/BsMwS0CSRR
dxp8Hc8Gp+4axYzEo6dOYANq/BJgoblIyH70a5FYkyAwxmmJqXpyDvnwXto0Ag38
GfQqwf0OEXwA2n+tzYFklXDf10d+cLR2atylbgyYL88rLwnva2mUQQLSWKKSDrj3
VQt+gjgFwfwTYixE4SJZ8WUeClFUQ7q2U0W2UDIQchf7fS/JbU2MU3UzuJUenIXU
B9oukzYiqnxmTvT2p2YnCHetSqHXsYvNAgCKYIcPRyddxUE2f0pJj62xI1oak2jB
PYUoQbOfAlrguok69/daKR0EuLNemZFbT0A7pPrIiAdDRRt5dl5mk1jvtSsflFEC
AwEAAaOCATAwggEsMAwGA1UdEwEB/wQCMAAwCwYDVR0PBAQDAgOoMB0GA1UdDgQW
BBTePAWZH2hdWYpRXYOsqYgL+uOhNzCBvQYDVR0jBIG1MIGygBQiIA1RQGFCvt26
2cnBd7aTKMOZ7KGBg6SBgDB+MQswCQYDVQQGEwJDSDEQMA4GA1UECBMHVGh1cmdh
dTEQMA4GA1UEBxMHS2VmaWtvbjETMBEGA1UEChMKZ3VlbmdlbC5jaDEQMA4GA1UE
AxMHQ0EgMjAyMjEkMCIGCSqGSIb3DQEJARYVcG9zdG1hc3RlckBndWVuZ2VsLmNo
ghRtKZBU6RfpwmrmUq2ETjCOblf7HDARBglghkgBhvhCAQEEBAMCBsAwHQYDVR0l
BBYwFAYIKwYBBQUHAwEGCCsGAQUFBwMCMA0GCSqGSIb3DQEBCwUAA4ICAQBtXE5X
Z21m5G5sZOZkODjbPBvpxwCjdcl/EvfIJ6D9MSvO2XL4+AVSyT4+2TqyO1J/GFt9
GM1XcYOzX1BKOzNS0NKg7ItWCXX0oud9/PD1GZPRBt61kPF3nWKhaF7UrbmuKf8F
YszIZNnO/YP/uhJu+MV1F0CcPJ1uux20bzwEDb6NZWgd/VHCLpg6hdV8vaF/AQNE
eFEa/UE6pXj8FmQAWjTkLBQ9gnC97FkxKIxcXCfEa3duiUnAznfvFXh+d+sk1aUk
LuR/eL14DYBYhBGsoQDLcImim/y0aoD2SP7aTsPcDe/jPQguN9EwxQ2iQ//0Fi7z
YlI2xci58jKkW1jlkwXY053+FewfERPfT0fDeP6v5JdcDEPFoEvfYbXHMPpfAK8U
T74dE3bnZfrRC2riLWj0G+KaTP7NpvHKtgrmhnBFvUgUw8ifx8ctd42zIb3onk1M
MVYw3QtNZkIJPTiIEl5nY7cUcIgYYa47gVIqFGIHGfIZmZt0ul9A0iC/uIkSmlW/
Tvzxv5+ANRWxadg862EVd5y5q7f6EBkWUuFX7uADjYePwMeHkHSMKCZND7zNrcnd
da5p03M2bALKdsV2jvzLfYFnaH6hkc2PiFexETO0SsJ4SFxjcgdyIt1dXbloVpfe
x7u3tjdMUmbDnRIM65dddrXzp9NLVccQh1jxrA==
-----END CERTIFICATE-----
