Certificate:
    Data:
        Version: 3 (0x2)
        Serial Number: 410 (0x19a)
        Signature Algorithm: sha256WithRSAEncryption
        Issuer: C=CH, ST=Thurgau, L=Kefikon, O=guengel.ch, CN=CA guengel.ch/emailAddress=postmaster@guengel.ch
        Validity
            Not Before: Dec  7 18:43:45 2020 GMT
            Not After : Dec 22 18:43:45 2021 GMT
        Subject: C=CH, ST=Thurgau, O=guengel.ch, CN=pi-1.k8s.kruemel.home/emailAddress=postmaster@guengel.ch
        Subject Public Key Info:
            Public Key Algorithm: rsaEncryption
                RSA Public-Key: (2048 bit)
                Modulus:
                    00:dd:cc:df:5a:5f:d0:c6:2f:11:58:0c:76:1b:29:
                    5f:b1:ea:50:97:fb:da:60:7a:bf:8e:c2:98:6f:9b:
                    86:3c:37:03:8e:7c:43:69:c9:a4:84:ea:63:19:23:
                    eb:b9:b7:e6:87:34:4c:69:ab:42:0b:33:ee:dd:9c:
                    26:c1:f4:26:5b:3a:45:59:c8:60:08:5a:07:cf:34:
                    c8:a1:50:bf:01:c1:5c:39:f9:ed:12:0c:65:47:c4:
                    28:a3:94:08:dc:68:aa:63:55:3f:b6:8d:bb:28:09:
                    7e:ae:31:01:5d:74:8d:d3:bb:45:25:18:7c:ec:45:
                    cc:63:9f:1d:e8:e2:9a:1e:39:5c:e4:55:ef:14:f2:
                    67:aa:1f:c1:c7:78:89:8b:0a:cf:dc:84:60:bd:eb:
                    c0:6f:54:b4:26:d4:71:db:a0:f3:57:57:1a:a1:1f:
                    f8:77:87:78:a9:35:c3:c1:67:00:cf:b1:f8:07:54:
                    ca:88:af:d8:ec:97:47:5c:4c:53:53:c0:6d:63:c3:
                    8e:fb:1e:09:08:c2:bf:2e:8d:a2:62:08:76:21:8d:
                    ab:2f:c9:18:59:3a:74:2d:ba:6e:c8:f7:21:41:14:
                    af:f9:cb:5b:66:90:e3:cc:1a:07:cd:63:fa:09:90:
                    76:72:cc:fa:6a:f2:ed:b1:68:a7:dc:ac:33:39:5b:
                    7c:0f
                Exponent: 65537 (0x10001)
        X509v3 extensions:
            X509v3 Key Usage: 
                Digital Signature, Key Encipherment, Key Agreement
            X509v3 Basic Constraints: critical
                CA:FALSE
            Netscape Cert Type: 
                SSL Client, SSL Server
            X509v3 Extended Key Usage: 
                TLS Web Server Authentication, TLS Web Client Authentication
            X509v3 Subject Key Identifier: 
                88:44:68:B0:93:32:9E:2A:22:41:0B:5A:E5:C5:6B:BC:F8:12:6B:F8
            X509v3 Authority Key Identifier: 
                keyid:D6:88:F1:AA:C1:2B:09:8C:B8:5C:9D:CE:DF:57:39:62:26:10:20:90
                DirName:/C=CH/ST=Thurgau/L=Kefikon/O=guengel.ch/CN=CA guengel.ch/emailAddress=postmaster@guengel.ch
                serial:E5:25:3B:A6:77:BD:CB:FF

    Signature Algorithm: sha256WithRSAEncryption
         1b:96:9d:1c:62:d2:f9:16:71:e3:73:f1:b2:fd:b6:57:7d:c8:
         77:c8:51:76:2f:80:66:dc:ee:d3:60:5b:80:d6:a3:12:e0:48:
         74:a1:88:10:9d:eb:05:f8:03:81:72:99:28:cb:e1:42:7e:57:
         9b:e5:ee:97:f8:0b:3f:f2:4b:cf:a6:38:a1:02:82:b7:06:a3:
         99:e8:c3:ca:5c:1b:7d:dc:cd:b2:37:27:89:ec:d7:b1:93:0f:
         5d:52:bf:a3:7f:ce:c1:ef:4b:ac:b3:ea:2b:23:f7:ec:ea:f9:
         f8:16:49:64:55:00:cf:73:24:50:62:b3:72:c5:1e:49:35:2a:
         3e:46:1c:2d:a0:6f:19:9a:43:ce:20:73:9a:f9:90:9d:1d:08:
         19:f9:da:ae:6b:29:68:8f:83:87:3b:28:66:9b:96:71:19:d2:
         d3:7d:f2:ec:b6:75:eb:0a:79:f7:f0:e8:fa:3d:dc:37:24:fa:
         0d:ee:4c:47:d7:2b:6e:80:64:81:e5:ed:39:6c:92:86:58:52:
         ac:ac:0a:c3:a5:ec:b0:26:f9:b2:af:c5:15:78:35:c0:74:83:
         60:a9:db:94:6b:7f:63:6d:b3:99:4e:b5:9c:8b:7a:f1:05:90:
         b3:c2:12:bd:7c:1b:c1:2a:29:7f:e0:7d:e0:c4:da:1d:92:79:
         6b:0c:1a:8f:88:e6:73:49:56:33:bf:8d:3b:5a:e3:95:a8:3d:
         e7:8a:f2:2b:d8:7b:38:9e:e1:6e:e1:e4:44:11:fb:c5:c8:3d:
         4b:99:b8:d7:bd:e0:00:55:7b:7a:21:7b:34:a1:bd:eb:36:e3:
         45:b2:f9:cb:3b:c4:a7:95:73:87:56:cf:b2:a6:de:42:08:51:
         1e:e6:ef:cc:58:1b:21:9b:24:47:b8:5e:07:c5:9e:b0:1e:70:
         c3:07:12:4b:c0:39:31:e4:06:66:57:16:98:54:06:d5:ea:34:
         08:e7:24:21:5b:38:1f:84:95:27:dc:10:c0:49:2f:9a:85:54:
         1b:b1:75:68:d4:75:a8:22:3a:5c:00:b0:fd:9e:22:76:b7:68:
         5c:f4:02:f3:aa:11:1e:3a:48:49:b6:6b:10:ae:a6:0c:89:38:
         05:09:75:13:fb:5c:ae:04:c2:13:a0:6e:3d:6d:c9:dc:35:3f:
         07:8e:ad:63:0a:f6:7b:f7:b1:c5:9c:30:05:9a:95:8a:31:6f:
         fe:03:f7:81:c4:08:1b:03:71:2d:d7:29:90:6f:ab:76:3e:5a:
         ee:1d:5b:0e:5f:f1:7b:68:ad:25:8d:c3:ab:5b:99:9b:4f:7d:
         6a:b2:b7:a8:4f:e0:c0:20:19:8e:b5:41:ff:be:07:10:a0:92:
         f8:36:7f:d5:3c:0f:0d:79
-----BEGIN CERTIFICATE-----
MIIFqTCCA5GgAwIBAgICAZowDQYJKoZIhvcNAQELBQAwgYQxCzAJBgNVBAYTAkNI
MRAwDgYDVQQIEwdUaHVyZ2F1MRAwDgYDVQQHEwdLZWZpa29uMRMwEQYDVQQKEwpn
dWVuZ2VsLmNoMRYwFAYDVQQDEw1DQSBndWVuZ2VsLmNoMSQwIgYJKoZIhvcNAQkB
FhVwb3N0bWFzdGVyQGd1ZW5nZWwuY2gwHhcNMjAxMjA3MTg0MzQ1WhcNMjExMjIy
MTg0MzQ1WjB6MQswCQYDVQQGEwJDSDEQMA4GA1UECBMHVGh1cmdhdTETMBEGA1UE
ChMKZ3VlbmdlbC5jaDEeMBwGA1UEAxMVcGktMS5rOHMua3J1ZW1lbC5ob21lMSQw
IgYJKoZIhvcNAQkBFhVwb3N0bWFzdGVyQGd1ZW5nZWwuY2gwggEiMA0GCSqGSIb3
DQEBAQUAA4IBDwAwggEKAoIBAQDdzN9aX9DGLxFYDHYbKV+x6lCX+9pger+Owphv
m4Y8NwOOfENpyaSE6mMZI+u5t+aHNExpq0ILM+7dnCbB9CZbOkVZyGAIWgfPNMih
UL8BwVw5+e0SDGVHxCijlAjcaKpjVT+2jbsoCX6uMQFddI3Tu0UlGHzsRcxjnx3o
4poeOVzkVe8U8meqH8HHeImLCs/chGC968BvVLQm1HHboPNXVxqhH/h3h3ipNcPB
ZwDPsfgHVMqIr9jsl0dcTFNTwG1jw477HgkIwr8ujaJiCHYhjasvyRhZOnQtum7I
9yFBFK/5y1tmkOPMGgfNY/oJkHZyzPpq8u2xaKfcrDM5W3wPAgMBAAGjggEsMIIB
KDALBgNVHQ8EBAMCA6gwDAYDVR0TAQH/BAIwADARBglghkgBhvhCAQEEBAMCBsAw
HQYDVR0lBBYwFAYIKwYBBQUHAwEGCCsGAQUFBwMCMB0GA1UdDgQWBBSIRGiwkzKe
KiJBC1rlxWu8+BJr+DCBuQYDVR0jBIGxMIGugBTWiPGqwSsJjLhcnc7fVzliJhAg
kKGBiqSBhzCBhDELMAkGA1UEBhMCQ0gxEDAOBgNVBAgTB1RodXJnYXUxEDAOBgNV
BAcTB0tlZmlrb24xEzARBgNVBAoTCmd1ZW5nZWwuY2gxFjAUBgNVBAMTDUNBIGd1
ZW5nZWwuY2gxJDAiBgkqhkiG9w0BCQEWFXBvc3RtYXN0ZXJAZ3VlbmdlbC5jaIIJ
AOUlO6Z3vcv/MA0GCSqGSIb3DQEBCwUAA4ICAQAblp0cYtL5FnHjc/Gy/bZXfch3
yFF2L4Bm3O7TYFuA1qMS4Eh0oYgQnesF+AOBcpkoy+FCfleb5e6X+As/8kvPpjih
AoK3BqOZ6MPKXBt93M2yNyeJ7Nexkw9dUr+jf87B70uss+orI/fs6vn4FklkVQDP
cyRQYrNyxR5JNSo+RhwtoG8ZmkPOIHOa+ZCdHQgZ+dquayloj4OHOyhmm5ZxGdLT
ffLstnXrCnn38Oj6Pdw3JPoN7kxH1ytugGSB5e05bJKGWFKsrArDpeywJvmyr8UV
eDXAdINgqduUa39jbbOZTrWci3rxBZCzwhK9fBvBKil/4H3gxNodknlrDBqPiOZz
SVYzv407WuOVqD3nivIr2Hs4nuFu4eREEfvFyD1LmbjXveAAVXt6IXs0ob3rNuNF
svnLO8SnlXOHVs+ypt5CCFEe5u/MWBshmyRHuF4HxZ6wHnDDBxJLwDkx5AZmVxaY
VAbV6jQI5yQhWzgfhJUn3BDASS+ahVQbsXVo1HWoIjpcALD9niJ2t2hc9ALzqhEe
OkhJtmsQrqYMiTgFCXUT+1yuBMIToG49bcncNT8Hjq1jCvZ797HFnDAFmpWKMW/+
A/eBxAgbA3Et1ymQb6t2PlruHVsOX/F7aK0ljcOrW5mbT31qsreoT+DAIBmOtUH/
vgcQoJL4Nn/VPA8NeQ==
-----END CERTIFICATE-----
