Certificate:
    Data:
        Version: 3 (0x2)
        Serial Number:
            4a:2a:c0:68:49:7f:20:89:a1:70:74:65:e1:21:f5:7f:2d:d1:66:5a
        Signature Algorithm: sha256WithRSAEncryption
        Issuer: C=CH, ST=Thurgau, L=Kefikon, O=guengel.ch, CN=CA 2022/emailAddress=postmaster@guengel.ch
        Validity
            Not Before: Feb 28 06:43:00 2023 GMT
            Not After : Apr  3 06:43:00 2024 GMT
        Subject: C=CH, ST=Thurgau, O=guengel.ch, CN=pi-2.k8s.kruemel.home/emailAddress=postmaster@guengel.ch
        Subject Public Key Info:
            Public Key Algorithm: rsaEncryption
                RSA Public-Key: (2048 bit)
                Modulus:
                    00:b2:a0:3b:ed:cc:50:7a:b7:a5:1c:77:58:4a:c5:
                    30:c9:a6:6c:a9:90:96:c7:b4:bd:96:a0:8d:0a:63:
                    a5:ba:24:a2:8c:e8:5b:84:76:f5:51:0b:6f:86:0f:
                    28:b8:67:cc:59:de:2c:a1:2f:01:87:c9:eb:59:76:
                    34:53:91:2c:fe:b9:ee:06:81:1b:dd:79:d2:10:2f:
                    e4:ac:f4:5d:ea:99:f4:5a:07:d9:b7:c5:51:a2:9e:
                    7d:34:41:a7:05:b3:5b:27:41:93:b3:98:0f:4a:50:
                    6c:ed:b2:d0:71:42:6c:5a:88:45:0a:56:01:f0:20:
                    ca:b6:1e:0b:d6:f1:34:0c:f7:7d:78:bd:81:c2:78:
                    5d:ee:96:36:e0:ea:b1:1b:57:01:2e:95:9e:02:19:
                    52:77:5d:b9:d0:86:78:25:50:91:dd:f4:c5:00:97:
                    f3:ad:93:3c:f8:fa:eb:04:09:bc:02:e6:aa:d0:00:
                    32:0b:cd:bd:6c:5f:e9:3a:36:85:8c:50:d3:91:67:
                    c5:47:7a:75:4b:62:d5:88:cf:52:f4:39:1f:5a:e6:
                    38:03:09:20:b8:95:ea:8d:cc:c7:eb:a6:d0:a2:da:
                    0c:40:fd:0b:6e:75:da:64:bb:cc:95:69:b9:a8:bc:
                    db:07:e8:63:7e:d6:fa:d7:44:14:83:7f:3c:b1:05:
                    43:f7
                Exponent: 65537 (0x10001)
        X509v3 extensions:
            X509v3 Basic Constraints: critical
                CA:FALSE
            X509v3 Key Usage: 
                Digital Signature, Key Encipherment, Key Agreement
            X509v3 Subject Key Identifier: 
                55:D9:78:7B:CB:0D:73:2C:68:CD:87:C8:11:8D:80:D3:12:B8:3E:A9
            X509v3 Authority Key Identifier: 
                keyid:22:20:0D:51:40:61:42:BE:DD:BA:D9:C9:C1:77:B6:93:28:C3:99:EC
                DirName:/C=CH/ST=Thurgau/L=Kefikon/O=guengel.ch/CN=CA 2022/emailAddress=postmaster@guengel.ch
                serial:6D:29:90:54:E9:17:E9:C2:6A:E6:52:AD:84:4E:30:8E:6E:57:FB:1C

            Netscape Cert Type: 
                SSL Client, SSL Server
            X509v3 Extended Key Usage: 
                TLS Web Server Authentication, TLS Web Client Authentication
    Signature Algorithm: sha256WithRSAEncryption
         6d:77:6e:93:7d:7b:d2:b0:06:05:6b:f3:1b:2f:21:c4:03:b4:
         2a:70:04:ac:c6:a3:40:a6:d0:e9:ef:4e:78:58:b1:78:84:33:
         c4:76:c9:3d:94:c4:77:7f:49:bd:2f:ee:9e:4b:24:cd:62:39:
         dd:74:28:e3:d6:3e:dc:3c:22:38:3e:ba:2b:a7:0f:e0:9f:95:
         83:7c:53:2b:38:35:fc:10:5f:02:91:45:a9:be:38:1d:ef:66:
         41:0b:d0:12:46:6c:ea:7c:2f:c9:37:6f:21:0d:de:36:35:b7:
         d9:ed:7d:ea:6a:47:bf:42:b0:fa:11:3e:44:0b:ff:3f:62:6c:
         38:78:bf:b1:8d:30:71:24:d4:e4:29:e6:12:7d:2b:0d:a9:75:
         6c:fe:f8:98:ec:1a:41:5b:7e:c9:68:c6:54:3f:99:3d:5d:57:
         d3:51:70:6e:23:09:98:aa:3b:6e:1d:08:0d:2f:e1:61:24:82:
         d6:a1:96:4f:33:d8:61:7b:dd:22:85:f2:a0:c9:9a:72:73:2d:
         99:f9:a6:a9:b7:37:8b:85:8b:d9:b5:8e:a6:8e:a0:f0:39:35:
         9d:69:25:d2:50:01:29:ef:57:da:f5:0b:43:06:e6:99:6a:20:
         e6:cf:77:9b:8d:e6:d6:7e:e1:fc:16:1b:8c:8e:ab:1b:ec:9c:
         e2:00:9e:0e:56:f3:92:24:70:02:14:b6:3f:6f:b8:55:08:8b:
         5b:09:bb:4d:e4:f6:06:e4:fb:74:a1:ab:55:6e:cd:78:f8:8a:
         e5:43:b5:e0:c0:b1:43:5e:17:22:42:c9:45:44:b1:87:a0:2f:
         7d:b5:8d:5a:b7:cc:40:97:7a:39:ae:d8:ea:41:bb:1b:8b:c6:
         75:2b:31:5c:65:d1:e9:b5:00:c8:3e:7a:6b:ec:d9:e5:bd:12:
         17:dc:e2:c4:92:3a:bd:e4:e9:ed:db:93:31:5b:66:b8:cd:c8:
         08:e6:67:0a:89:5a:e9:4c:ac:78:05:5c:39:f7:81:12:2b:2e:
         fd:47:d9:5b:dd:34:b4:f4:a7:95:8c:1f:93:5f:f9:4f:4a:39:
         92:58:10:b5:24:28:20:c0:72:27:64:6c:a1:25:fb:7d:31:f2:
         33:2c:c4:22:0d:31:24:91:4a:8e:40:f9:2c:a9:d9:84:47:72:
         dc:46:1a:2c:07:6d:ee:cb:bd:53:84:9b:e2:04:37:6c:0e:93:
         40:a1:ee:9b:55:2c:13:fd:ab:06:d1:e8:6d:b2:9d:8e:19:00:
         dc:93:bc:a6:c4:37:37:0d:35:ee:a4:c5:f1:be:01:de:81:5f:
         c3:83:90:f4:61:60:a7:8b:86:6d:ea:57:31:45:29:17:d1:dd:
         c1:10:91:4e:b5:c9:2f:87
-----BEGIN CERTIFICATE-----
MIIFuDCCA6CgAwIBAgIUSirAaEl/IImhcHRl4SH1fy3RZlowDQYJKoZIhvcNAQEL
BQAwfjELMAkGA1UEBhMCQ0gxEDAOBgNVBAgTB1RodXJnYXUxEDAOBgNVBAcTB0tl
Zmlrb24xEzARBgNVBAoTCmd1ZW5nZWwuY2gxEDAOBgNVBAMTB0NBIDIwMjIxJDAi
BgkqhkiG9w0BCQEWFXBvc3RtYXN0ZXJAZ3VlbmdlbC5jaDAeFw0yMzAyMjgwNjQz
MDBaFw0yNDA0MDMwNjQzMDBaMHoxCzAJBgNVBAYTAkNIMRAwDgYDVQQIEwdUaHVy
Z2F1MRMwEQYDVQQKEwpndWVuZ2VsLmNoMR4wHAYDVQQDExVwaS0yLms4cy5rcnVl
bWVsLmhvbWUxJDAiBgkqhkiG9w0BCQEWFXBvc3RtYXN0ZXJAZ3VlbmdlbC5jaDCC
ASIwDQYJKoZIhvcNAQEBBQADggEPADCCAQoCggEBALKgO+3MUHq3pRx3WErFMMmm
bKmQlse0vZagjQpjpbokoozoW4R29VELb4YPKLhnzFneLKEvAYfJ61l2NFORLP65
7gaBG9150hAv5Kz0XeqZ9FoH2bfFUaKefTRBpwWzWydBk7OYD0pQbO2y0HFCbFqI
RQpWAfAgyrYeC9bxNAz3fXi9gcJ4Xe6WNuDqsRtXAS6VngIZUnddudCGeCVQkd30
xQCX862TPPj66wQJvALmqtAAMgvNvWxf6To2hYxQ05FnxUd6dUti1YjPUvQ5H1rm
OAMJILiV6o3Mx+um0KLaDED9C2512mS7zJVpuai82wfoY37W+tdEFIN/PLEFQ/cC
AwEAAaOCATAwggEsMAwGA1UdEwEB/wQCMAAwCwYDVR0PBAQDAgOoMB0GA1UdDgQW
BBRV2Xh7yw1zLGjNh8gRjYDTErg+qTCBvQYDVR0jBIG1MIGygBQiIA1RQGFCvt26
2cnBd7aTKMOZ7KGBg6SBgDB+MQswCQYDVQQGEwJDSDEQMA4GA1UECBMHVGh1cmdh
dTEQMA4GA1UEBxMHS2VmaWtvbjETMBEGA1UEChMKZ3VlbmdlbC5jaDEQMA4GA1UE
AxMHQ0EgMjAyMjEkMCIGCSqGSIb3DQEJARYVcG9zdG1hc3RlckBndWVuZ2VsLmNo
ghRtKZBU6RfpwmrmUq2ETjCOblf7HDARBglghkgBhvhCAQEEBAMCBsAwHQYDVR0l
BBYwFAYIKwYBBQUHAwEGCCsGAQUFBwMCMA0GCSqGSIb3DQEBCwUAA4ICAQBtd26T
fXvSsAYFa/MbLyHEA7QqcASsxqNAptDp7054WLF4hDPEdsk9lMR3f0m9L+6eSyTN
YjnddCjj1j7cPCI4Prorpw/gn5WDfFMrODX8EF8CkUWpvjgd72ZBC9ASRmzqfC/J
N28hDd42NbfZ7X3qake/QrD6ET5EC/8/Ymw4eL+xjTBxJNTkKeYSfSsNqXVs/viY
7BpBW37JaMZUP5k9XVfTUXBuIwmYqjtuHQgNL+FhJILWoZZPM9hhe90ihfKgyZpy
cy2Z+aaptzeLhYvZtY6mjqDwOTWdaSXSUAEp71fa9QtDBuaZaiDmz3ebjebWfuH8
FhuMjqsb7JziAJ4OVvOSJHACFLY/b7hVCItbCbtN5PYG5Pt0oatVbs14+IrlQ7Xg
wLFDXhciQslFRLGHoC99tY1at8xAl3o5rtjqQbsbi8Z1KzFcZdHptQDIPnpr7Nnl
vRIX3OLEkjq95Ont25MxW2a4zcgI5mcKiVrpTKx4BVw594ESKy79R9lb3TS09KeV
jB+TX/lPSjmSWBC1JCggwHInZGyhJft9MfIzLMQiDTEkkUqOQPksqdmER3LcRhos
B23uy71ThJviBDdsDpNAoe6bVSwT/asG0ehtsp2OGQDck7ymxDc3DTXupMXxvgHe
gV/Dg5D0YWCni4Zt6lcxRSkX0d3BEJFOtckvhw==
-----END CERTIFICATE-----
