Certificate:
    Data:
        Version: 3 (0x2)
        Serial Number: 436 (0x1b4)
        Signature Algorithm: sha256WithRSAEncryption
        Issuer: C=CH, ST=Thurgau, L=Kefikon, O=guengel.ch, CN=CA guengel.ch/emailAddress=postmaster@guengel.ch
        Validity
            Not Before: Feb  6 15:18:55 2021 GMT
            Not After : Mar 13 15:18:55 2022 GMT
        Subject: C=CH, ST=Thurgau, O=guengel.ch, CN=pi-2.k8s.kruemel.home/emailAddress=postmaster@guengel.ch
        Subject Public Key Info:
            Public Key Algorithm: rsaEncryption
                RSA Public-Key: (2048 bit)
                Modulus:
                    00:da:ed:61:6a:03:f7:69:f7:1d:bf:fe:af:82:32:
                    96:77:b9:c0:11:0e:44:23:59:73:6e:11:9b:6d:25:
                    b6:4e:10:0f:35:e8:53:61:65:21:09:82:0a:fa:5b:
                    1f:21:aa:33:8e:a2:3b:04:61:4e:0e:1c:ad:73:3c:
                    e2:2f:fd:2e:07:3d:bf:4b:d8:18:0b:3f:f1:a3:86:
                    33:31:18:aa:4b:85:2f:71:00:2c:d9:6c:b1:82:03:
                    e5:05:63:01:d0:66:34:03:1c:be:12:4b:01:8a:0e:
                    b8:66:dc:55:6e:a3:85:a4:83:c3:81:49:33:40:ee:
                    3b:08:1c:a9:37:43:a8:e5:9b:c6:ec:40:31:25:9c:
                    47:9a:e6:f8:9d:70:21:d8:e0:0e:25:38:fb:25:39:
                    00:9a:15:86:df:3e:20:11:95:29:6a:e1:29:97:3f:
                    76:7f:f9:37:76:16:b6:aa:a9:b9:76:4a:77:05:19:
                    74:c1:e8:cf:15:c5:6d:ac:ef:f2:cf:8f:47:e2:22:
                    0d:a4:ff:e1:76:c1:7a:6e:39:2a:7e:29:73:25:7c:
                    12:20:be:53:40:88:c7:36:90:97:d9:56:23:eb:f4:
                    7f:db:cf:b9:be:90:78:2a:4f:83:5d:e0:e1:01:8c:
                    73:0f:c8:f7:84:de:4c:8b:81:71:35:c1:39:8f:7f:
                    aa:e3
                Exponent: 65537 (0x10001)
        X509v3 extensions:
            X509v3 Key Usage: 
                Digital Signature, Key Encipherment, Key Agreement
            X509v3 Basic Constraints: critical
                CA:FALSE
            Netscape Cert Type: 
                SSL Client, SSL Server
            X509v3 Extended Key Usage: 
                TLS Web Server Authentication, TLS Web Client Authentication
            X509v3 Subject Alternative Name: 
                DNS:pi-2.k8s.kruemel.home
            X509v3 Subject Key Identifier: 
                5D:66:FE:E6:50:06:A8:60:44:2D:E5:4F:40:01:1C:52:2E:85:94:D3
            X509v3 Authority Key Identifier: 
                keyid:D6:88:F1:AA:C1:2B:09:8C:B8:5C:9D:CE:DF:57:39:62:26:10:20:90
                DirName:/C=CH/ST=Thurgau/L=Kefikon/O=guengel.ch/CN=CA guengel.ch/emailAddress=postmaster@guengel.ch
                serial:E5:25:3B:A6:77:BD:CB:FF

    Signature Algorithm: sha256WithRSAEncryption
         be:9b:0e:c2:ee:0c:2d:a8:cc:5f:d0:bf:c0:d1:39:05:af:70:
         55:d3:12:de:28:8a:55:82:25:dd:55:9a:97:3d:92:0c:27:8b:
         d3:f2:33:82:57:46:df:be:94:f1:51:28:9d:3f:93:63:be:82:
         b2:38:00:4b:d6:c7:e9:d0:a7:90:6e:99:ed:c7:e4:b5:cf:5a:
         0a:b1:cc:21:45:25:2b:c5:72:40:0f:24:28:86:64:fb:31:39:
         1d:d6:e9:5f:a6:f3:21:ec:ef:a0:7e:bf:53:3f:d4:74:87:ab:
         f4:5a:67:1b:3a:b7:75:a3:3e:47:2b:72:ad:0d:b7:0a:1f:9c:
         6f:5f:51:08:af:ed:51:40:d9:49:0b:69:b7:7a:7a:a8:d6:2f:
         56:5c:d1:19:6f:35:fb:39:a5:01:71:76:61:40:07:93:a5:ef:
         60:ab:4e:21:8b:4d:f3:81:77:d3:56:3a:0a:d0:88:dc:f1:f8:
         49:d6:9d:d3:77:ce:ae:f3:49:7a:40:58:1c:c7:f3:3d:6b:68:
         99:7f:3a:69:89:a6:b0:9a:a5:c7:d0:0a:d8:15:68:7d:82:ce:
         35:8a:14:bd:1d:58:ac:79:6e:bf:0a:c4:5d:27:60:81:3e:fe:
         9d:34:aa:6a:a3:e6:c2:02:0e:fd:8c:44:70:c5:d4:88:47:11:
         08:f4:01:cf:f7:af:7e:63:3b:99:08:1c:54:68:6b:8c:1d:ef:
         2d:ac:b6:2b:a1:50:3a:e8:2b:a5:e8:ad:99:27:b1:2b:59:5e:
         c9:63:e8:fc:6c:11:f4:67:26:f9:90:2d:6a:5f:70:9d:c2:49:
         ac:3d:4f:6e:c8:fc:24:b2:cd:30:f9:14:b1:24:47:60:fb:13:
         d9:3a:ba:cc:2e:40:17:d3:78:41:80:87:bc:70:20:13:73:65:
         00:a7:15:b2:25:0d:f7:65:12:98:42:16:ed:7e:c9:fa:e2:8a:
         3d:f0:66:79:2d:13:dd:e1:6a:04:d7:c1:8a:54:c2:24:22:30:
         12:99:d7:42:8b:e9:a4:b3:e3:dc:0c:1e:ed:1c:6d:89:85:03:
         b6:44:67:da:92:cd:16:b6:da:29:8d:af:80:90:99:e3:e6:b7:
         d1:c9:52:2c:47:1a:b4:ff:76:f8:82:61:cf:1a:11:ab:f8:19:
         c9:97:5c:6c:1c:ac:e2:ed:82:99:5c:8a:e3:41:68:97:ff:f0:
         81:e9:b0:e9:26:74:f3:66:75:e8:08:a5:5e:fc:6c:06:6c:c1:
         e2:12:fe:d8:a8:ee:5b:1b:8b:cc:68:0a:e8:d6:39:08:24:8e:
         c4:57:0e:05:6b:2d:26:28:47:c0:f4:a4:98:d1:d8:bb:8e:b3:
         86:67:29:59:ba:62:24:36
-----BEGIN CERTIFICATE-----
MIIFyzCCA7OgAwIBAgICAbQwDQYJKoZIhvcNAQELBQAwgYQxCzAJBgNVBAYTAkNI
MRAwDgYDVQQIEwdUaHVyZ2F1MRAwDgYDVQQHEwdLZWZpa29uMRMwEQYDVQQKEwpn
dWVuZ2VsLmNoMRYwFAYDVQQDEw1DQSBndWVuZ2VsLmNoMSQwIgYJKoZIhvcNAQkB
FhVwb3N0bWFzdGVyQGd1ZW5nZWwuY2gwHhcNMjEwMjA2MTUxODU1WhcNMjIwMzEz
MTUxODU1WjB6MQswCQYDVQQGEwJDSDEQMA4GA1UECBMHVGh1cmdhdTETMBEGA1UE
ChMKZ3VlbmdlbC5jaDEeMBwGA1UEAxMVcGktMi5rOHMua3J1ZW1lbC5ob21lMSQw
IgYJKoZIhvcNAQkBFhVwb3N0bWFzdGVyQGd1ZW5nZWwuY2gwggEiMA0GCSqGSIb3
DQEBAQUAA4IBDwAwggEKAoIBAQDa7WFqA/dp9x2//q+CMpZ3ucARDkQjWXNuEZtt
JbZOEA816FNhZSEJggr6Wx8hqjOOojsEYU4OHK1zPOIv/S4HPb9L2BgLP/GjhjMx
GKpLhS9xACzZbLGCA+UFYwHQZjQDHL4SSwGKDrhm3FVuo4Wkg8OBSTNA7jsIHKk3
Q6jlm8bsQDElnEea5vidcCHY4A4lOPslOQCaFYbfPiARlSlq4SmXP3Z/+Td2Fraq
qbl2SncFGXTB6M8VxW2s7/LPj0fiIg2k/+F2wXpuOSp+KXMlfBIgvlNAiMc2kJfZ
ViPr9H/bz7m+kHgqT4Nd4OEBjHMPyPeE3kyLgXE1wTmPf6rjAgMBAAGjggFOMIIB
SjALBgNVHQ8EBAMCA6gwDAYDVR0TAQH/BAIwADARBglghkgBhvhCAQEEBAMCBsAw
HQYDVR0lBBYwFAYIKwYBBQUHAwEGCCsGAQUFBwMCMCAGA1UdEQQZMBeCFXBpLTIu
azhzLmtydWVtZWwuaG9tZTAdBgNVHQ4EFgQUXWb+5lAGqGBELeVPQAEcUi6FlNMw
gbkGA1UdIwSBsTCBroAU1ojxqsErCYy4XJ3O31c5YiYQIJChgYqkgYcwgYQxCzAJ
BgNVBAYTAkNIMRAwDgYDVQQIEwdUaHVyZ2F1MRAwDgYDVQQHEwdLZWZpa29uMRMw
EQYDVQQKEwpndWVuZ2VsLmNoMRYwFAYDVQQDEw1DQSBndWVuZ2VsLmNoMSQwIgYJ
KoZIhvcNAQkBFhVwb3N0bWFzdGVyQGd1ZW5nZWwuY2iCCQDlJTumd73L/zANBgkq
hkiG9w0BAQsFAAOCAgEAvpsOwu4MLajMX9C/wNE5Ba9wVdMS3iiKVYIl3VWalz2S
DCeL0/IzgldG376U8VEonT+TY76CsjgAS9bH6dCnkG6Z7cfktc9aCrHMIUUlK8Vy
QA8kKIZk+zE5HdbpX6bzIezvoH6/Uz/UdIer9FpnGzq3daM+RytyrQ23Ch+cb19R
CK/tUUDZSQtpt3p6qNYvVlzRGW81+zmlAXF2YUAHk6XvYKtOIYtN84F301Y6CtCI
3PH4Sdad03fOrvNJekBYHMfzPWtomX86aYmmsJqlx9AK2BVofYLONYoUvR1YrHlu
vwrEXSdggT7+nTSqaqPmwgIO/YxEcMXUiEcRCPQBz/evfmM7mQgcVGhrjB3vLay2
K6FQOugrpeitmSexK1leyWPo/GwR9Gcm+ZAtal9wncJJrD1Pbsj8JLLNMPkUsSRH
YPsT2Tq6zC5AF9N4QYCHvHAgE3NlAKcVsiUN92USmEIW7X7J+uKKPfBmeS0T3eFq
BNfBilTCJCIwEpnXQovppLPj3Awe7RxtiYUDtkRn2pLNFrbaKY2vgJCZ4+a30clS
LEcatP92+IJhzxoRq/gZyZdcbBys4u2CmVyK40Fol//wgemw6SZ082Z16AilXvxs
BmzB4hL+2KjuWxuLzGgK6NY5CCSOxFcOBWstJihHwPSkmNHYu46zhmcpWbpiJDY=
-----END CERTIFICATE-----
