Certificate:
    Data:
        Version: 3 (0x2)
        Serial Number:
            03:77:d2:4e:ee:ca:81:12:37:d8:ae:57:f9:68:99:1c:6a:11:85:53
        Signature Algorithm: sha256WithRSAEncryption
        Issuer: C=CH, ST=Thurgau, L=Kefikon, O=guengel.ch, CN=CA 2022/emailAddress=postmaster@guengel.ch
        Validity
            Not Before: Dec 30 08:44:42 2023 GMT
            Not After : Feb  2 08:44:42 2025 GMT
        Subject: C=CH, ST=Thurgau, O=guengel.ch, CN=pi-2.k8s.kruemel.home/emailAddress=postmaster@guengel.ch
        Subject Public Key Info:
            Public Key Algorithm: rsaEncryption
                RSA Public-Key: (2048 bit)
                Modulus:
                    00:b2:a0:3b:ed:cc:50:7a:b7:a5:1c:77:58:4a:c5:
                    30:c9:a6:6c:a9:90:96:c7:b4:bd:96:a0:8d:0a:63:
                    a5:ba:24:a2:8c:e8:5b:84:76:f5:51:0b:6f:86:0f:
                    28:b8:67:cc:59:de:2c:a1:2f:01:87:c9:eb:59:76:
                    34:53:91:2c:fe:b9:ee:06:81:1b:dd:79:d2:10:2f:
                    e4:ac:f4:5d:ea:99:f4:5a:07:d9:b7:c5:51:a2:9e:
                    7d:34:41:a7:05:b3:5b:27:41:93:b3:98:0f:4a:50:
                    6c:ed:b2:d0:71:42:6c:5a:88:45:0a:56:01:f0:20:
                    ca:b6:1e:0b:d6:f1:34:0c:f7:7d:78:bd:81:c2:78:
                    5d:ee:96:36:e0:ea:b1:1b:57:01:2e:95:9e:02:19:
                    52:77:5d:b9:d0:86:78:25:50:91:dd:f4:c5:00:97:
                    f3:ad:93:3c:f8:fa:eb:04:09:bc:02:e6:aa:d0:00:
                    32:0b:cd:bd:6c:5f:e9:3a:36:85:8c:50:d3:91:67:
                    c5:47:7a:75:4b:62:d5:88:cf:52:f4:39:1f:5a:e6:
                    38:03:09:20:b8:95:ea:8d:cc:c7:eb:a6:d0:a2:da:
                    0c:40:fd:0b:6e:75:da:64:bb:cc:95:69:b9:a8:bc:
                    db:07:e8:63:7e:d6:fa:d7:44:14:83:7f:3c:b1:05:
                    43:f7
                Exponent: 65537 (0x10001)
        X509v3 extensions:
            X509v3 Basic Constraints: critical
                CA:FALSE
            X509v3 Key Usage: 
                Digital Signature, Key Encipherment, Key Agreement
            X509v3 Subject Key Identifier: 
                55:D9:78:7B:CB:0D:73:2C:68:CD:87:C8:11:8D:80:D3:12:B8:3E:A9
            X509v3 Authority Key Identifier: 
                keyid:22:20:0D:51:40:61:42:BE:DD:BA:D9:C9:C1:77:B6:93:28:C3:99:EC
                DirName:/C=CH/ST=Thurgau/L=Kefikon/O=guengel.ch/CN=CA 2022/emailAddress=postmaster@guengel.ch
                serial:6D:29:90:54:E9:17:E9:C2:6A:E6:52:AD:84:4E:30:8E:6E:57:FB:1C

            Netscape Cert Type: 
                SSL Client, SSL Server
            X509v3 Extended Key Usage: 
                TLS Web Server Authentication, TLS Web Client Authentication
    Signature Algorithm: sha256WithRSAEncryption
         76:b2:8a:f1:da:ae:de:69:e5:6a:ad:76:f9:10:62:c8:39:ce:
         32:4d:11:5b:93:3b:4b:57:c7:7e:ab:da:9f:18:35:7b:c4:94:
         fa:6b:ad:49:f8:8a:57:d6:05:99:13:eb:25:d1:87:9e:44:dd:
         fe:15:37:32:c8:e4:00:cb:dd:de:ff:7a:f2:3c:b2:71:5d:1e:
         34:70:35:e3:fe:e0:37:7b:31:9e:e3:3c:56:4c:87:9e:dc:37:
         ae:d1:25:be:ce:cb:d0:c1:4c:37:20:01:b6:20:85:ec:29:3f:
         3e:76:9b:46:87:3a:f5:e6:3c:f1:78:7f:23:45:80:5b:22:a4:
         3f:d8:1b:8e:d4:c1:6f:29:51:ff:ea:37:7e:35:37:32:71:b5:
         f0:49:31:cf:33:07:49:80:e6:e9:bc:c9:8e:99:ba:88:3c:f9:
         67:eb:d9:d2:5b:17:6b:b2:6e:0d:2c:10:15:3d:96:78:9e:2b:
         4b:ba:73:ef:8c:22:b2:e1:33:91:70:dc:99:a1:1d:a8:b4:d2:
         8a:25:a3:ac:69:21:f5:33:d4:ed:da:74:ae:dd:fb:6e:9e:e7:
         e4:71:04:b8:72:dd:f1:f1:d3:db:7a:28:11:6b:12:fb:e6:15:
         11:ba:5b:25:c0:18:28:9f:08:ce:5f:a0:90:e7:83:9b:29:9d:
         79:4f:c6:f4:e9:e5:46:3d:b3:01:9f:d0:90:86:d6:dd:bc:8d:
         0f:c3:f7:97:e6:c1:af:a3:8a:98:bf:90:6f:9b:eb:a4:6f:da:
         48:46:7b:d1:1c:e9:04:6c:10:ba:0a:1a:e4:37:d3:bb:43:a3:
         54:17:c6:fc:df:33:48:dd:20:4b:ce:82:fe:f3:f9:8e:16:9b:
         e0:ad:6b:88:89:9c:76:16:4c:72:5f:ea:4e:bb:2f:84:4f:2f:
         c0:43:60:79:41:fe:0e:66:fa:49:c7:23:85:1a:22:d7:0f:c2:
         13:4f:0e:71:87:66:9a:97:26:60:80:bb:a7:bb:cc:8e:84:00:
         69:02:6a:63:b7:0e:e3:43:08:96:dc:22:15:ac:8e:e7:8e:94:
         62:ad:32:05:21:91:4b:70:a8:f5:79:e4:cd:2f:00:4c:6f:0b:
         05:38:ad:53:4d:98:96:f1:6a:d2:86:cf:bb:11:81:01:50:f7:
         33:5a:eb:6b:03:67:2f:82:23:38:fe:7e:35:8d:e5:1a:72:be:
         93:83:0e:50:ef:fd:05:76:e5:eb:bb:67:bb:7a:3f:ea:f1:f2:
         d3:4d:b2:98:73:b1:ab:de:54:38:b9:2f:28:ab:04:97:05:a7:
         0b:a1:a7:24:30:47:de:0d:ce:3d:66:06:e3:0c:6f:de:f9:54:
         65:28:84:69:1a:a3:f7:47
-----BEGIN CERTIFICATE-----
MIIFuDCCA6CgAwIBAgIUA3fSTu7KgRI32K5X+WiZHGoRhVMwDQYJKoZIhvcNAQEL
BQAwfjELMAkGA1UEBhMCQ0gxEDAOBgNVBAgTB1RodXJnYXUxEDAOBgNVBAcTB0tl
Zmlrb24xEzARBgNVBAoTCmd1ZW5nZWwuY2gxEDAOBgNVBAMTB0NBIDIwMjIxJDAi
BgkqhkiG9w0BCQEWFXBvc3RtYXN0ZXJAZ3VlbmdlbC5jaDAeFw0yMzEyMzAwODQ0
NDJaFw0yNTAyMDIwODQ0NDJaMHoxCzAJBgNVBAYTAkNIMRAwDgYDVQQIEwdUaHVy
Z2F1MRMwEQYDVQQKEwpndWVuZ2VsLmNoMR4wHAYDVQQDExVwaS0yLms4cy5rcnVl
bWVsLmhvbWUxJDAiBgkqhkiG9w0BCQEWFXBvc3RtYXN0ZXJAZ3VlbmdlbC5jaDCC
ASIwDQYJKoZIhvcNAQEBBQADggEPADCCAQoCggEBALKgO+3MUHq3pRx3WErFMMmm
bKmQlse0vZagjQpjpbokoozoW4R29VELb4YPKLhnzFneLKEvAYfJ61l2NFORLP65
7gaBG9150hAv5Kz0XeqZ9FoH2bfFUaKefTRBpwWzWydBk7OYD0pQbO2y0HFCbFqI
RQpWAfAgyrYeC9bxNAz3fXi9gcJ4Xe6WNuDqsRtXAS6VngIZUnddudCGeCVQkd30
xQCX862TPPj66wQJvALmqtAAMgvNvWxf6To2hYxQ05FnxUd6dUti1YjPUvQ5H1rm
OAMJILiV6o3Mx+um0KLaDED9C2512mS7zJVpuai82wfoY37W+tdEFIN/PLEFQ/cC
AwEAAaOCATAwggEsMAwGA1UdEwEB/wQCMAAwCwYDVR0PBAQDAgOoMB0GA1UdDgQW
BBRV2Xh7yw1zLGjNh8gRjYDTErg+qTCBvQYDVR0jBIG1MIGygBQiIA1RQGFCvt26
2cnBd7aTKMOZ7KGBg6SBgDB+MQswCQYDVQQGEwJDSDEQMA4GA1UECBMHVGh1cmdh
dTEQMA4GA1UEBxMHS2VmaWtvbjETMBEGA1UEChMKZ3VlbmdlbC5jaDEQMA4GA1UE
AxMHQ0EgMjAyMjEkMCIGCSqGSIb3DQEJARYVcG9zdG1hc3RlckBndWVuZ2VsLmNo
ghRtKZBU6RfpwmrmUq2ETjCOblf7HDARBglghkgBhvhCAQEEBAMCBsAwHQYDVR0l
BBYwFAYIKwYBBQUHAwEGCCsGAQUFBwMCMA0GCSqGSIb3DQEBCwUAA4ICAQB2sorx
2q7eaeVqrXb5EGLIOc4yTRFbkztLV8d+q9qfGDV7xJT6a61J+IpX1gWZE+sl0Yee
RN3+FTcyyOQAy93e/3ryPLJxXR40cDXj/uA3ezGe4zxWTIee3Deu0SW+zsvQwUw3
IAG2IIXsKT8+dptGhzr15jzxeH8jRYBbIqQ/2BuO1MFvKVH/6jd+NTcycbXwSTHP
MwdJgObpvMmOmbqIPPln69nSWxdrsm4NLBAVPZZ4nitLunPvjCKy4TORcNyZoR2o
tNKKJaOsaSH1M9Tt2nSu3ftunufkcQS4ct3x8dPbeigRaxL75hURulslwBgonwjO
X6CQ54ObKZ15T8b06eVGPbMBn9CQhtbdvI0Pw/eX5sGvo4qYv5Bvm+ukb9pIRnvR
HOkEbBC6ChrkN9O7Q6NUF8b83zNI3SBLzoL+8/mOFpvgrWuIiZx2FkxyX+pOuy+E
Ty/AQ2B5Qf4OZvpJxyOFGiLXD8ITTw5xh2aalyZggLunu8yOhABpAmpjtw7jQwiW
3CIVrI7njpRirTIFIZFLcKj1eeTNLwBMbwsFOK1TTZiW8WrShs+7EYEBUPczWutr
A2cvgiM4/n41jeUacr6Tgw5Q7/0FduXru2e7ej/q8fLTTbKYc7Gr3lQ4uS8oqwSX
BacLoackMEfeDc49ZgbjDG/e+VRlKIRpGqP3Rw==
-----END CERTIFICATE-----
