Certificate:
    Data:
        Version: 3 (0x2)
        Serial Number:
            4b:1b:eb:76:f9:18:35:66:15:80:5b:5c:91:d3:c5:11:de:a3:ed:c3
        Signature Algorithm: sha256WithRSAEncryption
        Issuer: C=CH, ST=Thurgau, L=Kefikon, O=guengel.ch, CN=CA 2022/emailAddress=postmaster@guengel.ch
        Validity
            Not Before: Jan  3 14:04:27 2025 GMT
            Not After : Feb  7 14:04:27 2026 GMT
        Subject: C=CH, ST=Thurgau, O=guengel.ch, CN=pi-2.k8s.kruemel.home/emailAddress=postmaster@guengel.ch
        Subject Public Key Info:
            Public Key Algorithm: rsaEncryption
                Public-Key: (2048 bit)
                Modulus:
                    00:b2:a0:3b:ed:cc:50:7a:b7:a5:1c:77:58:4a:c5:
                    30:c9:a6:6c:a9:90:96:c7:b4:bd:96:a0:8d:0a:63:
                    a5:ba:24:a2:8c:e8:5b:84:76:f5:51:0b:6f:86:0f:
                    28:b8:67:cc:59:de:2c:a1:2f:01:87:c9:eb:59:76:
                    34:53:91:2c:fe:b9:ee:06:81:1b:dd:79:d2:10:2f:
                    e4:ac:f4:5d:ea:99:f4:5a:07:d9:b7:c5:51:a2:9e:
                    7d:34:41:a7:05:b3:5b:27:41:93:b3:98:0f:4a:50:
                    6c:ed:b2:d0:71:42:6c:5a:88:45:0a:56:01:f0:20:
                    ca:b6:1e:0b:d6:f1:34:0c:f7:7d:78:bd:81:c2:78:
                    5d:ee:96:36:e0:ea:b1:1b:57:01:2e:95:9e:02:19:
                    52:77:5d:b9:d0:86:78:25:50:91:dd:f4:c5:00:97:
                    f3:ad:93:3c:f8:fa:eb:04:09:bc:02:e6:aa:d0:00:
                    32:0b:cd:bd:6c:5f:e9:3a:36:85:8c:50:d3:91:67:
                    c5:47:7a:75:4b:62:d5:88:cf:52:f4:39:1f:5a:e6:
                    38:03:09:20:b8:95:ea:8d:cc:c7:eb:a6:d0:a2:da:
                    0c:40:fd:0b:6e:75:da:64:bb:cc:95:69:b9:a8:bc:
                    db:07:e8:63:7e:d6:fa:d7:44:14:83:7f:3c:b1:05:
                    43:f7
                Exponent: 65537 (0x10001)
        X509v3 extensions:
            X509v3 Basic Constraints: critical
                CA:FALSE
            X509v3 Key Usage: 
                Digital Signature, Key Encipherment, Key Agreement
            X509v3 Subject Key Identifier: 
                55:D9:78:7B:CB:0D:73:2C:68:CD:87:C8:11:8D:80:D3:12:B8:3E:A9
            X509v3 Authority Key Identifier: 
                keyid:22:20:0D:51:40:61:42:BE:DD:BA:D9:C9:C1:77:B6:93:28:C3:99:EC
                DirName:/C=CH/ST=Thurgau/L=Kefikon/O=guengel.ch/CN=CA 2022/emailAddress=postmaster@guengel.ch
                serial:6D:29:90:54:E9:17:E9:C2:6A:E6:52:AD:84:4E:30:8E:6E:57:FB:1C
            Netscape Cert Type: 
                SSL Client, SSL Server
            X509v3 Extended Key Usage: 
                TLS Web Server Authentication, TLS Web Client Authentication
    Signature Algorithm: sha256WithRSAEncryption
    Signature Value:
        36:ce:08:e4:c1:65:30:3c:2f:88:31:5f:60:d5:2d:76:a2:0d:
        cc:c6:a6:dc:ad:0e:72:0e:b1:08:96:cc:91:a6:3b:b9:a9:a9:
        2e:51:c8:23:ad:be:1a:67:4f:74:88:40:be:91:96:34:87:12:
        3f:66:fd:7e:80:5d:2b:05:f5:e7:c0:09:c4:a5:cd:53:e7:ed:
        f2:d4:c6:2e:bf:2a:c8:be:2e:36:78:5f:74:eb:dd:cf:31:ff:
        73:76:79:f8:dc:1a:dd:de:52:59:f4:6a:c7:77:ea:b9:c5:f1:
        70:46:aa:1a:b0:0b:0c:d7:4a:62:bd:a3:c9:51:cb:fe:9f:b2:
        d2:04:68:b4:95:16:d7:cc:ed:af:18:c4:91:e6:fb:b0:dd:fe:
        cb:24:bb:3d:e7:3d:9b:d6:4a:48:ea:ef:97:d2:fd:70:85:f3:
        1b:59:8e:c2:3a:66:72:39:0d:e2:b9:0a:e9:62:9e:db:49:e1:
        8e:e9:67:6d:8e:b4:2d:5a:b9:5a:85:d0:04:20:c7:3f:c5:9b:
        57:16:42:d0:ff:60:5e:8b:46:09:bb:2e:95:71:5e:77:1b:c2:
        46:e5:06:f7:70:20:84:59:07:ef:96:c4:32:80:17:af:e7:0a:
        8e:cc:2c:68:79:c8:92:a6:50:ac:68:43:37:75:ce:32:3a:a6:
        ba:fe:a8:a4:1f:b0:91:a1:af:e7:80:d0:7d:95:78:4d:d4:8a:
        cd:4f:dd:cc:89:e6:fb:e3:31:45:66:e3:30:a4:6a:14:11:97:
        71:fa:01:d9:88:a6:54:f8:24:f9:ee:57:eb:89:bb:c6:4a:84:
        66:f7:10:0f:00:2f:22:f1:03:1f:81:1e:54:86:06:f2:b3:da:
        de:61:8b:62:03:41:48:b4:37:1c:7b:48:56:9d:2a:a8:2f:71:
        aa:ce:a2:a2:3e:95:ad:0f:e7:b3:1a:fa:c1:3b:cd:4a:9c:f5:
        69:67:e1:f8:77:12:e2:eb:d4:a6:ec:48:a1:0c:0a:da:8c:11:
        2f:ad:1c:dd:ce:e7:8a:a6:5d:d7:57:f2:39:98:79:08:f8:26:
        ab:cb:3d:5c:06:e3:6c:69:71:3a:84:26:cc:ce:3e:27:fe:e9:
        62:9a:34:e0:b9:61:d6:7e:bc:56:1a:ee:7b:c9:51:38:c0:5c:
        18:c8:d4:76:b4:01:44:75:7a:2f:b5:d4:5c:cb:9c:1d:0f:5e:
        6f:9f:b9:80:bd:51:d0:31:ea:8d:2d:52:4b:f8:82:c7:56:11:
        d4:a4:e4:a1:ac:a2:ed:a6:38:a9:0e:82:5d:d0:35:14:b8:21:
        c9:9c:86:2d:bb:67:cf:12:49:4f:21:8e:02:e6:ea:e6:02:5a:
        a3:13:06:b2:a9:9a:e2:6f
-----BEGIN CERTIFICATE-----
MIIFuDCCA6CgAwIBAgIUSxvrdvkYNWYVgFtckdPFEd6j7cMwDQYJKoZIhvcNAQEL
BQAwfjELMAkGA1UEBhMCQ0gxEDAOBgNVBAgTB1RodXJnYXUxEDAOBgNVBAcTB0tl
Zmlrb24xEzARBgNVBAoTCmd1ZW5nZWwuY2gxEDAOBgNVBAMTB0NBIDIwMjIxJDAi
BgkqhkiG9w0BCQEWFXBvc3RtYXN0ZXJAZ3VlbmdlbC5jaDAeFw0yNTAxMDMxNDA0
MjdaFw0yNjAyMDcxNDA0MjdaMHoxCzAJBgNVBAYTAkNIMRAwDgYDVQQIEwdUaHVy
Z2F1MRMwEQYDVQQKEwpndWVuZ2VsLmNoMR4wHAYDVQQDExVwaS0yLms4cy5rcnVl
bWVsLmhvbWUxJDAiBgkqhkiG9w0BCQEWFXBvc3RtYXN0ZXJAZ3VlbmdlbC5jaDCC
ASIwDQYJKoZIhvcNAQEBBQADggEPADCCAQoCggEBALKgO+3MUHq3pRx3WErFMMmm
bKmQlse0vZagjQpjpbokoozoW4R29VELb4YPKLhnzFneLKEvAYfJ61l2NFORLP65
7gaBG9150hAv5Kz0XeqZ9FoH2bfFUaKefTRBpwWzWydBk7OYD0pQbO2y0HFCbFqI
RQpWAfAgyrYeC9bxNAz3fXi9gcJ4Xe6WNuDqsRtXAS6VngIZUnddudCGeCVQkd30
xQCX862TPPj66wQJvALmqtAAMgvNvWxf6To2hYxQ05FnxUd6dUti1YjPUvQ5H1rm
OAMJILiV6o3Mx+um0KLaDED9C2512mS7zJVpuai82wfoY37W+tdEFIN/PLEFQ/cC
AwEAAaOCATAwggEsMAwGA1UdEwEB/wQCMAAwCwYDVR0PBAQDAgOoMB0GA1UdDgQW
BBRV2Xh7yw1zLGjNh8gRjYDTErg+qTCBvQYDVR0jBIG1MIGygBQiIA1RQGFCvt26
2cnBd7aTKMOZ7KGBg6SBgDB+MQswCQYDVQQGEwJDSDEQMA4GA1UECBMHVGh1cmdh
dTEQMA4GA1UEBxMHS2VmaWtvbjETMBEGA1UEChMKZ3VlbmdlbC5jaDEQMA4GA1UE
AxMHQ0EgMjAyMjEkMCIGCSqGSIb3DQEJARYVcG9zdG1hc3RlckBndWVuZ2VsLmNo
ghRtKZBU6RfpwmrmUq2ETjCOblf7HDARBglghkgBhvhCAQEEBAMCBsAwHQYDVR0l
BBYwFAYIKwYBBQUHAwEGCCsGAQUFBwMCMA0GCSqGSIb3DQEBCwUAA4ICAQA2zgjk
wWUwPC+IMV9g1S12og3MxqbcrQ5yDrEIlsyRpju5qakuUcgjrb4aZ090iEC+kZY0
hxI/Zv1+gF0rBfXnwAnEpc1T5+3y1MYuvyrIvi42eF90693PMf9zdnn43Brd3lJZ
9GrHd+q5xfFwRqoasAsM10pivaPJUcv+n7LSBGi0lRbXzO2vGMSR5vuw3f7LJLs9
5z2b1kpI6u+X0v1whfMbWY7COmZyOQ3iuQrpYp7bSeGO6WdtjrQtWrlahdAEIMc/
xZtXFkLQ/2Bei0YJuy6VcV53G8JG5Qb3cCCEWQfvlsQygBev5wqOzCxoeciSplCs
aEM3dc4yOqa6/qikH7CRoa/ngNB9lXhN1IrNT93Mieb74zFFZuMwpGoUEZdx+gHZ
iKZU+CT57lfribvGSoRm9xAPAC8i8QMfgR5Uhgbys9reYYtiA0FItDcce0hWnSqo
L3GqzqKiPpWtD+ezGvrBO81KnPVpZ+H4dxLi69Sm7EihDArajBEvrRzdzueKpl3X
V/I5mHkI+Caryz1cBuNsaXE6hCbMzj4n/ulimjTguWHWfrxWGu57yVE4wFwYyNR2
tAFEdXovtdRcy5wdD15vn7mAvVHQMeqNLVJL+ILHVhHUpOShrKLtpjipDoJd0DUU
uCHJnIYtu2fPEklPIY4C5urmAlqjEwayqZribw==
-----END CERTIFICATE-----
