Certificate:
    Data:
        Version: 3 (0x2)
        Serial Number: 465 (0x1d1)
        Signature Algorithm: sha256WithRSAEncryption
        Issuer: C=CH, ST=Thurgau, L=Kefikon, O=guengel.ch, CN=CA guengel.ch/emailAddress=postmaster@guengel.ch
        Validity
            Not Before: Feb 11 07:07:14 2022 GMT
            Not After : Mar 18 07:07:14 2023 GMT
        Subject: C=CH, ST=Thurgau, O=guengel.ch, CN=pi-2.k8s.kruemel.home/emailAddress=postmaster@guengel.ch
        Subject Public Key Info:
            Public Key Algorithm: rsaEncryption
                RSA Public-Key: (2048 bit)
                Modulus:
                    00:da:ed:61:6a:03:f7:69:f7:1d:bf:fe:af:82:32:
                    96:77:b9:c0:11:0e:44:23:59:73:6e:11:9b:6d:25:
                    b6:4e:10:0f:35:e8:53:61:65:21:09:82:0a:fa:5b:
                    1f:21:aa:33:8e:a2:3b:04:61:4e:0e:1c:ad:73:3c:
                    e2:2f:fd:2e:07:3d:bf:4b:d8:18:0b:3f:f1:a3:86:
                    33:31:18:aa:4b:85:2f:71:00:2c:d9:6c:b1:82:03:
                    e5:05:63:01:d0:66:34:03:1c:be:12:4b:01:8a:0e:
                    b8:66:dc:55:6e:a3:85:a4:83:c3:81:49:33:40:ee:
                    3b:08:1c:a9:37:43:a8:e5:9b:c6:ec:40:31:25:9c:
                    47:9a:e6:f8:9d:70:21:d8:e0:0e:25:38:fb:25:39:
                    00:9a:15:86:df:3e:20:11:95:29:6a:e1:29:97:3f:
                    76:7f:f9:37:76:16:b6:aa:a9:b9:76:4a:77:05:19:
                    74:c1:e8:cf:15:c5:6d:ac:ef:f2:cf:8f:47:e2:22:
                    0d:a4:ff:e1:76:c1:7a:6e:39:2a:7e:29:73:25:7c:
                    12:20:be:53:40:88:c7:36:90:97:d9:56:23:eb:f4:
                    7f:db:cf:b9:be:90:78:2a:4f:83:5d:e0:e1:01:8c:
                    73:0f:c8:f7:84:de:4c:8b:81:71:35:c1:39:8f:7f:
                    aa:e3
                Exponent: 65537 (0x10001)
        X509v3 extensions:
            X509v3 Key Usage: 
                Digital Signature, Key Encipherment, Key Agreement
            X509v3 Basic Constraints: critical
                CA:FALSE
            Netscape Cert Type: 
                SSL Client, SSL Server
            X509v3 Extended Key Usage: 
                TLS Web Server Authentication, TLS Web Client Authentication
            X509v3 Subject Alternative Name: 
                DNS:pi-2.k8s.kruemel.home
            X509v3 Subject Key Identifier: 
                5D:66:FE:E6:50:06:A8:60:44:2D:E5:4F:40:01:1C:52:2E:85:94:D3
            X509v3 Authority Key Identifier: 
                keyid:D6:88:F1:AA:C1:2B:09:8C:B8:5C:9D:CE:DF:57:39:62:26:10:20:90
                DirName:/C=CH/ST=Thurgau/L=Kefikon/O=guengel.ch/CN=CA guengel.ch/emailAddress=postmaster@guengel.ch
                serial:E5:25:3B:A6:77:BD:CB:FF

    Signature Algorithm: sha256WithRSAEncryption
         2b:19:1e:27:a1:11:94:7f:20:16:03:d4:e8:13:b3:96:7d:92:
         e4:d9:74:e9:b5:78:6d:ae:dd:f4:02:b6:26:f2:16:4c:99:e2:
         ab:10:65:da:71:1f:6e:ad:c4:bc:83:7a:a9:82:29:11:7d:59:
         a5:6a:20:29:f4:4d:44:c5:99:38:09:12:32:ed:91:d4:fc:10:
         55:fa:4c:1b:93:ca:85:03:61:3a:23:c7:27:5a:90:d6:4c:21:
         d9:31:d4:a0:3d:f6:27:c0:78:61:6c:4b:17:83:c1:a1:bf:cd:
         8c:45:6e:18:cc:06:44:fd:b0:94:1b:ee:53:73:b4:c0:83:42:
         ed:e7:06:2b:e1:b8:e6:a5:43:a3:28:95:2c:e2:5f:64:6a:80:
         69:b5:38:d7:c5:02:fc:6f:95:e2:b0:7b:dc:2b:13:f8:1b:47:
         9c:dc:4e:5d:3e:ad:fc:8c:45:e0:fc:78:12:cc:b3:e6:dc:1f:
         de:a3:13:ba:d2:5d:30:42:fe:14:28:fd:94:c1:13:05:dd:91:
         42:56:9f:34:16:be:8b:bf:91:0a:38:39:bb:3e:64:2c:69:dd:
         de:88:58:98:18:2b:94:9b:67:86:49:99:82:33:45:16:68:8c:
         45:43:fb:3b:33:e1:e9:ec:8e:dd:82:7c:89:3b:36:f1:9e:fc:
         b9:3b:d4:d2:25:cd:82:41:49:5e:8c:17:62:5f:ec:cc:8a:55:
         65:9d:e8:b1:ef:4c:52:c9:d9:e5:2b:e3:79:62:5b:27:fc:bd:
         21:c8:86:df:91:63:95:d8:5f:56:0a:fa:01:cd:ef:5a:a7:f8:
         cf:0a:d1:32:66:c1:5e:be:c7:ce:e3:d9:ab:a5:18:1b:83:89:
         eb:7e:4d:3f:44:f2:34:22:4e:74:77:33:77:a9:a1:5b:08:f3:
         db:3b:c5:36:4f:99:81:78:56:87:a6:84:4e:8b:25:cb:33:bb:
         e5:8d:2c:91:c9:10:c6:9b:0f:a9:2f:17:1c:99:60:53:4b:c6:
         0e:73:2e:74:de:d4:f0:f5:40:46:7a:78:1c:ea:f8:8c:f8:ce:
         65:9a:34:40:ea:ca:4a:bf:c9:dc:70:97:c0:c7:a3:c7:77:e5:
         54:4e:89:68:d0:92:ce:f0:9c:c6:01:56:10:14:78:2a:17:41:
         42:6b:f9:aa:52:3c:41:92:36:01:67:6b:21:06:f8:58:e4:bc:
         e8:c5:47:23:27:33:f8:5e:c7:d7:19:05:97:3c:13:7e:a4:c0:
         6b:2f:63:4d:68:17:c4:7e:0f:6a:b3:9d:a9:5d:48:a9:92:2c:
         80:b8:d7:7a:8a:a1:bf:fd:65:10:0e:52:0a:f7:52:91:e8:b8:
         01:49:1f:3d:a0:43:4f:e9
-----BEGIN CERTIFICATE-----
MIIFyzCCA7OgAwIBAgICAdEwDQYJKoZIhvcNAQELBQAwgYQxCzAJBgNVBAYTAkNI
MRAwDgYDVQQIEwdUaHVyZ2F1MRAwDgYDVQQHEwdLZWZpa29uMRMwEQYDVQQKEwpn
dWVuZ2VsLmNoMRYwFAYDVQQDEw1DQSBndWVuZ2VsLmNoMSQwIgYJKoZIhvcNAQkB
FhVwb3N0bWFzdGVyQGd1ZW5nZWwuY2gwHhcNMjIwMjExMDcwNzE0WhcNMjMwMzE4
MDcwNzE0WjB6MQswCQYDVQQGEwJDSDEQMA4GA1UECBMHVGh1cmdhdTETMBEGA1UE
ChMKZ3VlbmdlbC5jaDEeMBwGA1UEAxMVcGktMi5rOHMua3J1ZW1lbC5ob21lMSQw
IgYJKoZIhvcNAQkBFhVwb3N0bWFzdGVyQGd1ZW5nZWwuY2gwggEiMA0GCSqGSIb3
DQEBAQUAA4IBDwAwggEKAoIBAQDa7WFqA/dp9x2//q+CMpZ3ucARDkQjWXNuEZtt
JbZOEA816FNhZSEJggr6Wx8hqjOOojsEYU4OHK1zPOIv/S4HPb9L2BgLP/GjhjMx
GKpLhS9xACzZbLGCA+UFYwHQZjQDHL4SSwGKDrhm3FVuo4Wkg8OBSTNA7jsIHKk3
Q6jlm8bsQDElnEea5vidcCHY4A4lOPslOQCaFYbfPiARlSlq4SmXP3Z/+Td2Fraq
qbl2SncFGXTB6M8VxW2s7/LPj0fiIg2k/+F2wXpuOSp+KXMlfBIgvlNAiMc2kJfZ
ViPr9H/bz7m+kHgqT4Nd4OEBjHMPyPeE3kyLgXE1wTmPf6rjAgMBAAGjggFOMIIB
SjALBgNVHQ8EBAMCA6gwDAYDVR0TAQH/BAIwADARBglghkgBhvhCAQEEBAMCBsAw
HQYDVR0lBBYwFAYIKwYBBQUHAwEGCCsGAQUFBwMCMCAGA1UdEQQZMBeCFXBpLTIu
azhzLmtydWVtZWwuaG9tZTAdBgNVHQ4EFgQUXWb+5lAGqGBELeVPQAEcUi6FlNMw
gbkGA1UdIwSBsTCBroAU1ojxqsErCYy4XJ3O31c5YiYQIJChgYqkgYcwgYQxCzAJ
BgNVBAYTAkNIMRAwDgYDVQQIEwdUaHVyZ2F1MRAwDgYDVQQHEwdLZWZpa29uMRMw
EQYDVQQKEwpndWVuZ2VsLmNoMRYwFAYDVQQDEw1DQSBndWVuZ2VsLmNoMSQwIgYJ
KoZIhvcNAQkBFhVwb3N0bWFzdGVyQGd1ZW5nZWwuY2iCCQDlJTumd73L/zANBgkq
hkiG9w0BAQsFAAOCAgEAKxkeJ6ERlH8gFgPU6BOzln2S5Nl06bV4ba7d9AK2JvIW
TJniqxBl2nEfbq3EvIN6qYIpEX1ZpWogKfRNRMWZOAkSMu2R1PwQVfpMG5PKhQNh
OiPHJ1qQ1kwh2THUoD32J8B4YWxLF4PBob/NjEVuGMwGRP2wlBvuU3O0wINC7ecG
K+G45qVDoyiVLOJfZGqAabU418UC/G+V4rB73CsT+BtHnNxOXT6t/IxF4Px4Esyz
5twf3qMTutJdMEL+FCj9lMETBd2RQlafNBa+i7+RCjg5uz5kLGnd3ohYmBgrlJtn
hkmZgjNFFmiMRUP7OzPh6eyO3YJ8iTs28Z78uTvU0iXNgkFJXowXYl/szIpVZZ3o
se9MUsnZ5SvjeWJbJ/y9IciG35FjldhfVgr6Ac3vWqf4zwrRMmbBXr7HzuPZq6UY
G4OJ635NP0TyNCJOdHczd6mhWwjz2zvFNk+ZgXhWh6aEToslyzO75Y0skckQxpsP
qS8XHJlgU0vGDnMudN7U8PVARnp4HOr4jPjOZZo0QOrKSr/J3HCXwMejx3flVE6J
aNCSzvCcxgFWEBR4KhdBQmv5qlI8QZI2AWdrIQb4WOS86MVHIycz+F7H1xkFlzwT
fqTAay9jTWgXxH4ParOdqV1IqZIsgLjXeoqhv/1lEA5SCvdSkei4AUkfPaBDT+k=
-----END CERTIFICATE-----
