Certificate:
    Data:
        Version: 3 (0x2)
        Serial Number:
            47:a0:1e:98:2b:f2:ad:b5:d8:2e:04:6d:76:e4:e6:e7:bb:dd:58:33
        Signature Algorithm: sha256WithRSAEncryption
        Issuer: C=CH, ST=Thurgau, L=Kefikon, O=guengel.ch, CN=CA 2022/emailAddress=postmaster@guengel.ch
        Validity
            Not Before: Feb 11 14:03:59 2022 GMT
            Not After : Mar 18 14:03:59 2023 GMT
        Subject: C=CH, ST=Thurgau, O=guengel.ch, CN=pi-2.k8s.kruemel.home/emailAddress=postmaster@guengel.ch
        Subject Public Key Info:
            Public Key Algorithm: rsaEncryption
                RSA Public-Key: (2048 bit)
                Modulus:
                    00:b2:a0:3b:ed:cc:50:7a:b7:a5:1c:77:58:4a:c5:
                    30:c9:a6:6c:a9:90:96:c7:b4:bd:96:a0:8d:0a:63:
                    a5:ba:24:a2:8c:e8:5b:84:76:f5:51:0b:6f:86:0f:
                    28:b8:67:cc:59:de:2c:a1:2f:01:87:c9:eb:59:76:
                    34:53:91:2c:fe:b9:ee:06:81:1b:dd:79:d2:10:2f:
                    e4:ac:f4:5d:ea:99:f4:5a:07:d9:b7:c5:51:a2:9e:
                    7d:34:41:a7:05:b3:5b:27:41:93:b3:98:0f:4a:50:
                    6c:ed:b2:d0:71:42:6c:5a:88:45:0a:56:01:f0:20:
                    ca:b6:1e:0b:d6:f1:34:0c:f7:7d:78:bd:81:c2:78:
                    5d:ee:96:36:e0:ea:b1:1b:57:01:2e:95:9e:02:19:
                    52:77:5d:b9:d0:86:78:25:50:91:dd:f4:c5:00:97:
                    f3:ad:93:3c:f8:fa:eb:04:09:bc:02:e6:aa:d0:00:
                    32:0b:cd:bd:6c:5f:e9:3a:36:85:8c:50:d3:91:67:
                    c5:47:7a:75:4b:62:d5:88:cf:52:f4:39:1f:5a:e6:
                    38:03:09:20:b8:95:ea:8d:cc:c7:eb:a6:d0:a2:da:
                    0c:40:fd:0b:6e:75:da:64:bb:cc:95:69:b9:a8:bc:
                    db:07:e8:63:7e:d6:fa:d7:44:14:83:7f:3c:b1:05:
                    43:f7
                Exponent: 65537 (0x10001)
        X509v3 extensions:
            X509v3 Basic Constraints: critical
                CA:FALSE
            X509v3 Key Usage: 
                Digital Signature, Key Encipherment, Key Agreement
            X509v3 Subject Key Identifier: 
                55:D9:78:7B:CB:0D:73:2C:68:CD:87:C8:11:8D:80:D3:12:B8:3E:A9
            X509v3 Authority Key Identifier: 
                keyid:22:20:0D:51:40:61:42:BE:DD:BA:D9:C9:C1:77:B6:93:28:C3:99:EC
                DirName:/C=CH/ST=Thurgau/L=Kefikon/O=guengel.ch/CN=CA 2022/emailAddress=postmaster@guengel.ch
                serial:6D:29:90:54:E9:17:E9:C2:6A:E6:52:AD:84:4E:30:8E:6E:57:FB:1C

            Netscape Cert Type: 
                SSL Client, SSL Server
            X509v3 Extended Key Usage: 
                TLS Web Server Authentication, TLS Web Client Authentication
    Signature Algorithm: sha256WithRSAEncryption
         82:83:30:ee:d8:0b:f9:07:2a:4d:da:ef:4c:44:ad:e1:b0:78:
         9f:0e:6e:e0:ac:54:b7:17:89:16:25:01:a8:a6:33:c4:31:e4:
         12:ee:f5:97:72:61:c3:f9:cb:9b:11:0f:13:33:e1:dc:6b:a6:
         0f:a9:5c:eb:8e:38:54:1d:96:d3:a2:b2:bb:ba:8a:90:47:d7:
         13:d5:6a:31:00:51:61:68:d3:ba:2f:60:cc:5b:c6:b5:26:1f:
         e8:f8:10:06:cc:18:99:00:11:b0:78:46:c0:67:fc:12:c1:29:
         1a:04:67:9f:f2:11:e0:25:56:b7:d0:7e:90:7f:d4:b8:8e:ef:
         2b:36:7f:cb:66:5d:4d:d6:11:83:b1:9a:6c:d7:ef:ef:58:30:
         5f:b9:2e:72:25:86:13:54:16:e4:10:89:d4:24:af:70:e3:3d:
         ea:da:34:99:d9:62:37:72:d4:14:85:fb:04:67:33:27:47:0f:
         de:60:21:11:4d:80:7d:5e:43:8c:42:bc:63:14:ea:4e:6f:c3:
         d4:a0:c5:1e:5b:b6:f4:3d:1b:99:f2:86:bd:52:8e:df:17:36:
         28:13:c1:b9:23:00:1d:7d:55:72:04:78:a9:49:7a:18:d9:91:
         73:20:4f:dc:62:ea:a4:65:0a:d6:cc:e4:9c:b4:9e:3b:86:d3:
         50:bd:e9:cc:69:03:15:dc:15:1a:88:79:de:29:f6:9d:3b:dc:
         23:4e:4e:f0:6e:c0:c2:2b:74:39:0b:32:10:47:82:3e:e2:a1:
         01:07:1b:5c:ec:b9:f1:ed:4f:95:16:12:c2:62:e0:10:ee:bd:
         21:eb:fe:3b:de:4f:a3:e5:0a:d2:50:09:2d:2b:35:86:12:85:
         f3:e7:76:75:e2:a2:74:d4:a9:58:18:39:82:87:cd:6a:f3:03:
         35:bb:c2:0e:73:03:f0:9c:5c:a2:53:96:0d:1f:40:d6:00:c8:
         91:99:cc:cf:09:94:f7:c7:85:09:3a:ea:68:99:1d:64:7c:30:
         b0:ad:ad:fb:90:04:4f:4c:8b:d9:6a:8f:dc:09:10:bd:6f:5b:
         20:6f:63:8b:57:a5:a5:a0:9e:01:a8:0f:d8:ad:2c:73:a4:7e:
         7a:92:cf:6d:fa:d8:19:63:9c:ab:6a:2b:7c:3c:c6:dc:6d:3b:
         3a:42:57:9f:5d:f6:a3:30:f7:03:b4:a7:e7:90:8f:70:68:a2:
         5e:be:7f:8a:9a:b8:e6:7c:21:ab:f5:61:02:50:f7:5e:cc:30:
         b1:1e:93:97:83:97:ac:56:37:4f:2b:e8:83:f2:67:f9:f0:6b:
         a4:e5:97:b6:15:86:a9:24:75:6b:8c:00:9c:be:bf:5b:46:bd:
         ac:0f:ec:34:8e:cf:a9:43
-----BEGIN CERTIFICATE-----
MIIFuDCCA6CgAwIBAgIUR6AemCvyrbXYLgRtduTm57vdWDMwDQYJKoZIhvcNAQEL
BQAwfjELMAkGA1UEBhMCQ0gxEDAOBgNVBAgTB1RodXJnYXUxEDAOBgNVBAcTB0tl
Zmlrb24xEzARBgNVBAoTCmd1ZW5nZWwuY2gxEDAOBgNVBAMTB0NBIDIwMjIxJDAi
BgkqhkiG9w0BCQEWFXBvc3RtYXN0ZXJAZ3VlbmdlbC5jaDAeFw0yMjAyMTExNDAz
NTlaFw0yMzAzMTgxNDAzNTlaMHoxCzAJBgNVBAYTAkNIMRAwDgYDVQQIEwdUaHVy
Z2F1MRMwEQYDVQQKEwpndWVuZ2VsLmNoMR4wHAYDVQQDExVwaS0yLms4cy5rcnVl
bWVsLmhvbWUxJDAiBgkqhkiG9w0BCQEWFXBvc3RtYXN0ZXJAZ3VlbmdlbC5jaDCC
ASIwDQYJKoZIhvcNAQEBBQADggEPADCCAQoCggEBALKgO+3MUHq3pRx3WErFMMmm
bKmQlse0vZagjQpjpbokoozoW4R29VELb4YPKLhnzFneLKEvAYfJ61l2NFORLP65
7gaBG9150hAv5Kz0XeqZ9FoH2bfFUaKefTRBpwWzWydBk7OYD0pQbO2y0HFCbFqI
RQpWAfAgyrYeC9bxNAz3fXi9gcJ4Xe6WNuDqsRtXAS6VngIZUnddudCGeCVQkd30
xQCX862TPPj66wQJvALmqtAAMgvNvWxf6To2hYxQ05FnxUd6dUti1YjPUvQ5H1rm
OAMJILiV6o3Mx+um0KLaDED9C2512mS7zJVpuai82wfoY37W+tdEFIN/PLEFQ/cC
AwEAAaOCATAwggEsMAwGA1UdEwEB/wQCMAAwCwYDVR0PBAQDAgOoMB0GA1UdDgQW
BBRV2Xh7yw1zLGjNh8gRjYDTErg+qTCBvQYDVR0jBIG1MIGygBQiIA1RQGFCvt26
2cnBd7aTKMOZ7KGBg6SBgDB+MQswCQYDVQQGEwJDSDEQMA4GA1UECBMHVGh1cmdh
dTEQMA4GA1UEBxMHS2VmaWtvbjETMBEGA1UEChMKZ3VlbmdlbC5jaDEQMA4GA1UE
AxMHQ0EgMjAyMjEkMCIGCSqGSIb3DQEJARYVcG9zdG1hc3RlckBndWVuZ2VsLmNo
ghRtKZBU6RfpwmrmUq2ETjCOblf7HDARBglghkgBhvhCAQEEBAMCBsAwHQYDVR0l
BBYwFAYIKwYBBQUHAwEGCCsGAQUFBwMCMA0GCSqGSIb3DQEBCwUAA4ICAQCCgzDu
2Av5BypN2u9MRK3hsHifDm7grFS3F4kWJQGopjPEMeQS7vWXcmHD+cubEQ8TM+Hc
a6YPqVzrjjhUHZbTorK7uoqQR9cT1WoxAFFhaNO6L2DMW8a1Jh/o+BAGzBiZABGw
eEbAZ/wSwSkaBGef8hHgJVa30H6Qf9S4ju8rNn/LZl1N1hGDsZps1+/vWDBfuS5y
JYYTVBbkEInUJK9w4z3q2jSZ2WI3ctQUhfsEZzMnRw/eYCERTYB9XkOMQrxjFOpO
b8PUoMUeW7b0PRuZ8oa9Uo7fFzYoE8G5IwAdfVVyBHipSXoY2ZFzIE/cYuqkZQrW
zOSctJ47htNQvenMaQMV3BUaiHneKfadO9wjTk7wbsDCK3Q5CzIQR4I+4qEBBxtc
7Lnx7U+VFhLCYuAQ7r0h6/473k+j5QrSUAktKzWGEoXz53Z14qJ01KlYGDmCh81q
8wM1u8IOcwPwnFyiU5YNH0DWAMiRmczPCZT3x4UJOupomR1kfDCwra37kARPTIvZ
ao/cCRC9b1sgb2OLV6WloJ4BqA/YrSxzpH56ks9t+tgZY5yrait8PMbcbTs6Qlef
XfajMPcDtKfnkI9waKJevn+KmrjmfCGr9WECUPdezDCxHpOXg5esVjdPK+iD8mf5
8Guk5Ze2FYapJHVrjACcvr9bRr2sD+w0js+pQw==
-----END CERTIFICATE-----
