Certificate:
    Data:
        Version: 3 (0x2)
        Serial Number:
            54:0a:d4:4b:5c:06:5b:e5:09:2a:41:c8:b7:04:60:3e:df:eb:b8:d0
        Signature Algorithm: sha256WithRSAEncryption
        Issuer: C=CH, ST=Thurgau, L=Kefikon, O=guengel.ch, CN=CA 2022/emailAddress=postmaster@guengel.ch
        Validity
            Not Before: Jan  3 14:04:29 2025 GMT
            Not After : Feb  7 14:04:29 2026 GMT
        Subject: C=CH, ST=Thurgau, O=guengel.ch, CN=pi-3.k8s.kruemel.home/emailAddress=postmaster@guengel.ch
        Subject Public Key Info:
            Public Key Algorithm: rsaEncryption
                Public-Key: (2048 bit)
                Modulus:
                    00:ca:ae:0c:54:c5:3e:c1:9b:8b:a2:73:b0:e8:a5:
                    bc:9b:8c:8f:96:c6:21:8a:62:d6:77:d3:7b:f1:66:
                    55:9c:d1:62:40:51:98:41:56:2a:32:4b:61:4d:fa:
                    f7:65:4a:54:1e:c8:d1:ab:86:a6:1d:a4:7e:e6:a6:
                    e2:98:12:ba:56:4f:75:ed:6c:62:79:c8:be:d3:4d:
                    66:4a:6b:e6:21:e9:9d:cf:4f:68:3b:8e:e4:5c:d9:
                    f9:48:7f:27:9e:b8:4e:0c:bb:c5:e9:06:0b:e7:95:
                    c5:12:a9:3c:23:5d:5e:22:4b:c5:ec:35:49:a9:1c:
                    33:5e:dd:24:5f:d8:75:f8:19:e6:08:d8:5e:a3:d7:
                    9f:1f:ac:66:c8:bf:47:57:47:7f:09:a0:46:cd:c5:
                    62:4f:5e:fc:6f:e6:43:40:82:da:53:62:18:0d:eb:
                    75:d5:bb:78:01:fd:8f:f6:a2:32:d3:d8:fa:7a:da:
                    06:ce:79:82:0d:f9:fe:f7:ad:8f:90:1b:03:28:ed:
                    5a:9a:98:e2:70:ec:9a:8d:a2:e7:f8:3c:94:70:29:
                    43:32:73:aa:83:0f:5e:08:9f:bb:20:65:84:29:62:
                    56:50:bb:4f:81:10:02:4e:cf:2d:cf:a8:26:cf:5a:
                    22:39:ab:28:b5:12:e9:75:68:e6:7d:e0:e2:1b:e8:
                    88:23
                Exponent: 65537 (0x10001)
        X509v3 extensions:
            X509v3 Basic Constraints: critical
                CA:FALSE
            X509v3 Key Usage: 
                Digital Signature, Key Encipherment, Key Agreement
            X509v3 Subject Key Identifier: 
                F5:CB:24:D3:1A:E4:A2:BB:9D:9D:2B:69:A1:EA:2A:40:DB:48:8A:02
            X509v3 Authority Key Identifier: 
                keyid:22:20:0D:51:40:61:42:BE:DD:BA:D9:C9:C1:77:B6:93:28:C3:99:EC
                DirName:/C=CH/ST=Thurgau/L=Kefikon/O=guengel.ch/CN=CA 2022/emailAddress=postmaster@guengel.ch
                serial:6D:29:90:54:E9:17:E9:C2:6A:E6:52:AD:84:4E:30:8E:6E:57:FB:1C
            Netscape Cert Type: 
                SSL Client, SSL Server
            X509v3 Extended Key Usage: 
                TLS Web Server Authentication, TLS Web Client Authentication
    Signature Algorithm: sha256WithRSAEncryption
    Signature Value:
        24:83:6d:85:cd:65:ee:b0:23:9d:20:2b:37:80:8a:83:63:e4:
        ee:e0:1e:26:1e:57:c4:7e:4a:e8:d9:ed:e0:c1:64:23:a8:1f:
        0d:9c:b8:16:9e:e7:dc:db:ba:4a:3a:e6:33:37:ee:6a:20:ed:
        73:02:7d:a2:3b:87:d2:54:76:c5:4a:eb:1f:04:8b:6b:f4:1b:
        c6:5f:62:c9:52:9a:7b:22:48:fd:26:21:2a:c8:a0:bf:30:7f:
        80:19:d0:05:b3:a1:e8:98:5b:41:d7:b4:20:37:e8:69:98:14:
        0a:c3:54:9c:ba:e3:ac:cf:fc:c8:34:dd:c3:06:3a:11:8b:1d:
        3e:73:d2:7d:a6:18:aa:e3:5a:a9:2f:08:c1:b9:78:7c:ec:3c:
        bd:ef:39:25:7f:41:37:df:12:33:59:ce:e6:3f:2d:6c:18:e9:
        3a:86:81:5c:11:20:e3:8b:66:67:cf:56:39:3d:77:2b:15:f9:
        73:59:57:6c:55:7d:97:05:23:50:c6:2e:47:ef:ab:60:71:d6:
        d8:da:4b:63:48:1d:dd:65:d9:3d:5b:92:68:75:05:f5:14:df:
        a9:ef:cc:e8:51:33:92:c1:5a:f6:d3:c3:29:4d:3e:c6:7b:7d:
        b7:1e:24:ec:a6:ac:fc:9a:9a:72:f5:9c:01:4d:f7:c0:80:69:
        aa:11:92:18:2a:84:47:de:ca:32:cc:37:d2:a8:4d:0c:d8:8b:
        fe:0c:96:2c:1a:07:e2:f3:9f:59:bd:e7:c1:ef:07:1a:e5:9b:
        6e:7d:1a:70:b9:43:62:20:81:62:c8:74:94:25:74:aa:eb:95:
        36:8c:3d:2c:58:13:a3:3a:70:98:6a:df:89:71:bd:c7:cc:07:
        de:a5:e8:db:c7:68:5b:b9:b3:f8:a3:53:13:50:4b:2e:13:88:
        2f:e4:a3:35:59:e0:a9:91:ee:52:e6:23:4a:6c:f3:f3:19:e4:
        6c:91:f5:8d:45:22:04:ef:bd:df:fe:cb:45:34:6f:b4:44:e2:
        2c:2b:de:e1:aa:ec:bd:0a:43:2d:9d:84:af:ee:3c:bb:0f:32:
        2b:4e:a6:f9:15:02:5b:6f:e2:ed:b6:78:2e:f6:f1:78:a6:4d:
        4d:32:1e:c8:8a:17:0d:e9:19:96:29:b2:9d:96:93:b3:90:ba:
        d9:5d:1d:27:66:cc:bc:e2:c2:61:35:de:ae:b4:41:90:8c:de:
        57:7b:3c:2a:64:d7:5c:42:e8:a9:db:db:03:a0:d2:19:3b:1d:
        74:8e:58:b7:33:36:e5:52:8a:7a:90:9e:a9:7d:e3:d9:86:90:
        ad:b0:a8:30:b6:1b:cf:c4:48:ac:b5:37:a6:58:48:6f:91:9a:
        ca:04:1f:10:36:9d:28:a0
-----BEGIN CERTIFICATE-----
MIIFuDCCA6CgAwIBAgIUVArUS1wGW+UJKkHItwRgPt/ruNAwDQYJKoZIhvcNAQEL
BQAwfjELMAkGA1UEBhMCQ0gxEDAOBgNVBAgTB1RodXJnYXUxEDAOBgNVBAcTB0tl
Zmlrb24xEzARBgNVBAoTCmd1ZW5nZWwuY2gxEDAOBgNVBAMTB0NBIDIwMjIxJDAi
BgkqhkiG9w0BCQEWFXBvc3RtYXN0ZXJAZ3VlbmdlbC5jaDAeFw0yNTAxMDMxNDA0
MjlaFw0yNjAyMDcxNDA0MjlaMHoxCzAJBgNVBAYTAkNIMRAwDgYDVQQIEwdUaHVy
Z2F1MRMwEQYDVQQKEwpndWVuZ2VsLmNoMR4wHAYDVQQDExVwaS0zLms4cy5rcnVl
bWVsLmhvbWUxJDAiBgkqhkiG9w0BCQEWFXBvc3RtYXN0ZXJAZ3VlbmdlbC5jaDCC
ASIwDQYJKoZIhvcNAQEBBQADggEPADCCAQoCggEBAMquDFTFPsGbi6JzsOilvJuM
j5bGIYpi1nfTe/FmVZzRYkBRmEFWKjJLYU3692VKVB7I0auGph2kfuam4pgSulZP
de1sYnnIvtNNZkpr5iHpnc9PaDuO5FzZ+Uh/J564Tgy7xekGC+eVxRKpPCNdXiJL
xew1SakcM17dJF/YdfgZ5gjYXqPXnx+sZsi/R1dHfwmgRs3FYk9e/G/mQ0CC2lNi
GA3rddW7eAH9j/aiMtPY+nraBs55gg35/vetj5AbAyjtWpqY4nDsmo2i5/g8lHAp
QzJzqoMPXgifuyBlhCliVlC7T4EQAk7PLc+oJs9aIjmrKLUS6XVo5n3g4hvoiCMC
AwEAAaOCATAwggEsMAwGA1UdEwEB/wQCMAAwCwYDVR0PBAQDAgOoMB0GA1UdDgQW
BBT1yyTTGuSiu52dK2mh6ipA20iKAjCBvQYDVR0jBIG1MIGygBQiIA1RQGFCvt26
2cnBd7aTKMOZ7KGBg6SBgDB+MQswCQYDVQQGEwJDSDEQMA4GA1UECBMHVGh1cmdh
dTEQMA4GA1UEBxMHS2VmaWtvbjETMBEGA1UEChMKZ3VlbmdlbC5jaDEQMA4GA1UE
AxMHQ0EgMjAyMjEkMCIGCSqGSIb3DQEJARYVcG9zdG1hc3RlckBndWVuZ2VsLmNo
ghRtKZBU6RfpwmrmUq2ETjCOblf7HDARBglghkgBhvhCAQEEBAMCBsAwHQYDVR0l
BBYwFAYIKwYBBQUHAwEGCCsGAQUFBwMCMA0GCSqGSIb3DQEBCwUAA4ICAQAkg22F
zWXusCOdICs3gIqDY+Tu4B4mHlfEfkro2e3gwWQjqB8NnLgWnufc27pKOuYzN+5q
IO1zAn2iO4fSVHbFSusfBItr9BvGX2LJUpp7Ikj9JiEqyKC/MH+AGdAFs6HomFtB
17QgN+hpmBQKw1ScuuOsz/zINN3DBjoRix0+c9J9phiq41qpLwjBuXh87Dy97zkl
f0E33xIzWc7mPy1sGOk6hoFcESDji2Znz1Y5PXcrFflzWVdsVX2XBSNQxi5H76tg
cdbY2ktjSB3dZdk9W5JodQX1FN+p78zoUTOSwVr208MpTT7Ge323HiTspqz8mppy
9ZwBTffAgGmqEZIYKoRH3soyzDfSqE0M2Iv+DJYsGgfi859ZvefB7wca5ZtufRpw
uUNiIIFiyHSUJXSq65U2jD0sWBOjOnCYat+Jcb3HzAfepejbx2hbubP4o1MTUEsu
E4gv5KM1WeCpke5S5iNKbPPzGeRskfWNRSIE773f/stFNG+0ROIsK97hquy9CkMt
nYSv7jy7DzIrTqb5FQJbb+Lttngu9vF4pk1NMh7IihcN6RmWKbKdlpOzkLrZXR0n
Zsy84sJhNd6utEGQjN5XezwqZNdcQuip29sDoNIZOx10jli3MzblUop6kJ6pfePZ
hpCtsKgwthvPxEistTemWEhvkZrKBB8QNp0ooA==
-----END CERTIFICATE-----
