Certificate:
    Data:
        Version: 3 (0x2)
        Serial Number:
            2c:2e:fa:e6:1d:bc:1f:9c:29:41:c2:51:83:0b:88:e0:e6:52:7b:fe
        Signature Algorithm: sha256WithRSAEncryption
        Issuer: C=CH, ST=Thurgau, L=Kefikon, O=guengel.ch, CN=CA 2022/emailAddress=postmaster@guengel.ch
        Validity
            Not Before: Feb 28 06:43:01 2023 GMT
            Not After : Apr  3 06:43:01 2024 GMT
        Subject: C=CH, ST=Thurgau, O=guengel.ch, CN=pi-3.k8s.kruemel.home/emailAddress=postmaster@guengel.ch
        Subject Public Key Info:
            Public Key Algorithm: rsaEncryption
                RSA Public-Key: (2048 bit)
                Modulus:
                    00:ca:ae:0c:54:c5:3e:c1:9b:8b:a2:73:b0:e8:a5:
                    bc:9b:8c:8f:96:c6:21:8a:62:d6:77:d3:7b:f1:66:
                    55:9c:d1:62:40:51:98:41:56:2a:32:4b:61:4d:fa:
                    f7:65:4a:54:1e:c8:d1:ab:86:a6:1d:a4:7e:e6:a6:
                    e2:98:12:ba:56:4f:75:ed:6c:62:79:c8:be:d3:4d:
                    66:4a:6b:e6:21:e9:9d:cf:4f:68:3b:8e:e4:5c:d9:
                    f9:48:7f:27:9e:b8:4e:0c:bb:c5:e9:06:0b:e7:95:
                    c5:12:a9:3c:23:5d:5e:22:4b:c5:ec:35:49:a9:1c:
                    33:5e:dd:24:5f:d8:75:f8:19:e6:08:d8:5e:a3:d7:
                    9f:1f:ac:66:c8:bf:47:57:47:7f:09:a0:46:cd:c5:
                    62:4f:5e:fc:6f:e6:43:40:82:da:53:62:18:0d:eb:
                    75:d5:bb:78:01:fd:8f:f6:a2:32:d3:d8:fa:7a:da:
                    06:ce:79:82:0d:f9:fe:f7:ad:8f:90:1b:03:28:ed:
                    5a:9a:98:e2:70:ec:9a:8d:a2:e7:f8:3c:94:70:29:
                    43:32:73:aa:83:0f:5e:08:9f:bb:20:65:84:29:62:
                    56:50:bb:4f:81:10:02:4e:cf:2d:cf:a8:26:cf:5a:
                    22:39:ab:28:b5:12:e9:75:68:e6:7d:e0:e2:1b:e8:
                    88:23
                Exponent: 65537 (0x10001)
        X509v3 extensions:
            X509v3 Basic Constraints: critical
                CA:FALSE
            X509v3 Key Usage: 
                Digital Signature, Key Encipherment, Key Agreement
            X509v3 Subject Key Identifier: 
                F5:CB:24:D3:1A:E4:A2:BB:9D:9D:2B:69:A1:EA:2A:40:DB:48:8A:02
            X509v3 Authority Key Identifier: 
                keyid:22:20:0D:51:40:61:42:BE:DD:BA:D9:C9:C1:77:B6:93:28:C3:99:EC
                DirName:/C=CH/ST=Thurgau/L=Kefikon/O=guengel.ch/CN=CA 2022/emailAddress=postmaster@guengel.ch
                serial:6D:29:90:54:E9:17:E9:C2:6A:E6:52:AD:84:4E:30:8E:6E:57:FB:1C

            Netscape Cert Type: 
                SSL Client, SSL Server
            X509v3 Extended Key Usage: 
                TLS Web Server Authentication, TLS Web Client Authentication
    Signature Algorithm: sha256WithRSAEncryption
         47:a2:ec:72:e6:c5:c5:22:2d:88:c8:ea:87:b5:f1:b0:1d:ac:
         6a:26:a6:65:8e:22:76:31:4f:4d:35:45:91:88:bf:50:56:4d:
         68:a5:6c:6a:19:70:97:84:60:13:11:4b:2f:23:6e:32:bc:28:
         02:f1:d1:71:fb:30:f8:bb:47:ee:e4:f9:09:c8:f8:c1:cb:dc:
         63:17:b8:65:41:82:60:72:af:d1:a1:df:16:47:cb:67:80:10:
         95:80:d3:e9:11:48:35:2b:7d:77:da:d4:cb:ed:75:31:05:f9:
         a1:a5:e9:df:a7:17:03:10:a7:71:89:c7:89:4f:d5:e8:2c:d3:
         1c:b1:df:59:cf:d0:02:ae:78:c6:2a:bc:b2:bf:25:b1:ce:63:
         4e:73:c7:5a:fb:7a:be:4c:b4:63:f5:6d:d7:9b:40:ea:79:08:
         99:b7:b6:bd:9e:76:9d:cc:97:1e:a3:9b:f5:4c:c7:5a:ad:ea:
         24:4d:c3:e5:e1:a8:e2:f1:d5:6a:3c:ca:14:75:c4:a0:30:5c:
         fe:80:df:dd:00:06:69:02:4d:63:7d:02:db:43:09:53:61:94:
         17:3f:d9:3c:2c:99:aa:73:46:a7:80:68:25:9f:d3:b8:98:0f:
         52:a7:b6:ad:3d:9d:35:eb:fc:95:d5:5c:46:cd:e4:97:ef:64:
         66:39:36:00:6c:85:55:19:f5:db:dd:90:dd:c5:b1:51:c5:49:
         49:59:f3:0c:18:ce:19:bf:78:2d:cb:25:bb:82:72:b7:1f:3b:
         da:e9:91:11:56:b0:ce:1c:aa:5b:75:b3:d1:79:c0:d6:43:f2:
         5f:cc:e4:c6:2f:9c:2f:f8:50:b7:58:00:15:4b:78:5c:92:c4:
         5b:8d:3b:8a:21:3d:71:a8:53:b1:87:a3:6d:bb:cc:de:5b:aa:
         7b:bb:34:cc:5d:36:2c:37:44:8a:0a:56:6c:74:03:9f:0d:b6:
         00:63:32:b1:fa:18:be:9d:ab:76:d8:9f:f1:bf:dd:0a:4e:5f:
         81:0f:f9:7e:52:ab:19:dd:4e:ca:2b:a7:ac:30:64:cd:a0:b8:
         19:c8:2c:07:e4:5d:5a:2a:d2:63:71:59:4e:b2:61:21:6a:52:
         d7:dd:bd:61:08:90:a6:89:22:57:4f:35:1a:24:a5:61:92:ba:
         b2:c8:c5:5f:63:41:40:51:aa:5c:74:8f:74:4f:88:cd:dd:6b:
         4e:6f:6c:58:b3:98:f6:7f:54:71:3c:29:a6:92:a9:6e:03:32:
         d2:c4:ac:04:d9:fd:78:aa:44:f2:54:78:4f:01:dc:da:c2:e4:
         b1:db:1a:dc:39:23:1b:a5:b8:6f:61:9f:65:1f:a6:71:65:62:
         63:18:7f:ee:1b:cb:0b:79
-----BEGIN CERTIFICATE-----
MIIFuDCCA6CgAwIBAgIULC765h28H5wpQcJRgwuI4OZSe/4wDQYJKoZIhvcNAQEL
BQAwfjELMAkGA1UEBhMCQ0gxEDAOBgNVBAgTB1RodXJnYXUxEDAOBgNVBAcTB0tl
Zmlrb24xEzARBgNVBAoTCmd1ZW5nZWwuY2gxEDAOBgNVBAMTB0NBIDIwMjIxJDAi
BgkqhkiG9w0BCQEWFXBvc3RtYXN0ZXJAZ3VlbmdlbC5jaDAeFw0yMzAyMjgwNjQz
MDFaFw0yNDA0MDMwNjQzMDFaMHoxCzAJBgNVBAYTAkNIMRAwDgYDVQQIEwdUaHVy
Z2F1MRMwEQYDVQQKEwpndWVuZ2VsLmNoMR4wHAYDVQQDExVwaS0zLms4cy5rcnVl
bWVsLmhvbWUxJDAiBgkqhkiG9w0BCQEWFXBvc3RtYXN0ZXJAZ3VlbmdlbC5jaDCC
ASIwDQYJKoZIhvcNAQEBBQADggEPADCCAQoCggEBAMquDFTFPsGbi6JzsOilvJuM
j5bGIYpi1nfTe/FmVZzRYkBRmEFWKjJLYU3692VKVB7I0auGph2kfuam4pgSulZP
de1sYnnIvtNNZkpr5iHpnc9PaDuO5FzZ+Uh/J564Tgy7xekGC+eVxRKpPCNdXiJL
xew1SakcM17dJF/YdfgZ5gjYXqPXnx+sZsi/R1dHfwmgRs3FYk9e/G/mQ0CC2lNi
GA3rddW7eAH9j/aiMtPY+nraBs55gg35/vetj5AbAyjtWpqY4nDsmo2i5/g8lHAp
QzJzqoMPXgifuyBlhCliVlC7T4EQAk7PLc+oJs9aIjmrKLUS6XVo5n3g4hvoiCMC
AwEAAaOCATAwggEsMAwGA1UdEwEB/wQCMAAwCwYDVR0PBAQDAgOoMB0GA1UdDgQW
BBT1yyTTGuSiu52dK2mh6ipA20iKAjCBvQYDVR0jBIG1MIGygBQiIA1RQGFCvt26
2cnBd7aTKMOZ7KGBg6SBgDB+MQswCQYDVQQGEwJDSDEQMA4GA1UECBMHVGh1cmdh
dTEQMA4GA1UEBxMHS2VmaWtvbjETMBEGA1UEChMKZ3VlbmdlbC5jaDEQMA4GA1UE
AxMHQ0EgMjAyMjEkMCIGCSqGSIb3DQEJARYVcG9zdG1hc3RlckBndWVuZ2VsLmNo
ghRtKZBU6RfpwmrmUq2ETjCOblf7HDARBglghkgBhvhCAQEEBAMCBsAwHQYDVR0l
BBYwFAYIKwYBBQUHAwEGCCsGAQUFBwMCMA0GCSqGSIb3DQEBCwUAA4ICAQBHouxy
5sXFIi2IyOqHtfGwHaxqJqZljiJ2MU9NNUWRiL9QVk1opWxqGXCXhGATEUsvI24y
vCgC8dFx+zD4u0fu5PkJyPjBy9xjF7hlQYJgcq/Rod8WR8tngBCVgNPpEUg1K313
2tTL7XUxBfmhpenfpxcDEKdxiceJT9XoLNMcsd9Zz9ACrnjGKryyvyWxzmNOc8da
+3q+TLRj9W3Xm0DqeQiZt7a9nnadzJceo5v1TMdareokTcPl4aji8dVqPMoUdcSg
MFz+gN/dAAZpAk1jfQLbQwlTYZQXP9k8LJmqc0angGgln9O4mA9Sp7atPZ016/yV
1VxGzeSX72RmOTYAbIVVGfXb3ZDdxbFRxUlJWfMMGM4Zv3gtyyW7gnK3Hzva6ZER
VrDOHKpbdbPRecDWQ/JfzOTGL5wv+FC3WAAVS3hcksRbjTuKIT1xqFOxh6Ntu8ze
W6p7uzTMXTYsN0SKClZsdAOfDbYAYzKx+hi+nat22J/xv90KTl+BD/l+UqsZ3U7K
K6esMGTNoLgZyCwH5F1aKtJjcVlOsmEhalLX3b1hCJCmiSJXTzUaJKVhkrqyyMVf
Y0FAUapcdI90T4jN3WtOb2xYs5j2f1RxPCmmkqluAzLSxKwE2f14qkTyVHhPAdza
wuSx2xrcOSMbpbhvYZ9lH6ZxZWJjGH/uG8sLeQ==
-----END CERTIFICATE-----
