Certificate:
    Data:
        Version: 3 (0x2)
        Serial Number: 466 (0x1d2)
        Signature Algorithm: sha256WithRSAEncryption
        Issuer: C=CH, ST=Thurgau, L=Kefikon, O=guengel.ch, CN=CA guengel.ch/emailAddress=postmaster@guengel.ch
        Validity
            Not Before: Feb 11 07:07:15 2022 GMT
            Not After : Mar 18 07:07:15 2023 GMT
        Subject: C=CH, ST=Thurgau, O=guengel.ch, CN=pi-3.k8s.kruemel.home/emailAddress=postmaster@guengel.ch
        Subject Public Key Info:
            Public Key Algorithm: rsaEncryption
                RSA Public-Key: (2048 bit)
                Modulus:
                    00:ce:80:f7:6e:d4:e6:47:74:2d:b6:3f:5c:53:0d:
                    7f:45:0d:a4:11:6d:19:c2:33:7c:33:c8:03:c3:ea:
                    44:95:4e:15:fc:95:58:ca:8f:6d:3a:d9:11:04:44:
                    64:cf:37:11:62:2f:0b:27:3d:69:e6:20:63:d0:0f:
                    70:36:2a:17:40:ca:da:34:cb:51:62:b9:0f:c5:cb:
                    8b:bc:8c:a5:90:aa:6a:7c:6d:2c:c6:43:02:4f:f3:
                    ae:36:25:fa:f1:c6:48:a8:dc:9e:c8:30:62:fb:2f:
                    01:47:ad:63:ad:d8:c1:7e:c6:f9:b6:19:49:96:36:
                    21:ff:fb:64:0a:94:0c:f1:3e:37:3f:86:38:6f:27:
                    12:71:03:42:db:05:98:53:b7:5b:cb:88:c9:a1:47:
                    7b:27:56:2a:0a:33:ae:42:97:0a:7c:e2:bf:59:d1:
                    e0:fe:1d:e5:19:32:dd:70:07:5b:4e:00:08:3f:59:
                    a6:1b:67:e3:fa:40:d8:2f:25:78:98:9a:ba:cf:b4:
                    3f:d0:44:20:f8:1c:0c:2b:5f:44:4d:52:d8:7e:24:
                    36:6c:7c:a9:fe:69:a6:6f:64:3f:49:90:67:44:a5:
                    3a:85:9d:29:19:bd:dc:3a:25:77:f4:74:db:92:48:
                    52:4e:5f:95:66:0c:57:98:79:1d:87:1d:a0:0a:7a:
                    e6:a3
                Exponent: 65537 (0x10001)
        X509v3 extensions:
            X509v3 Key Usage: 
                Digital Signature, Key Encipherment, Key Agreement
            X509v3 Basic Constraints: critical
                CA:FALSE
            Netscape Cert Type: 
                SSL Client, SSL Server
            X509v3 Extended Key Usage: 
                TLS Web Server Authentication, TLS Web Client Authentication
            X509v3 Subject Alternative Name: 
                DNS:pi-3.k8s.kruemel.home
            X509v3 Subject Key Identifier: 
                C2:3C:8C:CA:87:04:53:26:4F:74:D7:2C:7E:91:54:F2:0B:CE:2F:03
            X509v3 Authority Key Identifier: 
                keyid:D6:88:F1:AA:C1:2B:09:8C:B8:5C:9D:CE:DF:57:39:62:26:10:20:90
                DirName:/C=CH/ST=Thurgau/L=Kefikon/O=guengel.ch/CN=CA guengel.ch/emailAddress=postmaster@guengel.ch
                serial:E5:25:3B:A6:77:BD:CB:FF

    Signature Algorithm: sha256WithRSAEncryption
         8f:22:27:49:07:31:69:d9:f1:0b:d3:7e:82:27:ae:c2:25:1c:
         0b:6c:86:34:2e:cd:8c:55:a3:44:62:02:ae:6a:80:d2:0a:ba:
         32:77:3a:ed:44:0b:b7:dd:a3:20:e3:fb:bf:fb:3a:f1:16:e3:
         25:4c:ed:ef:c5:9d:d0:94:4f:0c:fc:75:3b:29:f0:99:97:58:
         1d:00:a8:46:c9:55:65:7f:14:da:91:cf:c0:a1:2a:6f:5c:f2:
         ba:c2:7e:ef:6a:82:f9:34:44:e2:04:c1:0b:2a:81:22:c6:17:
         22:91:b6:10:bc:99:60:50:0c:d9:fb:ea:6c:4e:4d:7b:78:ac:
         0a:a0:e6:30:61:00:4f:ee:4c:d5:e6:c5:0a:d7:4b:17:cc:19:
         52:c9:b1:16:c8:7c:5c:af:3f:84:cd:39:18:bc:7c:e6:d5:1a:
         bd:5e:43:c2:71:6b:d5:bd:58:e3:27:58:01:48:3b:04:4a:06:
         ae:4b:d0:56:17:8e:2f:5d:85:06:67:fb:44:29:9e:34:d8:45:
         30:4c:bd:f4:60:4d:ac:6c:4c:de:ef:f6:3d:06:79:06:0e:b1:
         2d:4a:42:ab:cc:bd:83:66:79:90:0d:57:18:fa:48:1f:1f:6d:
         95:83:6d:fa:99:dd:74:d3:f7:27:81:fa:1c:74:1a:3c:b8:36:
         b1:b0:61:4b:49:d1:67:c1:da:bf:43:13:39:44:f8:c1:60:24:
         32:01:ae:2a:a4:b4:42:a3:0c:0a:b3:42:31:68:76:e4:ce:14:
         ef:81:7c:0e:95:be:b9:61:ef:ea:86:11:46:03:d1:14:6e:16:
         a1:95:b9:42:26:54:69:7f:22:08:c9:ee:34:3a:27:e7:d0:ba:
         1c:3e:f8:36:4d:3a:ee:56:17:3a:07:e7:c0:1a:f6:d0:84:86:
         28:9d:d0:a6:42:a0:64:a0:15:df:a0:3e:20:ad:2e:cf:d2:0e:
         7e:b0:82:ba:98:5e:e8:8b:dd:33:4a:47:ac:bc:c3:d7:82:d0:
         6f:68:21:67:c6:60:6f:dc:50:41:42:19:08:c5:c3:f2:86:14:
         22:54:8d:2e:69:2e:2e:cd:67:a8:71:ec:9d:47:fc:42:47:50:
         06:63:f4:f7:b3:9c:81:68:50:b8:41:f1:21:fa:32:22:af:b8:
         d6:4a:9b:ec:1a:70:57:c2:22:ad:05:cf:8a:74:f2:56:30:a6:
         05:c4:45:2c:1c:e4:61:97:07:d4:71:ab:5b:60:76:e3:b0:16:
         0f:d8:70:1a:11:02:7e:ab:8c:d1:a2:82:43:73:bd:63:47:bd:
         ae:a3:a6:94:74:00:72:44:0f:2d:18:d0:03:58:99:0b:5e:e5:
         e1:6a:a2:4c:02:8e:07:06
-----BEGIN CERTIFICATE-----
MIIFyzCCA7OgAwIBAgICAdIwDQYJKoZIhvcNAQELBQAwgYQxCzAJBgNVBAYTAkNI
MRAwDgYDVQQIEwdUaHVyZ2F1MRAwDgYDVQQHEwdLZWZpa29uMRMwEQYDVQQKEwpn
dWVuZ2VsLmNoMRYwFAYDVQQDEw1DQSBndWVuZ2VsLmNoMSQwIgYJKoZIhvcNAQkB
FhVwb3N0bWFzdGVyQGd1ZW5nZWwuY2gwHhcNMjIwMjExMDcwNzE1WhcNMjMwMzE4
MDcwNzE1WjB6MQswCQYDVQQGEwJDSDEQMA4GA1UECBMHVGh1cmdhdTETMBEGA1UE
ChMKZ3VlbmdlbC5jaDEeMBwGA1UEAxMVcGktMy5rOHMua3J1ZW1lbC5ob21lMSQw
IgYJKoZIhvcNAQkBFhVwb3N0bWFzdGVyQGd1ZW5nZWwuY2gwggEiMA0GCSqGSIb3
DQEBAQUAA4IBDwAwggEKAoIBAQDOgPdu1OZHdC22P1xTDX9FDaQRbRnCM3wzyAPD
6kSVThX8lVjKj2062REERGTPNxFiLwsnPWnmIGPQD3A2KhdAyto0y1FiuQ/Fy4u8
jKWQqmp8bSzGQwJP8642Jfrxxkio3J7IMGL7LwFHrWOt2MF+xvm2GUmWNiH/+2QK
lAzxPjc/hjhvJxJxA0LbBZhTt1vLiMmhR3snVioKM65Clwp84r9Z0eD+HeUZMt1w
B1tOAAg/WaYbZ+P6QNgvJXiYmrrPtD/QRCD4HAwrX0RNUth+JDZsfKn+aaZvZD9J
kGdEpTqFnSkZvdw6JXf0dNuSSFJOX5VmDFeYeR2HHaAKeuajAgMBAAGjggFOMIIB
SjALBgNVHQ8EBAMCA6gwDAYDVR0TAQH/BAIwADARBglghkgBhvhCAQEEBAMCBsAw
HQYDVR0lBBYwFAYIKwYBBQUHAwEGCCsGAQUFBwMCMCAGA1UdEQQZMBeCFXBpLTMu
azhzLmtydWVtZWwuaG9tZTAdBgNVHQ4EFgQUwjyMyocEUyZPdNcsfpFU8gvOLwMw
gbkGA1UdIwSBsTCBroAU1ojxqsErCYy4XJ3O31c5YiYQIJChgYqkgYcwgYQxCzAJ
BgNVBAYTAkNIMRAwDgYDVQQIEwdUaHVyZ2F1MRAwDgYDVQQHEwdLZWZpa29uMRMw
EQYDVQQKEwpndWVuZ2VsLmNoMRYwFAYDVQQDEw1DQSBndWVuZ2VsLmNoMSQwIgYJ
KoZIhvcNAQkBFhVwb3N0bWFzdGVyQGd1ZW5nZWwuY2iCCQDlJTumd73L/zANBgkq
hkiG9w0BAQsFAAOCAgEAjyInSQcxadnxC9N+gieuwiUcC2yGNC7NjFWjRGICrmqA
0gq6Mnc67UQLt92jIOP7v/s68RbjJUzt78Wd0JRPDPx1OynwmZdYHQCoRslVZX8U
2pHPwKEqb1zyusJ+72qC+TRE4gTBCyqBIsYXIpG2ELyZYFAM2fvqbE5Ne3isCqDm
MGEAT+5M1ebFCtdLF8wZUsmxFsh8XK8/hM05GLx85tUavV5DwnFr1b1Y4ydYAUg7
BEoGrkvQVheOL12FBmf7RCmeNNhFMEy99GBNrGxM3u/2PQZ5Bg6xLUpCq8y9g2Z5
kA1XGPpIHx9tlYNt+pnddNP3J4H6HHQaPLg2sbBhS0nRZ8Hav0MTOUT4wWAkMgGu
KqS0QqMMCrNCMWh25M4U74F8DpW+uWHv6oYRRgPRFG4WoZW5QiZUaX8iCMnuNDon
59C6HD74Nk067lYXOgfnwBr20ISGKJ3QpkKgZKAV36A+IK0uz9IOfrCCuphe6Ivd
M0pHrLzD14LQb2ghZ8Zgb9xQQUIZCMXD8oYUIlSNLmkuLs1nqHHsnUf8QkdQBmP0
97OcgWhQuEHxIfoyIq+41kqb7BpwV8IirQXPinTyVjCmBcRFLBzkYZcH1HGrW2B2
47AWD9hwGhECfquM0aKCQ3O9Y0e9rqOmlHQAckQPLRjQA1iZC17l4WqiTAKOBwY=
-----END CERTIFICATE-----
