Certificate:
    Data:
        Version: 3 (0x2)
        Serial Number:
            0d:73:9f:2d:cd:ea:24:bf:b7:1a:81:2b:fd:75:56:ee:70:cc:59:07
        Signature Algorithm: sha256WithRSAEncryption
        Issuer: C=CH, ST=Thurgau, L=Kefikon, O=guengel.ch, CN=CA 2022/emailAddress=postmaster@guengel.ch
        Validity
            Not Before: Dec 30 08:44:44 2023 GMT
            Not After : Feb  2 08:44:44 2025 GMT
        Subject: C=CH, ST=Thurgau, O=guengel.ch, CN=pi-3.k8s.kruemel.home/emailAddress=postmaster@guengel.ch
        Subject Public Key Info:
            Public Key Algorithm: rsaEncryption
                RSA Public-Key: (2048 bit)
                Modulus:
                    00:ca:ae:0c:54:c5:3e:c1:9b:8b:a2:73:b0:e8:a5:
                    bc:9b:8c:8f:96:c6:21:8a:62:d6:77:d3:7b:f1:66:
                    55:9c:d1:62:40:51:98:41:56:2a:32:4b:61:4d:fa:
                    f7:65:4a:54:1e:c8:d1:ab:86:a6:1d:a4:7e:e6:a6:
                    e2:98:12:ba:56:4f:75:ed:6c:62:79:c8:be:d3:4d:
                    66:4a:6b:e6:21:e9:9d:cf:4f:68:3b:8e:e4:5c:d9:
                    f9:48:7f:27:9e:b8:4e:0c:bb:c5:e9:06:0b:e7:95:
                    c5:12:a9:3c:23:5d:5e:22:4b:c5:ec:35:49:a9:1c:
                    33:5e:dd:24:5f:d8:75:f8:19:e6:08:d8:5e:a3:d7:
                    9f:1f:ac:66:c8:bf:47:57:47:7f:09:a0:46:cd:c5:
                    62:4f:5e:fc:6f:e6:43:40:82:da:53:62:18:0d:eb:
                    75:d5:bb:78:01:fd:8f:f6:a2:32:d3:d8:fa:7a:da:
                    06:ce:79:82:0d:f9:fe:f7:ad:8f:90:1b:03:28:ed:
                    5a:9a:98:e2:70:ec:9a:8d:a2:e7:f8:3c:94:70:29:
                    43:32:73:aa:83:0f:5e:08:9f:bb:20:65:84:29:62:
                    56:50:bb:4f:81:10:02:4e:cf:2d:cf:a8:26:cf:5a:
                    22:39:ab:28:b5:12:e9:75:68:e6:7d:e0:e2:1b:e8:
                    88:23
                Exponent: 65537 (0x10001)
        X509v3 extensions:
            X509v3 Basic Constraints: critical
                CA:FALSE
            X509v3 Key Usage: 
                Digital Signature, Key Encipherment, Key Agreement
            X509v3 Subject Key Identifier: 
                F5:CB:24:D3:1A:E4:A2:BB:9D:9D:2B:69:A1:EA:2A:40:DB:48:8A:02
            X509v3 Authority Key Identifier: 
                keyid:22:20:0D:51:40:61:42:BE:DD:BA:D9:C9:C1:77:B6:93:28:C3:99:EC
                DirName:/C=CH/ST=Thurgau/L=Kefikon/O=guengel.ch/CN=CA 2022/emailAddress=postmaster@guengel.ch
                serial:6D:29:90:54:E9:17:E9:C2:6A:E6:52:AD:84:4E:30:8E:6E:57:FB:1C

            Netscape Cert Type: 
                SSL Client, SSL Server
            X509v3 Extended Key Usage: 
                TLS Web Server Authentication, TLS Web Client Authentication
    Signature Algorithm: sha256WithRSAEncryption
         13:c6:18:60:de:9b:89:bc:62:d7:60:54:c5:d8:9c:74:e7:62:
         1e:b1:f5:13:65:d8:aa:9b:7b:ab:39:09:c0:3f:4f:d0:68:f7:
         df:5d:a1:fa:72:c0:11:c9:72:4d:43:4e:93:0a:a4:14:b2:8b:
         ea:12:99:85:3c:2e:5f:e3:85:56:85:9e:b2:0a:75:b2:e4:eb:
         29:3e:34:c7:f4:9c:d7:08:8f:d3:c1:fb:5e:d6:75:2c:a7:25:
         95:c5:01:e7:8c:0b:f8:eb:e8:0f:0b:be:f5:50:1c:33:9b:62:
         6a:12:93:6d:52:55:51:1d:ac:63:b7:ca:1c:8d:96:fb:d8:38:
         6d:8e:ee:31:a2:25:8d:c2:c1:d8:6e:3b:27:c9:ab:13:93:15:
         07:19:de:1c:39:73:41:9f:4d:ed:80:d3:7f:ec:c7:fb:89:21:
         60:d1:84:b2:38:e9:b9:e7:ba:bd:37:83:ec:f9:75:16:22:4a:
         05:15:fc:b0:b1:88:54:50:21:aa:a9:3d:fd:da:4e:2b:79:9a:
         15:1e:62:74:62:6f:f8:3d:d0:bd:4a:ea:ae:ab:77:cd:8e:a3:
         ed:4b:0a:f5:83:72:11:66:9e:ed:f7:66:3e:ff:dc:c1:db:87:
         eb:83:ce:6f:1b:7d:88:d8:07:93:b7:2a:79:22:9e:83:40:50:
         df:50:76:9d:2d:93:11:bd:ce:16:ab:5b:f4:c2:44:03:27:b5:
         2f:4f:00:ae:10:28:ba:41:6f:00:26:da:1d:3a:53:47:de:17:
         d3:eb:f1:79:f9:ca:9c:d2:59:08:37:22:22:76:95:0c:c9:e4:
         6a:bd:c0:75:de:a2:01:fa:02:51:3b:32:57:41:58:e6:30:dc:
         6d:db:a0:79:13:79:78:33:b6:ad:14:55:a2:91:3b:98:2b:57:
         d2:be:b6:0c:53:c8:83:9e:16:8f:1e:94:ab:f9:e5:45:ac:64:
         52:6c:9b:6e:79:03:33:8e:e7:1b:09:d6:99:dc:f7:be:61:a5:
         f5:54:4a:99:db:a3:ee:63:00:c3:80:96:34:fd:c9:6e:0d:4f:
         63:64:f4:ec:1e:03:19:1b:a1:bb:21:71:eb:2c:c0:20:76:b1:
         69:f0:70:b1:1b:c7:16:ec:9b:cf:a8:4c:39:b7:91:b3:16:c2:
         41:81:e3:e7:5b:68:45:c9:94:b1:85:0c:f2:23:48:ed:df:7e:
         bf:b9:9d:00:80:d6:b2:66:26:a9:fc:c2:c6:0d:60:44:ed:21:
         1a:c4:23:b2:b4:3a:83:dc:77:0d:f1:9b:fb:be:fd:d8:38:dd:
         ab:ce:1d:05:9b:a5:da:e1:83:15:98:92:d5:43:14:2c:0e:2e:
         32:9c:ab:6d:f8:34:7b:3b
-----BEGIN CERTIFICATE-----
MIIFuDCCA6CgAwIBAgIUDXOfLc3qJL+3GoEr/XVW7nDMWQcwDQYJKoZIhvcNAQEL
BQAwfjELMAkGA1UEBhMCQ0gxEDAOBgNVBAgTB1RodXJnYXUxEDAOBgNVBAcTB0tl
Zmlrb24xEzARBgNVBAoTCmd1ZW5nZWwuY2gxEDAOBgNVBAMTB0NBIDIwMjIxJDAi
BgkqhkiG9w0BCQEWFXBvc3RtYXN0ZXJAZ3VlbmdlbC5jaDAeFw0yMzEyMzAwODQ0
NDRaFw0yNTAyMDIwODQ0NDRaMHoxCzAJBgNVBAYTAkNIMRAwDgYDVQQIEwdUaHVy
Z2F1MRMwEQYDVQQKEwpndWVuZ2VsLmNoMR4wHAYDVQQDExVwaS0zLms4cy5rcnVl
bWVsLmhvbWUxJDAiBgkqhkiG9w0BCQEWFXBvc3RtYXN0ZXJAZ3VlbmdlbC5jaDCC
ASIwDQYJKoZIhvcNAQEBBQADggEPADCCAQoCggEBAMquDFTFPsGbi6JzsOilvJuM
j5bGIYpi1nfTe/FmVZzRYkBRmEFWKjJLYU3692VKVB7I0auGph2kfuam4pgSulZP
de1sYnnIvtNNZkpr5iHpnc9PaDuO5FzZ+Uh/J564Tgy7xekGC+eVxRKpPCNdXiJL
xew1SakcM17dJF/YdfgZ5gjYXqPXnx+sZsi/R1dHfwmgRs3FYk9e/G/mQ0CC2lNi
GA3rddW7eAH9j/aiMtPY+nraBs55gg35/vetj5AbAyjtWpqY4nDsmo2i5/g8lHAp
QzJzqoMPXgifuyBlhCliVlC7T4EQAk7PLc+oJs9aIjmrKLUS6XVo5n3g4hvoiCMC
AwEAAaOCATAwggEsMAwGA1UdEwEB/wQCMAAwCwYDVR0PBAQDAgOoMB0GA1UdDgQW
BBT1yyTTGuSiu52dK2mh6ipA20iKAjCBvQYDVR0jBIG1MIGygBQiIA1RQGFCvt26
2cnBd7aTKMOZ7KGBg6SBgDB+MQswCQYDVQQGEwJDSDEQMA4GA1UECBMHVGh1cmdh
dTEQMA4GA1UEBxMHS2VmaWtvbjETMBEGA1UEChMKZ3VlbmdlbC5jaDEQMA4GA1UE
AxMHQ0EgMjAyMjEkMCIGCSqGSIb3DQEJARYVcG9zdG1hc3RlckBndWVuZ2VsLmNo
ghRtKZBU6RfpwmrmUq2ETjCOblf7HDARBglghkgBhvhCAQEEBAMCBsAwHQYDVR0l
BBYwFAYIKwYBBQUHAwEGCCsGAQUFBwMCMA0GCSqGSIb3DQEBCwUAA4ICAQATxhhg
3puJvGLXYFTF2Jx052IesfUTZdiqm3urOQnAP0/QaPffXaH6csARyXJNQ06TCqQU
sovqEpmFPC5f44VWhZ6yCnWy5OspPjTH9JzXCI/Twfte1nUspyWVxQHnjAv46+gP
C771UBwzm2JqEpNtUlVRHaxjt8ocjZb72Dhtju4xoiWNwsHYbjsnyasTkxUHGd4c
OXNBn03tgNN/7Mf7iSFg0YSyOOm557q9N4Ps+XUWIkoFFfywsYhUUCGqqT392k4r
eZoVHmJ0Ym/4PdC9Suquq3fNjqPtSwr1g3IRZp7t92Y+/9zB24frg85vG32I2AeT
typ5Ip6DQFDfUHadLZMRvc4Wq1v0wkQDJ7UvTwCuECi6QW8AJtodOlNH3hfT6/F5
+cqc0lkINyIidpUMyeRqvcB13qIB+gJROzJXQVjmMNxt26B5E3l4M7atFFWikTuY
K1fSvrYMU8iDnhaPHpSr+eVFrGRSbJtueQMzjucbCdaZ3Pe+YaX1VEqZ26PuYwDD
gJY0/cluDU9jZPTsHgMZG6G7IXHrLMAgdrFp8HCxG8cW7JvPqEw5t5GzFsJBgePn
W2hFyZSxhQzyI0jt336/uZ0AgNayZiap/MLGDWBE7SEaxCOytDqD3HcN8Zv7vv3Y
ON2rzh0Fm6Xa4YMVmJLVQxQsDi4ynKtt+DR7Ow==
-----END CERTIFICATE-----
