Certificate:
    Data:
        Version: 3 (0x2)
        Serial Number:
            07:f0:8a:ef:cf:a4:d0:43:92:4e:4e:ea:7c:53:26:7e:5e:2f:ef:9d
        Signature Algorithm: sha256WithRSAEncryption
        Issuer: C=CH, ST=Thurgau, L=Kefikon, O=guengel.ch, CN=CA 2022/emailAddress=postmaster@guengel.ch
        Validity
            Not Before: Feb 11 14:04:00 2022 GMT
            Not After : Mar 18 14:04:00 2023 GMT
        Subject: C=CH, ST=Thurgau, O=guengel.ch, CN=pi-3.k8s.kruemel.home/emailAddress=postmaster@guengel.ch
        Subject Public Key Info:
            Public Key Algorithm: rsaEncryption
                RSA Public-Key: (2048 bit)
                Modulus:
                    00:ca:ae:0c:54:c5:3e:c1:9b:8b:a2:73:b0:e8:a5:
                    bc:9b:8c:8f:96:c6:21:8a:62:d6:77:d3:7b:f1:66:
                    55:9c:d1:62:40:51:98:41:56:2a:32:4b:61:4d:fa:
                    f7:65:4a:54:1e:c8:d1:ab:86:a6:1d:a4:7e:e6:a6:
                    e2:98:12:ba:56:4f:75:ed:6c:62:79:c8:be:d3:4d:
                    66:4a:6b:e6:21:e9:9d:cf:4f:68:3b:8e:e4:5c:d9:
                    f9:48:7f:27:9e:b8:4e:0c:bb:c5:e9:06:0b:e7:95:
                    c5:12:a9:3c:23:5d:5e:22:4b:c5:ec:35:49:a9:1c:
                    33:5e:dd:24:5f:d8:75:f8:19:e6:08:d8:5e:a3:d7:
                    9f:1f:ac:66:c8:bf:47:57:47:7f:09:a0:46:cd:c5:
                    62:4f:5e:fc:6f:e6:43:40:82:da:53:62:18:0d:eb:
                    75:d5:bb:78:01:fd:8f:f6:a2:32:d3:d8:fa:7a:da:
                    06:ce:79:82:0d:f9:fe:f7:ad:8f:90:1b:03:28:ed:
                    5a:9a:98:e2:70:ec:9a:8d:a2:e7:f8:3c:94:70:29:
                    43:32:73:aa:83:0f:5e:08:9f:bb:20:65:84:29:62:
                    56:50:bb:4f:81:10:02:4e:cf:2d:cf:a8:26:cf:5a:
                    22:39:ab:28:b5:12:e9:75:68:e6:7d:e0:e2:1b:e8:
                    88:23
                Exponent: 65537 (0x10001)
        X509v3 extensions:
            X509v3 Basic Constraints: critical
                CA:FALSE
            X509v3 Key Usage: 
                Digital Signature, Key Encipherment, Key Agreement
            X509v3 Subject Key Identifier: 
                F5:CB:24:D3:1A:E4:A2:BB:9D:9D:2B:69:A1:EA:2A:40:DB:48:8A:02
            X509v3 Authority Key Identifier: 
                keyid:22:20:0D:51:40:61:42:BE:DD:BA:D9:C9:C1:77:B6:93:28:C3:99:EC
                DirName:/C=CH/ST=Thurgau/L=Kefikon/O=guengel.ch/CN=CA 2022/emailAddress=postmaster@guengel.ch
                serial:6D:29:90:54:E9:17:E9:C2:6A:E6:52:AD:84:4E:30:8E:6E:57:FB:1C

            Netscape Cert Type: 
                SSL Client, SSL Server
            X509v3 Extended Key Usage: 
                TLS Web Server Authentication, TLS Web Client Authentication
    Signature Algorithm: sha256WithRSAEncryption
         92:02:8b:06:fb:e6:a2:1d:e3:4c:e0:15:22:3f:17:55:86:8f:
         85:b1:f2:2d:62:b5:3f:cc:5e:61:18:a8:da:0b:d9:ee:9f:b8:
         00:dd:10:32:eb:55:9d:62:93:fb:83:d9:f4:ba:cd:4c:17:90:
         70:42:44:f6:f8:23:46:9e:a3:58:74:03:13:ba:39:55:ba:b9:
         80:fe:85:e5:c3:f9:65:c3:0d:2b:d0:43:3f:54:83:e2:5a:8b:
         bf:eb:e2:b1:36:5d:f1:28:fa:89:f3:86:a6:7d:1a:e0:a5:d3:
         be:ca:f3:d5:8c:ed:ff:41:b3:ce:c4:91:94:6f:3c:1e:86:53:
         b5:71:77:ae:26:0a:cf:fb:14:db:cb:e5:72:a6:86:d8:96:a7:
         c8:98:db:0a:1b:de:76:7d:dc:a9:ad:99:e2:ce:e6:2e:a1:31:
         be:94:30:1d:46:15:dc:b4:67:86:43:0d:57:e8:4a:1c:96:7c:
         4a:d3:d7:b7:86:28:2d:67:b3:f3:fb:13:82:a9:2d:9b:3e:29:
         28:ba:91:af:e1:36:99:be:6a:cc:80:19:57:4e:39:64:f7:8b:
         6d:2e:14:be:0f:2a:41:6a:49:f0:dc:aa:93:57:67:5c:b6:7f:
         33:1f:bc:ed:fe:cb:aa:92:b2:57:7f:a7:21:fa:e8:a2:bc:e6:
         c5:c8:15:8c:3a:41:37:16:44:c9:e0:e6:63:b0:6d:87:93:77:
         e9:01:19:56:b7:11:1a:00:a5:23:04:bd:0e:f9:05:b5:39:a1:
         9c:09:b4:e3:ec:d2:7d:76:b0:eb:3e:8b:fc:be:12:f0:92:b3:
         c7:1b:19:2c:b3:8d:c7:4b:b4:9e:df:f5:05:85:10:af:12:a9:
         c3:0e:84:20:4a:08:65:79:dc:dc:d3:ee:16:7c:56:24:c2:ae:
         f1:07:e5:06:42:fe:6e:29:e2:f4:ff:58:93:46:4a:77:39:7e:
         58:ac:a0:07:a5:18:4d:6e:51:ff:40:7a:ff:6b:86:ca:d2:40:
         de:c4:8c:da:84:1e:c9:7d:35:54:c7:92:44:47:52:60:1a:3e:
         44:7d:7a:84:1c:56:9a:df:78:eb:79:e2:2a:6f:6f:ca:05:20:
         81:42:f6:ed:a6:29:e3:a0:1d:d4:9e:73:84:59:14:43:5f:dc:
         75:0f:9a:5f:92:33:d1:04:07:51:fe:8b:4d:81:8d:0d:2f:6a:
         84:ba:ef:38:02:4a:09:01:60:24:6f:9a:16:d8:db:c7:4e:23:
         6e:ae:46:ef:dd:e3:5c:12:2a:3e:78:72:f3:6a:39:00:69:d0:
         03:aa:77:d4:97:75:2a:ef:6a:d6:d3:40:74:62:7e:47:f2:56:
         bf:43:27:df:4e:dc:f2:a5
-----BEGIN CERTIFICATE-----
MIIFuDCCA6CgAwIBAgIUB/CK78+k0EOSTk7qfFMmfl4v750wDQYJKoZIhvcNAQEL
BQAwfjELMAkGA1UEBhMCQ0gxEDAOBgNVBAgTB1RodXJnYXUxEDAOBgNVBAcTB0tl
Zmlrb24xEzARBgNVBAoTCmd1ZW5nZWwuY2gxEDAOBgNVBAMTB0NBIDIwMjIxJDAi
BgkqhkiG9w0BCQEWFXBvc3RtYXN0ZXJAZ3VlbmdlbC5jaDAeFw0yMjAyMTExNDA0
MDBaFw0yMzAzMTgxNDA0MDBaMHoxCzAJBgNVBAYTAkNIMRAwDgYDVQQIEwdUaHVy
Z2F1MRMwEQYDVQQKEwpndWVuZ2VsLmNoMR4wHAYDVQQDExVwaS0zLms4cy5rcnVl
bWVsLmhvbWUxJDAiBgkqhkiG9w0BCQEWFXBvc3RtYXN0ZXJAZ3VlbmdlbC5jaDCC
ASIwDQYJKoZIhvcNAQEBBQADggEPADCCAQoCggEBAMquDFTFPsGbi6JzsOilvJuM
j5bGIYpi1nfTe/FmVZzRYkBRmEFWKjJLYU3692VKVB7I0auGph2kfuam4pgSulZP
de1sYnnIvtNNZkpr5iHpnc9PaDuO5FzZ+Uh/J564Tgy7xekGC+eVxRKpPCNdXiJL
xew1SakcM17dJF/YdfgZ5gjYXqPXnx+sZsi/R1dHfwmgRs3FYk9e/G/mQ0CC2lNi
GA3rddW7eAH9j/aiMtPY+nraBs55gg35/vetj5AbAyjtWpqY4nDsmo2i5/g8lHAp
QzJzqoMPXgifuyBlhCliVlC7T4EQAk7PLc+oJs9aIjmrKLUS6XVo5n3g4hvoiCMC
AwEAAaOCATAwggEsMAwGA1UdEwEB/wQCMAAwCwYDVR0PBAQDAgOoMB0GA1UdDgQW
BBT1yyTTGuSiu52dK2mh6ipA20iKAjCBvQYDVR0jBIG1MIGygBQiIA1RQGFCvt26
2cnBd7aTKMOZ7KGBg6SBgDB+MQswCQYDVQQGEwJDSDEQMA4GA1UECBMHVGh1cmdh
dTEQMA4GA1UEBxMHS2VmaWtvbjETMBEGA1UEChMKZ3VlbmdlbC5jaDEQMA4GA1UE
AxMHQ0EgMjAyMjEkMCIGCSqGSIb3DQEJARYVcG9zdG1hc3RlckBndWVuZ2VsLmNo
ghRtKZBU6RfpwmrmUq2ETjCOblf7HDARBglghkgBhvhCAQEEBAMCBsAwHQYDVR0l
BBYwFAYIKwYBBQUHAwEGCCsGAQUFBwMCMA0GCSqGSIb3DQEBCwUAA4ICAQCSAosG
++aiHeNM4BUiPxdVho+FsfItYrU/zF5hGKjaC9nun7gA3RAy61WdYpP7g9n0us1M
F5BwQkT2+CNGnqNYdAMTujlVurmA/oXlw/llww0r0EM/VIPiWou/6+KxNl3xKPqJ
84amfRrgpdO+yvPVjO3/QbPOxJGUbzwehlO1cXeuJgrP+xTby+VypobYlqfImNsK
G952fdyprZnizuYuoTG+lDAdRhXctGeGQw1X6EoclnxK09e3higtZ7Pz+xOCqS2b
PikoupGv4TaZvmrMgBlXTjlk94ttLhS+DypBaknw3KqTV2dctn8zH7zt/suqkrJX
f6ch+uiivObFyBWMOkE3FkTJ4OZjsG2Hk3fpARlWtxEaAKUjBL0O+QW1OaGcCbTj
7NJ9drDrPov8vhLwkrPHGxkss43HS7Se3/UFhRCvEqnDDoQgSghledzc0+4WfFYk
wq7xB+UGQv5uKeL0/1iTRkp3OX5YrKAHpRhNblH/QHr/a4bK0kDexIzahB7JfTVU
x5JER1JgGj5EfXqEHFaa33jreeIqb2/KBSCBQvbtpinjoB3UnnOEWRRDX9x1D5pf
kjPRBAdR/otNgY0NL2qEuu84AkoJAWAkb5oW2NvHTiNurkbv3eNcEio+eHLzajkA
adADqnfUl3Uq72rW00B0Yn5H8la/QyffTtzypQ==
-----END CERTIFICATE-----
