Certificate:
    Data:
        Version: 3 (0x2)
        Serial Number: 437 (0x1b5)
        Signature Algorithm: sha256WithRSAEncryption
        Issuer: C=CH, ST=Thurgau, L=Kefikon, O=guengel.ch, CN=CA guengel.ch/emailAddress=postmaster@guengel.ch
        Validity
            Not Before: Feb  6 15:19:00 2021 GMT
            Not After : Mar 13 15:19:00 2022 GMT
        Subject: C=CH, ST=Thurgau, O=guengel.ch, CN=pi-3.k8s.kruemel.home/emailAddress=postmaster@guengel.ch
        Subject Public Key Info:
            Public Key Algorithm: rsaEncryption
                RSA Public-Key: (2048 bit)
                Modulus:
                    00:ce:80:f7:6e:d4:e6:47:74:2d:b6:3f:5c:53:0d:
                    7f:45:0d:a4:11:6d:19:c2:33:7c:33:c8:03:c3:ea:
                    44:95:4e:15:fc:95:58:ca:8f:6d:3a:d9:11:04:44:
                    64:cf:37:11:62:2f:0b:27:3d:69:e6:20:63:d0:0f:
                    70:36:2a:17:40:ca:da:34:cb:51:62:b9:0f:c5:cb:
                    8b:bc:8c:a5:90:aa:6a:7c:6d:2c:c6:43:02:4f:f3:
                    ae:36:25:fa:f1:c6:48:a8:dc:9e:c8:30:62:fb:2f:
                    01:47:ad:63:ad:d8:c1:7e:c6:f9:b6:19:49:96:36:
                    21:ff:fb:64:0a:94:0c:f1:3e:37:3f:86:38:6f:27:
                    12:71:03:42:db:05:98:53:b7:5b:cb:88:c9:a1:47:
                    7b:27:56:2a:0a:33:ae:42:97:0a:7c:e2:bf:59:d1:
                    e0:fe:1d:e5:19:32:dd:70:07:5b:4e:00:08:3f:59:
                    a6:1b:67:e3:fa:40:d8:2f:25:78:98:9a:ba:cf:b4:
                    3f:d0:44:20:f8:1c:0c:2b:5f:44:4d:52:d8:7e:24:
                    36:6c:7c:a9:fe:69:a6:6f:64:3f:49:90:67:44:a5:
                    3a:85:9d:29:19:bd:dc:3a:25:77:f4:74:db:92:48:
                    52:4e:5f:95:66:0c:57:98:79:1d:87:1d:a0:0a:7a:
                    e6:a3
                Exponent: 65537 (0x10001)
        X509v3 extensions:
            X509v3 Key Usage: 
                Digital Signature, Key Encipherment, Key Agreement
            X509v3 Basic Constraints: critical
                CA:FALSE
            Netscape Cert Type: 
                SSL Client, SSL Server
            X509v3 Extended Key Usage: 
                TLS Web Server Authentication, TLS Web Client Authentication
            X509v3 Subject Alternative Name: 
                DNS:pi-3.k8s.kruemel.home
            X509v3 Subject Key Identifier: 
                C2:3C:8C:CA:87:04:53:26:4F:74:D7:2C:7E:91:54:F2:0B:CE:2F:03
            X509v3 Authority Key Identifier: 
                keyid:D6:88:F1:AA:C1:2B:09:8C:B8:5C:9D:CE:DF:57:39:62:26:10:20:90
                DirName:/C=CH/ST=Thurgau/L=Kefikon/O=guengel.ch/CN=CA guengel.ch/emailAddress=postmaster@guengel.ch
                serial:E5:25:3B:A6:77:BD:CB:FF

    Signature Algorithm: sha256WithRSAEncryption
         1a:0f:4f:ae:05:28:3b:fb:74:dd:15:9a:28:d7:3e:ed:e4:fa:
         de:9d:3d:95:42:3c:14:d4:28:55:da:e0:af:16:56:4f:76:1a:
         2a:cc:16:a6:e1:07:3a:bc:40:e3:8d:c1:a3:dc:36:16:49:9b:
         04:2c:9b:04:6d:44:2c:42:03:3d:cb:66:ed:a8:c8:6b:71:b6:
         6f:37:3b:c8:cf:38:1b:21:3e:7b:c1:dc:91:d4:b3:fe:83:b5:
         90:7e:4d:9b:19:35:17:59:d3:03:23:67:9f:aa:d2:3c:7f:a4:
         27:7b:e6:b3:44:a0:b8:5c:3d:43:f2:26:57:62:b5:be:64:74:
         cd:32:19:a9:7e:2a:e9:d3:1f:14:82:83:1c:9a:df:c1:f2:cf:
         3c:20:85:79:83:06:3e:56:00:70:87:ff:33:17:71:6a:bb:3c:
         74:57:54:e0:6d:0c:34:ac:4a:27:9d:5c:3a:df:27:40:47:f6:
         27:d0:5a:18:93:9e:d1:d4:93:5d:68:cc:5c:f7:4c:fb:02:76:
         c4:a6:ca:17:e0:12:78:c6:14:a8:07:2f:a1:d7:ad:a1:47:3a:
         28:25:3f:ab:88:01:fe:06:4f:5a:cb:d7:c8:a7:94:41:5b:1c:
         c2:75:67:b2:2a:3f:d3:fb:57:e6:7b:0a:83:f0:74:ec:4b:ff:
         b1:e6:7e:0a:de:ff:dd:eb:74:9b:0a:35:cf:c4:27:85:02:aa:
         90:6a:73:3b:7f:c6:23:b6:a4:c2:0e:7f:7e:43:07:7c:81:7a:
         91:ae:d3:02:25:da:5e:98:05:3b:a4:d3:1a:7c:aa:4b:b2:33:
         9c:f7:08:f3:96:31:c1:ec:8a:9f:88:30:9f:24:b5:4b:53:be:
         e3:c1:9e:de:cf:b5:1a:06:93:d2:0b:4b:5a:dc:70:55:29:3e:
         52:9f:ac:d3:70:6d:4b:7b:8f:14:79:0c:2e:94:da:64:63:cb:
         1d:f4:5d:92:6f:84:ee:b9:8b:a9:5b:04:e5:b8:92:e1:7b:e0:
         9c:f2:8b:93:32:ad:17:5b:1a:64:24:df:f2:4c:7e:9f:1b:83:
         90:6a:b7:74:96:e6:87:b3:60:8a:df:3a:ad:ff:d7:70:31:45:
         65:13:21:ed:6a:ee:68:09:8a:f1:f5:62:83:ef:d9:c7:5a:66:
         90:5c:17:af:a5:de:66:e5:77:42:42:65:87:d1:20:53:4d:0c:
         76:b6:61:a5:92:93:85:fe:09:77:d1:4e:df:46:24:84:ba:bc:
         2f:c6:3a:a5:a2:43:ed:76:de:ab:78:7a:b4:fa:11:97:df:06:
         88:78:dd:b0:7c:42:bb:4c:b5:c8:f5:ba:33:c5:db:6e:d0:33:
         0b:c1:06:ff:7c:3e:10:20
-----BEGIN CERTIFICATE-----
MIIFyzCCA7OgAwIBAgICAbUwDQYJKoZIhvcNAQELBQAwgYQxCzAJBgNVBAYTAkNI
MRAwDgYDVQQIEwdUaHVyZ2F1MRAwDgYDVQQHEwdLZWZpa29uMRMwEQYDVQQKEwpn
dWVuZ2VsLmNoMRYwFAYDVQQDEw1DQSBndWVuZ2VsLmNoMSQwIgYJKoZIhvcNAQkB
FhVwb3N0bWFzdGVyQGd1ZW5nZWwuY2gwHhcNMjEwMjA2MTUxOTAwWhcNMjIwMzEz
MTUxOTAwWjB6MQswCQYDVQQGEwJDSDEQMA4GA1UECBMHVGh1cmdhdTETMBEGA1UE
ChMKZ3VlbmdlbC5jaDEeMBwGA1UEAxMVcGktMy5rOHMua3J1ZW1lbC5ob21lMSQw
IgYJKoZIhvcNAQkBFhVwb3N0bWFzdGVyQGd1ZW5nZWwuY2gwggEiMA0GCSqGSIb3
DQEBAQUAA4IBDwAwggEKAoIBAQDOgPdu1OZHdC22P1xTDX9FDaQRbRnCM3wzyAPD
6kSVThX8lVjKj2062REERGTPNxFiLwsnPWnmIGPQD3A2KhdAyto0y1FiuQ/Fy4u8
jKWQqmp8bSzGQwJP8642Jfrxxkio3J7IMGL7LwFHrWOt2MF+xvm2GUmWNiH/+2QK
lAzxPjc/hjhvJxJxA0LbBZhTt1vLiMmhR3snVioKM65Clwp84r9Z0eD+HeUZMt1w
B1tOAAg/WaYbZ+P6QNgvJXiYmrrPtD/QRCD4HAwrX0RNUth+JDZsfKn+aaZvZD9J
kGdEpTqFnSkZvdw6JXf0dNuSSFJOX5VmDFeYeR2HHaAKeuajAgMBAAGjggFOMIIB
SjALBgNVHQ8EBAMCA6gwDAYDVR0TAQH/BAIwADARBglghkgBhvhCAQEEBAMCBsAw
HQYDVR0lBBYwFAYIKwYBBQUHAwEGCCsGAQUFBwMCMCAGA1UdEQQZMBeCFXBpLTMu
azhzLmtydWVtZWwuaG9tZTAdBgNVHQ4EFgQUwjyMyocEUyZPdNcsfpFU8gvOLwMw
gbkGA1UdIwSBsTCBroAU1ojxqsErCYy4XJ3O31c5YiYQIJChgYqkgYcwgYQxCzAJ
BgNVBAYTAkNIMRAwDgYDVQQIEwdUaHVyZ2F1MRAwDgYDVQQHEwdLZWZpa29uMRMw
EQYDVQQKEwpndWVuZ2VsLmNoMRYwFAYDVQQDEw1DQSBndWVuZ2VsLmNoMSQwIgYJ
KoZIhvcNAQkBFhVwb3N0bWFzdGVyQGd1ZW5nZWwuY2iCCQDlJTumd73L/zANBgkq
hkiG9w0BAQsFAAOCAgEAGg9PrgUoO/t03RWaKNc+7eT63p09lUI8FNQoVdrgrxZW
T3YaKswWpuEHOrxA443Bo9w2FkmbBCybBG1ELEIDPctm7ajIa3G2bzc7yM84GyE+
e8HckdSz/oO1kH5Nmxk1F1nTAyNnn6rSPH+kJ3vms0SguFw9Q/ImV2K1vmR0zTIZ
qX4q6dMfFIKDHJrfwfLPPCCFeYMGPlYAcIf/Mxdxars8dFdU4G0MNKxKJ51cOt8n
QEf2J9BaGJOe0dSTXWjMXPdM+wJ2xKbKF+ASeMYUqAcvodetoUc6KCU/q4gB/gZP
WsvXyKeUQVscwnVnsio/0/tX5nsKg/B07Ev/seZ+Ct7/3et0mwo1z8QnhQKqkGpz
O3/GI7akwg5/fkMHfIF6ka7TAiXaXpgFO6TTGnyqS7IznPcI85YxweyKn4gwnyS1
S1O+48Ge3s+1GgaT0gtLWtxwVSk+Up+s03BtS3uPFHkMLpTaZGPLHfRdkm+E7rmL
qVsE5biS4XvgnPKLkzKtF1saZCTf8kx+nxuDkGq3dJbmh7Ngit86rf/XcDFFZRMh
7WruaAmK8fVig+/Zx1pmkFwXr6XeZuV3QkJlh9EgU00MdrZhpZKThf4Jd9FO30Yk
hLq8L8Y6paJD7Xbeq3h6tPoRl98GiHjdsHxCu0y1yPW6M8XbbtAzC8EG/3w+ECA=
-----END CERTIFICATE-----
