Certificate:
    Data:
        Version: 3 (0x2)
        Serial Number:
            26:0a:f9:5f:0b:1a:12:d0:d1:c1:50:56:d7:2e:d6:83:a3:b2:3f:b1
        Signature Algorithm: sha256WithRSAEncryption
        Issuer: C=CH, ST=Thurgau, L=Kefikon, O=guengel.ch, CN=CA 2022/emailAddress=postmaster@guengel.ch
        Validity
            Not Before: Feb 11 14:04:01 2022 GMT
            Not After : Mar 18 14:04:01 2023 GMT
        Subject: C=CH, ST=Thurgau, O=guengel.ch, CN=pi-4.k8s.kruemel.home/emailAddress=postmaster@guengel.ch
        Subject Public Key Info:
            Public Key Algorithm: rsaEncryption
                RSA Public-Key: (2048 bit)
                Modulus:
                    00:e0:99:3b:9c:8f:f4:de:de:ac:e2:41:93:65:12:
                    ed:dc:3f:5f:fd:d9:ea:61:5f:24:cc:0a:d4:88:f6:
                    7f:93:c0:50:9c:db:f4:3a:8f:22:03:35:7c:4d:93:
                    da:b3:e9:40:aa:b9:8c:28:76:67:dd:cf:c2:40:62:
                    ba:fb:6d:ef:a8:84:02:c8:b0:be:3d:1f:8c:53:73:
                    ae:fc:13:09:5b:64:35:ec:22:1c:90:3e:91:99:58:
                    af:38:e5:1e:fb:7c:d0:a9:db:c9:c8:8e:76:8b:51:
                    bd:6c:4b:2d:2d:53:55:92:23:76:41:86:fd:c2:c4:
                    26:a5:1e:8d:95:3f:79:7b:5b:eb:5d:be:92:9b:40:
                    8f:ca:63:59:d1:59:b0:db:fe:af:3f:0a:36:55:19:
                    c1:98:a3:39:ea:a6:fe:ac:b3:7d:8e:f3:06:e3:e8:
                    fc:fa:9f:1e:25:29:49:67:64:4d:e2:22:2e:ce:5d:
                    11:5c:5e:c0:aa:78:8c:d1:16:c6:34:31:57:ee:20:
                    36:64:e0:f0:3c:d8:43:c1:f4:68:bb:33:5c:d0:7f:
                    45:44:00:09:2a:19:d9:1c:c6:b1:a0:80:8f:8f:62:
                    da:cc:ac:92:dd:3b:ba:00:7c:73:26:77:d2:de:55:
                    cd:03:a9:e4:d6:ba:9c:f2:70:b7:0a:9c:68:e4:2a:
                    1a:1b
                Exponent: 65537 (0x10001)
        X509v3 extensions:
            X509v3 Basic Constraints: critical
                CA:FALSE
            X509v3 Key Usage: 
                Digital Signature, Key Encipherment, Key Agreement
            X509v3 Subject Key Identifier: 
                D5:CD:3A:92:14:D4:8C:8E:D2:D0:CC:7E:DE:52:06:B3:D9:1F:64:BC
            X509v3 Authority Key Identifier: 
                keyid:22:20:0D:51:40:61:42:BE:DD:BA:D9:C9:C1:77:B6:93:28:C3:99:EC
                DirName:/C=CH/ST=Thurgau/L=Kefikon/O=guengel.ch/CN=CA 2022/emailAddress=postmaster@guengel.ch
                serial:6D:29:90:54:E9:17:E9:C2:6A:E6:52:AD:84:4E:30:8E:6E:57:FB:1C

            Netscape Cert Type: 
                SSL Client, SSL Server
            X509v3 Extended Key Usage: 
                TLS Web Server Authentication, TLS Web Client Authentication
    Signature Algorithm: sha256WithRSAEncryption
         79:18:d4:8e:e2:d8:00:1c:ed:ad:d2:22:d7:7f:fc:84:dc:01:
         cb:55:65:2d:f7:01:c3:c9:be:81:27:25:6d:0d:e5:b7:44:49:
         59:77:a8:7a:b8:1c:d9:c3:45:d8:c4:b5:93:23:76:93:cb:66:
         4f:f3:a6:e9:9b:d1:a7:00:19:40:15:2e:19:5d:28:59:e9:98:
         9d:6c:4f:4b:11:39:9f:4f:34:6f:8e:aa:a0:94:9b:48:47:0b:
         fb:c3:84:d9:b3:3d:a0:ed:50:4f:9d:03:2e:78:ff:6e:b8:8e:
         a7:4b:1c:87:d6:31:a7:7c:12:f1:c8:31:44:21:7b:5b:46:cb:
         fd:9a:6e:a4:28:75:93:28:a8:44:ba:70:e5:d1:67:8c:c4:04:
         85:ba:4d:1a:3c:e1:c0:4f:ee:f9:04:e2:68:cf:5f:60:99:c1:
         a9:67:de:ec:51:7a:b2:b8:55:cb:e7:5f:9b:ec:b1:e6:15:05:
         d6:15:33:7f:e9:cb:cc:20:18:0c:2b:1d:2b:c1:23:d8:8d:d3:
         df:f2:55:6a:0e:70:02:8d:17:ac:1c:9c:f8:48:82:8a:88:d7:
         30:b7:30:17:17:0f:48:ec:ab:4d:89:b6:56:10:3c:ba:1d:4f:
         d7:c7:2b:6d:c5:c2:d8:fe:5a:77:86:a2:6a:60:50:f1:8c:c9:
         2b:f2:d1:f8:58:42:d7:30:78:b3:21:f4:e2:1d:e2:27:6d:d4:
         12:2d:17:71:3d:a1:b8:2b:fb:b3:28:48:65:cd:24:1e:bb:7c:
         88:5a:12:ee:dd:fc:06:b7:69:8f:26:21:01:61:8c:9e:5e:a7:
         08:f4:c3:41:28:61:83:87:96:a9:95:e8:0d:2b:b5:81:5a:10:
         7c:34:d6:40:12:34:60:bd:8c:17:f0:36:de:cd:8a:d7:bd:82:
         db:b5:3c:72:f8:73:8b:83:3b:57:31:e0:56:b6:11:e7:39:9f:
         a8:3c:1d:fc:9a:fc:9c:02:78:31:85:6d:33:94:1b:f8:99:c4:
         95:d1:ca:11:24:2e:a0:d6:53:85:31:f5:bd:0a:93:95:12:dc:
         88:f4:5a:1b:b6:79:4e:2a:d0:0b:f8:00:0d:e5:c3:e8:58:9f:
         c2:e7:0f:b2:9c:6e:56:a1:46:d7:cc:ed:15:df:cd:9c:76:f0:
         3d:6b:58:b5:26:98:22:2b:2d:ef:fb:0d:cd:2f:70:d9:ed:15:
         aa:af:7b:5d:22:0e:fc:68:58:f9:e4:ce:32:88:77:58:92:0e:
         d1:5f:6b:e0:81:ab:cd:58:a2:84:63:c0:19:13:27:37:b1:46:
         ed:b4:72:33:07:c3:cf:01:24:85:b1:c2:3b:3f:94:58:a5:ed:
         46:bf:48:78:d9:58:eb:5d
-----BEGIN CERTIFICATE-----
MIIFuDCCA6CgAwIBAgIUJgr5XwsaEtDRwVBW1y7Wg6OyP7EwDQYJKoZIhvcNAQEL
BQAwfjELMAkGA1UEBhMCQ0gxEDAOBgNVBAgTB1RodXJnYXUxEDAOBgNVBAcTB0tl
Zmlrb24xEzARBgNVBAoTCmd1ZW5nZWwuY2gxEDAOBgNVBAMTB0NBIDIwMjIxJDAi
BgkqhkiG9w0BCQEWFXBvc3RtYXN0ZXJAZ3VlbmdlbC5jaDAeFw0yMjAyMTExNDA0
MDFaFw0yMzAzMTgxNDA0MDFaMHoxCzAJBgNVBAYTAkNIMRAwDgYDVQQIEwdUaHVy
Z2F1MRMwEQYDVQQKEwpndWVuZ2VsLmNoMR4wHAYDVQQDExVwaS00Lms4cy5rcnVl
bWVsLmhvbWUxJDAiBgkqhkiG9w0BCQEWFXBvc3RtYXN0ZXJAZ3VlbmdlbC5jaDCC
ASIwDQYJKoZIhvcNAQEBBQADggEPADCCAQoCggEBAOCZO5yP9N7erOJBk2US7dw/
X/3Z6mFfJMwK1Ij2f5PAUJzb9DqPIgM1fE2T2rPpQKq5jCh2Z93PwkBiuvtt76iE
Asiwvj0fjFNzrvwTCVtkNewiHJA+kZlYrzjlHvt80KnbyciOdotRvWxLLS1TVZIj
dkGG/cLEJqUejZU/eXtb612+kptAj8pjWdFZsNv+rz8KNlUZwZijOeqm/qyzfY7z
BuPo/PqfHiUpSWdkTeIiLs5dEVxewKp4jNEWxjQxV+4gNmTg8DzYQ8H0aLszXNB/
RUQACSoZ2RzGsaCAj49i2syskt07ugB8cyZ30t5VzQOp5Na6nPJwtwqcaOQqGhsC
AwEAAaOCATAwggEsMAwGA1UdEwEB/wQCMAAwCwYDVR0PBAQDAgOoMB0GA1UdDgQW
BBTVzTqSFNSMjtLQzH7eUgaz2R9kvDCBvQYDVR0jBIG1MIGygBQiIA1RQGFCvt26
2cnBd7aTKMOZ7KGBg6SBgDB+MQswCQYDVQQGEwJDSDEQMA4GA1UECBMHVGh1cmdh
dTEQMA4GA1UEBxMHS2VmaWtvbjETMBEGA1UEChMKZ3VlbmdlbC5jaDEQMA4GA1UE
AxMHQ0EgMjAyMjEkMCIGCSqGSIb3DQEJARYVcG9zdG1hc3RlckBndWVuZ2VsLmNo
ghRtKZBU6RfpwmrmUq2ETjCOblf7HDARBglghkgBhvhCAQEEBAMCBsAwHQYDVR0l
BBYwFAYIKwYBBQUHAwEGCCsGAQUFBwMCMA0GCSqGSIb3DQEBCwUAA4ICAQB5GNSO
4tgAHO2t0iLXf/yE3AHLVWUt9wHDyb6BJyVtDeW3RElZd6h6uBzZw0XYxLWTI3aT
y2ZP86bpm9GnABlAFS4ZXShZ6ZidbE9LETmfTzRvjqqglJtIRwv7w4TZsz2g7VBP
nQMueP9uuI6nSxyH1jGnfBLxyDFEIXtbRsv9mm6kKHWTKKhEunDl0WeMxASFuk0a
POHAT+75BOJoz19gmcGpZ97sUXqyuFXL51+b7LHmFQXWFTN/6cvMIBgMKx0rwSPY
jdPf8lVqDnACjResHJz4SIKKiNcwtzAXFw9I7KtNibZWEDy6HU/XxyttxcLY/lp3
hqJqYFDxjMkr8tH4WELXMHizIfTiHeInbdQSLRdxPaG4K/uzKEhlzSQeu3yIWhLu
3fwGt2mPJiEBYYyeXqcI9MNBKGGDh5aplegNK7WBWhB8NNZAEjRgvYwX8DbezYrX
vYLbtTxy+HOLgztXMeBWthHnOZ+oPB38mvycAngxhW0zlBv4mcSV0coRJC6g1lOF
MfW9CpOVEtyI9FobtnlOKtAL+AAN5cPoWJ/C5w+ynG5WoUbXzO0V382cdvA9a1i1
JpgiKy3v+w3NL3DZ7RWqr3tdIg78aFj55M4yiHdYkg7RX2vggavNWKKEY8AZEyc3
sUbttHIzB8PPASSFscI7P5RYpe1Gv0h42VjrXQ==
-----END CERTIFICATE-----
