Certificate:
    Data:
        Version: 3 (0x2)
        Serial Number:
            5d:a1:9d:c8:ff:42:7a:3b:bc:df:67:6b:e1:f6:63:71:4d:9c:7c:95
        Signature Algorithm: sha256WithRSAEncryption
        Issuer: C=CH, ST=Thurgau, L=Kefikon, O=guengel.ch, CN=CA 2022/emailAddress=postmaster@guengel.ch
        Validity
            Not Before: Jan  3 14:04:30 2025 GMT
            Not After : Feb  7 14:04:30 2026 GMT
        Subject: C=CH, ST=Thurgau, O=guengel.ch, CN=pi-4.k8s.kruemel.home/emailAddress=postmaster@guengel.ch
        Subject Public Key Info:
            Public Key Algorithm: rsaEncryption
                Public-Key: (2048 bit)
                Modulus:
                    00:e0:99:3b:9c:8f:f4:de:de:ac:e2:41:93:65:12:
                    ed:dc:3f:5f:fd:d9:ea:61:5f:24:cc:0a:d4:88:f6:
                    7f:93:c0:50:9c:db:f4:3a:8f:22:03:35:7c:4d:93:
                    da:b3:e9:40:aa:b9:8c:28:76:67:dd:cf:c2:40:62:
                    ba:fb:6d:ef:a8:84:02:c8:b0:be:3d:1f:8c:53:73:
                    ae:fc:13:09:5b:64:35:ec:22:1c:90:3e:91:99:58:
                    af:38:e5:1e:fb:7c:d0:a9:db:c9:c8:8e:76:8b:51:
                    bd:6c:4b:2d:2d:53:55:92:23:76:41:86:fd:c2:c4:
                    26:a5:1e:8d:95:3f:79:7b:5b:eb:5d:be:92:9b:40:
                    8f:ca:63:59:d1:59:b0:db:fe:af:3f:0a:36:55:19:
                    c1:98:a3:39:ea:a6:fe:ac:b3:7d:8e:f3:06:e3:e8:
                    fc:fa:9f:1e:25:29:49:67:64:4d:e2:22:2e:ce:5d:
                    11:5c:5e:c0:aa:78:8c:d1:16:c6:34:31:57:ee:20:
                    36:64:e0:f0:3c:d8:43:c1:f4:68:bb:33:5c:d0:7f:
                    45:44:00:09:2a:19:d9:1c:c6:b1:a0:80:8f:8f:62:
                    da:cc:ac:92:dd:3b:ba:00:7c:73:26:77:d2:de:55:
                    cd:03:a9:e4:d6:ba:9c:f2:70:b7:0a:9c:68:e4:2a:
                    1a:1b
                Exponent: 65537 (0x10001)
        X509v3 extensions:
            X509v3 Basic Constraints: critical
                CA:FALSE
            X509v3 Key Usage: 
                Digital Signature, Key Encipherment, Key Agreement
            X509v3 Subject Key Identifier: 
                D5:CD:3A:92:14:D4:8C:8E:D2:D0:CC:7E:DE:52:06:B3:D9:1F:64:BC
            X509v3 Authority Key Identifier: 
                keyid:22:20:0D:51:40:61:42:BE:DD:BA:D9:C9:C1:77:B6:93:28:C3:99:EC
                DirName:/C=CH/ST=Thurgau/L=Kefikon/O=guengel.ch/CN=CA 2022/emailAddress=postmaster@guengel.ch
                serial:6D:29:90:54:E9:17:E9:C2:6A:E6:52:AD:84:4E:30:8E:6E:57:FB:1C
            Netscape Cert Type: 
                SSL Client, SSL Server
            X509v3 Extended Key Usage: 
                TLS Web Server Authentication, TLS Web Client Authentication
    Signature Algorithm: sha256WithRSAEncryption
    Signature Value:
        89:44:14:23:32:1c:00:31:03:b8:f3:f1:be:67:d6:19:d9:53:
        f2:3b:56:6d:7f:62:95:5c:92:0d:8d:02:53:74:4e:8e:67:0e:
        3a:f6:1c:0b:bd:a8:ab:c4:c2:c2:f0:11:d4:7b:1f:25:01:a2:
        6f:72:f0:83:a9:db:be:fc:8a:82:0d:32:89:88:09:cb:da:01:
        e2:f5:88:47:fc:87:68:ef:6c:c7:7d:65:c8:f2:45:99:30:86:
        2a:f6:c4:f5:15:89:0c:b6:07:44:82:d4:0e:bd:be:56:18:26:
        a3:3c:e3:48:b5:45:92:b5:7e:d0:7a:de:31:43:24:e5:ea:e5:
        a4:0c:7c:0c:10:ac:1d:1d:f8:fe:bc:a1:64:d4:85:38:b1:31:
        b2:f7:74:14:6c:e5:39:5b:22:61:cf:a0:81:ff:9d:26:39:5c:
        ed:e0:f6:c9:6d:09:4f:5a:8b:dd:f0:4b:6a:92:8d:8e:77:a1:
        4d:8a:42:15:a7:c6:64:04:53:57:36:ff:9c:c0:85:e8:35:b7:
        e2:9c:54:1d:26:87:6b:b0:3e:59:de:b2:a7:71:b7:e6:55:49:
        55:5b:28:b4:9b:2f:f8:6c:e4:e2:8f:8c:cf:a6:11:b1:20:1c:
        68:20:53:c2:33:e0:7f:e4:36:34:6c:11:0b:14:a8:a7:c5:86:
        a9:27:05:bf:32:a2:89:42:cd:d2:a0:89:84:5a:f4:8d:20:94:
        da:05:7a:11:8d:2a:67:8c:3e:79:d3:a5:ea:ab:dd:c2:30:04:
        5e:4a:6a:9e:70:f0:0d:c4:58:a9:2e:61:a7:7f:8d:17:ed:46:
        b6:bb:4f:e8:28:c6:fb:33:be:99:90:27:d9:4d:39:e9:eb:41:
        90:3a:a4:be:d9:f6:42:52:5c:0b:00:45:9c:eb:f6:32:d0:fc:
        50:c1:09:b2:73:a4:f9:a0:ce:03:0e:c5:ea:64:91:8e:98:e6:
        06:c4:bb:78:77:c1:ef:31:29:0b:d1:7d:56:65:c1:f2:07:bd:
        a8:8b:6d:78:9f:82:c9:1d:49:b6:32:95:72:c4:cd:b8:d3:4d:
        6e:23:15:4d:71:0a:c9:98:7b:4b:31:33:69:0c:9d:6f:1c:82:
        f6:37:ec:62:e8:36:1f:c4:06:7a:c6:a3:d0:30:a3:13:27:5b:
        03:bf:e2:04:5f:72:03:c9:9f:3a:2c:c5:45:69:37:5b:d8:72:
        92:ad:8d:cf:fd:ff:01:7d:5a:63:67:52:7a:a9:2a:81:8e:87:
        62:a9:26:75:7e:39:34:c7:f1:30:89:54:65:3b:6c:4c:23:38:
        a2:6e:47:a6:85:8d:6a:c2:51:0e:a2:c7:93:71:4e:0d:b1:bf:
        26:08:02:48:e9:1d:e3:ee
-----BEGIN CERTIFICATE-----
MIIFuDCCA6CgAwIBAgIUXaGdyP9Ceju832dr4fZjcU2cfJUwDQYJKoZIhvcNAQEL
BQAwfjELMAkGA1UEBhMCQ0gxEDAOBgNVBAgTB1RodXJnYXUxEDAOBgNVBAcTB0tl
Zmlrb24xEzARBgNVBAoTCmd1ZW5nZWwuY2gxEDAOBgNVBAMTB0NBIDIwMjIxJDAi
BgkqhkiG9w0BCQEWFXBvc3RtYXN0ZXJAZ3VlbmdlbC5jaDAeFw0yNTAxMDMxNDA0
MzBaFw0yNjAyMDcxNDA0MzBaMHoxCzAJBgNVBAYTAkNIMRAwDgYDVQQIEwdUaHVy
Z2F1MRMwEQYDVQQKEwpndWVuZ2VsLmNoMR4wHAYDVQQDExVwaS00Lms4cy5rcnVl
bWVsLmhvbWUxJDAiBgkqhkiG9w0BCQEWFXBvc3RtYXN0ZXJAZ3VlbmdlbC5jaDCC
ASIwDQYJKoZIhvcNAQEBBQADggEPADCCAQoCggEBAOCZO5yP9N7erOJBk2US7dw/
X/3Z6mFfJMwK1Ij2f5PAUJzb9DqPIgM1fE2T2rPpQKq5jCh2Z93PwkBiuvtt76iE
Asiwvj0fjFNzrvwTCVtkNewiHJA+kZlYrzjlHvt80KnbyciOdotRvWxLLS1TVZIj
dkGG/cLEJqUejZU/eXtb612+kptAj8pjWdFZsNv+rz8KNlUZwZijOeqm/qyzfY7z
BuPo/PqfHiUpSWdkTeIiLs5dEVxewKp4jNEWxjQxV+4gNmTg8DzYQ8H0aLszXNB/
RUQACSoZ2RzGsaCAj49i2syskt07ugB8cyZ30t5VzQOp5Na6nPJwtwqcaOQqGhsC
AwEAAaOCATAwggEsMAwGA1UdEwEB/wQCMAAwCwYDVR0PBAQDAgOoMB0GA1UdDgQW
BBTVzTqSFNSMjtLQzH7eUgaz2R9kvDCBvQYDVR0jBIG1MIGygBQiIA1RQGFCvt26
2cnBd7aTKMOZ7KGBg6SBgDB+MQswCQYDVQQGEwJDSDEQMA4GA1UECBMHVGh1cmdh
dTEQMA4GA1UEBxMHS2VmaWtvbjETMBEGA1UEChMKZ3VlbmdlbC5jaDEQMA4GA1UE
AxMHQ0EgMjAyMjEkMCIGCSqGSIb3DQEJARYVcG9zdG1hc3RlckBndWVuZ2VsLmNo
ghRtKZBU6RfpwmrmUq2ETjCOblf7HDARBglghkgBhvhCAQEEBAMCBsAwHQYDVR0l
BBYwFAYIKwYBBQUHAwEGCCsGAQUFBwMCMA0GCSqGSIb3DQEBCwUAA4ICAQCJRBQj
MhwAMQO48/G+Z9YZ2VPyO1Ztf2KVXJINjQJTdE6OZw469hwLvairxMLC8BHUex8l
AaJvcvCDqdu+/IqCDTKJiAnL2gHi9YhH/Ido72zHfWXI8kWZMIYq9sT1FYkMtgdE
gtQOvb5WGCajPONItUWStX7Qet4xQyTl6uWkDHwMEKwdHfj+vKFk1IU4sTGy93QU
bOU5WyJhz6CB/50mOVzt4PbJbQlPWovd8Etqko2Od6FNikIVp8ZkBFNXNv+cwIXo
NbfinFQdJodrsD5Z3rKncbfmVUlVWyi0my/4bOTij4zPphGxIBxoIFPCM+B/5DY0
bBELFKinxYapJwW/MqKJQs3SoImEWvSNIJTaBXoRjSpnjD5506Xqq93CMAReSmqe
cPANxFipLmGnf40X7Ua2u0/oKMb7M76ZkCfZTTnp60GQOqS+2fZCUlwLAEWc6/Yy
0PxQwQmyc6T5oM4DDsXqZJGOmOYGxLt4d8HvMSkL0X1WZcHyB72oi214n4LJHUm2
MpVyxM24001uIxVNcQrJmHtLMTNpDJ1vHIL2N+xi6DYfxAZ6xqPQMKMTJ1sDv+IE
X3IDyZ86LMVFaTdb2HKSrY3P/f8BfVpjZ1J6qSqBjodiqSZ1fjk0x/EwiVRlO2xM
IziibkemhY1qwlEOoseTcU4Nsb8mCAJI6R3j7g==
-----END CERTIFICATE-----
