Certificate:
    Data:
        Version: 3 (0x2)
        Serial Number: 438 (0x1b6)
        Signature Algorithm: sha256WithRSAEncryption
        Issuer: C=CH, ST=Thurgau, L=Kefikon, O=guengel.ch, CN=CA guengel.ch/emailAddress=postmaster@guengel.ch
        Validity
            Not Before: Feb  6 15:19:04 2021 GMT
            Not After : Mar 13 15:19:04 2022 GMT
        Subject: C=CH, ST=Thurgau, O=guengel.ch, CN=pi-4.k8s.kruemel.home/emailAddress=postmaster@guengel.ch
        Subject Public Key Info:
            Public Key Algorithm: rsaEncryption
                RSA Public-Key: (2048 bit)
                Modulus:
                    00:b5:ce:ee:3a:29:82:c6:60:00:e8:d9:d7:bd:e4:
                    6e:4c:d2:f7:83:51:d0:57:8a:25:dd:f4:b1:4f:c9:
                    8a:6f:77:99:72:ca:69:e9:6e:c7:d1:fa:21:54:ed:
                    02:0d:a0:37:d8:ec:fa:73:d7:3d:ad:ac:15:0f:73:
                    f3:f6:f9:0a:f6:44:c7:3f:e5:6a:84:54:41:b0:9a:
                    8a:ab:ee:5f:11:c9:31:a6:4e:e0:63:af:5f:70:15:
                    36:57:bb:28:cc:0a:7a:5c:29:a6:f4:71:0d:ce:e7:
                    38:75:28:04:31:62:79:90:73:55:9c:e9:83:f6:0c:
                    d9:ad:4c:75:3b:12:f8:3e:42:7f:0a:d4:70:36:87:
                    2e:8b:2d:02:6d:19:55:39:51:1c:f7:b3:f4:c4:1a:
                    c8:a1:87:bc:7f:1b:e0:3c:82:f1:8a:73:c0:d7:af:
                    68:b7:35:b5:1b:9e:30:fb:ce:06:ab:33:f1:9f:6b:
                    c2:39:47:c5:46:02:8c:77:e4:d1:d9:68:14:d8:7f:
                    4f:61:26:63:a2:c2:1a:29:cf:72:54:cc:e7:7c:1c:
                    07:e8:15:fb:15:2e:07:9b:b4:c2:3e:c6:f1:7a:75:
                    4b:69:14:4b:c8:59:8c:ff:f1:dc:23:90:90:14:4a:
                    44:40:2e:79:75:0b:e9:7f:b9:29:09:0e:47:23:8a:
                    07:cb
                Exponent: 65537 (0x10001)
        X509v3 extensions:
            X509v3 Key Usage: 
                Digital Signature, Key Encipherment, Key Agreement
            X509v3 Basic Constraints: critical
                CA:FALSE
            Netscape Cert Type: 
                SSL Client, SSL Server
            X509v3 Extended Key Usage: 
                TLS Web Server Authentication, TLS Web Client Authentication
            X509v3 Subject Alternative Name: 
                DNS:pi-4.k8s.kruemel.home
            X509v3 Subject Key Identifier: 
                B0:E9:33:02:38:97:04:79:A2:9C:99:9D:BF:BA:22:C7:98:5F:97:97
            X509v3 Authority Key Identifier: 
                keyid:D6:88:F1:AA:C1:2B:09:8C:B8:5C:9D:CE:DF:57:39:62:26:10:20:90
                DirName:/C=CH/ST=Thurgau/L=Kefikon/O=guengel.ch/CN=CA guengel.ch/emailAddress=postmaster@guengel.ch
                serial:E5:25:3B:A6:77:BD:CB:FF

    Signature Algorithm: sha256WithRSAEncryption
         08:f8:e1:73:d0:ac:d3:23:fa:c1:23:aa:ca:a8:07:dd:9a:96:
         96:60:0d:da:a1:f7:98:c2:6c:e3:ac:0c:f2:31:2b:bb:d7:04:
         36:42:77:2d:6f:08:69:18:48:db:4b:62:64:d7:c3:71:1d:40:
         89:24:da:62:6d:8b:c9:81:da:11:f3:2c:4c:b6:2e:35:1a:0e:
         02:2c:eb:99:42:fd:03:4c:09:23:af:3d:0f:1a:e0:e7:d1:b1:
         1a:15:b0:f2:02:8c:96:5c:29:0b:75:2d:4f:99:b0:c8:39:45:
         47:70:29:db:44:6a:f1:08:14:c0:2f:51:ac:41:3c:05:10:cd:
         57:22:95:86:20:7c:cb:b6:9d:65:77:50:97:89:3a:28:69:c4:
         87:fa:ba:e9:05:0e:42:5c:aa:ad:63:a0:62:17:03:ce:a9:d9:
         27:f0:7a:31:c3:df:87:23:0b:27:10:6f:02:b0:bb:14:c4:f6:
         08:1c:96:75:d9:ac:1b:16:92:16:63:67:13:6c:2c:fc:b9:2b:
         d8:56:4b:fe:cc:bb:56:f8:ad:08:65:49:fd:73:18:99:cc:57:
         26:74:30:9d:16:1b:7e:23:06:cb:87:48:a6:8b:5c:f8:1b:20:
         85:a1:6a:42:14:40:ab:f0:f9:15:6d:fc:52:5a:ed:c9:dc:9e:
         7d:a9:cd:39:08:9f:b1:1a:fe:88:bb:1c:ba:a9:e7:27:86:f8:
         6e:c1:94:cd:81:26:10:8a:50:f5:cf:8d:e0:33:93:f7:81:dd:
         16:e1:91:d0:d9:a0:39:93:8f:78:dc:d3:46:26:5d:c9:af:d8:
         1b:38:b0:31:77:33:b2:a5:96:bd:de:84:62:3f:34:08:03:3d:
         5e:ff:0e:4a:de:8a:95:9e:ca:2e:a2:08:96:54:73:11:bb:34:
         f4:94:ed:7a:8e:b5:ea:af:79:6e:82:0c:27:c2:50:db:97:de:
         f4:21:84:a5:81:4c:28:cf:b5:88:bc:84:0c:a7:c3:c3:b7:4e:
         de:d2:42:7b:c9:1a:cd:e5:7e:ce:3c:86:c1:ca:ef:11:7c:a9:
         be:f8:81:1a:41:80:7e:dd:6a:0c:a3:e2:cf:85:ac:e1:7a:d1:
         87:a6:ba:7f:9b:c3:dd:74:1c:7a:84:1d:07:4e:0c:05:b0:54:
         4b:c8:0c:dc:12:9d:29:c7:72:b2:c3:a8:f0:4b:c3:fc:bf:9c:
         0c:0a:03:6f:11:42:6d:be:be:e9:2c:4a:63:ff:a7:8a:71:e7:
         f0:05:6f:26:6b:6a:26:fe:13:d7:28:73:3b:25:55:2a:f8:f1:
         03:74:18:1f:56:00:89:58:d2:02:45:e9:8e:5c:d2:e7:27:27:
         a8:d8:b8:c7:f4:a4:a6:b0
-----BEGIN CERTIFICATE-----
MIIFyzCCA7OgAwIBAgICAbYwDQYJKoZIhvcNAQELBQAwgYQxCzAJBgNVBAYTAkNI
MRAwDgYDVQQIEwdUaHVyZ2F1MRAwDgYDVQQHEwdLZWZpa29uMRMwEQYDVQQKEwpn
dWVuZ2VsLmNoMRYwFAYDVQQDEw1DQSBndWVuZ2VsLmNoMSQwIgYJKoZIhvcNAQkB
FhVwb3N0bWFzdGVyQGd1ZW5nZWwuY2gwHhcNMjEwMjA2MTUxOTA0WhcNMjIwMzEz
MTUxOTA0WjB6MQswCQYDVQQGEwJDSDEQMA4GA1UECBMHVGh1cmdhdTETMBEGA1UE
ChMKZ3VlbmdlbC5jaDEeMBwGA1UEAxMVcGktNC5rOHMua3J1ZW1lbC5ob21lMSQw
IgYJKoZIhvcNAQkBFhVwb3N0bWFzdGVyQGd1ZW5nZWwuY2gwggEiMA0GCSqGSIb3
DQEBAQUAA4IBDwAwggEKAoIBAQC1zu46KYLGYADo2de95G5M0veDUdBXiiXd9LFP
yYpvd5lyymnpbsfR+iFU7QINoDfY7Ppz1z2trBUPc/P2+Qr2RMc/5WqEVEGwmoqr
7l8RyTGmTuBjr19wFTZXuyjMCnpcKab0cQ3O5zh1KAQxYnmQc1Wc6YP2DNmtTHU7
Evg+Qn8K1HA2hy6LLQJtGVU5URz3s/TEGsihh7x/G+A8gvGKc8DXr2i3NbUbnjD7
zgarM/Gfa8I5R8VGAox35NHZaBTYf09hJmOiwhopz3JUzOd8HAfoFfsVLgebtMI+
xvF6dUtpFEvIWYz/8dwjkJAUSkRALnl1C+l/uSkJDkcjigfLAgMBAAGjggFOMIIB
SjALBgNVHQ8EBAMCA6gwDAYDVR0TAQH/BAIwADARBglghkgBhvhCAQEEBAMCBsAw
HQYDVR0lBBYwFAYIKwYBBQUHAwEGCCsGAQUFBwMCMCAGA1UdEQQZMBeCFXBpLTQu
azhzLmtydWVtZWwuaG9tZTAdBgNVHQ4EFgQUsOkzAjiXBHminJmdv7oix5hfl5cw
gbkGA1UdIwSBsTCBroAU1ojxqsErCYy4XJ3O31c5YiYQIJChgYqkgYcwgYQxCzAJ
BgNVBAYTAkNIMRAwDgYDVQQIEwdUaHVyZ2F1MRAwDgYDVQQHEwdLZWZpa29uMRMw
EQYDVQQKEwpndWVuZ2VsLmNoMRYwFAYDVQQDEw1DQSBndWVuZ2VsLmNoMSQwIgYJ
KoZIhvcNAQkBFhVwb3N0bWFzdGVyQGd1ZW5nZWwuY2iCCQDlJTumd73L/zANBgkq
hkiG9w0BAQsFAAOCAgEACPjhc9Cs0yP6wSOqyqgH3ZqWlmAN2qH3mMJs46wM8jEr
u9cENkJ3LW8IaRhI20tiZNfDcR1AiSTaYm2LyYHaEfMsTLYuNRoOAizrmUL9A0wJ
I689Dxrg59GxGhWw8gKMllwpC3UtT5mwyDlFR3Ap20Rq8QgUwC9RrEE8BRDNVyKV
hiB8y7adZXdQl4k6KGnEh/q66QUOQlyqrWOgYhcDzqnZJ/B6McPfhyMLJxBvArC7
FMT2CByWddmsGxaSFmNnE2ws/Lkr2FZL/sy7VvitCGVJ/XMYmcxXJnQwnRYbfiMG
y4dIpotc+BsghaFqQhRAq/D5FW38UlrtydyefanNOQifsRr+iLscuqnnJ4b4bsGU
zYEmEIpQ9c+N4DOT94HdFuGR0NmgOZOPeNzTRiZdya/YGziwMXczsqWWvd6EYj80
CAM9Xv8OSt6KlZ7KLqIIllRzEbs09JTteo616q95boIMJ8JQ25fe9CGEpYFMKM+1
iLyEDKfDw7dO3tJCe8kazeV+zjyGwcrvEXypvviBGkGAft1qDKPiz4Ws4XrRh6a6
f5vD3XQceoQdB04MBbBUS8gM3BKdKcdyssOo8EvD/L+cDAoDbxFCbb6+6SxKY/+n
inHn8AVvJmtqJv4T1yhzOyVVKvjxA3QYH1YAiVjSAkXpjlzS5ycnqNi4x/SkprA=
-----END CERTIFICATE-----
