Certificate:
    Data:
        Version: 3 (0x2)
        Serial Number:
            18:ac:22:5b:bd:8a:ed:85:0f:e8:c8:0c:3c:42:4a:ad:39:c5:09:0a
        Signature Algorithm: sha256WithRSAEncryption
        Issuer: C=CH, ST=Thurgau, L=Kefikon, O=guengel.ch, CN=CA 2022/emailAddress=postmaster@guengel.ch
        Validity
            Not Before: Feb 28 06:43:02 2023 GMT
            Not After : Apr  3 06:43:02 2024 GMT
        Subject: C=CH, ST=Thurgau, O=guengel.ch, CN=pi-4.k8s.kruemel.home/emailAddress=postmaster@guengel.ch
        Subject Public Key Info:
            Public Key Algorithm: rsaEncryption
                RSA Public-Key: (2048 bit)
                Modulus:
                    00:e0:99:3b:9c:8f:f4:de:de:ac:e2:41:93:65:12:
                    ed:dc:3f:5f:fd:d9:ea:61:5f:24:cc:0a:d4:88:f6:
                    7f:93:c0:50:9c:db:f4:3a:8f:22:03:35:7c:4d:93:
                    da:b3:e9:40:aa:b9:8c:28:76:67:dd:cf:c2:40:62:
                    ba:fb:6d:ef:a8:84:02:c8:b0:be:3d:1f:8c:53:73:
                    ae:fc:13:09:5b:64:35:ec:22:1c:90:3e:91:99:58:
                    af:38:e5:1e:fb:7c:d0:a9:db:c9:c8:8e:76:8b:51:
                    bd:6c:4b:2d:2d:53:55:92:23:76:41:86:fd:c2:c4:
                    26:a5:1e:8d:95:3f:79:7b:5b:eb:5d:be:92:9b:40:
                    8f:ca:63:59:d1:59:b0:db:fe:af:3f:0a:36:55:19:
                    c1:98:a3:39:ea:a6:fe:ac:b3:7d:8e:f3:06:e3:e8:
                    fc:fa:9f:1e:25:29:49:67:64:4d:e2:22:2e:ce:5d:
                    11:5c:5e:c0:aa:78:8c:d1:16:c6:34:31:57:ee:20:
                    36:64:e0:f0:3c:d8:43:c1:f4:68:bb:33:5c:d0:7f:
                    45:44:00:09:2a:19:d9:1c:c6:b1:a0:80:8f:8f:62:
                    da:cc:ac:92:dd:3b:ba:00:7c:73:26:77:d2:de:55:
                    cd:03:a9:e4:d6:ba:9c:f2:70:b7:0a:9c:68:e4:2a:
                    1a:1b
                Exponent: 65537 (0x10001)
        X509v3 extensions:
            X509v3 Basic Constraints: critical
                CA:FALSE
            X509v3 Key Usage: 
                Digital Signature, Key Encipherment, Key Agreement
            X509v3 Subject Key Identifier: 
                D5:CD:3A:92:14:D4:8C:8E:D2:D0:CC:7E:DE:52:06:B3:D9:1F:64:BC
            X509v3 Authority Key Identifier: 
                keyid:22:20:0D:51:40:61:42:BE:DD:BA:D9:C9:C1:77:B6:93:28:C3:99:EC
                DirName:/C=CH/ST=Thurgau/L=Kefikon/O=guengel.ch/CN=CA 2022/emailAddress=postmaster@guengel.ch
                serial:6D:29:90:54:E9:17:E9:C2:6A:E6:52:AD:84:4E:30:8E:6E:57:FB:1C

            Netscape Cert Type: 
                SSL Client, SSL Server
            X509v3 Extended Key Usage: 
                TLS Web Server Authentication, TLS Web Client Authentication
    Signature Algorithm: sha256WithRSAEncryption
         34:d3:a7:14:e8:de:4d:5a:ab:3c:a5:0e:a8:ec:9c:37:db:a9:
         4e:c5:c1:76:d2:d4:e3:69:2b:92:7e:cc:1b:0e:33:d1:92:09:
         2a:2f:b2:80:13:c7:ba:f3:4b:e8:03:4e:16:6b:51:2e:4c:c4:
         9b:8f:52:b5:7e:95:88:34:2c:a2:3b:24:f1:84:7b:88:8c:28:
         fa:b9:22:3e:d1:a1:c8:5b:b6:d5:d9:0b:35:a9:c8:1c:db:6e:
         d2:73:07:d3:8a:03:d6:1a:8a:fd:c0:39:df:ef:86:ec:05:4e:
         80:55:e2:f5:fe:b3:17:2b:f2:e7:d6:23:98:01:58:49:16:09:
         d0:e1:36:56:c5:61:d4:cb:1b:8e:72:a4:8f:8a:36:b7:54:b9:
         ba:bf:28:91:6e:91:b4:36:71:30:a7:df:8f:13:d7:20:9b:3a:
         21:ee:1a:01:01:e3:33:3e:de:d5:8b:55:69:1b:42:35:7a:97:
         e0:78:36:6a:3a:9e:34:38:b2:83:93:84:c1:f8:be:d2:7c:0b:
         61:e4:5c:04:23:c8:44:4e:d3:ca:cb:ec:d0:c1:49:7a:b9:03:
         96:ad:73:34:32:41:7f:52:d6:cb:32:be:30:b9:32:2f:4d:6e:
         c4:5b:e3:8b:5e:87:83:80:84:53:07:86:1a:ff:be:ad:f2:b0:
         9d:84:e2:47:0e:72:f9:b9:53:a4:45:57:6a:ae:80:7b:b0:e6:
         aa:94:89:a7:3b:41:00:af:f5:56:66:80:ce:c8:75:86:d6:2d:
         c9:0a:ca:e5:34:6a:b0:03:16:08:19:e4:ab:41:4e:71:26:35:
         00:e8:3a:ce:63:d0:3f:3d:8e:fe:c7:fe:e0:6e:9a:c1:d5:6e:
         a5:b2:d6:9b:ec:6c:12:c0:6e:cf:14:e0:c4:ba:2c:01:c4:98:
         bc:a5:7a:34:c7:c0:a8:da:e8:64:5d:94:eb:86:5f:6a:d1:67:
         56:ba:5b:e9:62:57:ae:aa:5e:34:7a:ff:7e:f9:70:3a:9e:bd:
         02:83:37:d5:1d:57:3e:c1:32:f7:ba:38:fd:cc:01:47:03:1f:
         08:18:d8:e4:c3:86:b3:18:c0:ec:ae:de:53:d0:cf:a2:59:8b:
         3d:70:85:59:5c:7d:50:e3:5b:4f:a2:a2:60:ed:3d:86:cb:59:
         a6:82:ae:0d:32:cb:45:39:ba:c7:8a:0c:de:8d:32:0d:b6:f1:
         7d:76:67:58:ad:03:f9:83:ec:cb:2e:51:c7:77:04:7d:f5:a4:
         f2:95:1f:57:2d:df:ca:86:a9:7e:2d:09:d8:83:2a:6f:84:e0:
         a1:5e:25:45:b0:94:ca:a4:fb:da:9b:26:c5:7c:93:07:8f:7b:
         94:de:bb:0a:b6:e9:a4:13
-----BEGIN CERTIFICATE-----
MIIFuDCCA6CgAwIBAgIUGKwiW72K7YUP6MgMPEJKrTnFCQowDQYJKoZIhvcNAQEL
BQAwfjELMAkGA1UEBhMCQ0gxEDAOBgNVBAgTB1RodXJnYXUxEDAOBgNVBAcTB0tl
Zmlrb24xEzARBgNVBAoTCmd1ZW5nZWwuY2gxEDAOBgNVBAMTB0NBIDIwMjIxJDAi
BgkqhkiG9w0BCQEWFXBvc3RtYXN0ZXJAZ3VlbmdlbC5jaDAeFw0yMzAyMjgwNjQz
MDJaFw0yNDA0MDMwNjQzMDJaMHoxCzAJBgNVBAYTAkNIMRAwDgYDVQQIEwdUaHVy
Z2F1MRMwEQYDVQQKEwpndWVuZ2VsLmNoMR4wHAYDVQQDExVwaS00Lms4cy5rcnVl
bWVsLmhvbWUxJDAiBgkqhkiG9w0BCQEWFXBvc3RtYXN0ZXJAZ3VlbmdlbC5jaDCC
ASIwDQYJKoZIhvcNAQEBBQADggEPADCCAQoCggEBAOCZO5yP9N7erOJBk2US7dw/
X/3Z6mFfJMwK1Ij2f5PAUJzb9DqPIgM1fE2T2rPpQKq5jCh2Z93PwkBiuvtt76iE
Asiwvj0fjFNzrvwTCVtkNewiHJA+kZlYrzjlHvt80KnbyciOdotRvWxLLS1TVZIj
dkGG/cLEJqUejZU/eXtb612+kptAj8pjWdFZsNv+rz8KNlUZwZijOeqm/qyzfY7z
BuPo/PqfHiUpSWdkTeIiLs5dEVxewKp4jNEWxjQxV+4gNmTg8DzYQ8H0aLszXNB/
RUQACSoZ2RzGsaCAj49i2syskt07ugB8cyZ30t5VzQOp5Na6nPJwtwqcaOQqGhsC
AwEAAaOCATAwggEsMAwGA1UdEwEB/wQCMAAwCwYDVR0PBAQDAgOoMB0GA1UdDgQW
BBTVzTqSFNSMjtLQzH7eUgaz2R9kvDCBvQYDVR0jBIG1MIGygBQiIA1RQGFCvt26
2cnBd7aTKMOZ7KGBg6SBgDB+MQswCQYDVQQGEwJDSDEQMA4GA1UECBMHVGh1cmdh
dTEQMA4GA1UEBxMHS2VmaWtvbjETMBEGA1UEChMKZ3VlbmdlbC5jaDEQMA4GA1UE
AxMHQ0EgMjAyMjEkMCIGCSqGSIb3DQEJARYVcG9zdG1hc3RlckBndWVuZ2VsLmNo
ghRtKZBU6RfpwmrmUq2ETjCOblf7HDARBglghkgBhvhCAQEEBAMCBsAwHQYDVR0l
BBYwFAYIKwYBBQUHAwEGCCsGAQUFBwMCMA0GCSqGSIb3DQEBCwUAA4ICAQA006cU
6N5NWqs8pQ6o7Jw326lOxcF20tTjaSuSfswbDjPRkgkqL7KAE8e680voA04Wa1Eu
TMSbj1K1fpWINCyiOyTxhHuIjCj6uSI+0aHIW7bV2Qs1qcgc227ScwfTigPWGor9
wDnf74bsBU6AVeL1/rMXK/Ln1iOYAVhJFgnQ4TZWxWHUyxuOcqSPija3VLm6vyiR
bpG0NnEwp9+PE9cgmzoh7hoBAeMzPt7Vi1VpG0I1epfgeDZqOp40OLKDk4TB+L7S
fAth5FwEI8hETtPKy+zQwUl6uQOWrXM0MkF/UtbLMr4wuTIvTW7EW+OLXoeDgIRT
B4Ya/76t8rCdhOJHDnL5uVOkRVdqroB7sOaqlImnO0EAr/VWZoDOyHWG1i3JCsrl
NGqwAxYIGeSrQU5xJjUA6DrOY9A/PY7+x/7gbprB1W6lstab7GwSwG7PFODEuiwB
xJi8pXo0x8Co2uhkXZTrhl9q0WdWulvpYleuql40ev9++XA6nr0CgzfVHVc+wTL3
ujj9zAFHAx8IGNjkw4azGMDsrt5T0M+iWYs9cIVZXH1Q41tPoqJg7T2Gy1mmgq4N
MstFObrHigzejTINtvF9dmdYrQP5g+zLLlHHdwR99aTylR9XLd/Khql+LQnYgypv
hOChXiVFsJTKpPvamybFfJMHj3uU3rsKtumkEw==
-----END CERTIFICATE-----
