Certificate:
    Data:
        Version: 3 (0x2)
        Serial Number: 467 (0x1d3)
        Signature Algorithm: sha256WithRSAEncryption
        Issuer: C=CH, ST=Thurgau, L=Kefikon, O=guengel.ch, CN=CA guengel.ch/emailAddress=postmaster@guengel.ch
        Validity
            Not Before: Feb 11 07:07:17 2022 GMT
            Not After : Mar 18 07:07:17 2023 GMT
        Subject: C=CH, ST=Thurgau, O=guengel.ch, CN=pi-4.k8s.kruemel.home/emailAddress=postmaster@guengel.ch
        Subject Public Key Info:
            Public Key Algorithm: rsaEncryption
                RSA Public-Key: (2048 bit)
                Modulus:
                    00:b5:ce:ee:3a:29:82:c6:60:00:e8:d9:d7:bd:e4:
                    6e:4c:d2:f7:83:51:d0:57:8a:25:dd:f4:b1:4f:c9:
                    8a:6f:77:99:72:ca:69:e9:6e:c7:d1:fa:21:54:ed:
                    02:0d:a0:37:d8:ec:fa:73:d7:3d:ad:ac:15:0f:73:
                    f3:f6:f9:0a:f6:44:c7:3f:e5:6a:84:54:41:b0:9a:
                    8a:ab:ee:5f:11:c9:31:a6:4e:e0:63:af:5f:70:15:
                    36:57:bb:28:cc:0a:7a:5c:29:a6:f4:71:0d:ce:e7:
                    38:75:28:04:31:62:79:90:73:55:9c:e9:83:f6:0c:
                    d9:ad:4c:75:3b:12:f8:3e:42:7f:0a:d4:70:36:87:
                    2e:8b:2d:02:6d:19:55:39:51:1c:f7:b3:f4:c4:1a:
                    c8:a1:87:bc:7f:1b:e0:3c:82:f1:8a:73:c0:d7:af:
                    68:b7:35:b5:1b:9e:30:fb:ce:06:ab:33:f1:9f:6b:
                    c2:39:47:c5:46:02:8c:77:e4:d1:d9:68:14:d8:7f:
                    4f:61:26:63:a2:c2:1a:29:cf:72:54:cc:e7:7c:1c:
                    07:e8:15:fb:15:2e:07:9b:b4:c2:3e:c6:f1:7a:75:
                    4b:69:14:4b:c8:59:8c:ff:f1:dc:23:90:90:14:4a:
                    44:40:2e:79:75:0b:e9:7f:b9:29:09:0e:47:23:8a:
                    07:cb
                Exponent: 65537 (0x10001)
        X509v3 extensions:
            X509v3 Key Usage: 
                Digital Signature, Key Encipherment, Key Agreement
            X509v3 Basic Constraints: critical
                CA:FALSE
            Netscape Cert Type: 
                SSL Client, SSL Server
            X509v3 Extended Key Usage: 
                TLS Web Server Authentication, TLS Web Client Authentication
            X509v3 Subject Alternative Name: 
                DNS:pi-4.k8s.kruemel.home
            X509v3 Subject Key Identifier: 
                B0:E9:33:02:38:97:04:79:A2:9C:99:9D:BF:BA:22:C7:98:5F:97:97
            X509v3 Authority Key Identifier: 
                keyid:D6:88:F1:AA:C1:2B:09:8C:B8:5C:9D:CE:DF:57:39:62:26:10:20:90
                DirName:/C=CH/ST=Thurgau/L=Kefikon/O=guengel.ch/CN=CA guengel.ch/emailAddress=postmaster@guengel.ch
                serial:E5:25:3B:A6:77:BD:CB:FF

    Signature Algorithm: sha256WithRSAEncryption
         57:83:ec:f5:3a:36:bb:9e:9c:52:bd:95:cb:e4:57:d0:f7:8b:
         63:b5:53:e7:4e:6b:26:ad:a4:42:13:f2:99:c5:fd:5f:6b:7d:
         d8:ad:92:8f:74:3a:88:04:3b:3b:ad:a0:8c:df:f0:24:cc:94:
         24:fe:0b:f1:db:91:01:88:59:77:62:c4:03:e0:ba:1b:c9:d3:
         cd:e2:74:77:3b:d5:c7:f2:52:55:be:4d:86:8b:a0:ab:c5:ed:
         4b:cf:b1:40:4f:e5:d9:25:0f:4c:58:35:83:1e:0b:23:47:bb:
         52:dd:ee:89:ce:60:7d:0e:81:12:e3:e4:bb:95:50:94:f0:71:
         65:f0:3d:3a:6a:ac:92:5d:9f:44:d9:28:5c:42:61:cd:eb:2b:
         ab:a3:a7:80:38:88:45:2c:33:c8:4c:09:84:7a:31:da:85:65:
         7c:3e:64:4f:d0:b7:99:c3:78:86:bd:1a:94:f6:ae:31:1b:ec:
         64:7a:67:0f:0c:24:1b:34:b3:52:c9:33:23:ff:c6:23:b8:68:
         b4:d7:fb:ac:d9:e2:a4:fc:c9:e0:98:86:18:e3:89:3d:81:42:
         b3:20:bc:de:92:4f:af:dd:53:ee:54:71:4b:34:2f:fe:8b:08:
         8b:f8:24:b6:40:18:5e:0d:9a:a2:46:1b:10:66:78:9b:8c:e2:
         ab:a7:70:ad:98:cc:26:8a:15:0f:53:d0:a3:85:5d:cd:94:24:
         85:3c:1c:94:17:fb:c7:67:97:e6:25:02:c5:b9:60:b4:55:14:
         98:75:d9:13:3f:8c:a5:29:4e:58:fd:cc:92:f9:13:c7:05:99:
         59:31:c5:0b:12:c9:fa:d5:a2:56:d8:43:a5:8b:51:ca:fb:d0:
         90:db:82:a5:73:e7:f7:dd:ea:12:e7:94:30:de:33:bd:a5:46:
         c4:39:7c:8a:8a:f1:8e:95:52:8d:c9:a8:92:ef:53:ab:d7:63:
         d4:b6:d7:46:c3:1e:fc:9c:98:27:a5:25:39:ec:9d:5f:da:a3:
         65:a6:22:40:80:a0:51:bb:41:3e:75:7d:3a:f5:56:35:37:01:
         86:b3:f9:da:33:16:e2:fa:d9:4f:36:fe:e5:36:38:b8:e9:79:
         97:47:94:43:9c:71:cf:9b:53:51:b6:fa:d5:bc:85:42:f3:8b:
         22:c3:18:5e:b7:ae:80:a6:a8:8e:16:2c:5c:eb:57:c9:f7:d2:
         20:50:30:66:6e:60:7f:19:8c:53:b5:8a:f9:3e:46:be:d0:25:
         d8:b3:10:96:7f:c3:74:ce:e8:fe:eb:4b:c2:f4:65:73:18:6d:
         9d:f2:4c:c2:f3:4a:4c:64:cc:a0:9b:c9:6b:d8:0d:41:0f:21:
         be:38:51:e9:b7:0f:59:5e
-----BEGIN CERTIFICATE-----
MIIFyzCCA7OgAwIBAgICAdMwDQYJKoZIhvcNAQELBQAwgYQxCzAJBgNVBAYTAkNI
MRAwDgYDVQQIEwdUaHVyZ2F1MRAwDgYDVQQHEwdLZWZpa29uMRMwEQYDVQQKEwpn
dWVuZ2VsLmNoMRYwFAYDVQQDEw1DQSBndWVuZ2VsLmNoMSQwIgYJKoZIhvcNAQkB
FhVwb3N0bWFzdGVyQGd1ZW5nZWwuY2gwHhcNMjIwMjExMDcwNzE3WhcNMjMwMzE4
MDcwNzE3WjB6MQswCQYDVQQGEwJDSDEQMA4GA1UECBMHVGh1cmdhdTETMBEGA1UE
ChMKZ3VlbmdlbC5jaDEeMBwGA1UEAxMVcGktNC5rOHMua3J1ZW1lbC5ob21lMSQw
IgYJKoZIhvcNAQkBFhVwb3N0bWFzdGVyQGd1ZW5nZWwuY2gwggEiMA0GCSqGSIb3
DQEBAQUAA4IBDwAwggEKAoIBAQC1zu46KYLGYADo2de95G5M0veDUdBXiiXd9LFP
yYpvd5lyymnpbsfR+iFU7QINoDfY7Ppz1z2trBUPc/P2+Qr2RMc/5WqEVEGwmoqr
7l8RyTGmTuBjr19wFTZXuyjMCnpcKab0cQ3O5zh1KAQxYnmQc1Wc6YP2DNmtTHU7
Evg+Qn8K1HA2hy6LLQJtGVU5URz3s/TEGsihh7x/G+A8gvGKc8DXr2i3NbUbnjD7
zgarM/Gfa8I5R8VGAox35NHZaBTYf09hJmOiwhopz3JUzOd8HAfoFfsVLgebtMI+
xvF6dUtpFEvIWYz/8dwjkJAUSkRALnl1C+l/uSkJDkcjigfLAgMBAAGjggFOMIIB
SjALBgNVHQ8EBAMCA6gwDAYDVR0TAQH/BAIwADARBglghkgBhvhCAQEEBAMCBsAw
HQYDVR0lBBYwFAYIKwYBBQUHAwEGCCsGAQUFBwMCMCAGA1UdEQQZMBeCFXBpLTQu
azhzLmtydWVtZWwuaG9tZTAdBgNVHQ4EFgQUsOkzAjiXBHminJmdv7oix5hfl5cw
gbkGA1UdIwSBsTCBroAU1ojxqsErCYy4XJ3O31c5YiYQIJChgYqkgYcwgYQxCzAJ
BgNVBAYTAkNIMRAwDgYDVQQIEwdUaHVyZ2F1MRAwDgYDVQQHEwdLZWZpa29uMRMw
EQYDVQQKEwpndWVuZ2VsLmNoMRYwFAYDVQQDEw1DQSBndWVuZ2VsLmNoMSQwIgYJ
KoZIhvcNAQkBFhVwb3N0bWFzdGVyQGd1ZW5nZWwuY2iCCQDlJTumd73L/zANBgkq
hkiG9w0BAQsFAAOCAgEAV4Ps9To2u56cUr2Vy+RX0PeLY7VT505rJq2kQhPymcX9
X2t92K2Sj3Q6iAQ7O62gjN/wJMyUJP4L8duRAYhZd2LEA+C6G8nTzeJ0dzvVx/JS
Vb5Nhougq8XtS8+xQE/l2SUPTFg1gx4LI0e7Ut3uic5gfQ6BEuPku5VQlPBxZfA9
Omqskl2fRNkoXEJhzesrq6OngDiIRSwzyEwJhHox2oVlfD5kT9C3mcN4hr0alPau
MRvsZHpnDwwkGzSzUskzI//GI7hotNf7rNnipPzJ4JiGGOOJPYFCsyC83pJPr91T
7lRxSzQv/osIi/gktkAYXg2aokYbEGZ4m4ziq6dwrZjMJooVD1PQo4VdzZQkhTwc
lBf7x2eX5iUCxblgtFUUmHXZEz+MpSlOWP3MkvkTxwWZWTHFCxLJ+tWiVthDpYtR
yvvQkNuCpXPn993qEueUMN4zvaVGxDl8iorxjpVSjcmoku9Tq9dj1LbXRsMe/JyY
J6UlOeydX9qjZaYiQICgUbtBPnV9OvVWNTcBhrP52jMW4vrZTzb+5TY4uOl5l0eU
Q5xxz5tTUbb61byFQvOLIsMYXreugKaojhYsXOtXyffSIFAwZm5gfxmMU7WK+T5G
vtAl2LMQln/DdM7o/utLwvRlcxhtnfJMwvNKTGTMoJvJa9gNQQ8hvjhR6bcPWV4=
-----END CERTIFICATE-----
