Certificate:
    Data:
        Version: 3 (0x2)
        Serial Number:
            07:c1:54:1a:f7:d7:8d:8c:d4:02:d0:37:51:99:b9:9f:d3:d5:e6:25
        Signature Algorithm: sha256WithRSAEncryption
        Issuer: C=CH, ST=Thurgau, L=Kefikon, O=guengel.ch, CN=CA 2022/emailAddress=postmaster@guengel.ch
        Validity
            Not Before: Dec 30 08:44:47 2023 GMT
            Not After : Feb  2 08:44:47 2025 GMT
        Subject: C=CH, ST=Thurgau, O=guengel.ch, CN=pi-4.k8s.kruemel.home/emailAddress=postmaster@guengel.ch
        Subject Public Key Info:
            Public Key Algorithm: rsaEncryption
                RSA Public-Key: (2048 bit)
                Modulus:
                    00:e0:99:3b:9c:8f:f4:de:de:ac:e2:41:93:65:12:
                    ed:dc:3f:5f:fd:d9:ea:61:5f:24:cc:0a:d4:88:f6:
                    7f:93:c0:50:9c:db:f4:3a:8f:22:03:35:7c:4d:93:
                    da:b3:e9:40:aa:b9:8c:28:76:67:dd:cf:c2:40:62:
                    ba:fb:6d:ef:a8:84:02:c8:b0:be:3d:1f:8c:53:73:
                    ae:fc:13:09:5b:64:35:ec:22:1c:90:3e:91:99:58:
                    af:38:e5:1e:fb:7c:d0:a9:db:c9:c8:8e:76:8b:51:
                    bd:6c:4b:2d:2d:53:55:92:23:76:41:86:fd:c2:c4:
                    26:a5:1e:8d:95:3f:79:7b:5b:eb:5d:be:92:9b:40:
                    8f:ca:63:59:d1:59:b0:db:fe:af:3f:0a:36:55:19:
                    c1:98:a3:39:ea:a6:fe:ac:b3:7d:8e:f3:06:e3:e8:
                    fc:fa:9f:1e:25:29:49:67:64:4d:e2:22:2e:ce:5d:
                    11:5c:5e:c0:aa:78:8c:d1:16:c6:34:31:57:ee:20:
                    36:64:e0:f0:3c:d8:43:c1:f4:68:bb:33:5c:d0:7f:
                    45:44:00:09:2a:19:d9:1c:c6:b1:a0:80:8f:8f:62:
                    da:cc:ac:92:dd:3b:ba:00:7c:73:26:77:d2:de:55:
                    cd:03:a9:e4:d6:ba:9c:f2:70:b7:0a:9c:68:e4:2a:
                    1a:1b
                Exponent: 65537 (0x10001)
        X509v3 extensions:
            X509v3 Basic Constraints: critical
                CA:FALSE
            X509v3 Key Usage: 
                Digital Signature, Key Encipherment, Key Agreement
            X509v3 Subject Key Identifier: 
                D5:CD:3A:92:14:D4:8C:8E:D2:D0:CC:7E:DE:52:06:B3:D9:1F:64:BC
            X509v3 Authority Key Identifier: 
                keyid:22:20:0D:51:40:61:42:BE:DD:BA:D9:C9:C1:77:B6:93:28:C3:99:EC
                DirName:/C=CH/ST=Thurgau/L=Kefikon/O=guengel.ch/CN=CA 2022/emailAddress=postmaster@guengel.ch
                serial:6D:29:90:54:E9:17:E9:C2:6A:E6:52:AD:84:4E:30:8E:6E:57:FB:1C

            Netscape Cert Type: 
                SSL Client, SSL Server
            X509v3 Extended Key Usage: 
                TLS Web Server Authentication, TLS Web Client Authentication
    Signature Algorithm: sha256WithRSAEncryption
         9a:e0:48:a4:33:c1:b3:e0:db:94:76:e7:8d:f5:9e:02:e4:d8:
         3e:a1:d6:0d:4f:c3:1b:45:61:1a:2b:07:5a:5a:cb:b8:38:aa:
         a8:06:f7:89:92:1c:cd:e8:03:86:e0:54:cc:2f:bf:1f:e5:bc:
         74:ff:26:b7:6d:80:6a:d9:89:23:05:bf:5f:a3:37:b4:56:8a:
         b2:26:b8:8e:6b:84:bb:e0:b1:bc:ea:12:7c:63:8b:3a:31:38:
         8c:70:a7:be:86:0b:cc:91:88:d9:a1:99:28:15:7f:65:d0:a7:
         40:6f:7d:29:7e:73:06:89:ab:60:38:a5:d4:06:91:17:0c:23:
         34:62:dc:9c:a3:36:0f:78:f8:dc:2a:f8:8a:f4:6b:d4:33:91:
         53:79:45:54:17:b5:f0:74:2a:2f:b6:c9:47:48:85:07:6b:a3:
         28:07:59:c5:07:6f:57:84:12:c6:28:78:cc:2f:33:e6:6d:a5:
         82:d7:ff:f8:76:31:5a:56:2f:82:b9:d2:36:43:c3:04:2d:52:
         6a:21:92:9e:f1:84:8a:de:39:0f:79:7a:c6:db:2f:f8:8b:ed:
         af:5d:6f:09:8e:9c:6f:85:75:08:52:ba:53:8d:e8:23:f8:5c:
         18:24:a1:a8:31:9b:b0:ee:e8:46:0a:9b:04:f3:8f:90:7f:0b:
         18:97:4c:4d:48:ff:b3:66:35:15:02:16:85:f9:b0:c6:5b:bf:
         8c:af:15:76:3f:00:15:c1:b2:01:6e:dd:26:5e:1c:94:61:a4:
         23:83:3f:8a:75:7d:e0:ce:da:35:0e:90:6d:63:c5:35:f6:31:
         62:db:73:e6:7a:54:77:1f:19:24:d4:1d:44:8e:e3:b6:e3:ea:
         69:5e:96:35:28:19:7d:11:f7:0f:42:a1:36:a7:3b:16:fc:04:
         74:24:20:51:80:cc:17:0e:6f:9f:fb:ff:3d:bd:4b:98:a8:4c:
         9f:81:68:ce:7a:37:b4:90:96:8c:bb:26:00:25:79:5e:b7:10:
         4b:91:2a:cb:e6:3a:c3:93:9b:b1:6f:31:9c:c8:b8:2c:95:84:
         33:62:89:b5:35:3b:d6:3c:8c:b1:ff:53:e8:1b:42:b1:fc:7d:
         c4:be:23:a3:08:14:38:e0:79:9d:4c:4b:75:2e:de:ce:ff:ac:
         b8:32:78:81:05:a7:bc:db:4d:23:e5:dc:ac:d6:1f:ac:b8:8b:
         6d:ad:77:4f:95:f5:8f:d7:87:e5:e5:37:ac:f7:f7:24:f4:cb:
         55:8c:18:52:b1:54:53:b4:29:9e:44:91:e7:9b:12:6e:a0:25:
         39:a1:e7:ca:54:36:a1:9e:46:17:ec:b7:1a:ee:06:b9:3b:77:
         29:77:e0:70:08:1e:80:e9
-----BEGIN CERTIFICATE-----
MIIFuDCCA6CgAwIBAgIUB8FUGvfXjYzUAtA3UZm5n9PV5iUwDQYJKoZIhvcNAQEL
BQAwfjELMAkGA1UEBhMCQ0gxEDAOBgNVBAgTB1RodXJnYXUxEDAOBgNVBAcTB0tl
Zmlrb24xEzARBgNVBAoTCmd1ZW5nZWwuY2gxEDAOBgNVBAMTB0NBIDIwMjIxJDAi
BgkqhkiG9w0BCQEWFXBvc3RtYXN0ZXJAZ3VlbmdlbC5jaDAeFw0yMzEyMzAwODQ0
NDdaFw0yNTAyMDIwODQ0NDdaMHoxCzAJBgNVBAYTAkNIMRAwDgYDVQQIEwdUaHVy
Z2F1MRMwEQYDVQQKEwpndWVuZ2VsLmNoMR4wHAYDVQQDExVwaS00Lms4cy5rcnVl
bWVsLmhvbWUxJDAiBgkqhkiG9w0BCQEWFXBvc3RtYXN0ZXJAZ3VlbmdlbC5jaDCC
ASIwDQYJKoZIhvcNAQEBBQADggEPADCCAQoCggEBAOCZO5yP9N7erOJBk2US7dw/
X/3Z6mFfJMwK1Ij2f5PAUJzb9DqPIgM1fE2T2rPpQKq5jCh2Z93PwkBiuvtt76iE
Asiwvj0fjFNzrvwTCVtkNewiHJA+kZlYrzjlHvt80KnbyciOdotRvWxLLS1TVZIj
dkGG/cLEJqUejZU/eXtb612+kptAj8pjWdFZsNv+rz8KNlUZwZijOeqm/qyzfY7z
BuPo/PqfHiUpSWdkTeIiLs5dEVxewKp4jNEWxjQxV+4gNmTg8DzYQ8H0aLszXNB/
RUQACSoZ2RzGsaCAj49i2syskt07ugB8cyZ30t5VzQOp5Na6nPJwtwqcaOQqGhsC
AwEAAaOCATAwggEsMAwGA1UdEwEB/wQCMAAwCwYDVR0PBAQDAgOoMB0GA1UdDgQW
BBTVzTqSFNSMjtLQzH7eUgaz2R9kvDCBvQYDVR0jBIG1MIGygBQiIA1RQGFCvt26
2cnBd7aTKMOZ7KGBg6SBgDB+MQswCQYDVQQGEwJDSDEQMA4GA1UECBMHVGh1cmdh
dTEQMA4GA1UEBxMHS2VmaWtvbjETMBEGA1UEChMKZ3VlbmdlbC5jaDEQMA4GA1UE
AxMHQ0EgMjAyMjEkMCIGCSqGSIb3DQEJARYVcG9zdG1hc3RlckBndWVuZ2VsLmNo
ghRtKZBU6RfpwmrmUq2ETjCOblf7HDARBglghkgBhvhCAQEEBAMCBsAwHQYDVR0l
BBYwFAYIKwYBBQUHAwEGCCsGAQUFBwMCMA0GCSqGSIb3DQEBCwUAA4ICAQCa4Eik
M8Gz4NuUdueN9Z4C5Ng+odYNT8MbRWEaKwdaWsu4OKqoBveJkhzN6AOG4FTML78f
5bx0/ya3bYBq2YkjBb9foze0VoqyJriOa4S74LG86hJ8Y4s6MTiMcKe+hgvMkYjZ
oZkoFX9l0KdAb30pfnMGiatgOKXUBpEXDCM0YtycozYPePjcKviK9GvUM5FTeUVU
F7XwdCovtslHSIUHa6MoB1nFB29XhBLGKHjMLzPmbaWC1//4djFaVi+CudI2Q8ME
LVJqIZKe8YSK3jkPeXrG2y/4i+2vXW8JjpxvhXUIUrpTjegj+FwYJKGoMZuw7uhG
CpsE84+QfwsYl0xNSP+zZjUVAhaF+bDGW7+MrxV2PwAVwbIBbt0mXhyUYaQjgz+K
dX3gzto1DpBtY8U19jFi23PmelR3Hxkk1B1EjuO24+ppXpY1KBl9EfcPQqE2pzsW
/AR0JCBRgMwXDm+f+/89vUuYqEyfgWjOeje0kJaMuyYAJXletxBLkSrL5jrDk5ux
bzGcyLgslYQzYom1NTvWPIyx/1PoG0Kx/H3EviOjCBQ44HmdTEt1Lt7O/6y4MniB
Bae8200j5dys1h+suIttrXdPlfWP14fl5Tes9/ck9MtVjBhSsVRTtCmeRJHnmxJu
oCU5oefKVDahnkYX7Lca7ga5O3cpd+BwCB6A6Q==
-----END CERTIFICATE-----
