Certificate:
    Data:
        Version: 3 (0x2)
        Serial Number: 353 (0x161)
    Signature Algorithm: sha256WithRSAEncryption
        Issuer: C=CH, ST=Thurgau, L=Kefikon, O=guengel.ch, CN=CA guengel.ch/emailAddress=postmaster@guengel.ch
        Validity
            Not Before: Dec 29 14:40:04 2018 GMT
            Not After : Feb  2 14:40:04 2020 GMT
        Subject: C=CH, ST=Thurgau, O=guengel.ch, CN=portscanner.web.kruemel.home/emailAddress=postmaster@guengel.ch
        Subject Public Key Info:
            Public Key Algorithm: rsaEncryption
                Public-Key: (2048 bit)
                Modulus:
                    00:df:08:97:b3:02:59:e6:f3:cc:17:3a:12:f5:ac:
                    fe:58:63:eb:1e:c1:b7:78:c3:39:5e:e1:5f:34:cf:
                    b4:48:f4:5f:d0:88:9e:e0:35:1f:78:16:53:6e:4b:
                    2d:4d:fc:bc:17:4c:2e:95:53:4b:e4:a0:57:ec:3a:
                    f5:aa:75:26:39:8f:3d:04:20:4f:3d:6d:51:12:ab:
                    0f:a0:53:75:f5:c1:05:4f:4e:24:6e:ab:08:2d:cf:
                    9a:83:5c:b5:29:88:f4:8e:e9:30:d4:13:17:80:3d:
                    df:6e:ff:fe:6e:fd:f2:93:a6:42:cb:b6:99:18:3f:
                    88:a0:4a:2c:69:66:3d:61:b5:f7:ae:5f:f9:fb:86:
                    8c:82:ed:2b:9f:02:6f:56:30:de:40:64:87:65:98:
                    cc:53:a8:49:33:b5:43:f8:df:2e:5b:67:cc:d7:9f:
                    8f:95:fc:cc:c4:77:f0:3b:67:1b:b8:10:fe:fa:58:
                    82:0f:d2:dc:9c:6d:c3:45:d9:b7:e1:04:e0:4e:b9:
                    90:cb:ab:2b:05:92:f4:a5:69:c1:7b:a1:6a:b2:35:
                    b7:86:94:16:37:dd:e6:8e:5f:ce:bb:df:3e:30:2d:
                    2a:fd:4c:e7:b4:7f:97:4f:78:c1:9f:d7:60:d8:35:
                    dc:d4:49:b2:3b:22:d1:d7:c1:17:09:ac:70:15:eb:
                    ee:71
                Exponent: 65537 (0x10001)
        X509v3 extensions:
            X509v3 Basic Constraints: 
                CA:FALSE
            Netscape Comment: 
                OpenSSL Generated Certificate
            X509v3 Subject Key Identifier: 
                96:CA:CA:49:4D:09:26:A7:1B:75:DB:7F:97:04:0D:32:53:1F:E2:71
            X509v3 Authority Key Identifier: 
                keyid:D6:88:F1:AA:C1:2B:09:8C:B8:5C:9D:CE:DF:57:39:62:26:10:20:90
                DirName:/C=CH/ST=Thurgau/L=Kefikon/O=guengel.ch/CN=CA guengel.ch/emailAddress=postmaster@guengel.ch
                serial:E5:25:3B:A6:77:BD:CB:FF

    Signature Algorithm: sha256WithRSAEncryption
         5e:dd:20:fe:aa:d5:69:6b:30:8e:3c:44:ae:78:68:2c:7c:73:
         80:ff:14:82:09:da:ce:91:2d:30:b7:9a:ac:e9:2b:f8:4e:49:
         f3:bc:38:70:9d:a3:e8:cd:12:74:40:e0:96:c6:36:1c:0d:a1:
         90:16:4a:21:0d:c9:56:8a:2d:c1:f4:fc:9d:57:e1:24:7d:f4:
         a0:8e:4b:84:32:21:c2:fc:3e:62:f6:cb:6a:d3:e6:39:1d:e9:
         f2:15:9f:e8:69:a5:25:af:fd:ff:03:51:8b:e8:18:42:9b:f7:
         27:a8:66:7c:44:de:75:4a:96:84:12:96:af:d4:0c:b7:88:6d:
         93:68:85:36:47:12:e7:94:58:6b:b2:f4:28:20:ce:87:c2:ad:
         68:49:9f:94:3f:07:af:f4:c4:8e:d4:1a:42:8f:ce:1d:2f:58:
         f6:bb:47:1e:61:74:85:f4:60:7d:8c:8e:df:02:d8:77:82:5c:
         a6:de:84:3a:02:73:7a:a7:7d:f0:c8:64:fd:2f:46:23:10:a5:
         90:80:f1:4f:3f:c9:5c:1a:5a:3e:bc:50:3e:40:94:dc:4c:fe:
         75:d3:61:d1:f9:a4:b8:55:23:37:ea:e3:97:59:ad:2d:23:6a:
         cf:ab:58:08:74:f9:0c:0e:8c:c9:73:ec:fc:9c:87:1d:f6:93:
         eb:11:44:e1:8d:d7:fe:10:eb:b3:ac:87:09:d1:27:28:5c:da:
         87:c6:45:cf:e8:9c:9b:12:c2:3b:d2:cc:5b:68:65:ae:6d:6e:
         ff:93:df:9c:db:7c:3f:c4:65:39:a6:f2:09:fd:11:e0:8d:8b:
         ed:f2:74:8b:e2:b8:83:3f:39:f7:05:13:07:df:31:ed:b4:16:
         a6:9e:c9:0b:ae:4a:48:77:94:c6:84:56:d8:37:b3:e4:d1:ca:
         52:8c:e3:1d:5b:7f:9b:d5:12:b5:29:0e:9b:07:62:4c:04:b6:
         23:fe:fc:c2:63:8d:62:1a:2f:8a:53:1d:b5:e2:b4:07:38:1f:
         5e:5b:d4:d0:49:c6:af:2b:a7:6d:f6:52:fc:61:b8:0d:ed:7f:
         1d:b2:00:66:71:37:f2:b1:16:4e:d4:c7:bb:7c:98:db:2c:b9:
         a7:0b:15:48:c2:a5:b3:0e:7f:71:9b:5e:3a:93:9a:03:10:3e:
         9f:a8:72:ec:58:c3:8f:7d:dd:0f:d7:d7:fa:8d:98:96:18:d7:
         56:86:9f:66:d3:2c:e5:eb:cd:1c:0e:b7:26:c8:2e:c2:43:60:
         90:11:88:ae:2e:9b:8a:8c:27:20:f4:61:61:8d:12:3c:e1:dd:
         9f:bb:78:7b:24:60:34:08:72:a8:40:16:db:8c:cb:b9:43:93:
         0f:fc:e7:54:2f:9b:6e:6f
-----BEGIN CERTIFICATE-----
MIIFnTCCA4WgAwIBAgICAWEwDQYJKoZIhvcNAQELBQAwgYQxCzAJBgNVBAYTAkNI
MRAwDgYDVQQIEwdUaHVyZ2F1MRAwDgYDVQQHEwdLZWZpa29uMRMwEQYDVQQKEwpn
dWVuZ2VsLmNoMRYwFAYDVQQDEw1DQSBndWVuZ2VsLmNoMSQwIgYJKoZIhvcNAQkB
FhVwb3N0bWFzdGVyQGd1ZW5nZWwuY2gwHhcNMTgxMjI5MTQ0MDA0WhcNMjAwMjAy
MTQ0MDA0WjCBgTELMAkGA1UEBhMCQ0gxEDAOBgNVBAgTB1RodXJnYXUxEzARBgNV
BAoTCmd1ZW5nZWwuY2gxJTAjBgNVBAMTHHBvcnRzY2FubmVyLndlYi5rcnVlbWVs
LmhvbWUxJDAiBgkqhkiG9w0BCQEWFXBvc3RtYXN0ZXJAZ3VlbmdlbC5jaDCCASIw
DQYJKoZIhvcNAQEBBQADggEPADCCAQoCggEBAN8Il7MCWebzzBc6EvWs/lhj6x7B
t3jDOV7hXzTPtEj0X9CInuA1H3gWU25LLU38vBdMLpVTS+SgV+w69ap1JjmPPQQg
Tz1tURKrD6BTdfXBBU9OJG6rCC3PmoNctSmI9I7pMNQTF4A9327//m798pOmQsu2
mRg/iKBKLGlmPWG1965f+fuGjILtK58Cb1Yw3kBkh2WYzFOoSTO1Q/jfLltnzNef
j5X8zMR38DtnG7gQ/vpYgg/S3Jxtw0XZt+EE4E65kMurKwWS9KVpwXuharI1t4aU
Fjfd5o5fzrvfPjAtKv1M57R/l094wZ/XYNg13NRJsjsi0dfBFwmscBXr7nECAwEA
AaOCARgwggEUMAkGA1UdEwQCMAAwLAYJYIZIAYb4QgENBB8WHU9wZW5TU0wgR2Vu
ZXJhdGVkIENlcnRpZmljYXRlMB0GA1UdDgQWBBSWyspJTQkmpxt123+XBA0yUx/i
cTCBuQYDVR0jBIGxMIGugBTWiPGqwSsJjLhcnc7fVzliJhAgkKGBiqSBhzCBhDEL
MAkGA1UEBhMCQ0gxEDAOBgNVBAgTB1RodXJnYXUxEDAOBgNVBAcTB0tlZmlrb24x
EzARBgNVBAoTCmd1ZW5nZWwuY2gxFjAUBgNVBAMTDUNBIGd1ZW5nZWwuY2gxJDAi
BgkqhkiG9w0BCQEWFXBvc3RtYXN0ZXJAZ3VlbmdlbC5jaIIJAOUlO6Z3vcv/MA0G
CSqGSIb3DQEBCwUAA4ICAQBe3SD+qtVpazCOPESueGgsfHOA/xSCCdrOkS0wt5qs
6Sv4TknzvDhwnaPozRJ0QOCWxjYcDaGQFkohDclWii3B9PydV+EkffSgjkuEMiHC
/D5i9stq0+Y5HenyFZ/oaaUlr/3/A1GL6BhCm/cnqGZ8RN51SpaEEpav1Ay3iG2T
aIU2RxLnlFhrsvQoIM6Hwq1oSZ+UPwev9MSO1BpCj84dL1j2u0ceYXSF9GB9jI7f
Ath3glym3oQ6AnN6p33wyGT9L0YjEKWQgPFPP8lcGlo+vFA+QJTcTP5102HR+aS4
VSM36uOXWa0tI2rPq1gIdPkMDozJc+z8nIcd9pPrEUThjdf+EOuzrIcJ0ScoXNqH
xkXP6JybEsI70sxbaGWubW7/k9+c23w/xGU5pvIJ/RHgjYvt8nSL4riDPzn3BRMH
3zHttBamnskLrkpId5TGhFbYN7Pk0cpSjOMdW3+b1RK1KQ6bB2JMBLYj/vzCY41i
Gi+KUx214rQHOB9eW9TQScavK6dt9lL8YbgN7X8dsgBmcTfysRZO1Me7fJjbLLmn
CxVIwqWzDn9xm146k5oDED6fqHLsWMOPfd0P19f6jZiWGNdWhp9m0yzl680cDrcm
yC7CQ2CQEYiuLpuKjCcg9GFhjRI84d2fu3h7JGA0CHKoQBbbjMu5Q5MP/OdUL5tu
bw==
-----END CERTIFICATE-----
