Certificate:
    Data:
        Version: 3 (0x2)
        Serial Number: 260 (0x104)
    Signature Algorithm: sha256WithRSAEncryption
        Issuer: C=CH, ST=Thurgau, L=Kefikon, O=guengel.ch, CN=CA guengel.ch/emailAddress=postmaster@guengel.ch
        Validity
            Not Before: Nov 20 09:17:25 2016 GMT
            Not After : Apr  4 09:17:25 2018 GMT
        Subject: C=CH, ST=Thurgau, O=guengel.ch, CN=prune.virtual.kruemel.home/emailAddress=postmaster@guengel.ch
        Subject Public Key Info:
            Public Key Algorithm: rsaEncryption
                Public-Key: (2048 bit)
                Modulus:
                    00:d8:6f:c9:ea:47:65:e3:ed:23:f8:f3:e3:14:ba:
                    4c:33:3e:91:e8:8b:34:b4:d4:cf:bc:2f:c8:af:76:
                    c5:e6:1f:57:1f:39:2d:aa:22:5c:6b:cb:aa:3e:c5:
                    73:55:09:f9:5a:42:c9:2a:ac:d0:1f:64:42:56:c2:
                    a7:51:f9:ad:a9:37:ce:1c:3a:0b:4c:e8:c2:02:df:
                    d6:eb:77:c5:ff:93:d2:fe:6e:69:c4:3c:f1:e5:34:
                    54:34:f6:52:6b:b3:9c:65:d1:be:ed:a5:67:0e:e8:
                    67:6b:ee:17:aa:39:fe:c9:8a:d4:e7:67:6f:3b:16:
                    0f:c0:cc:e4:33:c5:b8:c7:2c:39:74:07:7b:6b:36:
                    41:29:3f:03:d2:93:21:29:98:4f:6d:ee:70:b9:af:
                    08:0e:65:c7:a5:f2:40:00:6f:39:7b:ab:92:75:96:
                    bc:ce:18:82:d9:09:9d:30:e5:1d:5c:78:6a:13:33:
                    c4:42:7c:82:7c:b2:b8:5b:cf:0f:71:b0:20:54:7f:
                    e6:48:01:1b:9e:88:b5:1a:c0:ef:24:30:20:7a:84:
                    4e:04:d5:c1:57:b7:24:90:f6:50:f2:a8:6d:2f:7c:
                    51:40:fc:9f:88:a0:f3:73:48:ff:41:70:bc:78:e2:
                    40:8b:ca:34:60:38:c4:08:cf:10:91:ed:15:14:75:
                    b4:4f
                Exponent: 65537 (0x10001)
        X509v3 extensions:
            X509v3 Basic Constraints: 
                CA:FALSE
            Netscape Comment: 
                OpenSSL Generated Certificate
            X509v3 Subject Key Identifier: 
                F4:14:10:88:EC:35:24:DF:5B:48:82:3D:8F:C8:BA:72:0C:6F:2A:5D
            X509v3 Authority Key Identifier: 
                keyid:D6:88:F1:AA:C1:2B:09:8C:B8:5C:9D:CE:DF:57:39:62:26:10:20:90
                DirName:/C=CH/ST=Thurgau/L=Kefikon/O=guengel.ch/CN=CA guengel.ch/emailAddress=postmaster@guengel.ch
                serial:E5:25:3B:A6:77:BD:CB:FF

    Signature Algorithm: sha256WithRSAEncryption
         79:55:b9:59:6c:a6:d2:0b:44:19:f3:37:2d:96:12:0b:30:1d:
         b7:17:16:3a:6a:58:98:4c:07:28:55:3b:58:4b:1d:92:06:91:
         c8:18:91:c7:3c:5b:9e:1d:3c:80:23:c9:df:ce:9b:2f:76:aa:
         e0:1d:73:80:69:4e:64:27:5d:a6:11:66:d3:f2:dc:6a:db:62:
         22:6d:d2:69:6a:5f:00:46:e2:b3:28:b1:74:26:fc:77:49:96:
         dc:50:18:47:01:9a:ae:f2:51:d5:b3:91:38:a7:17:fc:07:5e:
         4d:0d:07:5d:25:33:d4:d9:b8:4a:c2:4a:ba:98:ac:dd:bd:41:
         92:50:d7:fb:59:22:88:97:bf:56:52:57:94:64:94:63:fd:ed:
         01:5a:6b:e3:86:db:7a:38:d3:5f:a8:0f:2e:eb:11:b4:55:64:
         87:79:39:35:82:3d:e6:61:da:7d:53:57:53:e8:9b:32:3e:0f:
         0d:85:e4:c4:bc:9d:ca:d0:bc:48:fd:46:dc:a7:0a:74:bf:d3:
         5a:34:6d:2c:e5:31:03:18:41:86:07:55:ef:76:fb:96:8e:dc:
         5c:7d:90:16:c7:24:c3:b7:c8:e6:94:38:6c:a6:99:33:3c:b7:
         06:96:5a:24:ed:95:39:34:64:66:b5:46:d3:f7:58:30:02:18:
         c1:81:6f:e3:86:19:c6:bc:b0:ca:b4:29:ef:92:82:50:4f:e3:
         de:db:63:57:3b:54:3f:65:e3:f5:7e:3c:a9:68:68:a6:e4:7a:
         87:36:f4:c8:cd:78:f2:98:37:28:8b:eb:f9:eb:d0:76:3b:be:
         5d:a5:02:b2:7d:c4:39:de:ba:da:ce:b8:26:a7:5a:15:6c:25:
         92:5e:33:b6:3a:f4:ea:4a:bf:38:8b:41:1d:a2:11:8b:9e:f3:
         ec:6e:1a:db:e4:4c:e1:da:6e:b0:72:19:d6:11:62:2a:a8:70:
         8f:ce:4b:64:f2:bb:fc:05:2b:c3:d1:6c:e9:f8:2f:55:26:dc:
         ca:ec:2b:a9:84:40:87:4d:73:be:d8:f4:0e:d5:ed:c2:c5:8a:
         8e:6d:92:f1:89:21:89:d5:51:77:79:94:96:af:a3:5e:fc:6c:
         54:bb:dc:0c:ab:3b:ca:57:1f:a3:23:67:79:c0:95:5d:fc:71:
         f0:bd:66:42:e6:53:74:c5:9d:c5:04:34:65:4e:3c:8f:d4:3c:
         b6:ac:3b:a6:09:37:1d:42:fa:e0:a2:2e:7f:6c:0f:88:c5:7e:
         d0:15:90:ce:d4:10:24:90:07:e3:9d:24:6e:08:ff:36:5f:c7:
         88:09:0e:bf:37:84:9b:12:74:3d:11:6a:f7:62:d4:ec:cb:63:
         45:49:94:f1:88:13:66:af
-----BEGIN CERTIFICATE-----
MIIFmjCCA4KgAwIBAgICAQQwDQYJKoZIhvcNAQELBQAwgYQxCzAJBgNVBAYTAkNI
MRAwDgYDVQQIEwdUaHVyZ2F1MRAwDgYDVQQHEwdLZWZpa29uMRMwEQYDVQQKEwpn
dWVuZ2VsLmNoMRYwFAYDVQQDEw1DQSBndWVuZ2VsLmNoMSQwIgYJKoZIhvcNAQkB
FhVwb3N0bWFzdGVyQGd1ZW5nZWwuY2gwHhcNMTYxMTIwMDkxNzI1WhcNMTgwNDA0
MDkxNzI1WjB/MQswCQYDVQQGEwJDSDEQMA4GA1UECBMHVGh1cmdhdTETMBEGA1UE
ChMKZ3VlbmdlbC5jaDEjMCEGA1UEAxMacHJ1bmUudmlydHVhbC5rcnVlbWVsLmhv
bWUxJDAiBgkqhkiG9w0BCQEWFXBvc3RtYXN0ZXJAZ3VlbmdlbC5jaDCCASIwDQYJ
KoZIhvcNAQEBBQADggEPADCCAQoCggEBANhvyepHZePtI/jz4xS6TDM+keiLNLTU
z7wvyK92xeYfVx85LaoiXGvLqj7Fc1UJ+VpCySqs0B9kQlbCp1H5rak3zhw6C0zo
wgLf1ut3xf+T0v5uacQ88eU0VDT2UmuznGXRvu2lZw7oZ2vuF6o5/smK1OdnbzsW
D8DM5DPFuMcsOXQHe2s2QSk/A9KTISmYT23ucLmvCA5lx6XyQABvOXurknWWvM4Y
gtkJnTDlHVx4ahMzxEJ8gnyyuFvPD3GwIFR/5kgBG56ItRrA7yQwIHqETgTVwVe3
JJD2UPKobS98UUD8n4ig83NI/0FwvHjiQIvKNGA4xAjPEJHtFRR1tE8CAwEAAaOC
ARgwggEUMAkGA1UdEwQCMAAwLAYJYIZIAYb4QgENBB8WHU9wZW5TU0wgR2VuZXJh
dGVkIENlcnRpZmljYXRlMB0GA1UdDgQWBBT0FBCI7DUk31tIgj2PyLpyDG8qXTCB
uQYDVR0jBIGxMIGugBTWiPGqwSsJjLhcnc7fVzliJhAgkKGBiqSBhzCBhDELMAkG
A1UEBhMCQ0gxEDAOBgNVBAgTB1RodXJnYXUxEDAOBgNVBAcTB0tlZmlrb24xEzAR
BgNVBAoTCmd1ZW5nZWwuY2gxFjAUBgNVBAMTDUNBIGd1ZW5nZWwuY2gxJDAiBgkq
hkiG9w0BCQEWFXBvc3RtYXN0ZXJAZ3VlbmdlbC5jaIIJAOUlO6Z3vcv/MA0GCSqG
SIb3DQEBCwUAA4ICAQB5VblZbKbSC0QZ8zctlhILMB23FxY6aliYTAcoVTtYSx2S
BpHIGJHHPFueHTyAI8nfzpsvdqrgHXOAaU5kJ12mEWbT8txq22IibdJpal8ARuKz
KLF0Jvx3SZbcUBhHAZqu8lHVs5E4pxf8B15NDQddJTPU2bhKwkq6mKzdvUGSUNf7
WSKIl79WUleUZJRj/e0BWmvjhtt6ONNfqA8u6xG0VWSHeTk1gj3mYdp9U1dT6Jsy
Pg8NheTEvJ3K0LxI/Ubcpwp0v9NaNG0s5TEDGEGGB1XvdvuWjtxcfZAWxyTDt8jm
lDhsppkzPLcGllok7ZU5NGRmtUbT91gwAhjBgW/jhhnGvLDKtCnvkoJQT+Pe22NX
O1Q/ZeP1fjypaGim5HqHNvTIzXjymDcoi+v569B2O75dpQKyfcQ53rrazrgmp1oV
bCWSXjO2OvTqSr84i0EdohGLnvPsbhrb5Ezh2m6wchnWEWIqqHCPzktk8rv8BSvD
0Wzp+C9VJtzK7CuphECHTXO+2PQO1e3CxYqObZLxiSGJ1VF3eZSWr6Ne/GxUu9wM
qzvKVx+jI2d5wJVd/HHwvWZC5lN0xZ3FBDRlTjyP1Dy2rDumCTcdQvrgoi5/bA+I
xX7QFZDO1BAkkAfjnSRuCP82X8eICQ6/N4SbEnQ9EWr3YtTsy2NFSZTxiBNmrw==
-----END CERTIFICATE-----
