Certificate:
    Data:
        Version: 3 (0x2)
        Serial Number: 314 (0x13a)
    Signature Algorithm: sha256WithRSAEncryption
        Issuer: C=CH, ST=Thurgau, L=Kefikon, O=guengel.ch, CN=CA guengel.ch/emailAddress=postmaster@guengel.ch
        Validity
            Not Before: Jan  6 18:03:00 2018 GMT
            Not After : Feb 10 18:03:00 2019 GMT
        Subject: C=CH, ST=Thurgau, O=guengel.ch, CN=realm.web.kruemel.home/emailAddress=postmaster@guengel.ch
        Subject Public Key Info:
            Public Key Algorithm: rsaEncryption
                Public-Key: (2048 bit)
                Modulus:
                    00:cc:b8:2e:c1:52:78:65:59:56:53:8e:43:c6:1d:
                    13:b5:cc:bf:57:d7:0b:3e:5c:81:e4:e8:ae:fd:41:
                    6f:50:25:a3:ba:53:71:d4:b6:a7:c6:9b:8d:de:6f:
                    80:45:95:bb:51:44:da:34:60:fe:ea:40:ba:04:2e:
                    1f:67:f6:8f:b7:40:dd:29:7f:03:8a:ae:13:37:e5:
                    f1:fd:ae:32:93:e5:2a:df:3f:41:de:6a:f8:c9:3e:
                    08:f9:1d:f2:30:b1:ad:92:10:ea:6c:8a:1a:e5:21:
                    5c:78:ec:e5:4c:7e:04:5e:68:d8:57:70:a9:7a:a1:
                    fd:12:35:e0:0b:ce:5b:88:e7:b6:d2:70:4e:2b:6c:
                    ba:08:6f:93:04:31:df:c9:74:78:cc:2b:d3:d2:a2:
                    c0:7f:66:d2:60:85:1f:2a:64:6b:21:0a:4a:9e:00:
                    62:25:58:89:cb:7f:f7:0f:da:f5:be:77:e3:13:f7:
                    dc:f8:0d:fb:7d:66:4b:fd:27:f9:ee:99:fa:87:fc:
                    1c:df:db:f7:f3:9c:27:70:cc:97:9f:33:c2:3d:b2:
                    90:8f:8c:05:70:5e:a4:e5:ed:d6:d4:ff:13:c1:89:
                    5a:ee:da:64:73:c9:8b:f4:4f:f1:cf:47:82:18:9c:
                    bf:f9:8e:e9:91:3a:f7:05:ec:6a:aa:84:a5:42:0f:
                    23:71
                Exponent: 65537 (0x10001)
        X509v3 extensions:
            X509v3 Basic Constraints: 
                CA:FALSE
            Netscape Comment: 
                OpenSSL Generated Certificate
            X509v3 Subject Key Identifier: 
                6A:39:5C:55:BE:BD:42:16:38:C2:74:72:6C:C9:CC:25:CC:78:A3:ED
            X509v3 Authority Key Identifier: 
                keyid:D6:88:F1:AA:C1:2B:09:8C:B8:5C:9D:CE:DF:57:39:62:26:10:20:90
                DirName:/C=CH/ST=Thurgau/L=Kefikon/O=guengel.ch/CN=CA guengel.ch/emailAddress=postmaster@guengel.ch
                serial:E5:25:3B:A6:77:BD:CB:FF

    Signature Algorithm: sha256WithRSAEncryption
         91:cc:e3:92:b6:05:c1:f2:09:98:ba:26:e7:b4:65:f1:ae:1d:
         36:ec:4b:1e:8c:d3:77:76:55:f9:54:d6:22:4b:8d:5a:c9:81:
         40:a4:76:13:d4:4a:bb:32:07:41:b5:83:94:ad:e5:60:4b:55:
         27:8b:e2:67:0e:bc:9c:e1:c9:10:e1:34:8e:3c:04:6e:d9:b0:
         63:77:cd:8d:5b:a3:45:f2:95:50:18:3c:81:2a:e4:66:32:fe:
         96:b5:cd:23:e9:01:c4:6d:4f:8f:2d:58:b1:2b:50:74:23:86:
         e9:fd:55:38:e9:9c:b0:98:a0:ee:8b:3c:0b:f8:42:e2:4b:ad:
         ff:f9:62:2c:63:3a:d1:87:e5:ad:9e:c1:84:75:b7:69:eb:49:
         8c:96:51:03:9d:71:42:b2:c3:f7:a9:b5:2a:a8:cd:53:08:0c:
         62:41:30:e1:a6:1b:76:e5:e3:dd:35:7e:75:86:3b:d8:0a:c5:
         14:ad:60:67:3a:d7:f2:73:4a:28:dd:fb:0e:b1:83:d5:3a:b5:
         f7:8d:ca:19:7e:20:f5:a6:fc:b2:3d:47:a7:ce:95:29:00:b2:
         78:2b:39:6b:93:45:de:5d:2f:24:33:3c:0c:f6:9d:c4:01:5e:
         56:15:da:3f:6b:b7:5f:bb:cf:d6:8e:ab:ec:07:8e:02:2e:74:
         96:1c:c6:d9:21:46:07:0b:b4:f8:04:f3:30:66:c0:bf:49:4c:
         07:11:83:9c:83:da:b6:fa:9b:6e:4d:39:8d:85:47:5d:0e:22:
         6d:e6:30:d1:df:3e:f5:33:d9:4b:4e:f7:7f:54:94:94:21:79:
         cb:c8:1f:0b:b2:4b:6b:77:a2:40:2e:1e:4f:76:ac:d2:6e:2b:
         51:cb:a3:10:f2:8d:01:ad:87:dd:bf:92:a3:fa:45:5a:0d:65:
         a3:1d:9b:cb:6e:b3:4d:f0:ad:5f:be:ca:32:75:fd:b9:ec:00:
         11:0a:46:4c:aa:bc:f0:ff:31:a3:c1:69:48:0d:0f:16:77:5e:
         03:b9:f2:1c:b4:b9:64:47:41:24:3c:0e:38:75:ae:51:42:0a:
         bb:71:b6:58:96:a5:c3:d4:07:af:00:6a:04:6f:2d:86:7f:fd:
         99:32:4a:8c:d3:2a:aa:ee:37:d4:50:88:3e:5f:ce:6b:94:ff:
         6f:29:2c:12:68:31:df:18:5e:6a:70:09:08:ea:0a:fd:90:32:
         53:31:bf:52:61:72:d7:af:a6:3f:e4:c1:b4:a3:ce:21:1b:67:
         6f:73:19:f5:6f:01:7f:df:c3:08:10:c9:4d:1d:e0:d8:2c:24:
         07:3c:da:1b:4f:e5:18:ed:9a:ea:b6:99:6f:0b:8b:2c:c3:cd:
         fd:21:10:49:0b:d4:10:fc
-----BEGIN CERTIFICATE-----
MIIFljCCA36gAwIBAgICATowDQYJKoZIhvcNAQELBQAwgYQxCzAJBgNVBAYTAkNI
MRAwDgYDVQQIEwdUaHVyZ2F1MRAwDgYDVQQHEwdLZWZpa29uMRMwEQYDVQQKEwpn
dWVuZ2VsLmNoMRYwFAYDVQQDEw1DQSBndWVuZ2VsLmNoMSQwIgYJKoZIhvcNAQkB
FhVwb3N0bWFzdGVyQGd1ZW5nZWwuY2gwHhcNMTgwMTA2MTgwMzAwWhcNMTkwMjEw
MTgwMzAwWjB7MQswCQYDVQQGEwJDSDEQMA4GA1UECBMHVGh1cmdhdTETMBEGA1UE
ChMKZ3VlbmdlbC5jaDEfMB0GA1UEAxMWcmVhbG0ud2ViLmtydWVtZWwuaG9tZTEk
MCIGCSqGSIb3DQEJARYVcG9zdG1hc3RlckBndWVuZ2VsLmNoMIIBIjANBgkqhkiG
9w0BAQEFAAOCAQ8AMIIBCgKCAQEAzLguwVJ4ZVlWU45Dxh0Ttcy/V9cLPlyB5Oiu
/UFvUCWjulNx1LanxpuN3m+ARZW7UUTaNGD+6kC6BC4fZ/aPt0DdKX8Diq4TN+Xx
/a4yk+Uq3z9B3mr4yT4I+R3yMLGtkhDqbIoa5SFceOzlTH4EXmjYV3CpeqH9EjXg
C85biOe20nBOK2y6CG+TBDHfyXR4zCvT0qLAf2bSYIUfKmRrIQpKngBiJViJy3/3
D9r1vnfjE/fc+A37fWZL/Sf57pn6h/wc39v385wncMyXnzPCPbKQj4wFcF6k5e3W
1P8TwYla7tpkc8mL9E/xz0eCGJy/+Y7pkTr3BexqqoSlQg8jcQIDAQABo4IBGDCC
ARQwCQYDVR0TBAIwADAsBglghkgBhvhCAQ0EHxYdT3BlblNTTCBHZW5lcmF0ZWQg
Q2VydGlmaWNhdGUwHQYDVR0OBBYEFGo5XFW+vUIWOMJ0cmzJzCXMeKPtMIG5BgNV
HSMEgbEwga6AFNaI8arBKwmMuFydzt9XOWImECCQoYGKpIGHMIGEMQswCQYDVQQG
EwJDSDEQMA4GA1UECBMHVGh1cmdhdTEQMA4GA1UEBxMHS2VmaWtvbjETMBEGA1UE
ChMKZ3VlbmdlbC5jaDEWMBQGA1UEAxMNQ0EgZ3VlbmdlbC5jaDEkMCIGCSqGSIb3
DQEJARYVcG9zdG1hc3RlckBndWVuZ2VsLmNoggkA5SU7pne9y/8wDQYJKoZIhvcN
AQELBQADggIBAJHM45K2BcHyCZi6Jue0ZfGuHTbsSx6M03d2VflU1iJLjVrJgUCk
dhPUSrsyB0G1g5St5WBLVSeL4mcOvJzhyRDhNI48BG7ZsGN3zY1bo0XylVAYPIEq
5GYy/pa1zSPpAcRtT48tWLErUHQjhun9VTjpnLCYoO6LPAv4QuJLrf/5YixjOtGH
5a2ewYR1t2nrSYyWUQOdcUKyw/eptSqozVMIDGJBMOGmG3bl4901fnWGO9gKxRSt
YGc61/JzSijd+w6xg9U6tfeNyhl+IPWm/LI9R6fOlSkAsngrOWuTRd5dLyQzPAz2
ncQBXlYV2j9rt1+7z9aOq+wHjgIudJYcxtkhRgcLtPgE8zBmwL9JTAcRg5yD2rb6
m25NOY2FR10OIm3mMNHfPvUz2UtO939UlJQhecvIHwuyS2t3okAuHk92rNJuK1HL
oxDyjQGth92/kqP6RVoNZaMdm8tus03wrV++yjJ1/bnsABEKRkyqvPD/MaPBaUgN
DxZ3XgO58hy0uWRHQSQ8Djh1rlFCCrtxtliWpcPUB68AagRvLYZ//ZkySozTKqru
N9RQiD5fzmuU/28pLBJoMd8YXmpwCQjqCv2QMlMxv1Jhctevpj/kwbSjziEbZ29z
GfVvAX/fwwgQyU0d4NgsJAc82htP5Rjtmuq2mW8LiyzDzf0hEEkL1BD8
-----END CERTIFICATE-----
