Certificate:
    Data:
        Version: 3 (0x2)
        Serial Number: 287 (0x11f)
    Signature Algorithm: sha256WithRSAEncryption
        Issuer: C=CH, ST=Thurgau, L=Kefikon, O=guengel.ch, CN=CA guengel.ch/emailAddress=postmaster@guengel.ch
        Validity
            Not Before: Dec 26 11:15:22 2017 GMT
            Not After : Jan 10 11:15:22 2019 GMT
        Subject: C=CH, ST=Thurgau, O=guengel.ch, CN=realm.web.kruemel.home/emailAddress=postmaster@guengel.ch
        Subject Public Key Info:
            Public Key Algorithm: rsaEncryption
                Public-Key: (2048 bit)
                Modulus:
                    00:cc:b8:2e:c1:52:78:65:59:56:53:8e:43:c6:1d:
                    13:b5:cc:bf:57:d7:0b:3e:5c:81:e4:e8:ae:fd:41:
                    6f:50:25:a3:ba:53:71:d4:b6:a7:c6:9b:8d:de:6f:
                    80:45:95:bb:51:44:da:34:60:fe:ea:40:ba:04:2e:
                    1f:67:f6:8f:b7:40:dd:29:7f:03:8a:ae:13:37:e5:
                    f1:fd:ae:32:93:e5:2a:df:3f:41:de:6a:f8:c9:3e:
                    08:f9:1d:f2:30:b1:ad:92:10:ea:6c:8a:1a:e5:21:
                    5c:78:ec:e5:4c:7e:04:5e:68:d8:57:70:a9:7a:a1:
                    fd:12:35:e0:0b:ce:5b:88:e7:b6:d2:70:4e:2b:6c:
                    ba:08:6f:93:04:31:df:c9:74:78:cc:2b:d3:d2:a2:
                    c0:7f:66:d2:60:85:1f:2a:64:6b:21:0a:4a:9e:00:
                    62:25:58:89:cb:7f:f7:0f:da:f5:be:77:e3:13:f7:
                    dc:f8:0d:fb:7d:66:4b:fd:27:f9:ee:99:fa:87:fc:
                    1c:df:db:f7:f3:9c:27:70:cc:97:9f:33:c2:3d:b2:
                    90:8f:8c:05:70:5e:a4:e5:ed:d6:d4:ff:13:c1:89:
                    5a:ee:da:64:73:c9:8b:f4:4f:f1:cf:47:82:18:9c:
                    bf:f9:8e:e9:91:3a:f7:05:ec:6a:aa:84:a5:42:0f:
                    23:71
                Exponent: 65537 (0x10001)
        X509v3 extensions:
            X509v3 Basic Constraints: 
                CA:FALSE
            Netscape Comment: 
                OpenSSL Generated Certificate
            X509v3 Subject Key Identifier: 
                6A:39:5C:55:BE:BD:42:16:38:C2:74:72:6C:C9:CC:25:CC:78:A3:ED
            X509v3 Authority Key Identifier: 
                keyid:D6:88:F1:AA:C1:2B:09:8C:B8:5C:9D:CE:DF:57:39:62:26:10:20:90
                DirName:/C=CH/ST=Thurgau/L=Kefikon/O=guengel.ch/CN=CA guengel.ch/emailAddress=postmaster@guengel.ch
                serial:E5:25:3B:A6:77:BD:CB:FF

    Signature Algorithm: sha256WithRSAEncryption
         21:97:ed:f4:40:e4:08:66:ea:cd:21:b1:86:ec:5c:43:20:d7:
         88:c4:9f:73:ac:b3:b2:00:af:64:37:5b:2d:5a:86:fd:39:9b:
         a0:09:83:d0:aa:55:07:32:88:5b:18:78:5d:6a:92:6f:01:45:
         49:13:1a:b3:a2:a3:a7:3f:6e:c1:fd:b1:67:74:a9:bd:e2:10:
         6f:f7:fb:8c:84:13:97:00:cb:53:ab:4b:12:34:89:00:21:d8:
         af:38:22:d5:e7:9e:96:78:5c:08:f0:21:34:40:53:89:a3:97:
         71:30:22:b5:74:d5:d1:d9:30:8a:fa:22:a2:72:6d:03:9e:c1:
         2a:3a:2e:5e:b3:bc:d6:ea:17:4a:e6:ea:02:20:70:19:78:ba:
         0f:89:a1:29:00:17:29:44:d2:32:04:17:60:d0:27:9b:60:eb:
         a1:44:09:57:f0:e7:54:ca:81:c9:d8:fa:b6:26:d6:28:0d:53:
         24:6b:54:0f:47:24:96:fe:34:00:b3:61:85:88:2d:9a:a7:e8:
         fe:e1:ae:81:6a:16:b9:90:52:75:11:a1:0a:7d:85:f1:75:3d:
         ba:22:90:65:a6:d4:f6:c0:57:e0:ed:ff:20:50:b1:f5:1c:2c:
         da:14:26:31:d6:62:7f:eb:a1:25:cb:16:ab:11:63:d6:12:4a:
         1c:57:20:6f:bc:49:15:78:6b:bb:ea:fb:19:5f:f0:a4:83:51:
         cd:17:20:95:14:f1:12:ad:de:2a:c2:92:c0:98:6d:38:55:e9:
         f1:fe:d9:f0:15:03:e7:83:72:25:03:6f:b2:fd:e5:dd:a1:6b:
         2b:f1:66:e4:25:5d:43:cb:d3:fe:91:db:a9:0e:c6:1b:e7:3c:
         a3:62:67:9d:5f:21:c3:9d:c7:13:fd:f8:38:a4:ce:21:12:89:
         57:01:d4:a3:01:94:0c:64:b3:68:15:c7:0d:0c:2c:65:c4:8f:
         29:38:3e:e2:74:ab:b2:db:31:8c:5c:0b:94:0d:9f:85:8b:0c:
         99:14:75:68:cc:61:18:11:65:5a:81:59:12:c9:9e:7a:be:f0:
         c6:db:db:51:30:01:c2:07:ba:74:d4:16:52:47:04:49:c1:29:
         be:d3:41:ea:09:03:cf:27:c9:65:8b:7e:b7:8c:7e:ab:bc:3a:
         91:e8:d8:83:56:22:0f:82:2d:c0:20:78:30:01:46:4a:fd:e3:
         3f:67:b1:ab:fc:f4:2f:6d:46:08:4f:f1:ee:44:8e:a8:06:11:
         38:64:65:5f:85:75:9a:59:bd:75:1f:73:2c:ee:c4:da:ba:ad:
         c7:7b:1b:51:48:b0:ee:08:79:2f:bb:7d:98:bf:1b:90:af:15:
         97:09:a3:45:de:c6:c8:95
-----BEGIN CERTIFICATE-----
MIIFljCCA36gAwIBAgICAR8wDQYJKoZIhvcNAQELBQAwgYQxCzAJBgNVBAYTAkNI
MRAwDgYDVQQIEwdUaHVyZ2F1MRAwDgYDVQQHEwdLZWZpa29uMRMwEQYDVQQKEwpn
dWVuZ2VsLmNoMRYwFAYDVQQDEw1DQSBndWVuZ2VsLmNoMSQwIgYJKoZIhvcNAQkB
FhVwb3N0bWFzdGVyQGd1ZW5nZWwuY2gwHhcNMTcxMjI2MTExNTIyWhcNMTkwMTEw
MTExNTIyWjB7MQswCQYDVQQGEwJDSDEQMA4GA1UECBMHVGh1cmdhdTETMBEGA1UE
ChMKZ3VlbmdlbC5jaDEfMB0GA1UEAxMWcmVhbG0ud2ViLmtydWVtZWwuaG9tZTEk
MCIGCSqGSIb3DQEJARYVcG9zdG1hc3RlckBndWVuZ2VsLmNoMIIBIjANBgkqhkiG
9w0BAQEFAAOCAQ8AMIIBCgKCAQEAzLguwVJ4ZVlWU45Dxh0Ttcy/V9cLPlyB5Oiu
/UFvUCWjulNx1LanxpuN3m+ARZW7UUTaNGD+6kC6BC4fZ/aPt0DdKX8Diq4TN+Xx
/a4yk+Uq3z9B3mr4yT4I+R3yMLGtkhDqbIoa5SFceOzlTH4EXmjYV3CpeqH9EjXg
C85biOe20nBOK2y6CG+TBDHfyXR4zCvT0qLAf2bSYIUfKmRrIQpKngBiJViJy3/3
D9r1vnfjE/fc+A37fWZL/Sf57pn6h/wc39v385wncMyXnzPCPbKQj4wFcF6k5e3W
1P8TwYla7tpkc8mL9E/xz0eCGJy/+Y7pkTr3BexqqoSlQg8jcQIDAQABo4IBGDCC
ARQwCQYDVR0TBAIwADAsBglghkgBhvhCAQ0EHxYdT3BlblNTTCBHZW5lcmF0ZWQg
Q2VydGlmaWNhdGUwHQYDVR0OBBYEFGo5XFW+vUIWOMJ0cmzJzCXMeKPtMIG5BgNV
HSMEgbEwga6AFNaI8arBKwmMuFydzt9XOWImECCQoYGKpIGHMIGEMQswCQYDVQQG
EwJDSDEQMA4GA1UECBMHVGh1cmdhdTEQMA4GA1UEBxMHS2VmaWtvbjETMBEGA1UE
ChMKZ3VlbmdlbC5jaDEWMBQGA1UEAxMNQ0EgZ3VlbmdlbC5jaDEkMCIGCSqGSIb3
DQEJARYVcG9zdG1hc3RlckBndWVuZ2VsLmNoggkA5SU7pne9y/8wDQYJKoZIhvcN
AQELBQADggIBACGX7fRA5Ahm6s0hsYbsXEMg14jEn3Oss7IAr2Q3Wy1ahv05m6AJ
g9CqVQcyiFsYeF1qkm8BRUkTGrOio6c/bsH9sWd0qb3iEG/3+4yEE5cAy1OrSxI0
iQAh2K84ItXnnpZ4XAjwITRAU4mjl3EwIrV01dHZMIr6IqJybQOewSo6Ll6zvNbq
F0rm6gIgcBl4ug+JoSkAFylE0jIEF2DQJ5tg66FECVfw51TKgcnY+rYm1igNUyRr
VA9HJJb+NACzYYWILZqn6P7hroFqFrmQUnURoQp9hfF1PboikGWm1PbAV+Dt/yBQ
sfUcLNoUJjHWYn/roSXLFqsRY9YSShxXIG+8SRV4a7vq+xlf8KSDUc0XIJUU8RKt
3irCksCYbThV6fH+2fAVA+eDciUDb7L95d2hayvxZuQlXUPL0/6R26kOxhvnPKNi
Z51fIcOdxxP9+DikziESiVcB1KMBlAxks2gVxw0MLGXEjyk4PuJ0q7LbMYxcC5QN
n4WLDJkUdWjMYRgRZVqBWRLJnnq+8Mbb21EwAcIHunTUFlJHBEnBKb7TQeoJA88n
yWWLfreMfqu8OpHo2INWIg+CLcAgeDABRkr94z9nsav89C9tRghP8e5EjqgGEThk
ZV+FdZpZvXUfcyzuxNq6rcd7G1FIsO4IeS+7fZi/G5CvFZcJo0XexsiV
-----END CERTIFICATE-----
