Certificate:
    Data:
        Version: 3 (0x2)
        Serial Number:
            15:76:04:49:29:6a:4d:aa:82:38:cf:de:8b:7d:d7:2a:0d:3e:b6:5b
        Signature Algorithm: sha256WithRSAEncryption
        Issuer: C=CH, ST=Thurgau, L=Kefikon, O=guengel.ch, CN=CA 2022/emailAddress=postmaster@guengel.ch
        Validity
            Not Before: Jan  3 14:04:36 2025 GMT
            Not After : Feb  7 14:04:36 2026 GMT
        Subject: C=CH, ST=Thurgau, O=guengel.ch, CN=sec-1/emailAddress=postmaster@guengel.ch
        Subject Public Key Info:
            Public Key Algorithm: rsaEncryption
                Public-Key: (2048 bit)
                Modulus:
                    00:d6:d2:ee:58:85:82:e4:88:f3:2d:c3:84:3a:ba:
                    33:8b:92:d7:1e:08:28:a2:4f:b6:ec:97:b8:e6:94:
                    47:91:e3:b8:23:58:4f:d2:01:25:94:a4:b9:72:bd:
                    a5:ae:04:80:c1:ec:65:0e:12:93:36:f6:aa:c5:b2:
                    e0:3b:1c:dd:0f:16:a9:58:17:75:25:68:71:cf:47:
                    6e:c3:e7:34:38:9f:ca:2d:c6:5c:3a:4a:6c:b3:3d:
                    ef:43:6f:5a:12:a1:e2:8c:4f:7d:45:5c:08:b7:0e:
                    02:d0:bd:66:04:5a:b7:66:f5:a1:4e:97:26:5f:e8:
                    01:39:8f:23:9d:14:63:39:5e:6e:68:92:3e:39:63:
                    bc:19:aa:cf:19:30:eb:69:9c:f5:9a:9c:a0:50:2a:
                    81:b4:b9:a2:65:c9:2a:ce:bd:01:0c:9c:ab:e7:66:
                    43:08:d2:8a:20:98:6b:cb:fb:35:e5:e0:a0:e1:b5:
                    70:db:1e:ab:76:ad:d5:fa:d3:b3:5b:6e:f4:d1:30:
                    ae:f2:8f:3c:a0:c9:9c:15:2c:11:13:25:2a:3c:e0:
                    c2:d7:90:74:70:8b:68:01:16:6a:77:82:4d:8f:6a:
                    c8:14:51:34:0c:17:0c:9d:d0:fc:70:4b:f7:fb:ec:
                    ff:8b:bd:63:ab:97:2c:ec:3d:05:e6:2f:d7:8d:36:
                    8e:57
                Exponent: 65537 (0x10001)
        X509v3 extensions:
            X509v3 Basic Constraints: critical
                CA:FALSE
            X509v3 Key Usage: 
                Digital Signature, Key Encipherment, Key Agreement
            X509v3 Subject Key Identifier: 
                37:F2:02:A6:46:4A:26:0A:52:99:D2:A2:74:98:70:EA:DE:BF:94:35
            X509v3 Authority Key Identifier: 
                keyid:22:20:0D:51:40:61:42:BE:DD:BA:D9:C9:C1:77:B6:93:28:C3:99:EC
                DirName:/C=CH/ST=Thurgau/L=Kefikon/O=guengel.ch/CN=CA 2022/emailAddress=postmaster@guengel.ch
                serial:6D:29:90:54:E9:17:E9:C2:6A:E6:52:AD:84:4E:30:8E:6E:57:FB:1C
            Netscape Cert Type: 
                SSL Client, SSL Server
            X509v3 Extended Key Usage: 
                TLS Web Server Authentication, TLS Web Client Authentication
    Signature Algorithm: sha256WithRSAEncryption
    Signature Value:
        59:c9:15:86:8b:0d:63:af:1b:ce:88:24:1b:b4:0d:35:3e:dd:
        08:00:17:45:62:d1:ef:c7:be:47:da:c0:86:95:73:ba:6c:61:
        2a:76:29:11:ab:b0:a6:54:29:47:ca:50:48:f6:e7:38:33:4b:
        63:ae:0f:ee:02:dc:a2:b7:fd:df:b8:42:e6:69:da:3b:b3:78:
        86:94:0e:b1:aa:18:9b:1d:6a:b8:4c:e5:88:7e:0c:6a:87:10:
        28:d8:2d:49:24:ea:7d:bc:ea:6f:89:42:77:3e:01:48:29:73:
        6e:db:80:87:31:92:50:3d:76:7c:a1:58:20:fb:22:d8:0b:1e:
        56:16:f3:26:38:79:3c:31:cd:a9:10:60:11:5d:cf:b2:e9:f7:
        36:80:43:e3:30:66:cc:2b:1f:e7:88:d0:99:9c:56:7b:91:a2:
        8f:eb:92:3b:6c:7a:f0:ac:d2:7d:be:9c:de:8f:5d:b3:a7:f4:
        62:98:bc:6f:95:c1:d4:cf:58:cc:84:e9:91:d9:27:fe:bc:0c:
        4f:07:a3:fe:56:4d:5d:23:98:db:fb:5c:36:d0:37:45:f9:f5:
        13:39:3b:18:1a:71:4e:b6:f5:f2:2a:a6:cb:26:31:f2:eb:25:
        2e:64:27:12:f4:01:c5:e2:b3:c9:08:b1:da:90:76:2e:38:6c:
        49:8f:c1:6b:92:fb:d2:fd:58:e2:ca:a9:39:25:0a:54:0f:7d:
        17:e2:85:4c:15:81:a3:42:de:cd:c2:43:f6:4f:bc:a3:fd:27:
        39:9b:04:28:9b:c4:49:d0:7e:13:09:e6:ba:c0:d4:2e:a9:3a:
        2b:ea:94:80:15:39:6a:86:5b:40:f6:4e:42:d3:d8:0a:04:17:
        a5:a6:1d:f8:f7:98:77:b8:43:34:58:d6:08:dc:32:25:02:04:
        68:50:55:9e:43:64:97:17:62:db:cb:f1:33:73:77:46:7a:eb:
        fe:88:db:c8:4b:b3:19:0c:35:54:2d:98:4c:3c:76:3f:f1:79:
        5e:8d:4a:4b:41:3b:f3:f8:f9:9a:76:86:fe:bd:bf:b3:43:03:
        b8:c2:59:e8:0a:59:66:95:c9:b3:d7:d1:06:3f:e9:a6:6c:12:
        c6:5a:28:1a:26:2e:8e:01:6e:92:f1:9c:b4:6a:06:a5:d1:c0:
        4d:9f:5b:2e:64:9c:3c:fd:1b:c0:d8:ba:81:02:48:88:3e:a3:
        5e:86:67:4a:dd:9a:86:89:b0:aa:4a:77:a6:b4:74:55:c0:ce:
        12:25:ec:bc:81:f0:38:33:25:16:9b:4a:4c:6e:d5:d7:4a:72:
        c9:63:c0:9a:46:10:10:81:73:87:bf:b0:18:7c:44:51:31:47:
        e4:e6:a0:7d:10:9a:de:79
-----BEGIN CERTIFICATE-----
MIIFqDCCA5CgAwIBAgIUFXYESSlqTaqCOM/ei33XKg0+tlswDQYJKoZIhvcNAQEL
BQAwfjELMAkGA1UEBhMCQ0gxEDAOBgNVBAgTB1RodXJnYXUxEDAOBgNVBAcTB0tl
Zmlrb24xEzARBgNVBAoTCmd1ZW5nZWwuY2gxEDAOBgNVBAMTB0NBIDIwMjIxJDAi
BgkqhkiG9w0BCQEWFXBvc3RtYXN0ZXJAZ3VlbmdlbC5jaDAeFw0yNTAxMDMxNDA0
MzZaFw0yNjAyMDcxNDA0MzZaMGoxCzAJBgNVBAYTAkNIMRAwDgYDVQQIEwdUaHVy
Z2F1MRMwEQYDVQQKEwpndWVuZ2VsLmNoMQ4wDAYDVQQDEwVzZWMtMTEkMCIGCSqG
SIb3DQEJARYVcG9zdG1hc3RlckBndWVuZ2VsLmNoMIIBIjANBgkqhkiG9w0BAQEF
AAOCAQ8AMIIBCgKCAQEA1tLuWIWC5IjzLcOEOrozi5LXHggook+27Je45pRHkeO4
I1hP0gEllKS5cr2lrgSAwexlDhKTNvaqxbLgOxzdDxapWBd1JWhxz0duw+c0OJ/K
LcZcOkpssz3vQ29aEqHijE99RVwItw4C0L1mBFq3ZvWhTpcmX+gBOY8jnRRjOV5u
aJI+OWO8GarPGTDraZz1mpygUCqBtLmiZckqzr0BDJyr52ZDCNKKIJhry/s15eCg
4bVw2x6rdq3V+tOzW2700TCu8o88oMmcFSwREyUqPODC15B0cItoARZqd4JNj2rI
FFE0DBcMndD8cEv3++z/i71jq5cs7D0F5i/XjTaOVwIDAQABo4IBMDCCASwwDAYD
VR0TAQH/BAIwADALBgNVHQ8EBAMCA6gwHQYDVR0OBBYEFDfyAqZGSiYKUpnSonSY
cOrev5Q1MIG9BgNVHSMEgbUwgbKAFCIgDVFAYUK+3brZycF3tpMow5nsoYGDpIGA
MH4xCzAJBgNVBAYTAkNIMRAwDgYDVQQIEwdUaHVyZ2F1MRAwDgYDVQQHEwdLZWZp
a29uMRMwEQYDVQQKEwpndWVuZ2VsLmNoMRAwDgYDVQQDEwdDQSAyMDIyMSQwIgYJ
KoZIhvcNAQkBFhVwb3N0bWFzdGVyQGd1ZW5nZWwuY2iCFG0pkFTpF+nCauZSrYRO
MI5uV/scMBEGCWCGSAGG+EIBAQQEAwIGwDAdBgNVHSUEFjAUBggrBgEFBQcDAQYI
KwYBBQUHAwIwDQYJKoZIhvcNAQELBQADggIBAFnJFYaLDWOvG86IJBu0DTU+3QgA
F0Vi0e/HvkfawIaVc7psYSp2KRGrsKZUKUfKUEj25zgzS2OuD+4C3KK3/d+4QuZp
2juzeIaUDrGqGJsdarhM5Yh+DGqHECjYLUkk6n286m+JQnc+AUgpc27bgIcxklA9
dnyhWCD7ItgLHlYW8yY4eTwxzakQYBFdz7Lp9zaAQ+MwZswrH+eI0JmcVnuRoo/r
kjtsevCs0n2+nN6PXbOn9GKYvG+VwdTPWMyE6ZHZJ/68DE8Ho/5WTV0jmNv7XDbQ
N0X59RM5OxgacU629fIqpssmMfLrJS5kJxL0AcXis8kIsdqQdi44bEmPwWuS+9L9
WOLKqTklClQPfRfihUwVgaNC3s3CQ/ZPvKP9JzmbBCibxEnQfhMJ5rrA1C6pOivq
lIAVOWqGW0D2TkLT2AoEF6WmHfj3mHe4QzRY1gjcMiUCBGhQVZ5DZJcXYtvL8TNz
d0Z66/6I28hLsxkMNVQtmEw8dj/xeV6NSktBO/P4+Zp2hv69v7NDA7jCWegKWWaV
ybPX0QY/6aZsEsZaKBomLo4BbpLxnLRqBqXRwE2fWy5knDz9G8DYuoECSIg+o16G
Z0rdmoaJsKpKd6a0dFXAzhIl7LyB8DgzJRabSkxu1ddKcsljwJpGEBCBc4e/sBh8
RFExR+TmoH0Qmt55
-----END CERTIFICATE-----
