Certificate:
    Data:
        Version: 3 (0x2)
        Serial Number: 446 (0x1be)
        Signature Algorithm: sha256WithRSAEncryption
        Issuer: C=CH, ST=Thurgau, L=Kefikon, O=guengel.ch, CN=CA guengel.ch/emailAddress=postmaster@guengel.ch
        Validity
            Not Before: Feb  6 15:23:24 2021 GMT
            Not After : Mar 13 15:23:24 2022 GMT
        Subject: C=CH, ST=Thurgau, O=guengel.ch, CN=sec-1/emailAddress=postmaster@guengel.ch
        Subject Public Key Info:
            Public Key Algorithm: rsaEncryption
                RSA Public-Key: (2048 bit)
                Modulus:
                    00:e7:39:19:29:95:1b:5b:c5:80:c6:56:b0:60:d2:
                    5f:0a:da:90:b6:1b:e2:59:74:8f:49:d6:e9:d8:3c:
                    41:6f:a3:75:35:27:d0:6a:15:dc:e3:2f:f6:f2:25:
                    88:ea:fc:ce:bb:43:e4:20:db:d4:6d:c7:a2:f2:82:
                    14:4c:5a:26:46:02:83:ba:07:cc:92:55:af:0e:5b:
                    05:1d:19:76:b6:46:f1:b4:c5:e0:41:5f:a3:ca:31:
                    65:5e:b6:e7:b9:fa:53:d2:1a:ee:e6:cb:4f:0b:c7:
                    88:87:ff:ca:1f:92:d8:d2:9b:de:d5:60:28:57:22:
                    74:a2:fa:d4:95:ad:a4:76:02:da:5b:cf:9d:30:22:
                    11:6d:91:29:be:13:da:f9:3e:2c:d9:b5:c6:e3:03:
                    17:3c:7b:5f:1f:e5:13:e9:bd:b3:43:9b:62:1f:a8:
                    a9:5b:11:b0:ce:62:e9:9c:4a:e6:21:ac:d1:93:5e:
                    97:d5:c0:02:9e:aa:e3:73:02:80:5f:f9:cf:73:48:
                    1a:40:5a:24:ff:15:17:17:2e:76:54:4d:6b:82:5b:
                    a2:ad:2a:9b:a1:1d:1d:c7:69:f0:6b:61:88:67:d5:
                    6d:4c:26:28:bd:53:5e:ba:15:c6:6a:77:74:8f:6a:
                    80:3d:79:69:8a:88:76:b5:57:8c:ab:93:60:48:29:
                    0d:69
                Exponent: 65537 (0x10001)
        X509v3 extensions:
            X509v3 Key Usage: 
                Digital Signature, Key Encipherment, Key Agreement
            X509v3 Basic Constraints: critical
                CA:FALSE
            Netscape Cert Type: 
                SSL Client, SSL Server
            X509v3 Extended Key Usage: 
                TLS Web Server Authentication, TLS Web Client Authentication
            X509v3 Subject Alternative Name: 
                DNS:sec-1
            X509v3 Subject Key Identifier: 
                B5:75:8F:57:8C:27:12:B3:D6:6A:1B:AF:7C:61:48:F8:33:3C:6C:0D
            X509v3 Authority Key Identifier: 
                keyid:D6:88:F1:AA:C1:2B:09:8C:B8:5C:9D:CE:DF:57:39:62:26:10:20:90
                DirName:/C=CH/ST=Thurgau/L=Kefikon/O=guengel.ch/CN=CA guengel.ch/emailAddress=postmaster@guengel.ch
                serial:E5:25:3B:A6:77:BD:CB:FF

    Signature Algorithm: sha256WithRSAEncryption
         19:2a:8d:7c:d6:64:5c:85:46:40:cf:b1:30:a4:4a:98:12:46:
         38:ac:4c:48:fa:18:75:e7:e5:94:cd:e0:5e:16:16:92:21:84:
         8d:a5:9c:e9:48:02:76:0d:63:45:0a:35:2e:7b:ad:6a:8c:f1:
         54:d1:aa:29:a0:1c:0c:85:b5:b0:da:f4:17:32:52:f2:26:38:
         8c:06:b6:07:e9:d0:5a:a1:8b:45:69:5d:94:d5:d2:8e:83:e9:
         e0:22:87:03:ca:ca:ed:23:82:11:f1:9e:db:a3:56:21:db:ed:
         fa:1b:d9:6b:f9:c7:8a:9e:b9:62:73:1c:ee:e9:f7:aa:33:de:
         0a:7d:94:8b:0a:aa:96:8c:8a:6f:27:c5:a4:ee:c9:d4:36:e8:
         03:36:fd:1a:b6:6a:fb:15:df:41:99:c1:10:f4:b2:32:fc:79:
         42:87:43:1b:a1:53:55:38:20:d9:a3:ea:56:f7:da:9a:8d:c9:
         b3:76:ed:d6:c2:7f:ca:fb:c3:1a:85:98:98:d1:a0:f4:02:0b:
         9c:e4:d2:ea:95:75:07:ba:b4:b5:eb:1a:86:67:57:d9:45:1e:
         86:26:e9:a2:6e:d5:37:f3:92:50:9c:2a:7e:71:81:85:50:8b:
         4b:0e:04:08:1d:fa:9d:c3:34:c8:9d:60:57:1b:26:39:ba:4d:
         45:3e:2a:70:1c:e2:f0:4f:ca:8d:ab:7f:db:4e:26:3d:ab:38:
         aa:30:84:77:c1:ef:ab:d2:3e:f0:47:f9:8c:0d:3d:0d:e0:d2:
         b6:68:8c:90:6e:9d:44:a2:e7:09:12:cc:db:03:72:16:10:04:
         c3:e1:20:e2:7d:61:68:22:ec:28:67:17:bf:1c:57:d1:b7:29:
         52:00:ad:e0:50:f3:c4:61:d4:66:6b:98:95:b1:b7:98:36:9a:
         f6:0a:15:33:b5:74:9a:64:5b:b8:13:7a:44:32:ce:d8:c0:12:
         d8:29:72:33:4c:7a:ed:02:02:16:fd:2e:84:3f:51:fe:8f:e6:
         25:58:09:26:b2:ad:af:b0:61:24:81:4a:07:c3:78:88:75:22:
         75:cb:21:04:04:cd:e7:39:7d:2a:31:ec:db:3a:d2:23:c5:18:
         48:21:1d:bf:7e:53:95:49:e3:0e:64:7c:fc:97:73:bc:3f:41:
         72:d3:2c:78:53:93:ba:0a:22:4f:74:3d:7e:a5:96:7e:a8:cc:
         6a:86:16:a6:4a:d6:08:bd:50:6e:3e:03:8d:f6:80:ef:78:1d:
         d6:ed:a4:66:15:3c:a7:04:5c:d0:64:38:47:d4:70:a4:98:c0:
         13:19:81:43:94:4d:fa:a0:34:8b:76:60:a8:18:5e:e6:51:b8:
         ba:b2:7c:12:4f:c2:64:b1
-----BEGIN CERTIFICATE-----
MIIFqzCCA5OgAwIBAgICAb4wDQYJKoZIhvcNAQELBQAwgYQxCzAJBgNVBAYTAkNI
MRAwDgYDVQQIEwdUaHVyZ2F1MRAwDgYDVQQHEwdLZWZpa29uMRMwEQYDVQQKEwpn
dWVuZ2VsLmNoMRYwFAYDVQQDEw1DQSBndWVuZ2VsLmNoMSQwIgYJKoZIhvcNAQkB
FhVwb3N0bWFzdGVyQGd1ZW5nZWwuY2gwHhcNMjEwMjA2MTUyMzI0WhcNMjIwMzEz
MTUyMzI0WjBqMQswCQYDVQQGEwJDSDEQMA4GA1UECBMHVGh1cmdhdTETMBEGA1UE
ChMKZ3VlbmdlbC5jaDEOMAwGA1UEAxMFc2VjLTExJDAiBgkqhkiG9w0BCQEWFXBv
c3RtYXN0ZXJAZ3VlbmdlbC5jaDCCASIwDQYJKoZIhvcNAQEBBQADggEPADCCAQoC
ggEBAOc5GSmVG1vFgMZWsGDSXwrakLYb4ll0j0nW6dg8QW+jdTUn0GoV3OMv9vIl
iOr8zrtD5CDb1G3HovKCFExaJkYCg7oHzJJVrw5bBR0ZdrZG8bTF4EFfo8oxZV62
57n6U9Ia7ubLTwvHiIf/yh+S2NKb3tVgKFcidKL61JWtpHYC2lvPnTAiEW2RKb4T
2vk+LNm1xuMDFzx7Xx/lE+m9s0ObYh+oqVsRsM5i6ZxK5iGs0ZNel9XAAp6q43MC
gF/5z3NIGkBaJP8VFxcudlRNa4Jboq0qm6EdHcdp8GthiGfVbUwmKL1TXroVxmp3
dI9qgD15aYqIdrVXjKuTYEgpDWkCAwEAAaOCAT4wggE6MAsGA1UdDwQEAwIDqDAM
BgNVHRMBAf8EAjAAMBEGCWCGSAGG+EIBAQQEAwIGwDAdBgNVHSUEFjAUBggrBgEF
BQcDAQYIKwYBBQUHAwIwEAYDVR0RBAkwB4IFc2VjLTEwHQYDVR0OBBYEFLV1j1eM
JxKz1mobr3xhSPgzPGwNMIG5BgNVHSMEgbEwga6AFNaI8arBKwmMuFydzt9XOWIm
ECCQoYGKpIGHMIGEMQswCQYDVQQGEwJDSDEQMA4GA1UECBMHVGh1cmdhdTEQMA4G
A1UEBxMHS2VmaWtvbjETMBEGA1UEChMKZ3VlbmdlbC5jaDEWMBQGA1UEAxMNQ0Eg
Z3VlbmdlbC5jaDEkMCIGCSqGSIb3DQEJARYVcG9zdG1hc3RlckBndWVuZ2VsLmNo
ggkA5SU7pne9y/8wDQYJKoZIhvcNAQELBQADggIBABkqjXzWZFyFRkDPsTCkSpgS
RjisTEj6GHXn5ZTN4F4WFpIhhI2lnOlIAnYNY0UKNS57rWqM8VTRqimgHAyFtbDa
9BcyUvImOIwGtgfp0Fqhi0VpXZTV0o6D6eAihwPKyu0jghHxntujViHb7fob2Wv5
x4qeuWJzHO7p96oz3gp9lIsKqpaMim8nxaTuydQ26AM2/Rq2avsV30GZwRD0sjL8
eUKHQxuhU1U4INmj6lb32pqNybN27dbCf8r7wxqFmJjRoPQCC5zk0uqVdQe6tLXr
GoZnV9lFHoYm6aJu1TfzklCcKn5xgYVQi0sOBAgd+p3DNMidYFcbJjm6TUU+KnAc
4vBPyo2rf9tOJj2rOKowhHfB76vSPvBH+YwNPQ3g0rZojJBunUSi5wkSzNsDchYQ
BMPhIOJ9YWgi7ChnF78cV9G3KVIAreBQ88Rh1GZrmJWxt5g2mvYKFTO1dJpkW7gT
ekQyztjAEtgpcjNMeu0CAhb9LoQ/Uf6P5iVYCSayra+wYSSBSgfDeIh1InXLIQQE
zec5fSox7Ns60iPFGEghHb9+U5VJ4w5kfPyXc7w/QXLTLHhTk7oKIk90PX6lln6o
zGqGFqZK1gi9UG4+A432gO94HdbtpGYVPKcEXNBkOEfUcKSYwBMZgUOUTfqgNIt2
YKgYXuZRuLqyfBJPwmSx
-----END CERTIFICATE-----
