Certificate:
    Data:
        Version: 3 (0x2)
        Serial Number: 476 (0x1dc)
        Signature Algorithm: sha256WithRSAEncryption
        Issuer: C=CH, ST=Thurgau, L=Kefikon, O=guengel.ch, CN=CA guengel.ch/emailAddress=postmaster@guengel.ch
        Validity
            Not Before: Feb 11 07:07:31 2022 GMT
            Not After : Mar 18 07:07:31 2023 GMT
        Subject: C=CH, ST=Thurgau, O=guengel.ch, CN=sec-1/emailAddress=postmaster@guengel.ch
        Subject Public Key Info:
            Public Key Algorithm: rsaEncryption
                RSA Public-Key: (2048 bit)
                Modulus:
                    00:e7:39:19:29:95:1b:5b:c5:80:c6:56:b0:60:d2:
                    5f:0a:da:90:b6:1b:e2:59:74:8f:49:d6:e9:d8:3c:
                    41:6f:a3:75:35:27:d0:6a:15:dc:e3:2f:f6:f2:25:
                    88:ea:fc:ce:bb:43:e4:20:db:d4:6d:c7:a2:f2:82:
                    14:4c:5a:26:46:02:83:ba:07:cc:92:55:af:0e:5b:
                    05:1d:19:76:b6:46:f1:b4:c5:e0:41:5f:a3:ca:31:
                    65:5e:b6:e7:b9:fa:53:d2:1a:ee:e6:cb:4f:0b:c7:
                    88:87:ff:ca:1f:92:d8:d2:9b:de:d5:60:28:57:22:
                    74:a2:fa:d4:95:ad:a4:76:02:da:5b:cf:9d:30:22:
                    11:6d:91:29:be:13:da:f9:3e:2c:d9:b5:c6:e3:03:
                    17:3c:7b:5f:1f:e5:13:e9:bd:b3:43:9b:62:1f:a8:
                    a9:5b:11:b0:ce:62:e9:9c:4a:e6:21:ac:d1:93:5e:
                    97:d5:c0:02:9e:aa:e3:73:02:80:5f:f9:cf:73:48:
                    1a:40:5a:24:ff:15:17:17:2e:76:54:4d:6b:82:5b:
                    a2:ad:2a:9b:a1:1d:1d:c7:69:f0:6b:61:88:67:d5:
                    6d:4c:26:28:bd:53:5e:ba:15:c6:6a:77:74:8f:6a:
                    80:3d:79:69:8a:88:76:b5:57:8c:ab:93:60:48:29:
                    0d:69
                Exponent: 65537 (0x10001)
        X509v3 extensions:
            X509v3 Key Usage: 
                Digital Signature, Key Encipherment, Key Agreement
            X509v3 Basic Constraints: critical
                CA:FALSE
            Netscape Cert Type: 
                SSL Client, SSL Server
            X509v3 Extended Key Usage: 
                TLS Web Server Authentication, TLS Web Client Authentication
            X509v3 Subject Alternative Name: 
                DNS:sec-1
            X509v3 Subject Key Identifier: 
                B5:75:8F:57:8C:27:12:B3:D6:6A:1B:AF:7C:61:48:F8:33:3C:6C:0D
            X509v3 Authority Key Identifier: 
                keyid:D6:88:F1:AA:C1:2B:09:8C:B8:5C:9D:CE:DF:57:39:62:26:10:20:90
                DirName:/C=CH/ST=Thurgau/L=Kefikon/O=guengel.ch/CN=CA guengel.ch/emailAddress=postmaster@guengel.ch
                serial:E5:25:3B:A6:77:BD:CB:FF

    Signature Algorithm: sha256WithRSAEncryption
         16:59:88:11:33:05:98:e3:25:6d:b9:00:da:7f:1b:78:b7:d3:
         1c:f6:4b:8c:64:95:94:98:ad:c5:09:61:8c:24:49:8b:3d:de:
         bf:6e:af:37:e7:0c:77:16:01:39:4a:a1:d1:05:ec:47:df:8d:
         62:5c:ad:56:80:2a:67:29:37:32:a8:e3:76:54:69:f4:6b:9f:
         c0:c0:b3:fe:32:49:e7:5a:28:fd:f6:c9:0c:e3:4a:07:b5:34:
         7a:94:6d:d1:f4:b2:a6:99:e2:35:05:62:92:f6:19:95:77:ab:
         7b:e2:5a:f3:41:ea:71:44:07:ea:ee:96:3d:26:37:8a:16:51:
         f2:7b:f3:7b:84:52:99:9a:26:50:2a:cf:e8:13:14:4c:d4:3b:
         c5:04:25:57:82:9f:0e:46:c3:03:f4:5e:1c:df:b0:81:21:fb:
         21:f2:c0:d6:52:b1:e4:ed:e4:6c:58:91:d5:03:cc:38:ac:a1:
         63:b6:40:fd:af:55:74:11:90:e0:4b:9e:b2:ed:98:c4:70:df:
         7c:5e:e8:4e:bd:08:b4:fd:74:a0:3f:61:e4:79:e5:d5:de:78:
         64:67:64:fd:c6:aa:d5:ed:a6:10:01:07:e8:73:c4:23:ad:ee:
         ec:09:14:c9:ee:a2:e7:63:5e:7e:cd:f1:7a:3e:97:30:fe:3c:
         0e:af:ca:de:51:e5:84:5a:8e:40:84:57:30:66:84:62:6c:f5:
         f6:30:eb:e9:26:3b:36:f5:77:5a:3b:d9:2c:7e:74:fb:84:52:
         7e:9d:a7:e4:90:e7:8b:d1:80:a7:32:1d:97:60:62:59:fc:23:
         ad:6c:be:f9:13:1d:60:b0:3d:76:a5:dd:0a:45:7e:4f:7e:f8:
         87:f3:a5:61:9a:ef:00:14:38:04:ff:30:8e:f0:14:a2:bf:f9:
         8e:58:be:c6:61:d5:57:d9:30:96:2f:83:b5:ba:ca:f4:6f:3f:
         d6:fe:48:a9:2c:8b:8d:7a:9b:2b:91:9b:d1:de:92:23:90:a8:
         4b:9d:6d:9b:96:96:0e:4f:a1:98:30:f7:f3:96:60:8c:34:86:
         1e:03:12:5e:74:b4:65:3f:bc:9b:c8:dc:79:a5:31:ba:cf:30:
         90:05:b8:4d:4b:c0:06:21:3c:88:e0:c1:a8:58:76:4a:cc:84:
         96:8c:9e:fb:e0:f0:55:d2:1e:50:f7:da:89:5e:cf:a7:b2:54:
         fb:1f:b7:64:c7:de:88:02:f9:e8:6d:b0:20:30:65:ea:f1:17:
         ab:b9:e8:f3:be:b9:a8:64:d0:42:69:11:37:95:4c:25:01:a1:
         15:74:af:18:ff:11:04:a1:6d:97:ed:f4:16:f5:5a:4f:c0:95:
         ae:88:a2:e5:60:32:bb:b4
-----BEGIN CERTIFICATE-----
MIIFqzCCA5OgAwIBAgICAdwwDQYJKoZIhvcNAQELBQAwgYQxCzAJBgNVBAYTAkNI
MRAwDgYDVQQIEwdUaHVyZ2F1MRAwDgYDVQQHEwdLZWZpa29uMRMwEQYDVQQKEwpn
dWVuZ2VsLmNoMRYwFAYDVQQDEw1DQSBndWVuZ2VsLmNoMSQwIgYJKoZIhvcNAQkB
FhVwb3N0bWFzdGVyQGd1ZW5nZWwuY2gwHhcNMjIwMjExMDcwNzMxWhcNMjMwMzE4
MDcwNzMxWjBqMQswCQYDVQQGEwJDSDEQMA4GA1UECBMHVGh1cmdhdTETMBEGA1UE
ChMKZ3VlbmdlbC5jaDEOMAwGA1UEAxMFc2VjLTExJDAiBgkqhkiG9w0BCQEWFXBv
c3RtYXN0ZXJAZ3VlbmdlbC5jaDCCASIwDQYJKoZIhvcNAQEBBQADggEPADCCAQoC
ggEBAOc5GSmVG1vFgMZWsGDSXwrakLYb4ll0j0nW6dg8QW+jdTUn0GoV3OMv9vIl
iOr8zrtD5CDb1G3HovKCFExaJkYCg7oHzJJVrw5bBR0ZdrZG8bTF4EFfo8oxZV62
57n6U9Ia7ubLTwvHiIf/yh+S2NKb3tVgKFcidKL61JWtpHYC2lvPnTAiEW2RKb4T
2vk+LNm1xuMDFzx7Xx/lE+m9s0ObYh+oqVsRsM5i6ZxK5iGs0ZNel9XAAp6q43MC
gF/5z3NIGkBaJP8VFxcudlRNa4Jboq0qm6EdHcdp8GthiGfVbUwmKL1TXroVxmp3
dI9qgD15aYqIdrVXjKuTYEgpDWkCAwEAAaOCAT4wggE6MAsGA1UdDwQEAwIDqDAM
BgNVHRMBAf8EAjAAMBEGCWCGSAGG+EIBAQQEAwIGwDAdBgNVHSUEFjAUBggrBgEF
BQcDAQYIKwYBBQUHAwIwEAYDVR0RBAkwB4IFc2VjLTEwHQYDVR0OBBYEFLV1j1eM
JxKz1mobr3xhSPgzPGwNMIG5BgNVHSMEgbEwga6AFNaI8arBKwmMuFydzt9XOWIm
ECCQoYGKpIGHMIGEMQswCQYDVQQGEwJDSDEQMA4GA1UECBMHVGh1cmdhdTEQMA4G
A1UEBxMHS2VmaWtvbjETMBEGA1UEChMKZ3VlbmdlbC5jaDEWMBQGA1UEAxMNQ0Eg
Z3VlbmdlbC5jaDEkMCIGCSqGSIb3DQEJARYVcG9zdG1hc3RlckBndWVuZ2VsLmNo
ggkA5SU7pne9y/8wDQYJKoZIhvcNAQELBQADggIBABZZiBEzBZjjJW25ANp/G3i3
0xz2S4xklZSYrcUJYYwkSYs93r9urzfnDHcWATlKodEF7EffjWJcrVaAKmcpNzKo
43ZUafRrn8DAs/4ySedaKP32yQzjSge1NHqUbdH0sqaZ4jUFYpL2GZV3q3viWvNB
6nFEB+rulj0mN4oWUfJ783uEUpmaJlAqz+gTFEzUO8UEJVeCnw5GwwP0XhzfsIEh
+yHywNZSseTt5GxYkdUDzDisoWO2QP2vVXQRkOBLnrLtmMRw33xe6E69CLT9dKA/
YeR55dXeeGRnZP3GqtXtphABB+hzxCOt7uwJFMnuoudjXn7N8Xo+lzD+PA6vyt5R
5YRajkCEVzBmhGJs9fYw6+kmOzb1d1o72Sx+dPuEUn6dp+SQ54vRgKcyHZdgYln8
I61svvkTHWCwPXal3QpFfk9++IfzpWGa7wAUOAT/MI7wFKK/+Y5YvsZh1VfZMJYv
g7W6yvRvP9b+SKksi416myuRm9HekiOQqEudbZuWlg5PoZgw9/OWYIw0hh4DEl50
tGU/vJvI3HmlMbrPMJAFuE1LwAYhPIjgwahYdkrMhJaMnvvg8FXSHlD32olez6ey
VPsft2TH3ogC+ehtsCAwZerxF6u56PO+uahk0EJpETeVTCUBoRV0rxj/EQShbZft
9Bb1Wk/Ala6IouVgMru0
-----END CERTIFICATE-----
