Certificate:
    Data:
        Version: 3 (0x2)
        Serial Number:
            4a:60:00:4e:ad:05:b7:1e:ea:6a:48:26:2e:5d:64:a8:1c:01:7f:04
        Signature Algorithm: sha256WithRSAEncryption
        Issuer: C=CH, ST=Thurgau, L=Kefikon, O=guengel.ch, CN=CA 2022/emailAddress=postmaster@guengel.ch
        Validity
            Not Before: Dec 30 08:48:55 2023 GMT
            Not After : Feb  2 08:48:55 2025 GMT
        Subject: C=CH, ST=Thurgau, O=guengel.ch, CN=sec-1/emailAddress=postmaster@guengel.ch
        Subject Public Key Info:
            Public Key Algorithm: rsaEncryption
                RSA Public-Key: (2048 bit)
                Modulus:
                    00:d6:d2:ee:58:85:82:e4:88:f3:2d:c3:84:3a:ba:
                    33:8b:92:d7:1e:08:28:a2:4f:b6:ec:97:b8:e6:94:
                    47:91:e3:b8:23:58:4f:d2:01:25:94:a4:b9:72:bd:
                    a5:ae:04:80:c1:ec:65:0e:12:93:36:f6:aa:c5:b2:
                    e0:3b:1c:dd:0f:16:a9:58:17:75:25:68:71:cf:47:
                    6e:c3:e7:34:38:9f:ca:2d:c6:5c:3a:4a:6c:b3:3d:
                    ef:43:6f:5a:12:a1:e2:8c:4f:7d:45:5c:08:b7:0e:
                    02:d0:bd:66:04:5a:b7:66:f5:a1:4e:97:26:5f:e8:
                    01:39:8f:23:9d:14:63:39:5e:6e:68:92:3e:39:63:
                    bc:19:aa:cf:19:30:eb:69:9c:f5:9a:9c:a0:50:2a:
                    81:b4:b9:a2:65:c9:2a:ce:bd:01:0c:9c:ab:e7:66:
                    43:08:d2:8a:20:98:6b:cb:fb:35:e5:e0:a0:e1:b5:
                    70:db:1e:ab:76:ad:d5:fa:d3:b3:5b:6e:f4:d1:30:
                    ae:f2:8f:3c:a0:c9:9c:15:2c:11:13:25:2a:3c:e0:
                    c2:d7:90:74:70:8b:68:01:16:6a:77:82:4d:8f:6a:
                    c8:14:51:34:0c:17:0c:9d:d0:fc:70:4b:f7:fb:ec:
                    ff:8b:bd:63:ab:97:2c:ec:3d:05:e6:2f:d7:8d:36:
                    8e:57
                Exponent: 65537 (0x10001)
        X509v3 extensions:
            X509v3 Basic Constraints: critical
                CA:FALSE
            X509v3 Key Usage: 
                Digital Signature, Key Encipherment, Key Agreement
            X509v3 Subject Key Identifier: 
                37:F2:02:A6:46:4A:26:0A:52:99:D2:A2:74:98:70:EA:DE:BF:94:35
            X509v3 Authority Key Identifier: 
                keyid:22:20:0D:51:40:61:42:BE:DD:BA:D9:C9:C1:77:B6:93:28:C3:99:EC
                DirName:/C=CH/ST=Thurgau/L=Kefikon/O=guengel.ch/CN=CA 2022/emailAddress=postmaster@guengel.ch
                serial:6D:29:90:54:E9:17:E9:C2:6A:E6:52:AD:84:4E:30:8E:6E:57:FB:1C

            Netscape Cert Type: 
                SSL Client, SSL Server
            X509v3 Extended Key Usage: 
                TLS Web Server Authentication, TLS Web Client Authentication
    Signature Algorithm: sha256WithRSAEncryption
         8c:f5:b4:14:25:cc:4a:8c:27:41:34:ee:db:ea:ac:1e:62:f8:
         e8:21:4d:d3:5d:db:40:c6:83:f1:ee:e7:64:32:23:ba:a5:87:
         b2:13:22:18:c6:70:c7:73:1a:ce:2d:8d:5b:aa:fe:f1:fa:04:
         aa:38:0b:2b:34:05:06:ca:27:53:ff:1e:e1:52:4f:d2:d3:f6:
         07:c3:b9:d1:5b:c3:28:86:cb:b8:78:cc:88:62:5b:80:6c:11:
         f6:2e:ee:52:88:35:a9:b4:f0:ee:32:85:3a:25:bc:8e:70:99:
         ad:75:47:ea:8e:84:55:2f:ad:ff:59:db:f1:4b:c7:76:fe:0a:
         1c:58:8d:31:eb:85:e5:24:8a:f8:4f:81:06:fe:ef:c2:f3:39:
         da:76:8f:da:cf:eb:18:89:7d:d7:0a:98:7d:71:9f:45:31:d4:
         cf:14:21:66:6e:27:06:60:ad:85:98:06:cf:17:ba:7b:a7:e9:
         2f:44:c1:8b:3b:65:76:0c:24:af:80:a7:7e:69:1a:f6:5d:58:
         9b:0b:83:73:50:d1:6f:6d:f6:e3:c5:17:a6:d5:55:e6:79:8d:
         61:21:e6:b2:34:60:b3:cf:af:a9:93:2c:12:50:75:86:a7:a8:
         aa:86:aa:e5:3a:5a:6e:ef:97:3a:82:55:75:ad:5a:94:bc:2b:
         d4:e9:ed:5a:80:d3:31:06:18:2b:59:c5:d1:b8:7e:70:5f:6e:
         c3:a1:86:01:86:88:89:a2:ce:1d:8b:ab:b6:5d:49:68:06:c0:
         48:a9:d3:b1:c7:2a:9a:f7:e6:75:32:69:64:57:e3:ae:18:48:
         0b:ad:82:33:35:40:93:70:ad:72:ed:3d:ca:61:2e:83:83:b4:
         31:66:5a:68:0c:b1:ab:31:e0:12:3c:d0:90:7d:26:bf:c1:f1:
         84:bc:ae:51:5c:bf:78:d5:92:e2:68:82:30:86:20:eb:e1:d3:
         3b:68:a0:c0:96:2f:aa:ab:f6:de:b4:a0:b2:bb:13:1f:31:d6:
         d0:53:b1:6f:c5:4d:27:8f:79:2c:5c:2b:51:ab:8c:c2:64:2c:
         f3:6e:f2:d2:88:55:01:d8:e2:cc:c3:f4:ab:5b:10:4e:80:f0:
         03:56:9b:a9:65:df:09:b2:5a:31:9c:32:2d:da:bb:dd:b8:8d:
         a1:f8:87:b0:62:42:9d:ff:12:88:88:7d:14:dd:c1:03:6c:31:
         59:0a:22:aa:03:ab:3e:06:55:ed:c2:47:7d:ab:09:d3:f8:62:
         32:77:2b:49:86:fa:82:3a:1b:d4:b3:bb:09:84:19:e8:c2:7b:
         59:1a:35:00:dc:85:57:33:51:5d:e7:46:13:26:07:e4:79:72:
         56:b1:22:4e:b9:64:08:d8
-----BEGIN CERTIFICATE-----
MIIFqDCCA5CgAwIBAgIUSmAATq0Ftx7qakgmLl1kqBwBfwQwDQYJKoZIhvcNAQEL
BQAwfjELMAkGA1UEBhMCQ0gxEDAOBgNVBAgTB1RodXJnYXUxEDAOBgNVBAcTB0tl
Zmlrb24xEzARBgNVBAoTCmd1ZW5nZWwuY2gxEDAOBgNVBAMTB0NBIDIwMjIxJDAi
BgkqhkiG9w0BCQEWFXBvc3RtYXN0ZXJAZ3VlbmdlbC5jaDAeFw0yMzEyMzAwODQ4
NTVaFw0yNTAyMDIwODQ4NTVaMGoxCzAJBgNVBAYTAkNIMRAwDgYDVQQIEwdUaHVy
Z2F1MRMwEQYDVQQKEwpndWVuZ2VsLmNoMQ4wDAYDVQQDEwVzZWMtMTEkMCIGCSqG
SIb3DQEJARYVcG9zdG1hc3RlckBndWVuZ2VsLmNoMIIBIjANBgkqhkiG9w0BAQEF
AAOCAQ8AMIIBCgKCAQEA1tLuWIWC5IjzLcOEOrozi5LXHggook+27Je45pRHkeO4
I1hP0gEllKS5cr2lrgSAwexlDhKTNvaqxbLgOxzdDxapWBd1JWhxz0duw+c0OJ/K
LcZcOkpssz3vQ29aEqHijE99RVwItw4C0L1mBFq3ZvWhTpcmX+gBOY8jnRRjOV5u
aJI+OWO8GarPGTDraZz1mpygUCqBtLmiZckqzr0BDJyr52ZDCNKKIJhry/s15eCg
4bVw2x6rdq3V+tOzW2700TCu8o88oMmcFSwREyUqPODC15B0cItoARZqd4JNj2rI
FFE0DBcMndD8cEv3++z/i71jq5cs7D0F5i/XjTaOVwIDAQABo4IBMDCCASwwDAYD
VR0TAQH/BAIwADALBgNVHQ8EBAMCA6gwHQYDVR0OBBYEFDfyAqZGSiYKUpnSonSY
cOrev5Q1MIG9BgNVHSMEgbUwgbKAFCIgDVFAYUK+3brZycF3tpMow5nsoYGDpIGA
MH4xCzAJBgNVBAYTAkNIMRAwDgYDVQQIEwdUaHVyZ2F1MRAwDgYDVQQHEwdLZWZp
a29uMRMwEQYDVQQKEwpndWVuZ2VsLmNoMRAwDgYDVQQDEwdDQSAyMDIyMSQwIgYJ
KoZIhvcNAQkBFhVwb3N0bWFzdGVyQGd1ZW5nZWwuY2iCFG0pkFTpF+nCauZSrYRO
MI5uV/scMBEGCWCGSAGG+EIBAQQEAwIGwDAdBgNVHSUEFjAUBggrBgEFBQcDAQYI
KwYBBQUHAwIwDQYJKoZIhvcNAQELBQADggIBAIz1tBQlzEqMJ0E07tvqrB5i+Ogh
TdNd20DGg/Hu52QyI7qlh7ITIhjGcMdzGs4tjVuq/vH6BKo4Cys0BQbKJ1P/HuFS
T9LT9gfDudFbwyiGy7h4zIhiW4BsEfYu7lKINam08O4yhTolvI5wma11R+qOhFUv
rf9Z2/FLx3b+ChxYjTHrheUkivhPgQb+78LzOdp2j9rP6xiJfdcKmH1xn0Ux1M8U
IWZuJwZgrYWYBs8Xunun6S9EwYs7ZXYMJK+Ap35pGvZdWJsLg3NQ0W9t9uPFF6bV
VeZ5jWEh5rI0YLPPr6mTLBJQdYanqKqGquU6Wm7vlzqCVXWtWpS8K9Tp7VqA0zEG
GCtZxdG4fnBfbsOhhgGGiImizh2Lq7ZdSWgGwEip07HHKpr35nUyaWRX464YSAut
gjM1QJNwrXLtPcphLoODtDFmWmgMsasx4BI80JB9Jr/B8YS8rlFcv3jVkuJogjCG
IOvh0ztooMCWL6qr9t60oLK7Ex8x1tBTsW/FTSePeSxcK1GrjMJkLPNu8tKIVQHY
4szD9KtbEE6A8ANWm6ll3wmyWjGcMi3au924jaH4h7BiQp3/EoiIfRTdwQNsMVkK
IqoDqz4GVe3CR32rCdP4YjJ3K0mG+oI6G9SzuwmEGejCe1kaNQDchVczUV3nRhMm
B+R5claxIk65ZAjY
-----END CERTIFICATE-----
