Certificate:
    Data:
        Version: 3 (0x2)
        Serial Number:
            28:d1:76:89:56:8a:aa:16:97:86:40:30:59:15:1d:07:ff:0e:c5:25
        Signature Algorithm: sha256WithRSAEncryption
        Issuer: C=CH, ST=Thurgau, L=Kefikon, O=guengel.ch, CN=CA 2022/emailAddress=postmaster@guengel.ch
        Validity
            Not Before: Feb 11 13:57:30 2022 GMT
            Not After : Mar 18 13:57:30 2023 GMT
        Subject: C=CH, ST=Thurgau, O=guengel.ch, CN=sec-1/emailAddress=postmaster@guengel.ch
        Subject Public Key Info:
            Public Key Algorithm: rsaEncryption
                RSA Public-Key: (2048 bit)
                Modulus:
                    00:d6:d2:ee:58:85:82:e4:88:f3:2d:c3:84:3a:ba:
                    33:8b:92:d7:1e:08:28:a2:4f:b6:ec:97:b8:e6:94:
                    47:91:e3:b8:23:58:4f:d2:01:25:94:a4:b9:72:bd:
                    a5:ae:04:80:c1:ec:65:0e:12:93:36:f6:aa:c5:b2:
                    e0:3b:1c:dd:0f:16:a9:58:17:75:25:68:71:cf:47:
                    6e:c3:e7:34:38:9f:ca:2d:c6:5c:3a:4a:6c:b3:3d:
                    ef:43:6f:5a:12:a1:e2:8c:4f:7d:45:5c:08:b7:0e:
                    02:d0:bd:66:04:5a:b7:66:f5:a1:4e:97:26:5f:e8:
                    01:39:8f:23:9d:14:63:39:5e:6e:68:92:3e:39:63:
                    bc:19:aa:cf:19:30:eb:69:9c:f5:9a:9c:a0:50:2a:
                    81:b4:b9:a2:65:c9:2a:ce:bd:01:0c:9c:ab:e7:66:
                    43:08:d2:8a:20:98:6b:cb:fb:35:e5:e0:a0:e1:b5:
                    70:db:1e:ab:76:ad:d5:fa:d3:b3:5b:6e:f4:d1:30:
                    ae:f2:8f:3c:a0:c9:9c:15:2c:11:13:25:2a:3c:e0:
                    c2:d7:90:74:70:8b:68:01:16:6a:77:82:4d:8f:6a:
                    c8:14:51:34:0c:17:0c:9d:d0:fc:70:4b:f7:fb:ec:
                    ff:8b:bd:63:ab:97:2c:ec:3d:05:e6:2f:d7:8d:36:
                    8e:57
                Exponent: 65537 (0x10001)
        X509v3 extensions:
            X509v3 Basic Constraints: critical
                CA:FALSE
            X509v3 Key Usage: 
                Digital Signature, Key Encipherment, Key Agreement
            X509v3 Subject Key Identifier: 
                37:F2:02:A6:46:4A:26:0A:52:99:D2:A2:74:98:70:EA:DE:BF:94:35
            X509v3 Authority Key Identifier: 
                keyid:22:20:0D:51:40:61:42:BE:DD:BA:D9:C9:C1:77:B6:93:28:C3:99:EC
                DirName:/C=CH/ST=Thurgau/L=Kefikon/O=guengel.ch/CN=CA 2022/emailAddress=postmaster@guengel.ch
                serial:6D:29:90:54:E9:17:E9:C2:6A:E6:52:AD:84:4E:30:8E:6E:57:FB:1C

            Netscape Cert Type: 
                SSL Client, SSL Server
            X509v3 Extended Key Usage: 
                TLS Web Server Authentication, TLS Web Client Authentication
    Signature Algorithm: sha256WithRSAEncryption
         b6:c6:29:79:c8:8b:e8:62:de:d6:2f:3d:cc:81:7b:83:e1:6c:
         f4:e1:cc:7a:84:38:94:3d:25:60:d4:ad:81:0f:82:43:8d:74:
         6d:47:a6:4b:a7:67:48:e9:50:44:03:fe:59:bd:42:c2:48:c3:
         6b:8e:42:86:0a:aa:e2:df:09:be:2d:dc:14:f0:6d:61:53:b0:
         a9:52:a6:77:04:07:93:e5:3c:3b:87:7c:04:07:d0:26:1e:ae:
         4b:ad:55:46:c0:05:82:a0:18:de:00:f7:4f:54:63:62:c5:01:
         4b:dc:91:ae:99:6f:f0:36:6a:4a:58:c0:28:1e:3f:38:af:a0:
         b6:af:c0:69:b5:75:90:71:58:9b:18:7f:1f:0b:1b:82:bb:3c:
         9b:e3:ae:2c:ec:8e:06:5d:31:fd:f7:20:01:94:69:e3:c2:f8:
         d9:41:e6:8b:70:96:e0:d1:8b:90:a2:16:42:a1:0e:75:f1:84:
         8e:f0:22:5c:9e:9c:90:a5:6f:fc:93:3c:e4:72:36:61:98:2b:
         e0:17:1a:ad:5e:7c:8d:a5:bb:30:fa:cf:7c:66:ee:38:5e:d3:
         3d:0e:91:9b:92:72:4e:95:8b:0e:db:f6:b0:15:a3:03:2b:a9:
         9a:df:36:0d:82:5c:c3:ca:99:9a:73:2c:8b:1c:d9:69:60:38:
         4d:85:69:0b:49:f4:13:e0:01:f9:d6:cc:e8:e4:80:0c:12:a7:
         de:f4:5e:04:af:be:fa:65:c4:76:bf:5d:ad:f8:ff:a6:18:a7:
         57:56:7d:68:3e:ba:93:ab:6c:66:88:a6:4a:f3:05:95:4e:8b:
         18:56:58:83:b2:cd:a4:c7:ae:72:8d:63:73:9d:52:9b:0b:70:
         dd:97:2f:04:cb:4a:27:ac:95:c4:1f:6c:a4:41:e3:e8:dd:ba:
         28:65:e6:bb:97:5c:12:7b:2b:99:21:a1:2d:6f:5a:3d:71:83:
         80:3e:d5:7e:95:35:76:39:20:d7:6c:e2:0e:87:c4:bc:04:d8:
         11:20:40:a0:93:0e:f8:26:60:f3:e3:bd:8d:f6:0c:0b:48:1b:
         86:92:23:81:d6:a4:eb:5b:2a:66:e5:30:29:1b:63:be:52:b6:
         ca:1b:46:06:41:b9:c4:1c:2e:3d:77:6b:94:ff:98:11:de:97:
         ee:88:c2:78:6d:28:41:4c:e6:26:67:20:1a:8f:28:a3:19:26:
         69:94:a5:03:56:4e:3b:71:dc:1a:cf:40:94:91:76:6e:47:cb:
         42:b9:2e:0a:2d:e9:60:9b:c8:93:ff:23:f5:60:3e:31:a1:ee:
         67:07:c8:0a:db:ff:cf:35:9e:8f:ff:27:3e:56:ac:9d:b1:8c:
         7a:4e:be:8d:34:11:35:55
-----BEGIN CERTIFICATE-----
MIIFqDCCA5CgAwIBAgIUKNF2iVaKqhaXhkAwWRUdB/8OxSUwDQYJKoZIhvcNAQEL
BQAwfjELMAkGA1UEBhMCQ0gxEDAOBgNVBAgTB1RodXJnYXUxEDAOBgNVBAcTB0tl
Zmlrb24xEzARBgNVBAoTCmd1ZW5nZWwuY2gxEDAOBgNVBAMTB0NBIDIwMjIxJDAi
BgkqhkiG9w0BCQEWFXBvc3RtYXN0ZXJAZ3VlbmdlbC5jaDAeFw0yMjAyMTExMzU3
MzBaFw0yMzAzMTgxMzU3MzBaMGoxCzAJBgNVBAYTAkNIMRAwDgYDVQQIEwdUaHVy
Z2F1MRMwEQYDVQQKEwpndWVuZ2VsLmNoMQ4wDAYDVQQDEwVzZWMtMTEkMCIGCSqG
SIb3DQEJARYVcG9zdG1hc3RlckBndWVuZ2VsLmNoMIIBIjANBgkqhkiG9w0BAQEF
AAOCAQ8AMIIBCgKCAQEA1tLuWIWC5IjzLcOEOrozi5LXHggook+27Je45pRHkeO4
I1hP0gEllKS5cr2lrgSAwexlDhKTNvaqxbLgOxzdDxapWBd1JWhxz0duw+c0OJ/K
LcZcOkpssz3vQ29aEqHijE99RVwItw4C0L1mBFq3ZvWhTpcmX+gBOY8jnRRjOV5u
aJI+OWO8GarPGTDraZz1mpygUCqBtLmiZckqzr0BDJyr52ZDCNKKIJhry/s15eCg
4bVw2x6rdq3V+tOzW2700TCu8o88oMmcFSwREyUqPODC15B0cItoARZqd4JNj2rI
FFE0DBcMndD8cEv3++z/i71jq5cs7D0F5i/XjTaOVwIDAQABo4IBMDCCASwwDAYD
VR0TAQH/BAIwADALBgNVHQ8EBAMCA6gwHQYDVR0OBBYEFDfyAqZGSiYKUpnSonSY
cOrev5Q1MIG9BgNVHSMEgbUwgbKAFCIgDVFAYUK+3brZycF3tpMow5nsoYGDpIGA
MH4xCzAJBgNVBAYTAkNIMRAwDgYDVQQIEwdUaHVyZ2F1MRAwDgYDVQQHEwdLZWZp
a29uMRMwEQYDVQQKEwpndWVuZ2VsLmNoMRAwDgYDVQQDEwdDQSAyMDIyMSQwIgYJ
KoZIhvcNAQkBFhVwb3N0bWFzdGVyQGd1ZW5nZWwuY2iCFG0pkFTpF+nCauZSrYRO
MI5uV/scMBEGCWCGSAGG+EIBAQQEAwIGwDAdBgNVHSUEFjAUBggrBgEFBQcDAQYI
KwYBBQUHAwIwDQYJKoZIhvcNAQELBQADggIBALbGKXnIi+hi3tYvPcyBe4PhbPTh
zHqEOJQ9JWDUrYEPgkONdG1HpkunZ0jpUEQD/lm9QsJIw2uOQoYKquLfCb4t3BTw
bWFTsKlSpncEB5PlPDuHfAQH0CYerkutVUbABYKgGN4A909UY2LFAUvcka6Zb/A2
akpYwCgePzivoLavwGm1dZBxWJsYfx8LG4K7PJvjrizsjgZdMf33IAGUaePC+NlB
5otwluDRi5CiFkKhDnXxhI7wIlyenJClb/yTPORyNmGYK+AXGq1efI2luzD6z3xm
7jhe0z0OkZuSck6Viw7b9rAVowMrqZrfNg2CXMPKmZpzLIsc2WlgOE2FaQtJ9BPg
AfnWzOjkgAwSp970XgSvvvplxHa/Xa34/6YYp1dWfWg+upOrbGaIpkrzBZVOixhW
WIOyzaTHrnKNY3OdUpsLcN2XLwTLSieslcQfbKRB4+jduihl5ruXXBJ7K5khoS1v
Wj1xg4A+1X6VNXY5INds4g6HxLwE2BEgQKCTDvgmYPPjvY32DAtIG4aSI4HWpOtb
KmblMCkbY75StsobRgZBucQcLj13a5T/mBHel+6IwnhtKEFM5iZnIBqPKKMZJmmU
pQNWTjtx3BrPQJSRdm5Hy0K5Lgot6WCbyJP/I/VgPjGh7mcHyArb/881no//Jz5W
rJ2xjHpOvo00ETVV
-----END CERTIFICATE-----
