Certificate:
    Data:
        Version: 3 (0x2)
        Serial Number:
            11:d3:b2:2b:d5:90:04:3c:e1:27:e5:28:49:d1:bd:66:7d:39:7d:44
        Signature Algorithm: sha256WithRSAEncryption
        Issuer: C=CH, ST=Thurgau, L=Kefikon, O=guengel.ch, CN=CA 2022/emailAddress=postmaster@guengel.ch
        Validity
            Not Before: Feb 28 06:43:04 2023 GMT
            Not After : Apr  3 06:43:04 2024 GMT
        Subject: C=CH, ST=Thurgau, O=guengel.ch, CN=sec-1/emailAddress=postmaster@guengel.ch
        Subject Public Key Info:
            Public Key Algorithm: rsaEncryption
                RSA Public-Key: (2048 bit)
                Modulus:
                    00:d6:d2:ee:58:85:82:e4:88:f3:2d:c3:84:3a:ba:
                    33:8b:92:d7:1e:08:28:a2:4f:b6:ec:97:b8:e6:94:
                    47:91:e3:b8:23:58:4f:d2:01:25:94:a4:b9:72:bd:
                    a5:ae:04:80:c1:ec:65:0e:12:93:36:f6:aa:c5:b2:
                    e0:3b:1c:dd:0f:16:a9:58:17:75:25:68:71:cf:47:
                    6e:c3:e7:34:38:9f:ca:2d:c6:5c:3a:4a:6c:b3:3d:
                    ef:43:6f:5a:12:a1:e2:8c:4f:7d:45:5c:08:b7:0e:
                    02:d0:bd:66:04:5a:b7:66:f5:a1:4e:97:26:5f:e8:
                    01:39:8f:23:9d:14:63:39:5e:6e:68:92:3e:39:63:
                    bc:19:aa:cf:19:30:eb:69:9c:f5:9a:9c:a0:50:2a:
                    81:b4:b9:a2:65:c9:2a:ce:bd:01:0c:9c:ab:e7:66:
                    43:08:d2:8a:20:98:6b:cb:fb:35:e5:e0:a0:e1:b5:
                    70:db:1e:ab:76:ad:d5:fa:d3:b3:5b:6e:f4:d1:30:
                    ae:f2:8f:3c:a0:c9:9c:15:2c:11:13:25:2a:3c:e0:
                    c2:d7:90:74:70:8b:68:01:16:6a:77:82:4d:8f:6a:
                    c8:14:51:34:0c:17:0c:9d:d0:fc:70:4b:f7:fb:ec:
                    ff:8b:bd:63:ab:97:2c:ec:3d:05:e6:2f:d7:8d:36:
                    8e:57
                Exponent: 65537 (0x10001)
        X509v3 extensions:
            X509v3 Basic Constraints: critical
                CA:FALSE
            X509v3 Key Usage: 
                Digital Signature, Key Encipherment, Key Agreement
            X509v3 Subject Key Identifier: 
                37:F2:02:A6:46:4A:26:0A:52:99:D2:A2:74:98:70:EA:DE:BF:94:35
            X509v3 Authority Key Identifier: 
                keyid:22:20:0D:51:40:61:42:BE:DD:BA:D9:C9:C1:77:B6:93:28:C3:99:EC
                DirName:/C=CH/ST=Thurgau/L=Kefikon/O=guengel.ch/CN=CA 2022/emailAddress=postmaster@guengel.ch
                serial:6D:29:90:54:E9:17:E9:C2:6A:E6:52:AD:84:4E:30:8E:6E:57:FB:1C

            Netscape Cert Type: 
                SSL Client, SSL Server
            X509v3 Extended Key Usage: 
                TLS Web Server Authentication, TLS Web Client Authentication
    Signature Algorithm: sha256WithRSAEncryption
         08:ed:aa:ce:29:0e:c4:34:80:d9:f4:49:d5:17:33:7f:01:22:
         7d:c9:c9:da:ff:c5:63:13:97:09:ba:8c:55:c1:66:89:dc:f8:
         e5:fb:48:2f:61:f9:5d:1e:6e:55:df:04:0e:81:a7:c6:37:78:
         ed:c9:f4:a4:d3:ae:bd:2b:d9:4d:aa:7e:75:66:8e:25:c6:9e:
         97:61:38:89:bc:0a:75:79:1a:4f:72:71:90:6d:1c:12:44:5c:
         57:9b:7b:f2:75:3d:4b:fd:ea:ca:3d:82:73:bd:b9:69:ab:db:
         f0:da:81:d9:3b:a6:35:99:f8:96:dd:96:d5:b5:07:3b:2b:cd:
         f4:75:4e:ba:06:a8:08:81:4b:88:6b:0b:b4:42:04:21:2a:52:
         af:fe:6c:18:b7:e7:d6:6b:74:2d:f2:c2:5d:4d:aa:28:90:ae:
         86:ad:46:de:1b:85:ac:3a:da:3e:a5:3f:d4:a0:40:5a:99:67:
         85:25:66:e6:d5:4b:69:fd:de:f4:0d:b8:2c:1b:c3:25:c7:87:
         04:fa:ba:23:25:92:5c:78:81:79:70:35:54:63:d5:5c:49:11:
         c3:d4:f9:f7:b0:40:ef:1a:79:c7:13:bb:3f:5d:ec:13:1b:76:
         33:d2:e9:e3:0d:b8:c7:47:ce:d6:54:d9:16:de:81:a9:91:85:
         1c:39:0d:91:91:1d:a1:ee:eb:bb:0b:dc:7a:2b:d2:67:74:a3:
         4e:3a:00:17:1c:02:85:52:a9:a8:fc:6f:e1:9e:ef:7d:c6:5b:
         81:55:40:f3:10:a4:e7:14:d9:f8:98:e8:2b:41:a6:a2:95:17:
         20:6d:69:37:1e:bd:6c:5e:b0:67:c5:e0:c8:05:76:30:35:64:
         25:7c:91:a6:5e:33:6c:04:95:8f:ac:fa:44:a5:8a:32:7a:16:
         d6:65:36:b3:7f:e3:7c:55:ca:47:4b:cf:c1:ef:45:e8:8f:bc:
         f2:1b:50:de:c3:1d:29:d7:3c:ac:25:e6:3d:1a:4b:e2:6a:d7:
         b8:07:73:3a:ae:b9:1e:16:88:01:47:73:ca:d9:3b:78:9c:a8:
         33:0e:f7:4c:31:22:09:ce:c2:ee:ab:ec:23:65:66:7b:f7:a0:
         b2:f9:0a:32:02:5a:40:d3:a6:40:7c:b2:dc:0e:37:e8:ab:cd:
         50:c9:f5:c3:86:18:34:6e:0f:22:bc:1b:d1:5a:db:ce:cc:fc:
         69:0a:9c:7f:24:fe:09:83:31:1b:8c:54:bb:9e:25:12:d1:19:
         97:cf:2b:d7:1d:21:d7:3a:b1:f8:0a:d7:59:84:6b:76:a9:48:
         72:93:36:d4:06:f3:b4:16:d6:90:83:b5:02:6d:4a:ae:2f:20:
         29:34:ae:06:4f:5d:89:91
-----BEGIN CERTIFICATE-----
MIIFqDCCA5CgAwIBAgIUEdOyK9WQBDzhJ+UoSdG9Zn05fUQwDQYJKoZIhvcNAQEL
BQAwfjELMAkGA1UEBhMCQ0gxEDAOBgNVBAgTB1RodXJnYXUxEDAOBgNVBAcTB0tl
Zmlrb24xEzARBgNVBAoTCmd1ZW5nZWwuY2gxEDAOBgNVBAMTB0NBIDIwMjIxJDAi
BgkqhkiG9w0BCQEWFXBvc3RtYXN0ZXJAZ3VlbmdlbC5jaDAeFw0yMzAyMjgwNjQz
MDRaFw0yNDA0MDMwNjQzMDRaMGoxCzAJBgNVBAYTAkNIMRAwDgYDVQQIEwdUaHVy
Z2F1MRMwEQYDVQQKEwpndWVuZ2VsLmNoMQ4wDAYDVQQDEwVzZWMtMTEkMCIGCSqG
SIb3DQEJARYVcG9zdG1hc3RlckBndWVuZ2VsLmNoMIIBIjANBgkqhkiG9w0BAQEF
AAOCAQ8AMIIBCgKCAQEA1tLuWIWC5IjzLcOEOrozi5LXHggook+27Je45pRHkeO4
I1hP0gEllKS5cr2lrgSAwexlDhKTNvaqxbLgOxzdDxapWBd1JWhxz0duw+c0OJ/K
LcZcOkpssz3vQ29aEqHijE99RVwItw4C0L1mBFq3ZvWhTpcmX+gBOY8jnRRjOV5u
aJI+OWO8GarPGTDraZz1mpygUCqBtLmiZckqzr0BDJyr52ZDCNKKIJhry/s15eCg
4bVw2x6rdq3V+tOzW2700TCu8o88oMmcFSwREyUqPODC15B0cItoARZqd4JNj2rI
FFE0DBcMndD8cEv3++z/i71jq5cs7D0F5i/XjTaOVwIDAQABo4IBMDCCASwwDAYD
VR0TAQH/BAIwADALBgNVHQ8EBAMCA6gwHQYDVR0OBBYEFDfyAqZGSiYKUpnSonSY
cOrev5Q1MIG9BgNVHSMEgbUwgbKAFCIgDVFAYUK+3brZycF3tpMow5nsoYGDpIGA
MH4xCzAJBgNVBAYTAkNIMRAwDgYDVQQIEwdUaHVyZ2F1MRAwDgYDVQQHEwdLZWZp
a29uMRMwEQYDVQQKEwpndWVuZ2VsLmNoMRAwDgYDVQQDEwdDQSAyMDIyMSQwIgYJ
KoZIhvcNAQkBFhVwb3N0bWFzdGVyQGd1ZW5nZWwuY2iCFG0pkFTpF+nCauZSrYRO
MI5uV/scMBEGCWCGSAGG+EIBAQQEAwIGwDAdBgNVHSUEFjAUBggrBgEFBQcDAQYI
KwYBBQUHAwIwDQYJKoZIhvcNAQELBQADggIBAAjtqs4pDsQ0gNn0SdUXM38BIn3J
ydr/xWMTlwm6jFXBZonc+OX7SC9h+V0eblXfBA6Bp8Y3eO3J9KTTrr0r2U2qfnVm
jiXGnpdhOIm8CnV5Gk9ycZBtHBJEXFebe/J1PUv96so9gnO9uWmr2/Dagdk7pjWZ
+JbdltW1BzsrzfR1TroGqAiBS4hrC7RCBCEqUq/+bBi359ZrdC3ywl1NqiiQroat
Rt4bhaw62j6lP9SgQFqZZ4UlZubVS2n93vQNuCwbwyXHhwT6uiMlklx4gXlwNVRj
1VxJEcPU+fewQO8aeccTuz9d7BMbdjPS6eMNuMdHztZU2RbegamRhRw5DZGRHaHu
67sL3Hor0md0o046ABccAoVSqaj8b+Ge733GW4FVQPMQpOcU2fiY6CtBpqKVFyBt
aTcevWxesGfF4MgFdjA1ZCV8kaZeM2wElY+s+kSlijJ6FtZlNrN/43xVykdLz8Hv
ReiPvPIbUN7DHSnXPKwl5j0aS+Jq17gHczquuR4WiAFHc8rZO3icqDMO90wxIgnO
wu6r7CNlZnv3oLL5CjICWkDTpkB8stwON+irzVDJ9cOGGDRuDyK8G9Fa287M/GkK
nH8k/gmDMRuMVLueJRLRGZfPK9cdIdc6sfgK11mEa3apSHKTNtQG87QW1pCDtQJt
Sq4vICk0rgZPXYmR
-----END CERTIFICATE-----
