Certificate:
    Data:
        Version: 3 (0x2)
        Serial Number:
            39:92:7b:7d:57:06:3c:59:5a:82:d1:96:6c:4a:7a:1f:04:0e:2a:61
        Signature Algorithm: sha256WithRSAEncryption
        Issuer: C=CH, ST=Thurgau, L=Kefikon, O=guengel.ch, CN=CA 2022/emailAddress=postmaster@guengel.ch
        Validity
            Not Before: Feb 28 06:43:05 2023 GMT
            Not After : Apr  3 06:43:05 2024 GMT
        Subject: C=CH, ST=Thurgau, O=guengel.ch, CN=sierra.kruemel.home/emailAddress=postmaster@guengel.ch
        Subject Public Key Info:
            Public Key Algorithm: rsaEncryption
                RSA Public-Key: (2048 bit)
                Modulus:
                    00:c9:36:cf:e5:82:9d:1c:0b:c9:f4:10:bb:84:25:
                    76:2e:e8:97:65:d2:e7:5b:2a:e0:df:5d:d6:1a:3c:
                    63:87:2e:d7:d2:21:30:10:a0:a8:9d:7a:c7:3b:1b:
                    a7:46:1e:bd:2a:75:b3:ae:e4:ec:d2:ac:40:6d:06:
                    4a:b0:f2:3d:70:62:66:68:50:ea:ba:31:00:c3:32:
                    91:92:4e:b9:13:b6:93:e1:93:3a:95:2c:92:31:dc:
                    23:5e:41:d1:1e:42:e2:8c:f5:c5:5b:8b:3c:b2:98:
                    ed:bb:20:23:b3:eb:6e:3e:78:d4:fe:16:70:55:a8:
                    6b:71:89:fc:2f:86:1b:b8:9e:2b:01:aa:dd:c7:0c:
                    14:0b:7a:1f:b7:37:31:b9:f9:d3:4d:0e:43:53:03:
                    5d:8b:5a:67:07:6a:85:53:30:20:65:03:b7:05:90:
                    f5:38:a8:24:e8:b9:b8:de:98:63:53:38:77:82:54:
                    ae:e1:12:ba:a0:f5:88:e0:5a:e4:81:04:f5:34:96:
                    f4:53:ba:b4:9c:a9:81:17:51:75:f3:97:3b:7c:5f:
                    ea:62:75:a7:12:69:8f:cd:69:da:7c:fe:75:9b:50:
                    a8:f3:5f:39:0a:82:c5:3b:09:2b:02:58:5a:62:86:
                    e3:90:91:f2:5f:6d:13:2a:e5:80:3c:7f:b0:70:54:
                    bc:b1
                Exponent: 65537 (0x10001)
        X509v3 extensions:
            X509v3 Basic Constraints: critical
                CA:FALSE
            X509v3 Key Usage: 
                Digital Signature, Key Encipherment, Key Agreement
            X509v3 Subject Key Identifier: 
                9F:13:9E:28:39:F5:83:4D:6D:2E:F7:64:83:BC:C7:E5:2B:44:F0:FD
            X509v3 Authority Key Identifier: 
                keyid:22:20:0D:51:40:61:42:BE:DD:BA:D9:C9:C1:77:B6:93:28:C3:99:EC
                DirName:/C=CH/ST=Thurgau/L=Kefikon/O=guengel.ch/CN=CA 2022/emailAddress=postmaster@guengel.ch
                serial:6D:29:90:54:E9:17:E9:C2:6A:E6:52:AD:84:4E:30:8E:6E:57:FB:1C

            Netscape Cert Type: 
                SSL Client, SSL Server
            X509v3 Extended Key Usage: 
                TLS Web Server Authentication, TLS Web Client Authentication
            X509v3 Subject Alternative Name: 
                DNS:sierra.kruemel.home
    Signature Algorithm: sha256WithRSAEncryption
         76:c4:29:2b:29:42:19:8a:f2:b7:3a:3a:fd:32:85:43:6a:ec:
         27:55:82:d6:f2:ae:af:8f:b8:99:eb:48:63:42:09:eb:fa:d9:
         6b:e8:98:17:75:eb:d5:35:8f:f0:cb:cb:26:d6:ab:9a:15:60:
         83:9b:b0:f4:75:46:4d:a5:ad:7a:ee:29:7a:70:7d:a6:58:b6:
         6c:f1:a3:75:1f:48:d4:fe:be:d1:7c:50:58:f7:8c:5a:65:e3:
         9c:ed:9b:1a:e4:04:ed:91:f9:aa:13:fb:07:2c:63:21:6d:03:
         52:f1:9d:56:71:c5:25:01:71:cc:12:d2:a6:c0:01:ba:66:7a:
         7e:a8:d1:52:e7:63:dc:bf:a6:d8:ef:72:47:a4:37:7e:76:f0:
         4c:a6:f2:f1:42:83:0b:97:78:e1:09:0b:ed:21:9b:d8:52:51:
         9f:84:38:32:20:07:d2:16:b4:7e:bd:9c:dc:bf:71:ac:a4:b6:
         8f:16:d5:87:7c:ff:85:33:54:86:e3:d4:51:e7:84:2a:99:23:
         fa:4e:0b:49:6c:88:ba:23:e6:e5:44:6e:f8:36:cc:6e:2d:57:
         7f:38:7f:ed:77:e9:a9:e0:e0:3a:21:b1:bf:82:c6:36:ef:8f:
         e0:d1:3e:da:93:3e:b7:67:7a:8a:5b:01:47:cf:fe:6f:7d:ff:
         ff:06:72:3a:78:d5:7b:be:12:68:f9:3c:d9:7d:75:ae:6e:16:
         a1:ab:95:ae:83:6e:b9:2c:d7:2d:93:c8:78:49:b6:07:22:aa:
         4a:79:f1:12:25:2c:bb:b7:6d:75:4a:98:a4:c4:4a:db:00:e4:
         69:f8:8e:08:60:b4:e7:fc:f9:07:46:44:4d:79:86:45:74:e6:
         c2:60:90:0d:6b:9e:3a:24:e5:f7:91:29:6f:b8:c9:db:af:9d:
         3d:ca:ea:b4:8e:88:a0:26:ff:a9:c7:bf:f1:c8:4e:29:af:28:
         9f:78:a9:63:98:ad:ad:80:93:ab:de:2a:26:9a:a7:0a:1f:f0:
         66:b5:e6:e6:58:4f:cc:9c:79:35:3c:d1:4c:ac:d9:7b:8e:0a:
         67:f0:33:88:6d:30:9d:c0:2d:ef:cd:df:2d:58:af:8a:87:79:
         53:12:00:48:45:93:f6:54:e2:7d:fa:16:83:ff:6a:3f:8f:f7:
         67:f4:7a:42:cb:84:34:a7:9a:6e:0a:bb:4d:31:c7:4f:3b:30:
         52:bc:d3:dc:f6:2b:a5:fb:3d:58:61:9f:f1:2b:1a:f8:ce:06:
         d4:f2:af:1e:43:f7:e1:c5:2f:e9:48:3c:28:09:61:09:d1:20:
         36:a8:aa:bc:fc:42:df:8c:e6:d9:78:a3:ae:55:8b:a2:a7:b0:
         a4:dc:c4:e3:99:9f:a8:c9
-----BEGIN CERTIFICATE-----
MIIF1jCCA76gAwIBAgIUOZJ7fVcGPFlagtGWbEp6HwQOKmEwDQYJKoZIhvcNAQEL
BQAwfjELMAkGA1UEBhMCQ0gxEDAOBgNVBAgTB1RodXJnYXUxEDAOBgNVBAcTB0tl
Zmlrb24xEzARBgNVBAoTCmd1ZW5nZWwuY2gxEDAOBgNVBAMTB0NBIDIwMjIxJDAi
BgkqhkiG9w0BCQEWFXBvc3RtYXN0ZXJAZ3VlbmdlbC5jaDAeFw0yMzAyMjgwNjQz
MDVaFw0yNDA0MDMwNjQzMDVaMHgxCzAJBgNVBAYTAkNIMRAwDgYDVQQIEwdUaHVy
Z2F1MRMwEQYDVQQKEwpndWVuZ2VsLmNoMRwwGgYDVQQDExNzaWVycmEua3J1ZW1l
bC5ob21lMSQwIgYJKoZIhvcNAQkBFhVwb3N0bWFzdGVyQGd1ZW5nZWwuY2gwggEi
MA0GCSqGSIb3DQEBAQUAA4IBDwAwggEKAoIBAQDJNs/lgp0cC8n0ELuEJXYu6Jdl
0udbKuDfXdYaPGOHLtfSITAQoKidesc7G6dGHr0qdbOu5OzSrEBtBkqw8j1wYmZo
UOq6MQDDMpGSTrkTtpPhkzqVLJIx3CNeQdEeQuKM9cVbizyymO27ICOz624+eNT+
FnBVqGtxifwvhhu4nisBqt3HDBQLeh+3NzG5+dNNDkNTA12LWmcHaoVTMCBlA7cF
kPU4qCToubjemGNTOHeCVK7hErqg9YjgWuSBBPU0lvRTurScqYEXUXXzlzt8X+pi
dacSaY/Nadp8/nWbUKjzXzkKgsU7CSsCWFpihuOQkfJfbRMq5YA8f7BwVLyxAgMB
AAGjggFQMIIBTDAMBgNVHRMBAf8EAjAAMAsGA1UdDwQEAwIDqDAdBgNVHQ4EFgQU
nxOeKDn1g01tLvdkg7zH5StE8P0wgb0GA1UdIwSBtTCBsoAUIiANUUBhQr7dutnJ
wXe2kyjDmeyhgYOkgYAwfjELMAkGA1UEBhMCQ0gxEDAOBgNVBAgTB1RodXJnYXUx
EDAOBgNVBAcTB0tlZmlrb24xEzARBgNVBAoTCmd1ZW5nZWwuY2gxEDAOBgNVBAMT
B0NBIDIwMjIxJDAiBgkqhkiG9w0BCQEWFXBvc3RtYXN0ZXJAZ3VlbmdlbC5jaIIU
bSmQVOkX6cJq5lKthE4wjm5X+xwwEQYJYIZIAYb4QgEBBAQDAgbAMB0GA1UdJQQW
MBQGCCsGAQUFBwMBBggrBgEFBQcDAjAeBgNVHREEFzAVghNzaWVycmEua3J1ZW1l
bC5ob21lMA0GCSqGSIb3DQEBCwUAA4ICAQB2xCkrKUIZivK3Ojr9MoVDauwnVYLW
8q6vj7iZ60hjQgnr+tlr6JgXdevVNY/wy8sm1quaFWCDm7D0dUZNpa167il6cH2m
WLZs8aN1H0jU/r7RfFBY94xaZeOc7Zsa5ATtkfmqE/sHLGMhbQNS8Z1WccUlAXHM
EtKmwAG6Znp+qNFS52Pcv6bY73JHpDd+dvBMpvLxQoMLl3jhCQvtIZvYUlGfhDgy
IAfSFrR+vZzcv3GspLaPFtWHfP+FM1SG49RR54QqmSP6TgtJbIi6I+blRG74Nsxu
LVd/OH/td+mp4OA6IbG/gsY274/g0T7akz63Z3qKWwFHz/5vff//BnI6eNV7vhJo
+TzZfXWubhahq5Wug265LNctk8h4SbYHIqpKefESJSy7t211SpikxErbAORp+I4I
YLTn/PkHRkRNeYZFdObCYJANa546JOX3kSlvuMnbr509yuq0joigJv+px7/xyE4p
ryifeKljmK2tgJOr3iommqcKH/BmtebmWE/MnHk1PNFMrNl7jgpn8DOIbTCdwC3v
zd8tWK+Kh3lTEgBIRZP2VOJ9+haD/2o/j/dn9HpCy4Q0p5puCrtNMcdPOzBSvNPc
9iul+z1YYZ/xKxr4zgbU8q8eQ/fhxS/pSDwoCWEJ0SA2qKq8/ELfjObZeKOuVYui
p7Ck3MTjmZ+oyQ==
-----END CERTIFICATE-----
