Certificate:
    Data:
        Version: 3 (0x2)
        Serial Number:
            01:bd:71:94:87:ab:cf:e6:b4:01:1b:21:6b:b2:14:d4:f8:3b:bb:9a
        Signature Algorithm: sha256WithRSAEncryption
        Issuer: C=CH, ST=Thurgau, L=Kefikon, O=guengel.ch, CN=CA 2022/emailAddress=postmaster@guengel.ch
        Validity
            Not Before: Dec 30 08:44:49 2023 GMT
            Not After : Feb  2 08:44:49 2025 GMT
        Subject: C=CH, ST=Thurgau, O=guengel.ch, CN=sierra.kruemel.home/emailAddress=postmaster@guengel.ch
        Subject Public Key Info:
            Public Key Algorithm: rsaEncryption
                RSA Public-Key: (2048 bit)
                Modulus:
                    00:c9:36:cf:e5:82:9d:1c:0b:c9:f4:10:bb:84:25:
                    76:2e:e8:97:65:d2:e7:5b:2a:e0:df:5d:d6:1a:3c:
                    63:87:2e:d7:d2:21:30:10:a0:a8:9d:7a:c7:3b:1b:
                    a7:46:1e:bd:2a:75:b3:ae:e4:ec:d2:ac:40:6d:06:
                    4a:b0:f2:3d:70:62:66:68:50:ea:ba:31:00:c3:32:
                    91:92:4e:b9:13:b6:93:e1:93:3a:95:2c:92:31:dc:
                    23:5e:41:d1:1e:42:e2:8c:f5:c5:5b:8b:3c:b2:98:
                    ed:bb:20:23:b3:eb:6e:3e:78:d4:fe:16:70:55:a8:
                    6b:71:89:fc:2f:86:1b:b8:9e:2b:01:aa:dd:c7:0c:
                    14:0b:7a:1f:b7:37:31:b9:f9:d3:4d:0e:43:53:03:
                    5d:8b:5a:67:07:6a:85:53:30:20:65:03:b7:05:90:
                    f5:38:a8:24:e8:b9:b8:de:98:63:53:38:77:82:54:
                    ae:e1:12:ba:a0:f5:88:e0:5a:e4:81:04:f5:34:96:
                    f4:53:ba:b4:9c:a9:81:17:51:75:f3:97:3b:7c:5f:
                    ea:62:75:a7:12:69:8f:cd:69:da:7c:fe:75:9b:50:
                    a8:f3:5f:39:0a:82:c5:3b:09:2b:02:58:5a:62:86:
                    e3:90:91:f2:5f:6d:13:2a:e5:80:3c:7f:b0:70:54:
                    bc:b1
                Exponent: 65537 (0x10001)
        X509v3 extensions:
            X509v3 Basic Constraints: critical
                CA:FALSE
            X509v3 Key Usage: 
                Digital Signature, Key Encipherment, Key Agreement
            X509v3 Subject Key Identifier: 
                9F:13:9E:28:39:F5:83:4D:6D:2E:F7:64:83:BC:C7:E5:2B:44:F0:FD
            X509v3 Authority Key Identifier: 
                keyid:22:20:0D:51:40:61:42:BE:DD:BA:D9:C9:C1:77:B6:93:28:C3:99:EC
                DirName:/C=CH/ST=Thurgau/L=Kefikon/O=guengel.ch/CN=CA 2022/emailAddress=postmaster@guengel.ch
                serial:6D:29:90:54:E9:17:E9:C2:6A:E6:52:AD:84:4E:30:8E:6E:57:FB:1C

            Netscape Cert Type: 
                SSL Client, SSL Server
            X509v3 Extended Key Usage: 
                TLS Web Server Authentication, TLS Web Client Authentication
            X509v3 Subject Alternative Name: 
                DNS:sierra.kruemel.home
    Signature Algorithm: sha256WithRSAEncryption
         0c:2b:24:dc:da:56:3a:27:ce:e1:eb:55:e9:7b:7a:1b:92:b2:
         3b:63:63:df:f2:67:18:14:d8:70:a3:4e:28:26:48:25:a3:9d:
         b7:8b:a1:b4:83:95:a5:5f:6b:09:96:4c:20:cb:9e:28:69:6c:
         bf:1d:a0:72:0c:fc:e6:c0:81:1f:ca:d8:10:f0:0b:d6:72:51:
         c7:89:de:aa:70:59:0c:8b:3b:59:07:c2:76:ed:60:cc:2c:69:
         c5:a3:cb:95:55:e7:59:eb:a9:dc:25:91:0e:87:02:c7:fb:a6:
         3e:bd:3b:de:7a:4c:c6:a8:81:a5:0e:70:21:50:05:17:0e:50:
         73:c0:10:e3:77:5e:ab:c7:51:b4:97:b5:2b:1c:70:ff:50:57:
         8a:67:10:37:0e:5c:16:b3:5b:c5:cd:16:fa:ee:e4:61:a2:2c:
         ae:66:a7:45:b3:a5:85:15:bc:db:0c:cf:97:ff:d6:ad:f6:a2:
         16:3b:9f:5e:43:83:8c:30:cd:1d:5f:9a:7f:9b:98:01:72:7f:
         77:54:1e:68:49:1a:e8:2d:bd:24:35:b6:d7:12:3d:78:4e:63:
         17:bd:bb:72:ec:09:ea:e4:4a:b5:8f:86:9b:4d:71:ff:5d:79:
         f3:f4:90:f4:33:a1:a4:07:55:3a:d9:c4:b3:c8:6b:3f:4e:2d:
         fe:ab:65:22:a7:b1:3b:45:6d:2e:ff:83:6e:5f:51:b2:3c:29:
         1e:70:b1:19:8f:55:ab:c4:59:fa:07:fc:0e:c7:2e:f9:ec:ee:
         24:5c:98:9a:95:c9:b1:46:07:c4:62:44:7f:67:44:ff:33:92:
         f3:82:ec:c6:56:49:6f:7a:7f:ba:d7:d9:d3:05:56:7c:6f:95:
         fb:66:c7:28:42:7e:d2:5c:00:61:c1:47:a0:d7:0b:13:e5:b6:
         69:db:89:31:0d:3a:ec:f1:d6:85:6f:0a:97:c3:eb:4e:b6:b4:
         9b:d4:93:3c:78:8b:9e:44:5a:65:03:3a:36:eb:66:cb:e0:b8:
         c1:d0:52:46:24:cc:94:0a:99:3d:ff:c9:9c:4e:bd:97:2a:44:
         05:af:8d:46:24:8f:fb:3a:78:79:42:dd:aa:b5:07:ff:52:d9:
         39:b0:72:9d:ab:36:17:37:82:47:00:50:0a:ee:28:f4:8e:c5:
         46:74:c6:09:1d:86:da:29:ea:29:4b:6a:c1:d1:cd:dd:cf:70:
         cf:03:4c:e2:2e:34:d8:ff:40:3e:c8:53:53:d1:fa:3d:dd:6c:
         19:a8:8d:61:e6:75:8c:00:f0:33:28:c2:61:1c:28:40:38:93:
         f8:2a:7b:81:3d:aa:e0:38:2d:0e:e9:14:84:16:3c:90:12:72:
         72:69:71:87:1d:d9:f3:53
-----BEGIN CERTIFICATE-----
MIIF1jCCA76gAwIBAgIUAb1xlIerz+a0ARsha7IU1Pg7u5owDQYJKoZIhvcNAQEL
BQAwfjELMAkGA1UEBhMCQ0gxEDAOBgNVBAgTB1RodXJnYXUxEDAOBgNVBAcTB0tl
Zmlrb24xEzARBgNVBAoTCmd1ZW5nZWwuY2gxEDAOBgNVBAMTB0NBIDIwMjIxJDAi
BgkqhkiG9w0BCQEWFXBvc3RtYXN0ZXJAZ3VlbmdlbC5jaDAeFw0yMzEyMzAwODQ0
NDlaFw0yNTAyMDIwODQ0NDlaMHgxCzAJBgNVBAYTAkNIMRAwDgYDVQQIEwdUaHVy
Z2F1MRMwEQYDVQQKEwpndWVuZ2VsLmNoMRwwGgYDVQQDExNzaWVycmEua3J1ZW1l
bC5ob21lMSQwIgYJKoZIhvcNAQkBFhVwb3N0bWFzdGVyQGd1ZW5nZWwuY2gwggEi
MA0GCSqGSIb3DQEBAQUAA4IBDwAwggEKAoIBAQDJNs/lgp0cC8n0ELuEJXYu6Jdl
0udbKuDfXdYaPGOHLtfSITAQoKidesc7G6dGHr0qdbOu5OzSrEBtBkqw8j1wYmZo
UOq6MQDDMpGSTrkTtpPhkzqVLJIx3CNeQdEeQuKM9cVbizyymO27ICOz624+eNT+
FnBVqGtxifwvhhu4nisBqt3HDBQLeh+3NzG5+dNNDkNTA12LWmcHaoVTMCBlA7cF
kPU4qCToubjemGNTOHeCVK7hErqg9YjgWuSBBPU0lvRTurScqYEXUXXzlzt8X+pi
dacSaY/Nadp8/nWbUKjzXzkKgsU7CSsCWFpihuOQkfJfbRMq5YA8f7BwVLyxAgMB
AAGjggFQMIIBTDAMBgNVHRMBAf8EAjAAMAsGA1UdDwQEAwIDqDAdBgNVHQ4EFgQU
nxOeKDn1g01tLvdkg7zH5StE8P0wgb0GA1UdIwSBtTCBsoAUIiANUUBhQr7dutnJ
wXe2kyjDmeyhgYOkgYAwfjELMAkGA1UEBhMCQ0gxEDAOBgNVBAgTB1RodXJnYXUx
EDAOBgNVBAcTB0tlZmlrb24xEzARBgNVBAoTCmd1ZW5nZWwuY2gxEDAOBgNVBAMT
B0NBIDIwMjIxJDAiBgkqhkiG9w0BCQEWFXBvc3RtYXN0ZXJAZ3VlbmdlbC5jaIIU
bSmQVOkX6cJq5lKthE4wjm5X+xwwEQYJYIZIAYb4QgEBBAQDAgbAMB0GA1UdJQQW
MBQGCCsGAQUFBwMBBggrBgEFBQcDAjAeBgNVHREEFzAVghNzaWVycmEua3J1ZW1l
bC5ob21lMA0GCSqGSIb3DQEBCwUAA4ICAQAMKyTc2lY6J87h61Xpe3obkrI7Y2Pf
8mcYFNhwo04oJkglo523i6G0g5WlX2sJlkwgy54oaWy/HaByDPzmwIEfytgQ8AvW
clHHid6qcFkMiztZB8J27WDMLGnFo8uVVedZ66ncJZEOhwLH+6Y+vTveekzGqIGl
DnAhUAUXDlBzwBDjd16rx1G0l7UrHHD/UFeKZxA3DlwWs1vFzRb67uRhoiyuZqdF
s6WFFbzbDM+X/9at9qIWO59eQ4OMMM0dX5p/m5gBcn93VB5oSRroLb0kNbbXEj14
TmMXvbty7Anq5Eq1j4abTXH/XXnz9JD0M6GkB1U62cSzyGs/Ti3+q2Uip7E7RW0u
/4NuX1GyPCkecLEZj1WrxFn6B/wOxy757O4kXJialcmxRgfEYkR/Z0T/M5LzguzG
Vklven+619nTBVZ8b5X7ZscoQn7SXABhwUeg1wsT5bZp24kxDTrs8daFbwqXw+tO
trSb1JM8eIueRFplAzo262bL4LjB0FJGJMyUCpk9/8mcTr2XKkQFr41GJI/7Onh5
Qt2qtQf/Utk5sHKdqzYXN4JHAFAK7ij0jsVGdMYJHYbaKeopS2rB0c3dz3DPA0zi
LjTY/0A+yFNT0fo93WwZqI1h5nWMAPAzKMJhHChAOJP4KnuBPargOC0O6RSEFjyQ
EnJyaXGHHdnzUw==
-----END CERTIFICATE-----
