Certificate:
    Data:
        Version: 3 (0x2)
        Serial Number: 383 (0x17f)
        Signature Algorithm: sha256WithRSAEncryption
        Issuer: C=CH, ST=Thurgau, L=Kefikon, O=guengel.ch, CN=CA guengel.ch/emailAddress=postmaster@guengel.ch
        Validity
            Not Before: Jan  3 10:09:00 2020 GMT
            Not After : Feb  6 10:09:00 2021 GMT
        Subject: C=CH, ST=Thurgau, O=guengel.ch, CN=smtp-1/emailAddress=postmaster@guengel.ch
        Subject Public Key Info:
            Public Key Algorithm: rsaEncryption
                RSA Public-Key: (2048 bit)
                Modulus:
                    00:b3:91:cd:4e:f7:9f:32:5f:fd:65:d0:3b:9e:1d:
                    3d:12:d3:91:49:50:38:64:96:a4:f9:40:63:eb:d8:
                    03:56:5a:ed:17:05:50:aa:a1:7d:62:0e:a2:08:3b:
                    40:c2:c8:15:49:0f:20:0c:84:e1:e7:01:15:3e:fa:
                    26:e9:10:2c:6b:c0:b6:13:16:7d:dc:f8:d2:78:d8:
                    bc:83:98:04:c4:05:46:3b:21:b2:07:ea:85:4c:4d:
                    c8:42:57:f8:40:98:32:cb:b6:9d:77:d4:16:2e:e3:
                    73:61:93:f4:36:6a:5c:d8:62:5b:07:c6:51:69:96:
                    bf:33:9b:33:2d:0d:25:ed:47:60:94:f7:bb:c3:13:
                    80:36:39:4d:ac:51:4d:3e:c2:44:0b:10:d8:2d:57:
                    c2:08:44:91:fa:87:eb:48:1c:4f:9a:a6:73:8a:9a:
                    8b:a3:48:20:41:f0:8a:2a:44:dd:61:f7:f2:35:e6:
                    fa:4a:23:24:d1:90:73:01:88:68:ce:54:d6:10:d0:
                    39:46:d7:1c:8a:19:c0:4e:35:a5:ce:c5:e4:58:b4:
                    ba:35:b3:c2:1c:72:d4:c8:dc:f2:77:27:f1:b7:08:
                    78:83:84:cc:fc:62:10:c1:52:94:c3:43:54:61:87:
                    5a:27:e3:54:9f:70:de:4b:09:49:eb:ed:0e:0f:4e:
                    18:bb
                Exponent: 65537 (0x10001)
        X509v3 extensions:
            X509v3 Basic Constraints: 
                CA:FALSE
            Netscape Comment: 
                OpenSSL Generated Certificate
            X509v3 Subject Key Identifier: 
                79:2B:FD:1A:F1:CB:84:ED:B1:3F:0D:9B:7D:B3:9D:C1:C8:8B:DD:00
            X509v3 Authority Key Identifier: 
                keyid:D6:88:F1:AA:C1:2B:09:8C:B8:5C:9D:CE:DF:57:39:62:26:10:20:90
                DirName:/C=CH/ST=Thurgau/L=Kefikon/O=guengel.ch/CN=CA guengel.ch/emailAddress=postmaster@guengel.ch
                serial:E5:25:3B:A6:77:BD:CB:FF

    Signature Algorithm: sha256WithRSAEncryption
         96:5e:c8:09:3f:e4:64:6d:26:fb:5d:e1:8c:78:04:2d:15:27:
         c9:48:61:70:92:0c:be:e0:f0:02:b9:30:43:fc:4b:a6:76:ae:
         ee:04:79:a8:a0:a3:99:9f:b2:7c:a6:1a:ee:aa:17:ab:1c:8f:
         b8:6a:01:a9:7a:d9:09:d3:22:24:68:9a:32:4c:10:92:d2:6f:
         98:1f:0e:1b:e4:76:16:78:0f:aa:b2:e4:f1:a1:3d:96:d3:89:
         3c:43:fe:c7:34:f0:c9:a0:64:e7:d8:a1:d6:32:60:59:6f:f0:
         74:12:2e:69:72:bc:c2:55:e9:68:44:37:f8:83:53:ba:52:67:
         09:bc:75:2d:4d:2e:b3:ce:4c:e5:1e:a6:96:9e:5c:aa:c9:ef:
         f2:54:e9:e8:78:f8:44:1a:11:5b:32:a2:00:6c:6a:d0:6d:5f:
         6d:c2:63:e7:e1:9d:1e:18:c6:8d:c5:02:0a:07:38:e1:3e:44:
         8c:68:b4:0a:3c:c7:41:34:1e:0b:ec:a4:3d:ab:7d:13:80:2e:
         69:e1:92:85:63:ad:6f:6e:94:d3:c0:b0:7a:48:f3:03:fa:33:
         42:37:0f:6e:79:1b:cd:2e:4c:07:cc:32:1c:93:f5:02:1a:4a:
         32:02:3d:cf:b2:6e:37:16:45:9e:8b:bf:99:38:71:cb:e4:fc:
         c4:61:77:75:88:e1:d0:a8:92:57:0f:27:35:0e:5d:04:82:86:
         95:ee:7c:92:d8:56:4c:3f:80:f7:29:63:b7:da:24:da:ac:dd:
         5f:0d:af:a2:83:0c:0c:11:27:9e:e8:e7:9a:cd:93:a2:5a:83:
         1b:26:43:a7:b7:d3:0b:ed:8a:51:bf:12:e0:8f:cc:53:47:fd:
         03:a5:2c:e0:0f:66:c9:a8:87:d8:a6:6f:9b:37:85:43:17:e3:
         e0:31:0c:a6:27:03:3e:97:b9:fd:32:12:80:73:62:5a:ad:45:
         4b:22:77:71:50:ed:27:c8:17:79:2f:37:fe:a9:2d:24:50:df:
         b3:7e:49:11:77:83:66:85:76:d8:73:15:08:7c:0f:9c:7b:80:
         3d:9d:29:e4:c1:b4:58:52:b8:55:5a:3a:b9:e9:a2:4c:47:2a:
         b5:61:c4:26:15:59:59:d3:3d:bd:be:46:97:dc:b5:96:11:6e:
         33:18:91:14:cc:de:c6:dc:e8:30:d4:b7:bc:96:81:cc:d2:fd:
         69:f4:3c:31:1d:65:e1:02:53:0f:96:7f:f9:b5:03:19:02:4d:
         a9:c9:fd:3d:f5:0a:4a:ae:08:eb:6e:b7:ed:b4:3c:a9:ea:8b:
         b9:95:b2:dc:65:5b:99:cd:d9:86:f1:04:d9:e2:8e:51:78:ef:
         e9:f7:c5:63:e1:6b:f9:d8
-----BEGIN CERTIFICATE-----
MIIFhjCCA26gAwIBAgICAX8wDQYJKoZIhvcNAQELBQAwgYQxCzAJBgNVBAYTAkNI
MRAwDgYDVQQIEwdUaHVyZ2F1MRAwDgYDVQQHEwdLZWZpa29uMRMwEQYDVQQKEwpn
dWVuZ2VsLmNoMRYwFAYDVQQDEw1DQSBndWVuZ2VsLmNoMSQwIgYJKoZIhvcNAQkB
FhVwb3N0bWFzdGVyQGd1ZW5nZWwuY2gwHhcNMjAwMTAzMTAwOTAwWhcNMjEwMjA2
MTAwOTAwWjBrMQswCQYDVQQGEwJDSDEQMA4GA1UECBMHVGh1cmdhdTETMBEGA1UE
ChMKZ3VlbmdlbC5jaDEPMA0GA1UEAxMGc210cC0xMSQwIgYJKoZIhvcNAQkBFhVw
b3N0bWFzdGVyQGd1ZW5nZWwuY2gwggEiMA0GCSqGSIb3DQEBAQUAA4IBDwAwggEK
AoIBAQCzkc1O958yX/1l0DueHT0S05FJUDhklqT5QGPr2ANWWu0XBVCqoX1iDqII
O0DCyBVJDyAMhOHnARU++ibpECxrwLYTFn3c+NJ42LyDmATEBUY7IbIH6oVMTchC
V/hAmDLLtp131BYu43Nhk/Q2alzYYlsHxlFplr8zmzMtDSXtR2CU97vDE4A2OU2s
UU0+wkQLENgtV8IIRJH6h+tIHE+apnOKmoujSCBB8IoqRN1h9/I15vpKIyTRkHMB
iGjOVNYQ0DlG1xyKGcBONaXOxeRYtLo1s8IcctTI3PJ3J/G3CHiDhMz8YhDBUpTD
Q1Rhh1on41SfcN5LCUnr7Q4PThi7AgMBAAGjggEYMIIBFDAJBgNVHRMEAjAAMCwG
CWCGSAGG+EIBDQQfFh1PcGVuU1NMIEdlbmVyYXRlZCBDZXJ0aWZpY2F0ZTAdBgNV
HQ4EFgQUeSv9GvHLhO2xPw2bfbOdwciL3QAwgbkGA1UdIwSBsTCBroAU1ojxqsEr
CYy4XJ3O31c5YiYQIJChgYqkgYcwgYQxCzAJBgNVBAYTAkNIMRAwDgYDVQQIEwdU
aHVyZ2F1MRAwDgYDVQQHEwdLZWZpa29uMRMwEQYDVQQKEwpndWVuZ2VsLmNoMRYw
FAYDVQQDEw1DQSBndWVuZ2VsLmNoMSQwIgYJKoZIhvcNAQkBFhVwb3N0bWFzdGVy
QGd1ZW5nZWwuY2iCCQDlJTumd73L/zANBgkqhkiG9w0BAQsFAAOCAgEAll7ICT/k
ZG0m+13hjHgELRUnyUhhcJIMvuDwArkwQ/xLpnau7gR5qKCjmZ+yfKYa7qoXqxyP
uGoBqXrZCdMiJGiaMkwQktJvmB8OG+R2FngPqrLk8aE9ltOJPEP+xzTwyaBk59ih
1jJgWW/wdBIuaXK8wlXpaEQ3+INTulJnCbx1LU0us85M5R6mlp5cqsnv8lTp6Hj4
RBoRWzKiAGxq0G1fbcJj5+GdHhjGjcUCCgc44T5EjGi0CjzHQTQeC+ykPat9E4Au
aeGShWOtb26U08CwekjzA/ozQjcPbnkbzS5MB8wyHJP1AhpKMgI9z7JuNxZFnou/
mThxy+T8xGF3dYjh0KiSVw8nNQ5dBIKGle58kthWTD+A9yljt9ok2qzdXw2vooMM
DBEnnujnms2TolqDGyZDp7fTC+2KUb8S4I/MU0f9A6Us4A9myaiH2KZvmzeFQxfj
4DEMpicDPpe5/TISgHNiWq1FSyJ3cVDtJ8gXeS83/qktJFDfs35JEXeDZoV22HMV
CHwPnHuAPZ0p5MG0WFK4VVo6uemiTEcqtWHEJhVZWdM9vb5Gl9y1lhFuMxiRFMze
xtzoMNS3vJaBzNL9afQ8MR1l4QJTD5Z/+bUDGQJNqcn9PfUKSq4I62637bQ8qeqL
uZWy3GVbmc3ZhvEE2eKOUXjv6ffFY+Fr+dg=
-----END CERTIFICATE-----
