Certificate:
    Data:
        Version: 3 (0x2)
        Serial Number: 324 (0x144)
    Signature Algorithm: sha256WithRSAEncryption
        Issuer: C=CH, ST=Thurgau, L=Kefikon, O=guengel.ch, CN=CA guengel.ch/emailAddress=postmaster@guengel.ch
        Validity
            Not Before: Jan  6 18:04:52 2018 GMT
            Not After : Feb 10 18:04:52 2019 GMT
        Subject: C=CH, ST=Thurgau, O=guengel.ch, CN=smtp.guengel.ch/emailAddress=postmaster@guengel.ch
        Subject Public Key Info:
            Public Key Algorithm: rsaEncryption
                Public-Key: (2048 bit)
                Modulus:
                    00:c6:e5:73:5e:e9:92:41:9a:60:b8:93:87:1f:c1:
                    72:fa:5b:ee:f4:f3:4f:15:2c:76:6b:fe:9c:46:dc:
                    43:64:0f:c2:fc:fe:72:19:b5:3e:eb:08:80:79:5d:
                    c3:74:02:6b:4b:f8:6c:c0:58:47:a3:a9:96:0e:de:
                    e4:c2:af:0b:5a:4b:96:b9:cd:b6:74:02:7f:0f:5f:
                    35:42:b4:d4:05:ae:88:c6:f2:7e:f8:f8:23:9e:86:
                    08:84:13:81:93:69:ab:69:07:11:05:35:e5:b8:aa:
                    4b:b2:b2:7c:2f:a0:4d:e3:47:87:69:c0:d9:82:14:
                    1a:d8:32:18:78:1c:30:41:46:9a:b1:6f:6e:25:3a:
                    b1:2d:b5:5b:d9:6b:73:68:33:c8:21:e4:2e:4b:ab:
                    ed:55:76:0d:dc:d1:d1:56:64:ce:b4:ac:73:62:df:
                    16:c1:56:99:1d:13:8a:f4:4c:cd:2e:ba:3d:74:5c:
                    95:a9:41:da:23:6f:83:f7:5e:0a:11:6d:e1:2a:20:
                    47:6d:6e:a2:39:a8:21:90:24:f0:7f:77:0e:5f:59:
                    dd:ce:76:2c:89:ed:a2:c4:59:18:96:4c:00:08:53:
                    72:b2:03:d6:1c:8d:92:50:79:3e:29:8b:25:7a:f8:
                    a0:69:b4:d1:f3:47:10:28:56:78:4d:67:15:50:1c:
                    24:57
                Exponent: 65537 (0x10001)
        X509v3 extensions:
            X509v3 Basic Constraints: 
                CA:FALSE
            Netscape Comment: 
                OpenSSL Generated Certificate
            X509v3 Subject Key Identifier: 
                8E:EF:D5:68:5B:39:A0:BC:CF:04:8B:38:62:54:94:E4:D5:94:14:BB
            X509v3 Authority Key Identifier: 
                keyid:D6:88:F1:AA:C1:2B:09:8C:B8:5C:9D:CE:DF:57:39:62:26:10:20:90
                DirName:/C=CH/ST=Thurgau/L=Kefikon/O=guengel.ch/CN=CA guengel.ch/emailAddress=postmaster@guengel.ch
                serial:E5:25:3B:A6:77:BD:CB:FF

    Signature Algorithm: sha256WithRSAEncryption
         30:c9:4f:ae:10:30:35:7e:07:df:7a:27:6d:a2:da:4d:51:72:
         73:76:e1:19:2b:d6:4a:c8:0b:f7:05:69:4b:fe:de:8a:77:fe:
         c7:95:9c:7e:f5:ca:67:4b:86:d3:90:99:cf:78:ae:da:6b:e2:
         98:39:e8:b4:16:44:31:a4:e5:c7:19:b1:84:89:ff:e3:b8:d8:
         96:f8:26:c2:d5:f6:c3:a9:b9:81:2d:e2:4e:61:cf:2e:d4:2d:
         03:c0:8e:9f:7e:66:d1:ee:2b:3f:8e:d1:83:2d:26:0f:5e:60:
         00:28:2e:a5:56:44:6d:7c:4d:e5:e4:6e:fe:7a:bb:fd:85:93:
         19:af:d0:4e:c6:40:a6:85:28:9e:82:c5:73:d8:f0:1c:ad:f1:
         2a:b5:42:2f:3b:66:48:a4:56:f2:6a:f6:64:cf:d4:14:ec:1c:
         22:aa:96:6a:ea:dc:75:cc:2a:e8:0c:ea:c7:48:1a:e3:b5:8e:
         c2:b4:fa:c6:92:98:2a:a3:f2:2e:35:bc:10:24:c6:17:32:f8:
         c9:57:c8:ee:9a:d3:8b:06:7f:cb:12:99:cc:bd:7f:ec:f9:5a:
         90:84:5a:05:e5:62:46:d3:66:17:e0:e2:f9:43:d9:70:bc:f6:
         5c:10:9e:f6:a0:d7:d9:8f:8f:03:62:0f:79:fc:74:97:13:8a:
         a2:13:c7:04:67:ce:73:0b:8c:37:b6:4e:77:91:34:ea:97:d3:
         38:96:57:65:9e:8a:a8:77:7c:95:0b:a8:08:1a:10:54:97:99:
         40:3b:41:50:bc:e0:4d:01:f3:88:5a:2b:60:e4:10:99:28:c0:
         8c:31:74:26:81:5c:a6:2d:f8:18:21:8d:8e:21:f3:a2:51:d5:
         a0:c7:6c:75:5d:75:b1:74:13:04:dd:32:48:58:89:6b:28:62:
         f8:1a:a0:9f:cb:d4:fc:a3:62:38:86:d0:64:c8:6f:64:2e:06:
         cd:73:2f:2c:65:8d:fa:96:63:fb:3e:dc:10:4f:f5:66:8a:99:
         ec:72:37:02:24:07:6e:b3:39:44:12:f6:5e:30:6f:9e:1c:a2:
         a8:79:d9:c0:e9:a0:d1:e4:bd:42:cb:cf:a4:81:79:03:69:6d:
         6f:60:bc:3f:c3:87:99:cb:d8:bd:43:e0:46:e6:d9:44:ff:d2:
         30:49:21:9d:11:7d:d7:76:7b:48:c4:71:06:1f:2a:69:43:59:
         83:4e:f1:7b:5a:39:e7:54:70:d6:be:4f:e5:5b:e7:bd:6b:74:
         ca:2d:2e:81:f2:8a:6e:01:5b:e5:73:b7:a8:a8:46:99:a1:ac:
         44:d2:7f:61:e9:82:15:2b:32:98:b6:ab:bc:f3:00:f9:45:72:
         5a:8d:82:18:b4:1a:a3:af
-----BEGIN CERTIFICATE-----
MIIFjzCCA3egAwIBAgICAUQwDQYJKoZIhvcNAQELBQAwgYQxCzAJBgNVBAYTAkNI
MRAwDgYDVQQIEwdUaHVyZ2F1MRAwDgYDVQQHEwdLZWZpa29uMRMwEQYDVQQKEwpn
dWVuZ2VsLmNoMRYwFAYDVQQDEw1DQSBndWVuZ2VsLmNoMSQwIgYJKoZIhvcNAQkB
FhVwb3N0bWFzdGVyQGd1ZW5nZWwuY2gwHhcNMTgwMTA2MTgwNDUyWhcNMTkwMjEw
MTgwNDUyWjB0MQswCQYDVQQGEwJDSDEQMA4GA1UECBMHVGh1cmdhdTETMBEGA1UE
ChMKZ3VlbmdlbC5jaDEYMBYGA1UEAxMPc210cC5ndWVuZ2VsLmNoMSQwIgYJKoZI
hvcNAQkBFhVwb3N0bWFzdGVyQGd1ZW5nZWwuY2gwggEiMA0GCSqGSIb3DQEBAQUA
A4IBDwAwggEKAoIBAQDG5XNe6ZJBmmC4k4cfwXL6W+70808VLHZr/pxG3ENkD8L8
/nIZtT7rCIB5XcN0AmtL+GzAWEejqZYO3uTCrwtaS5a5zbZ0An8PXzVCtNQFrojG
8n74+COehgiEE4GTaatpBxEFNeW4qkuysnwvoE3jR4dpwNmCFBrYMhh4HDBBRpqx
b24lOrEttVvZa3NoM8gh5C5Lq+1Vdg3c0dFWZM60rHNi3xbBVpkdE4r0TM0uuj10
XJWpQdojb4P3XgoRbeEqIEdtbqI5qCGQJPB/dw5fWd3OdiyJ7aLEWRiWTAAIU3Ky
A9YcjZJQeT4piyV6+KBptNHzRxAoVnhNZxVQHCRXAgMBAAGjggEYMIIBFDAJBgNV
HRMEAjAAMCwGCWCGSAGG+EIBDQQfFh1PcGVuU1NMIEdlbmVyYXRlZCBDZXJ0aWZp
Y2F0ZTAdBgNVHQ4EFgQUju/VaFs5oLzPBIs4YlSU5NWUFLswgbkGA1UdIwSBsTCB
roAU1ojxqsErCYy4XJ3O31c5YiYQIJChgYqkgYcwgYQxCzAJBgNVBAYTAkNIMRAw
DgYDVQQIEwdUaHVyZ2F1MRAwDgYDVQQHEwdLZWZpa29uMRMwEQYDVQQKEwpndWVu
Z2VsLmNoMRYwFAYDVQQDEw1DQSBndWVuZ2VsLmNoMSQwIgYJKoZIhvcNAQkBFhVw
b3N0bWFzdGVyQGd1ZW5nZWwuY2iCCQDlJTumd73L/zANBgkqhkiG9w0BAQsFAAOC
AgEAMMlPrhAwNX4H33onbaLaTVFyc3bhGSvWSsgL9wVpS/7einf+x5WcfvXKZ0uG
05CZz3iu2mvimDnotBZEMaTlxxmxhIn/47jYlvgmwtX2w6m5gS3iTmHPLtQtA8CO
n35m0e4rP47Rgy0mD15gACgupVZEbXxN5eRu/nq7/YWTGa/QTsZApoUonoLFc9jw
HK3xKrVCLztmSKRW8mr2ZM/UFOwcIqqWaurcdcwq6Azqx0ga47WOwrT6xpKYKqPy
LjW8ECTGFzL4yVfI7prTiwZ/yxKZzL1/7PlakIRaBeViRtNmF+Di+UPZcLz2XBCe
9qDX2Y+PA2IPefx0lxOKohPHBGfOcwuMN7ZOd5E06pfTOJZXZZ6KqHd8lQuoCBoQ
VJeZQDtBULzgTQHziForYOQQmSjAjDF0JoFcpi34GCGNjiHzolHVoMdsdV11sXQT
BN0ySFiJayhi+Bqgn8vU/KNiOIbQZMhvZC4GzXMvLGWN+pZj+z7cEE/1ZoqZ7HI3
AiQHbrM5RBL2XjBvnhyiqHnZwOmg0eS9QsvPpIF5A2ltb2C8P8OHmcvYvUPgRubZ
RP/SMEkhnRF913Z7SMRxBh8qaUNZg07xe1o551Rw1r5P5VvnvWt0yi0ugfKKbgFb
5XO3qKhGmaGsRNJ/YemCFSsymLarvPMA+UVyWo2CGLQao68=
-----END CERTIFICATE-----
