Certificate:
    Data:
        Version: 3 (0x2)
        Serial Number:
            21:f0:87:31:7b:d1:bc:9e:d6:67:16:4a:85:63:a3:ba:74:1a:60:e7
        Signature Algorithm: sha256WithRSAEncryption
        Issuer: C=CH, ST=Thurgau, L=Kefikon, O=guengel.ch, CN=CA 2022/emailAddress=postmaster@guengel.ch
        Validity
            Not Before: Jan  3 14:04:37 2025 GMT
            Not After : Feb  7 14:04:37 2026 GMT
        Subject: C=CH, ST=Thurgau, O=guengel.ch, CN=smtp-1/emailAddress=postmaster@guengel.ch
        Subject Public Key Info:
            Public Key Algorithm: rsaEncryption
                Public-Key: (2048 bit)
                Modulus:
                    00:bb:2f:bc:2c:77:b9:ac:a9:c0:82:4e:34:47:aa:
                    a0:05:7b:2a:b6:26:90:78:0e:11:c4:c8:f6:d0:f7:
                    4d:cd:20:50:64:d0:a0:59:2b:2d:10:4d:09:ea:72:
                    4a:1b:f6:bb:15:76:af:7d:78:7e:ed:07:87:94:35:
                    cc:2b:33:ee:bf:57:1d:e9:1b:9a:40:09:aa:e6:5e:
                    69:f7:28:93:4f:ee:7a:01:7f:ca:79:01:b6:ea:c5:
                    a8:e8:54:53:b1:b5:ea:e5:30:34:0a:b6:fd:72:92:
                    8f:06:98:76:83:bc:34:fc:28:d1:ed:1f:14:96:ce:
                    ae:2b:b1:78:f5:75:c0:07:d5:68:8b:38:e2:92:ad:
                    e0:3c:ca:1b:db:d4:d6:c2:b6:78:2a:1a:0f:6a:08:
                    14:f4:6f:e0:67:84:43:53:9d:32:59:3c:86:f0:c3:
                    82:a9:2b:05:9c:b0:06:91:15:d8:93:43:7b:23:ee:
                    4a:89:eb:dd:b8:e3:d3:56:c1:96:6c:15:48:db:85:
                    20:b4:8f:18:1a:8a:35:5d:f1:f7:e6:3d:68:94:90:
                    44:c4:c3:80:06:72:6f:3c:2b:86:12:b0:71:50:69:
                    9a:07:a7:7b:0b:7c:fc:c7:7d:cb:d9:b4:2e:14:df:
                    b0:67:f5:26:d7:51:41:17:61:67:f7:f9:34:bc:8c:
                    5d:f7
                Exponent: 65537 (0x10001)
        X509v3 extensions:
            X509v3 Basic Constraints: critical
                CA:FALSE
            X509v3 Key Usage: 
                Digital Signature, Key Encipherment, Key Agreement
            X509v3 Subject Key Identifier: 
                65:E7:AE:9A:C0:82:9E:CB:8A:59:90:A3:59:8E:CB:C8:89:9F:EC:38
            X509v3 Authority Key Identifier: 
                keyid:22:20:0D:51:40:61:42:BE:DD:BA:D9:C9:C1:77:B6:93:28:C3:99:EC
                DirName:/C=CH/ST=Thurgau/L=Kefikon/O=guengel.ch/CN=CA 2022/emailAddress=postmaster@guengel.ch
                serial:6D:29:90:54:E9:17:E9:C2:6A:E6:52:AD:84:4E:30:8E:6E:57:FB:1C
            Netscape Cert Type: 
                SSL Client, SSL Server
            X509v3 Extended Key Usage: 
                TLS Web Server Authentication, TLS Web Client Authentication
    Signature Algorithm: sha256WithRSAEncryption
    Signature Value:
        26:a7:d3:21:3b:e0:2d:41:83:a2:16:6d:85:55:3e:78:6b:ae:
        1f:c5:dd:f4:51:ea:5b:80:c9:3d:05:8a:98:ba:f5:3f:b7:d9:
        fb:2d:cd:11:8d:6c:59:5c:db:86:a9:df:ac:70:57:4e:06:c0:
        e5:a4:7c:c9:d6:0d:ca:1b:2f:14:35:91:05:e0:fb:1d:37:99:
        67:b4:75:71:3c:52:e9:86:1b:f1:41:8c:57:d8:2a:ac:06:8f:
        3a:06:de:4c:a6:23:5a:7a:52:c3:77:94:5e:0a:8b:14:d9:fb:
        a7:1d:86:24:60:8c:17:18:07:66:3e:bc:36:b2:cd:00:57:43:
        84:91:3a:21:f0:50:bf:99:4b:f4:1d:71:46:c3:fe:6f:32:fc:
        af:39:60:65:d4:90:97:59:e1:7e:74:0b:0b:02:e6:98:a2:89:
        bb:8c:62:57:8b:ac:3b:ef:d3:da:e9:bf:30:c5:39:cc:ac:e4:
        61:5e:66:7d:5b:4b:4e:e7:5e:2f:33:88:23:e0:7e:e4:f6:0a:
        9a:01:ec:53:65:e9:54:8f:39:52:1f:fb:c5:bd:5b:e7:7c:b0:
        31:36:02:b5:b2:41:2a:46:56:1c:8c:55:b1:ed:6c:76:0a:61:
        2d:09:ca:66:a2:dd:be:d6:f9:04:8a:34:0c:86:19:fe:84:26:
        a6:3a:33:ea:e9:d4:ae:d8:de:63:40:76:75:e4:e2:6d:e6:c7:
        f0:c4:21:aa:96:8c:bb:2d:3f:e4:8c:97:20:e9:e7:79:d5:16:
        a1:f5:98:36:64:94:f5:d3:f5:61:b9:2e:42:c7:b3:57:8f:b3:
        92:ab:b2:ae:63:8c:56:60:bd:af:1f:73:c1:97:40:d7:16:a9:
        b9:49:c7:1c:f7:47:22:9e:b2:3d:b6:c5:f4:e4:bf:c2:92:c5:
        20:f5:0d:bd:5e:af:f2:91:47:f8:00:e9:4b:90:17:96:fb:c8:
        47:4c:6c:f6:58:b7:b8:66:59:64:90:a5:ed:71:82:a2:dc:c3:
        96:fa:83:2e:a3:3e:b0:7f:e7:5a:31:ac:25:6a:67:bc:35:c7:
        92:34:63:3b:32:6f:d8:34:5d:ab:5f:eb:4c:0d:6a:72:0b:0b:
        49:bd:a0:34:1b:58:0c:76:ca:ef:10:85:22:6d:68:00:e9:58:
        b4:0b:d8:29:79:e9:83:53:dd:8b:b2:c6:f9:8e:2b:4c:41:3f:
        16:92:57:6d:05:88:a7:81:60:c4:68:37:d8:4e:6f:d3:4e:6f:
        e5:e8:9e:91:0e:24:80:b5:04:31:1e:ca:a2:3c:40:80:85:71:
        bb:04:76:e1:e7:db:a7:be:76:28:7b:91:24:5b:7b:5e:bc:1a:
        87:b7:e7:36:90:54:29:e3
-----BEGIN CERTIFICATE-----
MIIFqTCCA5GgAwIBAgIUIfCHMXvRvJ7WZxZKhWOjunQaYOcwDQYJKoZIhvcNAQEL
BQAwfjELMAkGA1UEBhMCQ0gxEDAOBgNVBAgTB1RodXJnYXUxEDAOBgNVBAcTB0tl
Zmlrb24xEzARBgNVBAoTCmd1ZW5nZWwuY2gxEDAOBgNVBAMTB0NBIDIwMjIxJDAi
BgkqhkiG9w0BCQEWFXBvc3RtYXN0ZXJAZ3VlbmdlbC5jaDAeFw0yNTAxMDMxNDA0
MzdaFw0yNjAyMDcxNDA0MzdaMGsxCzAJBgNVBAYTAkNIMRAwDgYDVQQIEwdUaHVy
Z2F1MRMwEQYDVQQKEwpndWVuZ2VsLmNoMQ8wDQYDVQQDEwZzbXRwLTExJDAiBgkq
hkiG9w0BCQEWFXBvc3RtYXN0ZXJAZ3VlbmdlbC5jaDCCASIwDQYJKoZIhvcNAQEB
BQADggEPADCCAQoCggEBALsvvCx3uaypwIJONEeqoAV7KrYmkHgOEcTI9tD3Tc0g
UGTQoFkrLRBNCepyShv2uxV2r314fu0Hh5Q1zCsz7r9XHekbmkAJquZeafcok0/u
egF/ynkBturFqOhUU7G16uUwNAq2/XKSjwaYdoO8NPwo0e0fFJbOriuxePV1wAfV
aIs44pKt4DzKG9vU1sK2eCoaD2oIFPRv4GeEQ1OdMlk8hvDDgqkrBZywBpEV2JND
eyPuSonr3bjj01bBlmwVSNuFILSPGBqKNV3x9+Y9aJSQRMTDgAZybzwrhhKwcVBp
mgenewt8/Md9y9m0LhTfsGf1JtdRQRdhZ/f5NLyMXfcCAwEAAaOCATAwggEsMAwG
A1UdEwEB/wQCMAAwCwYDVR0PBAQDAgOoMB0GA1UdDgQWBBRl566awIKey4pZkKNZ
jsvIiZ/sODCBvQYDVR0jBIG1MIGygBQiIA1RQGFCvt262cnBd7aTKMOZ7KGBg6SB
gDB+MQswCQYDVQQGEwJDSDEQMA4GA1UECBMHVGh1cmdhdTEQMA4GA1UEBxMHS2Vm
aWtvbjETMBEGA1UEChMKZ3VlbmdlbC5jaDEQMA4GA1UEAxMHQ0EgMjAyMjEkMCIG
CSqGSIb3DQEJARYVcG9zdG1hc3RlckBndWVuZ2VsLmNoghRtKZBU6RfpwmrmUq2E
TjCOblf7HDARBglghkgBhvhCAQEEBAMCBsAwHQYDVR0lBBYwFAYIKwYBBQUHAwEG
CCsGAQUFBwMCMA0GCSqGSIb3DQEBCwUAA4ICAQAmp9MhO+AtQYOiFm2FVT54a64f
xd30UepbgMk9BYqYuvU/t9n7Lc0RjWxZXNuGqd+scFdOBsDlpHzJ1g3KGy8UNZEF
4PsdN5lntHVxPFLphhvxQYxX2CqsBo86Bt5MpiNaelLDd5ReCosU2funHYYkYIwX
GAdmPrw2ss0AV0OEkToh8FC/mUv0HXFGw/5vMvyvOWBl1JCXWeF+dAsLAuaYoom7
jGJXi6w779Pa6b8wxTnMrORhXmZ9W0tO514vM4gj4H7k9gqaAexTZelUjzlSH/vF
vVvnfLAxNgK1skEqRlYcjFWx7Wx2CmEtCcpmot2+1vkEijQMhhn+hCamOjPq6dSu
2N5jQHZ15OJt5sfwxCGqloy7LT/kjJcg6ed51Rah9Zg2ZJT10/VhuS5Cx7NXj7OS
q7KuY4xWYL2vH3PBl0DXFqm5Sccc90cinrI9tsX05L/CksUg9Q29Xq/ykUf4AOlL
kBeW+8hHTGz2WLe4ZllkkKXtcYKi3MOW+oMuoz6wf+daMawlame8NceSNGM7Mm/Y
NF2rX+tMDWpyCwtJvaA0G1gMdsrvEIUibWgA6Vi0C9gpeemDU92Lssb5jitMQT8W
kldtBYingWDEaDfYTm/TTm/l6J6RDiSAtQQxHsqiPECAhXG7BHbh59unvnYoe5Ek
W3tevBqHt+c2kFQp4w==
-----END CERTIFICATE-----
