Certificate:
    Data:
        Version: 3 (0x2)
        Serial Number:
            71:5c:ca:a1:fb:55:51:92:4c:f2:15:6f:f2:8a:4f:93:a7:0c:ee:01
        Signature Algorithm: sha256WithRSAEncryption
        Issuer: C=CH, ST=Thurgau, L=Kefikon, O=guengel.ch, CN=CA 2022/emailAddress=postmaster@guengel.ch
        Validity
            Not Before: Dec 30 08:48:57 2023 GMT
            Not After : Feb  2 08:48:57 2025 GMT
        Subject: C=CH, ST=Thurgau, O=guengel.ch, CN=smtp-1/emailAddress=postmaster@guengel.ch
        Subject Public Key Info:
            Public Key Algorithm: rsaEncryption
                RSA Public-Key: (2048 bit)
                Modulus:
                    00:bb:2f:bc:2c:77:b9:ac:a9:c0:82:4e:34:47:aa:
                    a0:05:7b:2a:b6:26:90:78:0e:11:c4:c8:f6:d0:f7:
                    4d:cd:20:50:64:d0:a0:59:2b:2d:10:4d:09:ea:72:
                    4a:1b:f6:bb:15:76:af:7d:78:7e:ed:07:87:94:35:
                    cc:2b:33:ee:bf:57:1d:e9:1b:9a:40:09:aa:e6:5e:
                    69:f7:28:93:4f:ee:7a:01:7f:ca:79:01:b6:ea:c5:
                    a8:e8:54:53:b1:b5:ea:e5:30:34:0a:b6:fd:72:92:
                    8f:06:98:76:83:bc:34:fc:28:d1:ed:1f:14:96:ce:
                    ae:2b:b1:78:f5:75:c0:07:d5:68:8b:38:e2:92:ad:
                    e0:3c:ca:1b:db:d4:d6:c2:b6:78:2a:1a:0f:6a:08:
                    14:f4:6f:e0:67:84:43:53:9d:32:59:3c:86:f0:c3:
                    82:a9:2b:05:9c:b0:06:91:15:d8:93:43:7b:23:ee:
                    4a:89:eb:dd:b8:e3:d3:56:c1:96:6c:15:48:db:85:
                    20:b4:8f:18:1a:8a:35:5d:f1:f7:e6:3d:68:94:90:
                    44:c4:c3:80:06:72:6f:3c:2b:86:12:b0:71:50:69:
                    9a:07:a7:7b:0b:7c:fc:c7:7d:cb:d9:b4:2e:14:df:
                    b0:67:f5:26:d7:51:41:17:61:67:f7:f9:34:bc:8c:
                    5d:f7
                Exponent: 65537 (0x10001)
        X509v3 extensions:
            X509v3 Basic Constraints: critical
                CA:FALSE
            X509v3 Key Usage: 
                Digital Signature, Key Encipherment, Key Agreement
            X509v3 Subject Key Identifier: 
                65:E7:AE:9A:C0:82:9E:CB:8A:59:90:A3:59:8E:CB:C8:89:9F:EC:38
            X509v3 Authority Key Identifier: 
                keyid:22:20:0D:51:40:61:42:BE:DD:BA:D9:C9:C1:77:B6:93:28:C3:99:EC
                DirName:/C=CH/ST=Thurgau/L=Kefikon/O=guengel.ch/CN=CA 2022/emailAddress=postmaster@guengel.ch
                serial:6D:29:90:54:E9:17:E9:C2:6A:E6:52:AD:84:4E:30:8E:6E:57:FB:1C

            Netscape Cert Type: 
                SSL Client, SSL Server
            X509v3 Extended Key Usage: 
                TLS Web Server Authentication, TLS Web Client Authentication
    Signature Algorithm: sha256WithRSAEncryption
         7d:b2:c2:a3:f7:ce:ce:5d:28:b7:d6:8d:d6:e9:3c:e5:a2:ae:
         76:2e:9a:8a:75:4d:fe:ef:70:e6:09:a7:30:e6:e7:d2:a6:29:
         8e:c5:b5:2e:96:db:68:89:c6:3f:ff:4f:71:46:91:4c:04:9b:
         fd:fd:06:0f:72:15:97:aa:3b:56:7e:6d:a2:4e:92:e6:ec:9a:
         2d:ca:72:8a:87:37:97:00:25:4e:90:ed:b1:15:40:49:45:79:
         c4:76:1e:dc:90:53:0a:eb:8d:1d:84:cc:5b:44:b0:cf:ce:d2:
         00:75:e4:c8:e1:1a:13:29:40:cf:84:ff:05:50:25:3f:42:6a:
         c7:46:cc:d6:e3:7d:b1:7a:80:75:52:43:66:fd:3c:df:b2:55:
         bd:02:b2:0c:0e:99:61:05:8a:31:23:fa:98:74:ee:0a:8a:e2:
         e8:e6:c4:88:2a:d6:b2:01:45:53:6a:aa:30:4a:7e:8f:a5:4a:
         8a:30:b0:26:e0:ac:4d:d7:7c:93:9c:65:b6:df:1b:00:a5:67:
         d2:a9:8d:1a:1a:21:48:d8:32:62:21:0c:b0:f1:b0:63:56:b1:
         86:14:0c:64:ee:0c:a9:e2:35:92:a1:e9:d9:44:09:3d:98:51:
         2c:f9:5e:03:25:e3:6b:4e:ab:a4:03:79:59:77:ce:b5:57:c4:
         d4:69:59:d1:0a:32:07:eb:b2:95:a2:b4:64:10:77:d5:8c:76:
         1a:d3:ab:21:90:f5:5e:31:49:a5:5d:2a:50:47:2d:d4:e3:98:
         a5:1c:2f:30:e2:7b:bb:51:21:4f:c1:b1:29:7e:a0:ba:8d:27:
         c0:89:f4:17:24:2e:88:b8:df:af:b7:3b:d6:c7:6e:61:8f:53:
         1c:ab:bc:04:2f:b9:e2:95:56:1c:26:48:1d:85:77:6c:81:31:
         46:e8:2c:58:f6:0d:84:96:25:3c:9e:ee:14:0b:3c:9f:80:8a:
         6c:a6:99:22:8f:b2:7a:77:da:29:1d:a6:49:1e:94:f3:f8:f6:
         9f:c1:d3:0e:50:90:c2:90:f6:31:ac:57:06:71:b4:31:26:04:
         c5:63:98:9c:ec:53:7f:99:23:45:21:29:09:ed:21:0b:13:ee:
         34:61:dd:0b:53:9d:00:2c:2a:61:d7:87:89:97:81:19:4c:1c:
         1a:7b:da:1f:75:c1:26:7a:c1:97:4b:2a:dc:40:f1:dc:81:c9:
         44:cc:3f:45:fb:57:72:6b:51:15:03:e5:5a:05:85:51:e8:99:
         4a:b7:e8:bc:17:3b:3c:6c:59:79:8d:d0:a4:5c:67:c4:20:68:
         da:c4:3d:14:d6:ee:68:a1:4e:27:c0:47:24:e1:4c:c1:be:cd:
         fc:6a:5d:99:d2:0d:1a:17
-----BEGIN CERTIFICATE-----
MIIFqTCCA5GgAwIBAgIUcVzKoftVUZJM8hVv8opPk6cM7gEwDQYJKoZIhvcNAQEL
BQAwfjELMAkGA1UEBhMCQ0gxEDAOBgNVBAgTB1RodXJnYXUxEDAOBgNVBAcTB0tl
Zmlrb24xEzARBgNVBAoTCmd1ZW5nZWwuY2gxEDAOBgNVBAMTB0NBIDIwMjIxJDAi
BgkqhkiG9w0BCQEWFXBvc3RtYXN0ZXJAZ3VlbmdlbC5jaDAeFw0yMzEyMzAwODQ4
NTdaFw0yNTAyMDIwODQ4NTdaMGsxCzAJBgNVBAYTAkNIMRAwDgYDVQQIEwdUaHVy
Z2F1MRMwEQYDVQQKEwpndWVuZ2VsLmNoMQ8wDQYDVQQDEwZzbXRwLTExJDAiBgkq
hkiG9w0BCQEWFXBvc3RtYXN0ZXJAZ3VlbmdlbC5jaDCCASIwDQYJKoZIhvcNAQEB
BQADggEPADCCAQoCggEBALsvvCx3uaypwIJONEeqoAV7KrYmkHgOEcTI9tD3Tc0g
UGTQoFkrLRBNCepyShv2uxV2r314fu0Hh5Q1zCsz7r9XHekbmkAJquZeafcok0/u
egF/ynkBturFqOhUU7G16uUwNAq2/XKSjwaYdoO8NPwo0e0fFJbOriuxePV1wAfV
aIs44pKt4DzKG9vU1sK2eCoaD2oIFPRv4GeEQ1OdMlk8hvDDgqkrBZywBpEV2JND
eyPuSonr3bjj01bBlmwVSNuFILSPGBqKNV3x9+Y9aJSQRMTDgAZybzwrhhKwcVBp
mgenewt8/Md9y9m0LhTfsGf1JtdRQRdhZ/f5NLyMXfcCAwEAAaOCATAwggEsMAwG
A1UdEwEB/wQCMAAwCwYDVR0PBAQDAgOoMB0GA1UdDgQWBBRl566awIKey4pZkKNZ
jsvIiZ/sODCBvQYDVR0jBIG1MIGygBQiIA1RQGFCvt262cnBd7aTKMOZ7KGBg6SB
gDB+MQswCQYDVQQGEwJDSDEQMA4GA1UECBMHVGh1cmdhdTEQMA4GA1UEBxMHS2Vm
aWtvbjETMBEGA1UEChMKZ3VlbmdlbC5jaDEQMA4GA1UEAxMHQ0EgMjAyMjEkMCIG
CSqGSIb3DQEJARYVcG9zdG1hc3RlckBndWVuZ2VsLmNoghRtKZBU6RfpwmrmUq2E
TjCOblf7HDARBglghkgBhvhCAQEEBAMCBsAwHQYDVR0lBBYwFAYIKwYBBQUHAwEG
CCsGAQUFBwMCMA0GCSqGSIb3DQEBCwUAA4ICAQB9ssKj987OXSi31o3W6Tzloq52
LpqKdU3+73DmCacw5ufSpimOxbUulttoicY//09xRpFMBJv9/QYPchWXqjtWfm2i
TpLm7JotynKKhzeXACVOkO2xFUBJRXnEdh7ckFMK640dhMxbRLDPztIAdeTI4RoT
KUDPhP8FUCU/QmrHRszW432xeoB1UkNm/TzfslW9ArIMDplhBYoxI/qYdO4KiuLo
5sSIKtayAUVTaqowSn6PpUqKMLAm4KxN13yTnGW23xsApWfSqY0aGiFI2DJiIQyw
8bBjVrGGFAxk7gyp4jWSoenZRAk9mFEs+V4DJeNrTqukA3lZd861V8TUaVnRCjIH
67KVorRkEHfVjHYa06shkPVeMUmlXSpQRy3U45ilHC8w4nu7USFPwbEpfqC6jSfA
ifQXJC6IuN+vtzvWx25hj1Mcq7wEL7nilVYcJkgdhXdsgTFG6CxY9g2EliU8nu4U
CzyfgIpsppkij7J6d9opHaZJHpTz+PafwdMOUJDCkPYxrFcGcbQxJgTFY5ic7FN/
mSNFISkJ7SELE+40Yd0LU50ALCph14eJl4EZTBwae9ofdcEmesGXSyrcQPHcgclE
zD9F+1dya1EVA+VaBYVR6JlKt+i8Fzs8bFl5jdCkXGfEIGjaxD0U1u5ooU4nwEck
4UzBvs38al2Z0g0aFw==
-----END CERTIFICATE-----
