Certificate:
    Data:
        Version: 3 (0x2)
        Serial Number:
            27:90:91:50:ec:56:20:89:3f:8f:a4:81:28:17:20:70:e3:0f:6f:0e
        Signature Algorithm: sha256WithRSAEncryption
        Issuer: C=CH, ST=Thurgau, L=Kefikon, O=guengel.ch, CN=CA 2022/emailAddress=postmaster@guengel.ch
        Validity
            Not Before: Feb 28 06:43:06 2023 GMT
            Not After : Apr  3 06:43:06 2024 GMT
        Subject: C=CH, ST=Thurgau, O=guengel.ch, CN=smtp-1/emailAddress=postmaster@guengel.ch
        Subject Public Key Info:
            Public Key Algorithm: rsaEncryption
                RSA Public-Key: (2048 bit)
                Modulus:
                    00:bb:2f:bc:2c:77:b9:ac:a9:c0:82:4e:34:47:aa:
                    a0:05:7b:2a:b6:26:90:78:0e:11:c4:c8:f6:d0:f7:
                    4d:cd:20:50:64:d0:a0:59:2b:2d:10:4d:09:ea:72:
                    4a:1b:f6:bb:15:76:af:7d:78:7e:ed:07:87:94:35:
                    cc:2b:33:ee:bf:57:1d:e9:1b:9a:40:09:aa:e6:5e:
                    69:f7:28:93:4f:ee:7a:01:7f:ca:79:01:b6:ea:c5:
                    a8:e8:54:53:b1:b5:ea:e5:30:34:0a:b6:fd:72:92:
                    8f:06:98:76:83:bc:34:fc:28:d1:ed:1f:14:96:ce:
                    ae:2b:b1:78:f5:75:c0:07:d5:68:8b:38:e2:92:ad:
                    e0:3c:ca:1b:db:d4:d6:c2:b6:78:2a:1a:0f:6a:08:
                    14:f4:6f:e0:67:84:43:53:9d:32:59:3c:86:f0:c3:
                    82:a9:2b:05:9c:b0:06:91:15:d8:93:43:7b:23:ee:
                    4a:89:eb:dd:b8:e3:d3:56:c1:96:6c:15:48:db:85:
                    20:b4:8f:18:1a:8a:35:5d:f1:f7:e6:3d:68:94:90:
                    44:c4:c3:80:06:72:6f:3c:2b:86:12:b0:71:50:69:
                    9a:07:a7:7b:0b:7c:fc:c7:7d:cb:d9:b4:2e:14:df:
                    b0:67:f5:26:d7:51:41:17:61:67:f7:f9:34:bc:8c:
                    5d:f7
                Exponent: 65537 (0x10001)
        X509v3 extensions:
            X509v3 Basic Constraints: critical
                CA:FALSE
            X509v3 Key Usage: 
                Digital Signature, Key Encipherment, Key Agreement
            X509v3 Subject Key Identifier: 
                65:E7:AE:9A:C0:82:9E:CB:8A:59:90:A3:59:8E:CB:C8:89:9F:EC:38
            X509v3 Authority Key Identifier: 
                keyid:22:20:0D:51:40:61:42:BE:DD:BA:D9:C9:C1:77:B6:93:28:C3:99:EC
                DirName:/C=CH/ST=Thurgau/L=Kefikon/O=guengel.ch/CN=CA 2022/emailAddress=postmaster@guengel.ch
                serial:6D:29:90:54:E9:17:E9:C2:6A:E6:52:AD:84:4E:30:8E:6E:57:FB:1C

            Netscape Cert Type: 
                SSL Client, SSL Server
            X509v3 Extended Key Usage: 
                TLS Web Server Authentication, TLS Web Client Authentication
    Signature Algorithm: sha256WithRSAEncryption
         42:44:b8:c5:71:95:3a:ca:54:c8:5c:71:2e:2e:ff:50:44:7b:
         77:df:ea:31:75:56:db:56:86:ed:cd:14:29:5a:3f:06:ca:f6:
         6c:e5:52:f3:87:ac:36:69:27:f6:5e:ca:3e:40:7f:cf:c0:b1:
         83:ae:03:4f:f6:2c:1d:ba:46:23:e5:63:04:fe:bd:ed:82:2a:
         d7:c8:81:63:e9:89:b3:4d:37:7a:03:1b:0c:5b:95:7c:19:0e:
         ab:46:ee:6f:5a:50:c7:f4:f5:1b:de:9e:a1:92:e5:19:d3:59:
         4c:d3:9f:32:98:e5:8f:dd:df:96:4a:58:51:be:0f:3d:fe:f1:
         ca:dd:79:14:e0:40:7c:44:33:1b:05:be:ab:3d:68:da:2b:a1:
         b2:e8:5f:43:29:a1:01:31:7d:72:d4:8f:af:cb:b8:30:ce:56:
         1e:8d:c1:65:07:c2:25:d1:ac:b6:c5:7e:54:be:8d:cb:28:58:
         43:75:10:b5:b6:b5:95:0b:42:ef:e9:66:bb:4e:c2:32:4c:52:
         c8:5c:3c:a0:03:2f:e4:e2:79:e1:89:92:0a:b5:89:a3:56:2c:
         7e:09:76:06:69:53:86:95:3c:8e:f4:c9:b1:d8:d7:30:ed:7d:
         47:f2:a8:11:17:68:9e:9f:71:0a:cb:ca:c8:d6:6b:7b:89:af:
         29:58:44:29:f0:b6:c6:ea:34:e7:6b:bb:8e:e3:e5:d3:78:54:
         18:0f:15:f0:60:aa:ec:73:d5:a9:3e:ab:fc:2c:bd:a3:78:bc:
         15:28:66:da:37:d9:78:38:c4:d7:4c:5f:0d:08:09:76:9b:35:
         17:bb:39:c0:63:7e:c0:d4:08:bb:dd:c5:a0:b5:6c:2f:be:a8:
         ce:3d:c3:d5:f3:3c:c4:98:5c:33:a9:f6:ec:9a:96:f7:69:85:
         60:17:ef:c7:06:02:96:06:62:07:90:a5:6b:17:3e:e6:80:c8:
         ce:c5:79:dd:e5:c7:c3:26:7c:94:e9:29:a7:e2:e5:8c:4d:4e:
         6c:1b:bb:d8:3e:f2:8c:d5:5f:fd:d5:ac:da:6a:75:85:58:d8:
         ea:20:e8:45:59:a0:58:7c:55:b7:8b:83:e0:cf:15:5e:6d:11:
         37:58:67:aa:74:79:91:40:de:22:eb:db:83:6d:fe:09:49:a6:
         e8:d9:c8:81:b4:16:c2:a3:65:ec:49:39:b4:bd:be:82:c8:46:
         02:1f:5b:69:a7:6a:eb:e2:68:95:b9:4f:ea:ee:df:8f:a0:36:
         ec:ff:98:92:c9:55:d6:f2:27:66:89:4a:27:50:0d:bc:3e:58:
         71:97:83:90:5a:b8:4e:98:c6:2b:c5:a1:d8:a1:52:05:32:7f:
         23:eb:93:15:3a:7f:e7:7d
-----BEGIN CERTIFICATE-----
MIIFqTCCA5GgAwIBAgIUJ5CRUOxWIIk/j6SBKBcgcOMPbw4wDQYJKoZIhvcNAQEL
BQAwfjELMAkGA1UEBhMCQ0gxEDAOBgNVBAgTB1RodXJnYXUxEDAOBgNVBAcTB0tl
Zmlrb24xEzARBgNVBAoTCmd1ZW5nZWwuY2gxEDAOBgNVBAMTB0NBIDIwMjIxJDAi
BgkqhkiG9w0BCQEWFXBvc3RtYXN0ZXJAZ3VlbmdlbC5jaDAeFw0yMzAyMjgwNjQz
MDZaFw0yNDA0MDMwNjQzMDZaMGsxCzAJBgNVBAYTAkNIMRAwDgYDVQQIEwdUaHVy
Z2F1MRMwEQYDVQQKEwpndWVuZ2VsLmNoMQ8wDQYDVQQDEwZzbXRwLTExJDAiBgkq
hkiG9w0BCQEWFXBvc3RtYXN0ZXJAZ3VlbmdlbC5jaDCCASIwDQYJKoZIhvcNAQEB
BQADggEPADCCAQoCggEBALsvvCx3uaypwIJONEeqoAV7KrYmkHgOEcTI9tD3Tc0g
UGTQoFkrLRBNCepyShv2uxV2r314fu0Hh5Q1zCsz7r9XHekbmkAJquZeafcok0/u
egF/ynkBturFqOhUU7G16uUwNAq2/XKSjwaYdoO8NPwo0e0fFJbOriuxePV1wAfV
aIs44pKt4DzKG9vU1sK2eCoaD2oIFPRv4GeEQ1OdMlk8hvDDgqkrBZywBpEV2JND
eyPuSonr3bjj01bBlmwVSNuFILSPGBqKNV3x9+Y9aJSQRMTDgAZybzwrhhKwcVBp
mgenewt8/Md9y9m0LhTfsGf1JtdRQRdhZ/f5NLyMXfcCAwEAAaOCATAwggEsMAwG
A1UdEwEB/wQCMAAwCwYDVR0PBAQDAgOoMB0GA1UdDgQWBBRl566awIKey4pZkKNZ
jsvIiZ/sODCBvQYDVR0jBIG1MIGygBQiIA1RQGFCvt262cnBd7aTKMOZ7KGBg6SB
gDB+MQswCQYDVQQGEwJDSDEQMA4GA1UECBMHVGh1cmdhdTEQMA4GA1UEBxMHS2Vm
aWtvbjETMBEGA1UEChMKZ3VlbmdlbC5jaDEQMA4GA1UEAxMHQ0EgMjAyMjEkMCIG
CSqGSIb3DQEJARYVcG9zdG1hc3RlckBndWVuZ2VsLmNoghRtKZBU6RfpwmrmUq2E
TjCOblf7HDARBglghkgBhvhCAQEEBAMCBsAwHQYDVR0lBBYwFAYIKwYBBQUHAwEG
CCsGAQUFBwMCMA0GCSqGSIb3DQEBCwUAA4ICAQBCRLjFcZU6ylTIXHEuLv9QRHt3
3+oxdVbbVobtzRQpWj8GyvZs5VLzh6w2aSf2Xso+QH/PwLGDrgNP9iwdukYj5WME
/r3tgirXyIFj6YmzTTd6AxsMW5V8GQ6rRu5vWlDH9PUb3p6hkuUZ01lM058ymOWP
3d+WSlhRvg89/vHK3XkU4EB8RDMbBb6rPWjaK6Gy6F9DKaEBMX1y1I+vy7gwzlYe
jcFlB8Il0ay2xX5Uvo3LKFhDdRC1trWVC0Lv6Wa7TsIyTFLIXDygAy/k4nnhiZIK
tYmjVix+CXYGaVOGlTyO9Mmx2Ncw7X1H8qgRF2ien3EKy8rI1mt7ia8pWEQp8LbG
6jTna7uO4+XTeFQYDxXwYKrsc9WpPqv8LL2jeLwVKGbaN9l4OMTXTF8NCAl2mzUX
uznAY37A1Ai73cWgtWwvvqjOPcPV8zzEmFwzqfbsmpb3aYVgF+/HBgKWBmIHkKVr
Fz7mgMjOxXnd5cfDJnyU6Smn4uWMTU5sG7vYPvKM1V/91azaanWFWNjqIOhFWaBY
fFW3i4PgzxVebRE3WGeqdHmRQN4i69uDbf4JSabo2ciBtBbCo2XsSTm0vb6CyEYC
H1tpp2rr4miVuU/q7t+PoDbs/5iSyVXW8idmiUonUA28Plhxl4OQWrhOmMYrxaHY
oVIFMn8j65MVOn/nfQ==
-----END CERTIFICATE-----
