Certificate:
    Data:
        Version: 3 (0x2)
        Serial Number: 426 (0x1aa)
        Signature Algorithm: sha256WithRSAEncryption
        Issuer: C=CH, ST=Thurgau, L=Kefikon, O=guengel.ch, CN=CA guengel.ch/emailAddress=postmaster@guengel.ch
        Validity
            Not Before: Feb  6 15:13:09 2021 GMT
            Not After : Mar 13 15:13:09 2022 GMT
        Subject: C=CH, ST=Thurgau, O=guengel.ch, CN=smtp-1/emailAddress=postmaster@guengel.ch
        Subject Public Key Info:
            Public Key Algorithm: rsaEncryption
                RSA Public-Key: (2048 bit)
                Modulus:
                    00:b3:91:cd:4e:f7:9f:32:5f:fd:65:d0:3b:9e:1d:
                    3d:12:d3:91:49:50:38:64:96:a4:f9:40:63:eb:d8:
                    03:56:5a:ed:17:05:50:aa:a1:7d:62:0e:a2:08:3b:
                    40:c2:c8:15:49:0f:20:0c:84:e1:e7:01:15:3e:fa:
                    26:e9:10:2c:6b:c0:b6:13:16:7d:dc:f8:d2:78:d8:
                    bc:83:98:04:c4:05:46:3b:21:b2:07:ea:85:4c:4d:
                    c8:42:57:f8:40:98:32:cb:b6:9d:77:d4:16:2e:e3:
                    73:61:93:f4:36:6a:5c:d8:62:5b:07:c6:51:69:96:
                    bf:33:9b:33:2d:0d:25:ed:47:60:94:f7:bb:c3:13:
                    80:36:39:4d:ac:51:4d:3e:c2:44:0b:10:d8:2d:57:
                    c2:08:44:91:fa:87:eb:48:1c:4f:9a:a6:73:8a:9a:
                    8b:a3:48:20:41:f0:8a:2a:44:dd:61:f7:f2:35:e6:
                    fa:4a:23:24:d1:90:73:01:88:68:ce:54:d6:10:d0:
                    39:46:d7:1c:8a:19:c0:4e:35:a5:ce:c5:e4:58:b4:
                    ba:35:b3:c2:1c:72:d4:c8:dc:f2:77:27:f1:b7:08:
                    78:83:84:cc:fc:62:10:c1:52:94:c3:43:54:61:87:
                    5a:27:e3:54:9f:70:de:4b:09:49:eb:ed:0e:0f:4e:
                    18:bb
                Exponent: 65537 (0x10001)
        X509v3 extensions:
            X509v3 Key Usage: 
                Digital Signature, Key Encipherment, Key Agreement
            X509v3 Basic Constraints: critical
                CA:FALSE
            Netscape Cert Type: 
                SSL Client, SSL Server
            X509v3 Extended Key Usage: 
                TLS Web Server Authentication, TLS Web Client Authentication
            X509v3 Subject Alternative Name: 
                DNS:smtp-1
            X509v3 Subject Key Identifier: 
                79:2B:FD:1A:F1:CB:84:ED:B1:3F:0D:9B:7D:B3:9D:C1:C8:8B:DD:00
            X509v3 Authority Key Identifier: 
                keyid:D6:88:F1:AA:C1:2B:09:8C:B8:5C:9D:CE:DF:57:39:62:26:10:20:90
                DirName:/C=CH/ST=Thurgau/L=Kefikon/O=guengel.ch/CN=CA guengel.ch/emailAddress=postmaster@guengel.ch
                serial:E5:25:3B:A6:77:BD:CB:FF

    Signature Algorithm: sha256WithRSAEncryption
         c0:d2:4c:b6:d9:fe:cb:94:f6:e4:2f:86:64:9f:4f:b3:63:92:
         31:35:b6:aa:db:a6:1c:64:5e:de:58:03:3a:9d:06:ad:cc:bc:
         32:0a:e3:d7:ad:90:f9:58:0f:8d:5e:ed:c4:e3:d8:86:cd:46:
         14:3a:7d:58:5b:ff:3a:01:19:76:6d:bd:8a:4a:82:5c:ab:9f:
         e7:22:cf:50:5c:18:70:36:b0:ff:1a:2b:cd:f7:7f:b6:c2:be:
         d6:a9:a1:14:3e:b2:9f:5b:56:e4:f0:b2:d1:81:18:4a:75:c2:
         5c:57:20:6e:78:6b:ad:79:e7:ee:39:11:4b:a8:f7:ac:33:81:
         9a:47:9e:39:a3:93:32:67:7f:49:40:7c:69:1b:38:24:34:50:
         b1:c3:9d:82:e2:dd:2c:e7:1b:38:8f:4c:f7:64:63:8c:9c:71:
         3a:4e:00:5b:36:50:0f:6e:df:84:cd:81:41:9e:de:ab:8d:14:
         e0:3f:2d:4d:fe:57:3d:86:ff:37:28:75:ae:a9:6f:3b:91:7f:
         1e:7d:af:48:e3:9e:d1:c2:90:af:7c:43:c2:3f:2d:4e:36:c2:
         87:42:92:e3:1f:6d:3f:75:b4:b5:ec:cd:9d:15:af:5a:5c:08:
         bd:1d:11:06:22:e6:1d:f7:ca:23:4e:85:87:dd:d8:60:09:95:
         f1:2b:8f:fd:45:45:94:de:13:91:59:32:5f:da:ca:4d:7e:4d:
         fa:f4:bf:33:35:dc:02:84:9f:ce:2b:b8:1d:de:85:46:56:4f:
         c5:4a:1c:09:f7:4f:64:9b:98:d5:b3:53:4f:ca:f6:f9:a1:75:
         77:e6:42:88:e3:32:b9:6a:d0:2f:91:1c:dc:3a:3c:f1:f8:06:
         83:e1:66:f9:8f:e6:3e:e8:d4:aa:89:90:e1:f5:ef:ca:40:a2:
         10:eb:3d:7b:e9:22:0f:e6:f2:79:f3:40:01:9f:ae:f7:ae:0e:
         2e:e8:e6:de:c0:3f:7d:32:66:5d:54:2a:aa:a1:ae:71:f8:31:
         63:b3:b7:b4:c9:45:34:98:53:67:51:ae:10:3a:28:8f:23:61:
         9b:47:2c:06:bc:10:22:6b:1a:2e:a4:45:93:eb:df:4f:61:b8:
         7b:24:be:87:75:8b:f3:43:32:03:b3:ce:cc:f7:a5:2c:eb:bb:
         5d:08:34:9f:6c:2d:16:35:57:ad:5a:0c:c8:49:a6:ef:00:13:
         cb:5b:ec:42:d4:d6:cd:07:61:a0:8d:9b:a2:92:e3:93:84:a1:
         ae:d1:14:e6:dc:b4:37:e7:ff:03:d4:db:d2:97:b7:6b:9b:44:
         6d:3c:95:2c:82:b1:3e:1f:ea:88:86:11:15:a4:bc:41:83:11:
         cf:0a:60:54:50:8a:8f:f8
-----BEGIN CERTIFICATE-----
MIIFrTCCA5WgAwIBAgICAaowDQYJKoZIhvcNAQELBQAwgYQxCzAJBgNVBAYTAkNI
MRAwDgYDVQQIEwdUaHVyZ2F1MRAwDgYDVQQHEwdLZWZpa29uMRMwEQYDVQQKEwpn
dWVuZ2VsLmNoMRYwFAYDVQQDEw1DQSBndWVuZ2VsLmNoMSQwIgYJKoZIhvcNAQkB
FhVwb3N0bWFzdGVyQGd1ZW5nZWwuY2gwHhcNMjEwMjA2MTUxMzA5WhcNMjIwMzEz
MTUxMzA5WjBrMQswCQYDVQQGEwJDSDEQMA4GA1UECBMHVGh1cmdhdTETMBEGA1UE
ChMKZ3VlbmdlbC5jaDEPMA0GA1UEAxMGc210cC0xMSQwIgYJKoZIhvcNAQkBFhVw
b3N0bWFzdGVyQGd1ZW5nZWwuY2gwggEiMA0GCSqGSIb3DQEBAQUAA4IBDwAwggEK
AoIBAQCzkc1O958yX/1l0DueHT0S05FJUDhklqT5QGPr2ANWWu0XBVCqoX1iDqII
O0DCyBVJDyAMhOHnARU++ibpECxrwLYTFn3c+NJ42LyDmATEBUY7IbIH6oVMTchC
V/hAmDLLtp131BYu43Nhk/Q2alzYYlsHxlFplr8zmzMtDSXtR2CU97vDE4A2OU2s
UU0+wkQLENgtV8IIRJH6h+tIHE+apnOKmoujSCBB8IoqRN1h9/I15vpKIyTRkHMB
iGjOVNYQ0DlG1xyKGcBONaXOxeRYtLo1s8IcctTI3PJ3J/G3CHiDhMz8YhDBUpTD
Q1Rhh1on41SfcN5LCUnr7Q4PThi7AgMBAAGjggE/MIIBOzALBgNVHQ8EBAMCA6gw
DAYDVR0TAQH/BAIwADARBglghkgBhvhCAQEEBAMCBsAwHQYDVR0lBBYwFAYIKwYB
BQUHAwEGCCsGAQUFBwMCMBEGA1UdEQQKMAiCBnNtdHAtMTAdBgNVHQ4EFgQUeSv9
GvHLhO2xPw2bfbOdwciL3QAwgbkGA1UdIwSBsTCBroAU1ojxqsErCYy4XJ3O31c5
YiYQIJChgYqkgYcwgYQxCzAJBgNVBAYTAkNIMRAwDgYDVQQIEwdUaHVyZ2F1MRAw
DgYDVQQHEwdLZWZpa29uMRMwEQYDVQQKEwpndWVuZ2VsLmNoMRYwFAYDVQQDEw1D
QSBndWVuZ2VsLmNoMSQwIgYJKoZIhvcNAQkBFhVwb3N0bWFzdGVyQGd1ZW5nZWwu
Y2iCCQDlJTumd73L/zANBgkqhkiG9w0BAQsFAAOCAgEAwNJMttn+y5T25C+GZJ9P
s2OSMTW2qtumHGRe3lgDOp0Grcy8Mgrj162Q+VgPjV7txOPYhs1GFDp9WFv/OgEZ
dm29ikqCXKuf5yLPUFwYcDaw/xorzfd/tsK+1qmhFD6yn1tW5PCy0YEYSnXCXFcg
bnhrrXnn7jkRS6j3rDOBmkeeOaOTMmd/SUB8aRs4JDRQscOdguLdLOcbOI9M92Rj
jJxxOk4AWzZQD27fhM2BQZ7eq40U4D8tTf5XPYb/Nyh1rqlvO5F/Hn2vSOOe0cKQ
r3xDwj8tTjbCh0KS4x9tP3W0tezNnRWvWlwIvR0RBiLmHffKI06Fh93YYAmV8SuP
/UVFlN4TkVkyX9rKTX5N+vS/MzXcAoSfziu4Hd6FRlZPxUocCfdPZJuY1bNTT8r2
+aF1d+ZCiOMyuWrQL5Ec3Do88fgGg+Fm+Y/mPujUqomQ4fXvykCiEOs9e+kiD+by
efNAAZ+u964OLujm3sA/fTJmXVQqqqGucfgxY7O3tMlFNJhTZ1GuEDoojyNhm0cs
BrwQImsaLqRFk+vfT2G4eyS+h3WL80MyA7POzPelLOu7XQg0n2wtFjVXrVoMyEmm
7wATy1vsQtTWzQdhoI2bopLjk4ShrtEU5ty0N+f/A9Tb0pe3a5tEbTyVLIKxPh/q
iIYRFaS8QYMRzwpgVFCKj/g=
-----END CERTIFICATE-----
