Certificate:
    Data:
        Version: 3 (0x2)
        Serial Number:
            76:0d:6e:22:4e:af:3f:4d:ad:05:99:0e:37:2a:8b:99:5e:53:31:3d
        Signature Algorithm: sha256WithRSAEncryption
        Issuer: C=CH, ST=Thurgau, L=Kefikon, O=guengel.ch, CN=CA 2022/emailAddress=postmaster@guengel.ch
        Validity
            Not Before: Feb 11 13:57:43 2022 GMT
            Not After : Mar 18 13:57:43 2023 GMT
        Subject: C=CH, ST=Thurgau, O=guengel.ch, CN=smtp-1/emailAddress=postmaster@guengel.ch
        Subject Public Key Info:
            Public Key Algorithm: rsaEncryption
                RSA Public-Key: (2048 bit)
                Modulus:
                    00:bb:2f:bc:2c:77:b9:ac:a9:c0:82:4e:34:47:aa:
                    a0:05:7b:2a:b6:26:90:78:0e:11:c4:c8:f6:d0:f7:
                    4d:cd:20:50:64:d0:a0:59:2b:2d:10:4d:09:ea:72:
                    4a:1b:f6:bb:15:76:af:7d:78:7e:ed:07:87:94:35:
                    cc:2b:33:ee:bf:57:1d:e9:1b:9a:40:09:aa:e6:5e:
                    69:f7:28:93:4f:ee:7a:01:7f:ca:79:01:b6:ea:c5:
                    a8:e8:54:53:b1:b5:ea:e5:30:34:0a:b6:fd:72:92:
                    8f:06:98:76:83:bc:34:fc:28:d1:ed:1f:14:96:ce:
                    ae:2b:b1:78:f5:75:c0:07:d5:68:8b:38:e2:92:ad:
                    e0:3c:ca:1b:db:d4:d6:c2:b6:78:2a:1a:0f:6a:08:
                    14:f4:6f:e0:67:84:43:53:9d:32:59:3c:86:f0:c3:
                    82:a9:2b:05:9c:b0:06:91:15:d8:93:43:7b:23:ee:
                    4a:89:eb:dd:b8:e3:d3:56:c1:96:6c:15:48:db:85:
                    20:b4:8f:18:1a:8a:35:5d:f1:f7:e6:3d:68:94:90:
                    44:c4:c3:80:06:72:6f:3c:2b:86:12:b0:71:50:69:
                    9a:07:a7:7b:0b:7c:fc:c7:7d:cb:d9:b4:2e:14:df:
                    b0:67:f5:26:d7:51:41:17:61:67:f7:f9:34:bc:8c:
                    5d:f7
                Exponent: 65537 (0x10001)
        X509v3 extensions:
            X509v3 Basic Constraints: critical
                CA:FALSE
            X509v3 Key Usage: 
                Digital Signature, Key Encipherment, Key Agreement
            X509v3 Subject Key Identifier: 
                65:E7:AE:9A:C0:82:9E:CB:8A:59:90:A3:59:8E:CB:C8:89:9F:EC:38
            X509v3 Authority Key Identifier: 
                keyid:22:20:0D:51:40:61:42:BE:DD:BA:D9:C9:C1:77:B6:93:28:C3:99:EC
                DirName:/C=CH/ST=Thurgau/L=Kefikon/O=guengel.ch/CN=CA 2022/emailAddress=postmaster@guengel.ch
                serial:6D:29:90:54:E9:17:E9:C2:6A:E6:52:AD:84:4E:30:8E:6E:57:FB:1C

            Netscape Cert Type: 
                SSL Client, SSL Server
            X509v3 Extended Key Usage: 
                TLS Web Server Authentication, TLS Web Client Authentication
    Signature Algorithm: sha256WithRSAEncryption
         34:fe:ac:f2:d7:ab:ad:fc:00:69:69:b2:8c:fc:94:2e:70:27:
         4a:ec:a8:3c:e5:99:e4:f2:24:7c:6b:a7:41:48:34:1f:4b:96:
         12:29:36:86:30:8c:66:5d:8b:77:a2:28:36:be:34:2c:64:71:
         cb:b8:79:9f:62:a4:53:7f:57:88:6c:8f:12:2a:a9:19:c4:55:
         38:4a:fa:3f:d6:83:45:27:79:d3:a6:95:65:f3:d1:bb:40:fd:
         00:92:ad:75:b0:b7:d5:0a:cd:a5:01:c2:b5:96:a4:39:a0:d0:
         b5:ec:cf:fe:be:cd:75:47:41:6c:9e:a9:e7:49:98:2e:96:d9:
         ae:b3:5e:62:32:bf:88:ba:8f:96:2d:15:ec:c4:c9:14:2f:b0:
         22:55:10:85:b7:a6:4f:7a:6e:06:2a:fc:8d:64:12:79:de:d2:
         38:a3:44:56:c9:7d:d9:de:aa:9e:a4:59:cc:cb:ba:66:de:89:
         97:7e:77:5d:ec:9d:51:57:dd:7d:08:8c:6e:ed:fa:54:15:21:
         cf:b9:f0:5a:e5:d0:ee:c5:cb:5c:5c:1c:ee:51:ad:10:79:50:
         2e:54:a1:32:a1:7e:2c:c9:a1:a5:49:f7:28:ee:db:47:29:0c:
         da:70:77:cf:87:34:82:8f:5c:83:1e:07:e9:4b:f1:6e:f0:26:
         1c:2d:de:c6:bf:bf:0b:c5:02:8f:76:d2:fe:13:3f:45:18:1a:
         1b:8c:38:f7:5e:49:3a:dc:83:a7:ad:91:a8:01:02:04:d6:ab:
         56:3d:64:69:01:11:56:12:e3:db:21:6e:ca:f6:e3:42:f3:ea:
         9b:51:8b:aa:6d:06:81:de:8f:36:3e:15:1d:7a:7c:88:e7:af:
         a5:e8:b1:be:74:18:f4:f6:27:b8:11:7c:50:61:f3:9c:85:ac:
         0c:0c:36:07:0e:0a:4d:68:ef:2f:89:ff:0c:fd:06:7a:36:22:
         04:c5:39:3d:5f:cb:36:cd:62:84:55:4e:54:72:05:bb:34:ca:
         d6:e4:50:a7:f6:4c:e6:0a:26:6e:5d:ce:7d:f6:db:3f:c2:31:
         14:7b:f4:23:6b:a5:1c:1a:87:29:75:30:f2:0c:11:5c:84:38:
         9b:c8:ae:4f:4e:01:22:48:80:bc:a2:b7:1d:b7:0c:b3:0f:48:
         ea:38:84:18:de:37:29:5c:93:a7:7c:45:bf:34:db:79:bf:28:
         ba:b3:eb:cf:57:a0:07:00:bb:eb:11:93:02:d9:43:cd:4e:01:
         b7:48:e2:15:3b:84:df:99:6e:f1:c6:3e:50:dc:55:0c:04:ec:
         5a:ef:01:dc:3c:2e:86:0b:00:7c:df:ca:3c:97:36:2a:82:d9:
         c1:3b:d2:c8:65:ab:57:4d
-----BEGIN CERTIFICATE-----
MIIFqTCCA5GgAwIBAgIUdg1uIk6vP02tBZkONyqLmV5TMT0wDQYJKoZIhvcNAQEL
BQAwfjELMAkGA1UEBhMCQ0gxEDAOBgNVBAgTB1RodXJnYXUxEDAOBgNVBAcTB0tl
Zmlrb24xEzARBgNVBAoTCmd1ZW5nZWwuY2gxEDAOBgNVBAMTB0NBIDIwMjIxJDAi
BgkqhkiG9w0BCQEWFXBvc3RtYXN0ZXJAZ3VlbmdlbC5jaDAeFw0yMjAyMTExMzU3
NDNaFw0yMzAzMTgxMzU3NDNaMGsxCzAJBgNVBAYTAkNIMRAwDgYDVQQIEwdUaHVy
Z2F1MRMwEQYDVQQKEwpndWVuZ2VsLmNoMQ8wDQYDVQQDEwZzbXRwLTExJDAiBgkq
hkiG9w0BCQEWFXBvc3RtYXN0ZXJAZ3VlbmdlbC5jaDCCASIwDQYJKoZIhvcNAQEB
BQADggEPADCCAQoCggEBALsvvCx3uaypwIJONEeqoAV7KrYmkHgOEcTI9tD3Tc0g
UGTQoFkrLRBNCepyShv2uxV2r314fu0Hh5Q1zCsz7r9XHekbmkAJquZeafcok0/u
egF/ynkBturFqOhUU7G16uUwNAq2/XKSjwaYdoO8NPwo0e0fFJbOriuxePV1wAfV
aIs44pKt4DzKG9vU1sK2eCoaD2oIFPRv4GeEQ1OdMlk8hvDDgqkrBZywBpEV2JND
eyPuSonr3bjj01bBlmwVSNuFILSPGBqKNV3x9+Y9aJSQRMTDgAZybzwrhhKwcVBp
mgenewt8/Md9y9m0LhTfsGf1JtdRQRdhZ/f5NLyMXfcCAwEAAaOCATAwggEsMAwG
A1UdEwEB/wQCMAAwCwYDVR0PBAQDAgOoMB0GA1UdDgQWBBRl566awIKey4pZkKNZ
jsvIiZ/sODCBvQYDVR0jBIG1MIGygBQiIA1RQGFCvt262cnBd7aTKMOZ7KGBg6SB
gDB+MQswCQYDVQQGEwJDSDEQMA4GA1UECBMHVGh1cmdhdTEQMA4GA1UEBxMHS2Vm
aWtvbjETMBEGA1UEChMKZ3VlbmdlbC5jaDEQMA4GA1UEAxMHQ0EgMjAyMjEkMCIG
CSqGSIb3DQEJARYVcG9zdG1hc3RlckBndWVuZ2VsLmNoghRtKZBU6RfpwmrmUq2E
TjCOblf7HDARBglghkgBhvhCAQEEBAMCBsAwHQYDVR0lBBYwFAYIKwYBBQUHAwEG
CCsGAQUFBwMCMA0GCSqGSIb3DQEBCwUAA4ICAQA0/qzy16ut/ABpabKM/JQucCdK
7Kg85Znk8iR8a6dBSDQfS5YSKTaGMIxmXYt3oig2vjQsZHHLuHmfYqRTf1eIbI8S
KqkZxFU4Svo/1oNFJ3nTppVl89G7QP0Akq11sLfVCs2lAcK1lqQ5oNC17M/+vs11
R0FsnqnnSZgultmus15iMr+Iuo+WLRXsxMkUL7AiVRCFt6ZPem4GKvyNZBJ53tI4
o0RWyX3Z3qqepFnMy7pm3omXfndd7J1RV919CIxu7fpUFSHPufBa5dDuxctcXBzu
Ua0QeVAuVKEyoX4syaGlSfco7ttHKQzacHfPhzSCj1yDHgfpS/Fu8CYcLd7Gv78L
xQKPdtL+Ez9FGBobjDj3Xkk63IOnrZGoAQIE1qtWPWRpARFWEuPbIW7K9uNC8+qb
UYuqbQaB3o82PhUdenyI56+l6LG+dBj09ie4EXxQYfOchawMDDYHDgpNaO8vif8M
/QZ6NiIExTk9X8s2zWKEVU5UcgW7NMrW5FCn9kzmCiZuXc599ts/wjEUe/Qja6Uc
GocpdTDyDBFchDibyK5PTgEiSIC8orcdtwyzD0jqOIQY3jcpXJOnfEW/NNt5vyi6
s+vPV6AHALvrEZMC2UPNTgG3SOIVO4TfmW7xxj5Q3FUMBOxa7wHcPC6GCwB838o8
lzYqgtnBO9LIZatXTQ==
-----END CERTIFICATE-----
