Certificate:
    Data:
        Version: 3 (0x2)
        Serial Number: 361 (0x169)
    Signature Algorithm: sha256WithRSAEncryption
        Issuer: C=CH, ST=Thurgau, L=Kefikon, O=guengel.ch, CN=CA guengel.ch/emailAddress=postmaster@guengel.ch
        Validity
            Not Before: Dec 29 14:41:23 2018 GMT
            Not After : Feb  2 14:41:23 2020 GMT
        Subject: C=CH, ST=Thurgau, O=guengel.ch, CN=smtp.guengel.ch/emailAddress=postmaster@guengel.ch
        Subject Public Key Info:
            Public Key Algorithm: rsaEncryption
                Public-Key: (2048 bit)
                Modulus:
                    00:c6:e5:73:5e:e9:92:41:9a:60:b8:93:87:1f:c1:
                    72:fa:5b:ee:f4:f3:4f:15:2c:76:6b:fe:9c:46:dc:
                    43:64:0f:c2:fc:fe:72:19:b5:3e:eb:08:80:79:5d:
                    c3:74:02:6b:4b:f8:6c:c0:58:47:a3:a9:96:0e:de:
                    e4:c2:af:0b:5a:4b:96:b9:cd:b6:74:02:7f:0f:5f:
                    35:42:b4:d4:05:ae:88:c6:f2:7e:f8:f8:23:9e:86:
                    08:84:13:81:93:69:ab:69:07:11:05:35:e5:b8:aa:
                    4b:b2:b2:7c:2f:a0:4d:e3:47:87:69:c0:d9:82:14:
                    1a:d8:32:18:78:1c:30:41:46:9a:b1:6f:6e:25:3a:
                    b1:2d:b5:5b:d9:6b:73:68:33:c8:21:e4:2e:4b:ab:
                    ed:55:76:0d:dc:d1:d1:56:64:ce:b4:ac:73:62:df:
                    16:c1:56:99:1d:13:8a:f4:4c:cd:2e:ba:3d:74:5c:
                    95:a9:41:da:23:6f:83:f7:5e:0a:11:6d:e1:2a:20:
                    47:6d:6e:a2:39:a8:21:90:24:f0:7f:77:0e:5f:59:
                    dd:ce:76:2c:89:ed:a2:c4:59:18:96:4c:00:08:53:
                    72:b2:03:d6:1c:8d:92:50:79:3e:29:8b:25:7a:f8:
                    a0:69:b4:d1:f3:47:10:28:56:78:4d:67:15:50:1c:
                    24:57
                Exponent: 65537 (0x10001)
        X509v3 extensions:
            X509v3 Basic Constraints: 
                CA:FALSE
            Netscape Comment: 
                OpenSSL Generated Certificate
            X509v3 Subject Key Identifier: 
                8E:EF:D5:68:5B:39:A0:BC:CF:04:8B:38:62:54:94:E4:D5:94:14:BB
            X509v3 Authority Key Identifier: 
                keyid:D6:88:F1:AA:C1:2B:09:8C:B8:5C:9D:CE:DF:57:39:62:26:10:20:90
                DirName:/C=CH/ST=Thurgau/L=Kefikon/O=guengel.ch/CN=CA guengel.ch/emailAddress=postmaster@guengel.ch
                serial:E5:25:3B:A6:77:BD:CB:FF

    Signature Algorithm: sha256WithRSAEncryption
         11:21:13:ed:78:15:d2:19:47:34:68:25:0f:60:14:53:e2:d8:
         11:91:66:cc:d5:98:fe:09:dc:d0:9b:56:a0:2c:08:f9:c2:32:
         db:d5:1c:fc:b6:53:d0:34:52:a2:7d:0d:4c:c8:e4:f9:b9:97:
         55:a7:04:47:10:70:c8:bb:c6:a0:a9:9d:25:e8:f5:ad:4c:c6:
         2a:a1:31:7b:5c:51:9d:9d:6c:3a:ae:35:79:a4:6a:6e:d9:44:
         1d:43:2b:ec:75:91:0b:11:0e:40:e9:06:29:ff:a7:81:8d:48:
         d1:7b:f9:f4:9c:1c:2e:01:9f:be:ee:7f:97:c2:9f:77:96:58:
         a5:38:70:26:4e:87:3a:bf:09:93:b9:02:f6:df:97:09:aa:e5:
         67:28:49:04:54:e0:d3:24:9a:b1:df:b3:e0:8c:db:5c:11:59:
         c3:f5:e0:ac:17:4c:2c:86:95:fa:f0:81:21:ae:60:34:14:0e:
         23:73:65:22:19:50:9b:8c:4a:1b:53:2d:ee:2c:f6:45:16:b6:
         ff:b1:a8:16:1c:05:e4:36:55:99:90:a5:11:71:35:32:29:f1:
         47:a9:79:7b:17:3a:33:fd:a5:4d:a3:d7:40:a1:ec:f5:b7:b2:
         38:46:c2:03:5c:4b:69:7e:09:06:a2:df:1a:13:58:a4:60:fc:
         29:37:59:13:a0:07:7e:12:b2:b0:88:c4:05:f6:4d:ca:cc:08:
         19:48:73:32:b4:92:e8:d1:d5:ab:66:63:94:72:19:c7:1e:38:
         fb:49:fb:c8:73:3c:a5:32:aa:8b:fa:95:d1:1b:71:c8:67:0d:
         c5:87:38:f9:ae:c6:fe:b5:de:11:31:fa:31:11:f9:54:e6:c0:
         58:9a:dd:4d:ae:10:b6:40:a7:a9:e6:92:8d:48:cb:2a:b8:15:
         3b:d7:b8:06:b7:86:95:1a:57:9a:99:6d:b7:87:09:4b:4a:51:
         b0:49:1d:bf:2a:29:da:6b:b2:e0:27:08:80:4c:22:86:bd:56:
         6d:5a:93:5d:59:96:36:aa:0a:6a:b1:fc:7c:af:5e:d9:53:b6:
         d9:60:c0:14:bf:77:40:0a:3b:a2:c1:e7:2f:aa:b1:ce:8f:36:
         86:6e:91:69:a9:95:f7:00:d3:78:57:ba:ce:0a:5e:e3:50:54:
         76:15:08:7d:01:17:57:24:ef:41:f2:5a:1d:20:e8:e5:82:07:
         f4:33:97:7b:99:b5:80:2f:23:80:ed:78:ce:44:ef:cf:13:1d:
         14:26:a8:06:47:74:52:74:f6:60:5a:93:32:9f:56:56:2a:bd:
         88:40:b3:dd:34:c3:00:d5:bb:f9:d4:20:d2:ce:fd:c9:28:a5:
         71:16:d6:61:e3:31:af:97
-----BEGIN CERTIFICATE-----
MIIFjzCCA3egAwIBAgICAWkwDQYJKoZIhvcNAQELBQAwgYQxCzAJBgNVBAYTAkNI
MRAwDgYDVQQIEwdUaHVyZ2F1MRAwDgYDVQQHEwdLZWZpa29uMRMwEQYDVQQKEwpn
dWVuZ2VsLmNoMRYwFAYDVQQDEw1DQSBndWVuZ2VsLmNoMSQwIgYJKoZIhvcNAQkB
FhVwb3N0bWFzdGVyQGd1ZW5nZWwuY2gwHhcNMTgxMjI5MTQ0MTIzWhcNMjAwMjAy
MTQ0MTIzWjB0MQswCQYDVQQGEwJDSDEQMA4GA1UECBMHVGh1cmdhdTETMBEGA1UE
ChMKZ3VlbmdlbC5jaDEYMBYGA1UEAxMPc210cC5ndWVuZ2VsLmNoMSQwIgYJKoZI
hvcNAQkBFhVwb3N0bWFzdGVyQGd1ZW5nZWwuY2gwggEiMA0GCSqGSIb3DQEBAQUA
A4IBDwAwggEKAoIBAQDG5XNe6ZJBmmC4k4cfwXL6W+70808VLHZr/pxG3ENkD8L8
/nIZtT7rCIB5XcN0AmtL+GzAWEejqZYO3uTCrwtaS5a5zbZ0An8PXzVCtNQFrojG
8n74+COehgiEE4GTaatpBxEFNeW4qkuysnwvoE3jR4dpwNmCFBrYMhh4HDBBRpqx
b24lOrEttVvZa3NoM8gh5C5Lq+1Vdg3c0dFWZM60rHNi3xbBVpkdE4r0TM0uuj10
XJWpQdojb4P3XgoRbeEqIEdtbqI5qCGQJPB/dw5fWd3OdiyJ7aLEWRiWTAAIU3Ky
A9YcjZJQeT4piyV6+KBptNHzRxAoVnhNZxVQHCRXAgMBAAGjggEYMIIBFDAJBgNV
HRMEAjAAMCwGCWCGSAGG+EIBDQQfFh1PcGVuU1NMIEdlbmVyYXRlZCBDZXJ0aWZp
Y2F0ZTAdBgNVHQ4EFgQUju/VaFs5oLzPBIs4YlSU5NWUFLswgbkGA1UdIwSBsTCB
roAU1ojxqsErCYy4XJ3O31c5YiYQIJChgYqkgYcwgYQxCzAJBgNVBAYTAkNIMRAw
DgYDVQQIEwdUaHVyZ2F1MRAwDgYDVQQHEwdLZWZpa29uMRMwEQYDVQQKEwpndWVu
Z2VsLmNoMRYwFAYDVQQDEw1DQSBndWVuZ2VsLmNoMSQwIgYJKoZIhvcNAQkBFhVw
b3N0bWFzdGVyQGd1ZW5nZWwuY2iCCQDlJTumd73L/zANBgkqhkiG9w0BAQsFAAOC
AgEAESET7XgV0hlHNGglD2AUU+LYEZFmzNWY/gnc0JtWoCwI+cIy29Uc/LZT0DRS
on0NTMjk+bmXVacERxBwyLvGoKmdJej1rUzGKqExe1xRnZ1sOq41eaRqbtlEHUMr
7HWRCxEOQOkGKf+ngY1I0Xv59JwcLgGfvu5/l8Kfd5ZYpThwJk6HOr8Jk7kC9t+X
CarlZyhJBFTg0ySasd+z4IzbXBFZw/XgrBdMLIaV+vCBIa5gNBQOI3NlIhlQm4xK
G1Mt7iz2RRa2/7GoFhwF5DZVmZClEXE1MinxR6l5exc6M/2lTaPXQKHs9beyOEbC
A1xLaX4JBqLfGhNYpGD8KTdZE6AHfhKysIjEBfZNyswIGUhzMrSS6NHVq2ZjlHIZ
xx44+0n7yHM8pTKqi/qV0RtxyGcNxYc4+a7G/rXeETH6MRH5VObAWJrdTa4QtkCn
qeaSjUjLKrgVO9e4BreGlRpXmpltt4cJS0pRsEkdvyop2muy4CcIgEwihr1WbVqT
XVmWNqoKarH8fK9e2VO22WDAFL93QAo7osHnL6qxzo82hm6RaamV9wDTeFe6zgpe
41BUdhUIfQEXVyTvQfJaHSDo5YIH9DOXe5m1gC8jgO14zkTvzxMdFCaoBkd0UnT2
YFqTMp9WViq9iECz3TTDANW7+dQg0s79ySilcRbWYeMxr5c=
-----END CERTIFICATE-----
