Certificate:
    Data:
        Version: 3 (0x2)
        Serial Number: 477 (0x1dd)
        Signature Algorithm: sha256WithRSAEncryption
        Issuer: C=CH, ST=Thurgau, L=Kefikon, O=guengel.ch, CN=CA guengel.ch/emailAddress=postmaster@guengel.ch
        Validity
            Not Before: Feb 11 07:07:32 2022 GMT
            Not After : Mar 18 07:07:32 2023 GMT
        Subject: C=CH, ST=Thurgau, O=guengel.ch, CN=smtp-1/emailAddress=postmaster@guengel.ch
        Subject Public Key Info:
            Public Key Algorithm: rsaEncryption
                RSA Public-Key: (2048 bit)
                Modulus:
                    00:b3:91:cd:4e:f7:9f:32:5f:fd:65:d0:3b:9e:1d:
                    3d:12:d3:91:49:50:38:64:96:a4:f9:40:63:eb:d8:
                    03:56:5a:ed:17:05:50:aa:a1:7d:62:0e:a2:08:3b:
                    40:c2:c8:15:49:0f:20:0c:84:e1:e7:01:15:3e:fa:
                    26:e9:10:2c:6b:c0:b6:13:16:7d:dc:f8:d2:78:d8:
                    bc:83:98:04:c4:05:46:3b:21:b2:07:ea:85:4c:4d:
                    c8:42:57:f8:40:98:32:cb:b6:9d:77:d4:16:2e:e3:
                    73:61:93:f4:36:6a:5c:d8:62:5b:07:c6:51:69:96:
                    bf:33:9b:33:2d:0d:25:ed:47:60:94:f7:bb:c3:13:
                    80:36:39:4d:ac:51:4d:3e:c2:44:0b:10:d8:2d:57:
                    c2:08:44:91:fa:87:eb:48:1c:4f:9a:a6:73:8a:9a:
                    8b:a3:48:20:41:f0:8a:2a:44:dd:61:f7:f2:35:e6:
                    fa:4a:23:24:d1:90:73:01:88:68:ce:54:d6:10:d0:
                    39:46:d7:1c:8a:19:c0:4e:35:a5:ce:c5:e4:58:b4:
                    ba:35:b3:c2:1c:72:d4:c8:dc:f2:77:27:f1:b7:08:
                    78:83:84:cc:fc:62:10:c1:52:94:c3:43:54:61:87:
                    5a:27:e3:54:9f:70:de:4b:09:49:eb:ed:0e:0f:4e:
                    18:bb
                Exponent: 65537 (0x10001)
        X509v3 extensions:
            X509v3 Key Usage: 
                Digital Signature, Key Encipherment, Key Agreement
            X509v3 Basic Constraints: critical
                CA:FALSE
            Netscape Cert Type: 
                SSL Client, SSL Server
            X509v3 Extended Key Usage: 
                TLS Web Server Authentication, TLS Web Client Authentication
            X509v3 Subject Alternative Name: 
                DNS:smtp-1
            X509v3 Subject Key Identifier: 
                79:2B:FD:1A:F1:CB:84:ED:B1:3F:0D:9B:7D:B3:9D:C1:C8:8B:DD:00
            X509v3 Authority Key Identifier: 
                keyid:D6:88:F1:AA:C1:2B:09:8C:B8:5C:9D:CE:DF:57:39:62:26:10:20:90
                DirName:/C=CH/ST=Thurgau/L=Kefikon/O=guengel.ch/CN=CA guengel.ch/emailAddress=postmaster@guengel.ch
                serial:E5:25:3B:A6:77:BD:CB:FF

    Signature Algorithm: sha256WithRSAEncryption
         6d:0d:c8:a2:26:db:62:f9:70:18:0e:c5:04:d6:b2:09:13:6d:
         0c:5f:7a:71:34:7e:5c:5b:87:5d:8a:a9:a4:40:bd:c1:7e:f1:
         9b:6e:b0:08:0c:9c:a1:77:86:d3:0a:de:7d:fa:e2:34:f6:b5:
         26:dc:8e:ed:49:79:59:d5:ca:50:35:e0:22:a5:29:de:1c:60:
         f8:b1:5b:e9:e7:6f:35:92:d4:06:40:ed:7d:d9:03:1d:de:63:
         d8:b3:de:7a:87:e7:6f:ef:e0:f6:1b:88:1b:45:02:a1:5c:f7:
         37:f8:8d:46:9e:b5:b3:c3:5f:89:ed:86:39:ca:1a:08:2a:32:
         0c:3c:33:69:dd:a9:90:ca:2c:a8:77:bc:81:43:e0:fe:64:9d:
         11:51:b5:9a:d0:da:68:85:4a:7f:26:26:75:03:3f:1b:57:32:
         41:ed:39:00:65:b0:85:14:0a:8f:df:15:cf:12:6b:37:32:32:
         d4:d5:dd:cd:5b:ef:c5:a3:b1:ff:99:48:f5:20:b7:b3:f2:1b:
         40:59:eb:f7:f3:81:72:71:24:13:bc:07:ca:92:ad:f8:38:6a:
         ba:dc:b6:0c:41:f1:77:ce:3d:b6:c6:cc:68:30:23:f4:fe:24:
         5c:e8:f3:9b:5c:83:d4:9c:bd:9a:82:fd:fc:ce:42:bb:b9:c9:
         0a:4b:dc:47:35:8c:57:17:de:ce:d6:19:ed:b7:93:2a:d8:b1:
         49:c6:fe:6d:68:c5:85:23:6d:3e:0e:10:0b:b4:71:d3:e2:0a:
         36:a2:f6:ee:dc:88:00:18:2c:bc:cc:9e:5b:23:d4:c1:8a:47:
         45:eb:0a:fd:f6:1a:73:2f:b0:d4:06:1b:7e:aa:2d:cd:78:99:
         23:34:91:d4:65:20:bd:b6:28:7c:67:6e:25:09:bc:71:68:be:
         4d:af:51:d8:90:e3:d6:ad:cf:38:8a:23:f2:b3:e3:e6:bb:33:
         fb:0d:1a:01:dd:0e:88:fb:c8:a0:45:1b:d9:86:53:6f:76:c9:
         27:02:e0:6d:bc:2b:81:fb:32:bd:a6:81:53:59:ed:81:1e:88:
         58:6b:93:87:76:17:a1:fb:32:97:f6:0b:71:75:e6:9c:d5:5d:
         b8:8d:03:ec:56:8f:5b:a2:bf:d3:22:0c:bb:dc:3c:a1:be:11:
         40:8a:b6:da:24:d6:1b:52:1a:c0:a4:35:4e:e7:dc:46:a9:11:
         22:d5:e6:4b:5a:52:80:09:6e:06:05:a1:6d:60:9d:f1:74:e7:
         7b:1c:22:ef:a0:1c:d7:bf:91:5c:6e:03:4f:56:bc:93:52:7c:
         ca:41:fd:0b:1e:7e:95:13:ce:2d:1e:ab:fe:b7:1b:d4:3a:37:
         53:e0:c0:31:f1:b6:29:95
-----BEGIN CERTIFICATE-----
MIIFrTCCA5WgAwIBAgICAd0wDQYJKoZIhvcNAQELBQAwgYQxCzAJBgNVBAYTAkNI
MRAwDgYDVQQIEwdUaHVyZ2F1MRAwDgYDVQQHEwdLZWZpa29uMRMwEQYDVQQKEwpn
dWVuZ2VsLmNoMRYwFAYDVQQDEw1DQSBndWVuZ2VsLmNoMSQwIgYJKoZIhvcNAQkB
FhVwb3N0bWFzdGVyQGd1ZW5nZWwuY2gwHhcNMjIwMjExMDcwNzMyWhcNMjMwMzE4
MDcwNzMyWjBrMQswCQYDVQQGEwJDSDEQMA4GA1UECBMHVGh1cmdhdTETMBEGA1UE
ChMKZ3VlbmdlbC5jaDEPMA0GA1UEAxMGc210cC0xMSQwIgYJKoZIhvcNAQkBFhVw
b3N0bWFzdGVyQGd1ZW5nZWwuY2gwggEiMA0GCSqGSIb3DQEBAQUAA4IBDwAwggEK
AoIBAQCzkc1O958yX/1l0DueHT0S05FJUDhklqT5QGPr2ANWWu0XBVCqoX1iDqII
O0DCyBVJDyAMhOHnARU++ibpECxrwLYTFn3c+NJ42LyDmATEBUY7IbIH6oVMTchC
V/hAmDLLtp131BYu43Nhk/Q2alzYYlsHxlFplr8zmzMtDSXtR2CU97vDE4A2OU2s
UU0+wkQLENgtV8IIRJH6h+tIHE+apnOKmoujSCBB8IoqRN1h9/I15vpKIyTRkHMB
iGjOVNYQ0DlG1xyKGcBONaXOxeRYtLo1s8IcctTI3PJ3J/G3CHiDhMz8YhDBUpTD
Q1Rhh1on41SfcN5LCUnr7Q4PThi7AgMBAAGjggE/MIIBOzALBgNVHQ8EBAMCA6gw
DAYDVR0TAQH/BAIwADARBglghkgBhvhCAQEEBAMCBsAwHQYDVR0lBBYwFAYIKwYB
BQUHAwEGCCsGAQUFBwMCMBEGA1UdEQQKMAiCBnNtdHAtMTAdBgNVHQ4EFgQUeSv9
GvHLhO2xPw2bfbOdwciL3QAwgbkGA1UdIwSBsTCBroAU1ojxqsErCYy4XJ3O31c5
YiYQIJChgYqkgYcwgYQxCzAJBgNVBAYTAkNIMRAwDgYDVQQIEwdUaHVyZ2F1MRAw
DgYDVQQHEwdLZWZpa29uMRMwEQYDVQQKEwpndWVuZ2VsLmNoMRYwFAYDVQQDEw1D
QSBndWVuZ2VsLmNoMSQwIgYJKoZIhvcNAQkBFhVwb3N0bWFzdGVyQGd1ZW5nZWwu
Y2iCCQDlJTumd73L/zANBgkqhkiG9w0BAQsFAAOCAgEAbQ3IoibbYvlwGA7FBNay
CRNtDF96cTR+XFuHXYqppEC9wX7xm26wCAycoXeG0wreffriNPa1JtyO7Ul5WdXK
UDXgIqUp3hxg+LFb6edvNZLUBkDtfdkDHd5j2LPeeofnb+/g9huIG0UCoVz3N/iN
Rp61s8Nfie2GOcoaCCoyDDwzad2pkMosqHe8gUPg/mSdEVG1mtDaaIVKfyYmdQM/
G1cyQe05AGWwhRQKj98VzxJrNzIy1NXdzVvvxaOx/5lI9SC3s/IbQFnr9/OBcnEk
E7wHypKt+Dhquty2DEHxd849tsbMaDAj9P4kXOjzm1yD1Jy9moL9/M5Cu7nJCkvc
RzWMVxfeztYZ7beTKtixScb+bWjFhSNtPg4QC7Rx0+IKNqL27tyIABgsvMyeWyPU
wYpHResK/fYacy+w1AYbfqotzXiZIzSR1GUgvbYofGduJQm8cWi+Ta9R2JDj1q3P
OIoj8rPj5rsz+w0aAd0OiPvIoEUb2YZTb3bJJwLgbbwrgfsyvaaBU1ntgR6IWGuT
h3YXofsyl/YLcXXmnNVduI0D7FaPW6K/0yIMu9w8ob4RQIq22iTWG1IawKQ1Tufc
RqkRItXmS1pSgAluBgWhbWCd8XTnexwi76Ac17+RXG4DT1a8k1J8ykH9Cx5+lRPO
LR6r/rcb1Do3U+DAMfG2KZU=
-----END CERTIFICATE-----
