Certificate:
    Data:
        Version: 3 (0x2)
        Serial Number: 261 (0x105)
    Signature Algorithm: sha256WithRSAEncryption
        Issuer: C=CH, ST=Thurgau, L=Kefikon, O=guengel.ch, CN=CA guengel.ch/emailAddress=postmaster@guengel.ch
        Validity
            Not Before: Nov 20 09:17:26 2016 GMT
            Not After : Apr  4 09:17:26 2018 GMT
        Subject: C=CH, ST=Thurgau, O=guengel.ch, CN=sol11x86-2.virtual.kruemel.home/emailAddress=postmaster@guengel.ch
        Subject Public Key Info:
            Public Key Algorithm: rsaEncryption
                Public-Key: (2048 bit)
                Modulus:
                    00:ca:9f:77:52:32:90:e8:bc:8a:92:01:da:84:b6:
                    59:08:f6:39:e1:22:1f:af:fe:83:90:33:73:3e:89:
                    04:cc:da:cb:84:ca:c6:bc:66:c3:5c:d4:03:e9:7e:
                    87:f3:d3:66:c3:8e:25:9b:bf:c2:a1:72:c6:60:80:
                    53:5f:ac:a7:4c:ba:8a:b8:39:18:3f:b2:2a:93:31:
                    06:76:90:c1:76:54:fd:d4:4c:45:37:65:9d:b9:18:
                    e9:a8:7b:0a:e7:35:3d:7a:8b:3c:e6:eb:ec:68:7b:
                    4f:ff:f2:1b:52:4c:00:8d:ab:8e:eb:4d:c5:b9:1b:
                    91:b7:b4:11:88:64:8d:78:50:12:ec:a6:08:44:82:
                    3b:e4:8a:a8:ac:8b:f2:ff:ce:d6:d7:36:7c:88:65:
                    3b:ee:0c:7f:9e:43:44:0e:5e:5b:4b:c7:4f:dc:9d:
                    10:57:36:4c:e9:55:ab:ee:93:34:0a:d8:6f:69:8b:
                    69:0b:d8:11:29:2e:52:f7:c9:0a:21:af:a2:47:c3:
                    50:03:57:ba:f9:44:10:c9:66:94:ea:33:31:bb:c4:
                    77:5a:4f:9e:f6:33:48:39:bf:32:fb:a7:f2:10:e0:
                    be:1d:d7:c7:60:4c:81:83:fc:89:0a:96:80:c4:22:
                    50:0c:a9:e2:ef:ae:2f:1b:e6:7c:b4:b9:10:45:66:
                    0d:8f
                Exponent: 65537 (0x10001)
        X509v3 extensions:
            X509v3 Basic Constraints: 
                CA:FALSE
            Netscape Comment: 
                OpenSSL Generated Certificate
            X509v3 Subject Key Identifier: 
                E6:11:61:EF:2A:FE:50:1D:12:FF:53:0B:D0:5A:97:6C:D6:8C:09:1D
            X509v3 Authority Key Identifier: 
                keyid:D6:88:F1:AA:C1:2B:09:8C:B8:5C:9D:CE:DF:57:39:62:26:10:20:90
                DirName:/C=CH/ST=Thurgau/L=Kefikon/O=guengel.ch/CN=CA guengel.ch/emailAddress=postmaster@guengel.ch
                serial:E5:25:3B:A6:77:BD:CB:FF

    Signature Algorithm: sha256WithRSAEncryption
         b2:f7:59:66:04:22:9a:a7:15:18:74:5d:6c:9d:f5:c5:f0:21:
         95:21:8d:a7:d7:aa:11:fa:f9:9f:38:3c:f7:aa:18:07:29:3a:
         c8:2e:74:59:4a:58:d4:a5:74:6d:1e:8b:06:de:11:f1:f5:f8:
         b9:99:5a:dc:12:bd:a1:c3:a7:52:1b:c0:e4:df:83:cc:39:78:
         39:f8:9b:39:0e:35:ec:ab:b3:0c:3f:a7:16:e3:a6:a8:75:8e:
         cd:90:fb:5c:26:96:50:11:ca:fb:30:67:33:93:1e:da:16:bd:
         94:33:c6:0b:87:80:19:fd:5f:70:35:b7:0e:8d:8e:4d:86:d4:
         de:b9:13:13:7b:e6:25:27:b5:71:9b:d0:1f:4d:67:16:6b:af:
         d1:71:a9:9d:d0:78:d9:34:f1:3a:08:8b:36:5b:fd:fc:69:ae:
         1f:92:48:50:af:2d:9e:08:9f:c7:33:57:89:b1:a1:eb:1d:9d:
         b8:13:6a:d3:59:19:64:83:b8:64:39:a8:bb:47:88:66:70:a8:
         94:16:01:49:64:4a:4d:4c:d7:c6:4f:44:68:47:db:2f:7f:9b:
         d1:a0:c8:82:ef:e4:14:f1:e3:83:d5:1c:13:54:bf:19:c3:76:
         f4:16:b1:b0:ea:e6:9b:0b:7a:be:aa:18:a2:26:7c:6a:97:cc:
         53:25:ef:fc:d9:e3:7d:31:bd:6a:5a:bb:aa:a8:34:0a:c8:2b:
         bf:32:51:62:4b:df:1e:57:8a:15:68:91:84:5c:25:1c:04:e6:
         df:84:3e:0f:c7:fb:e8:d8:5e:ba:f9:d1:d2:d1:79:df:91:72:
         3d:fa:ca:69:59:b5:5c:3c:bd:d4:1b:71:4d:35:6b:f8:07:7b:
         f8:b4:f2:05:73:1e:b9:cb:cc:5a:73:23:a3:aa:b5:9c:52:3e:
         a9:3b:f6:cf:9b:44:4b:3a:0f:af:60:c3:b4:0e:24:4e:36:97:
         f6:71:04:1c:0a:d4:6d:02:87:ab:c4:d8:6f:61:f8:19:66:e1:
         15:0c:21:9e:63:38:f6:a0:10:06:e4:55:1a:41:6a:01:82:27:
         4f:05:e5:61:ec:3a:dd:dc:e4:58:11:90:f4:81:8f:71:25:7f:
         df:75:9d:4d:f1:53:17:f4:b7:6b:6b:92:46:23:43:a6:f5:4e:
         4d:85:96:71:61:f1:0b:49:0b:60:84:42:02:75:31:a9:c6:f3:
         10:18:d0:45:80:94:04:1e:d9:a2:b7:29:b5:a1:77:74:5f:a8:
         88:32:15:bc:66:50:3c:2a:e6:99:a2:ec:79:62:bc:3d:c1:23:
         30:ee:fb:ae:6d:d0:bb:9c:d3:67:33:43:dd:39:1d:3a:03:1f:
         2e:b9:4d:f9:cf:bd:be:c4
-----BEGIN CERTIFICATE-----
MIIFoDCCA4igAwIBAgICAQUwDQYJKoZIhvcNAQELBQAwgYQxCzAJBgNVBAYTAkNI
MRAwDgYDVQQIEwdUaHVyZ2F1MRAwDgYDVQQHEwdLZWZpa29uMRMwEQYDVQQKEwpn
dWVuZ2VsLmNoMRYwFAYDVQQDEw1DQSBndWVuZ2VsLmNoMSQwIgYJKoZIhvcNAQkB
FhVwb3N0bWFzdGVyQGd1ZW5nZWwuY2gwHhcNMTYxMTIwMDkxNzI2WhcNMTgwNDA0
MDkxNzI2WjCBhDELMAkGA1UEBhMCQ0gxEDAOBgNVBAgTB1RodXJnYXUxEzARBgNV
BAoTCmd1ZW5nZWwuY2gxKDAmBgNVBAMTH3NvbDExeDg2LTIudmlydHVhbC5rcnVl
bWVsLmhvbWUxJDAiBgkqhkiG9w0BCQEWFXBvc3RtYXN0ZXJAZ3VlbmdlbC5jaDCC
ASIwDQYJKoZIhvcNAQEBBQADggEPADCCAQoCggEBAMqfd1IykOi8ipIB2oS2WQj2
OeEiH6/+g5Azcz6JBMzay4TKxrxmw1zUA+l+h/PTZsOOJZu/wqFyxmCAU1+sp0y6
irg5GD+yKpMxBnaQwXZU/dRMRTdlnbkY6ah7Cuc1PXqLPObr7Gh7T//yG1JMAI2r
jutNxbkbkbe0EYhkjXhQEuymCESCO+SKqKyL8v/O1tc2fIhlO+4Mf55DRA5eW0vH
T9ydEFc2TOlVq+6TNArYb2mLaQvYESkuUvfJCiGvokfDUANXuvlEEMlmlOozMbvE
d1pPnvYzSDm/Mvun8hDgvh3Xx2BMgYP8iQqWgMQiUAyp4u+uLxvmfLS5EEVmDY8C
AwEAAaOCARgwggEUMAkGA1UdEwQCMAAwLAYJYIZIAYb4QgENBB8WHU9wZW5TU0wg
R2VuZXJhdGVkIENlcnRpZmljYXRlMB0GA1UdDgQWBBTmEWHvKv5QHRL/UwvQWpds
1owJHTCBuQYDVR0jBIGxMIGugBTWiPGqwSsJjLhcnc7fVzliJhAgkKGBiqSBhzCB
hDELMAkGA1UEBhMCQ0gxEDAOBgNVBAgTB1RodXJnYXUxEDAOBgNVBAcTB0tlZmlr
b24xEzARBgNVBAoTCmd1ZW5nZWwuY2gxFjAUBgNVBAMTDUNBIGd1ZW5nZWwuY2gx
JDAiBgkqhkiG9w0BCQEWFXBvc3RtYXN0ZXJAZ3VlbmdlbC5jaIIJAOUlO6Z3vcv/
MA0GCSqGSIb3DQEBCwUAA4ICAQCy91lmBCKapxUYdF1snfXF8CGVIY2n16oR+vmf
ODz3qhgHKTrILnRZSljUpXRtHosG3hHx9fi5mVrcEr2hw6dSG8Dk34PMOXg5+Js5
DjXsq7MMP6cW46aodY7NkPtcJpZQEcr7MGczkx7aFr2UM8YLh4AZ/V9wNbcOjY5N
htTeuRMTe+YlJ7Vxm9AfTWcWa6/Rcamd0HjZNPE6CIs2W/38aa4fkkhQry2eCJ/H
M1eJsaHrHZ24E2rTWRlkg7hkOai7R4hmcKiUFgFJZEpNTNfGT0RoR9svf5vRoMiC
7+QU8eOD1RwTVL8Zw3b0FrGw6uabC3q+qhiiJnxql8xTJe/82eN9Mb1qWruqqDQK
yCu/MlFiS98eV4oVaJGEXCUcBObfhD4Px/vo2F66+dHS0XnfkXI9+sppWbVcPL3U
G3FNNWv4B3v4tPIFcx65y8xacyOjqrWcUj6pO/bPm0RLOg+vYMO0DiRONpf2cQQc
CtRtAoerxNhvYfgZZuEVDCGeYzj2oBAG5FUaQWoBgidPBeVh7Drd3ORYEZD0gY9x
JX/fdZ1N8VMX9Ldra5JGI0Om9U5NhZZxYfELSQtghEICdTGpxvMQGNBFgJQEHtmi
tym1oXd0X6iIMhW8ZlA8KuaZoux5Yrw9wSMw7vuubdC7nNNnM0PdOR06Ax8uuU35
z72+xA==
-----END CERTIFICATE-----
