Certificate:
    Data:
        Version: 3 (0x2)
        Serial Number: 265 (0x109)
    Signature Algorithm: sha256WithRSAEncryption
        Issuer: C=CH, ST=Thurgau, L=Kefikon, O=guengel.ch, CN=CA guengel.ch/emailAddress=postmaster@guengel.ch
        Validity
            Not Before: Nov 20 09:17:28 2016 GMT
            Not After : Apr  4 09:17:28 2018 GMT
        Subject: C=CH, ST=Thurgau, O=guengel.ch, CN=solarisx86-3.virtual.kruemel.home/emailAddress=postmaster@guengel.ch
        Subject Public Key Info:
            Public Key Algorithm: rsaEncryption
                Public-Key: (2048 bit)
                Modulus:
                    00:db:ac:46:06:e2:99:fb:51:04:a0:ec:df:bd:7d:
                    b9:71:7e:85:f9:9d:89:e0:90:6b:28:39:64:7f:84:
                    a3:40:9d:42:79:98:cf:3d:c5:3c:6f:4b:ad:b6:e5:
                    61:77:a4:72:12:73:42:5a:2b:b3:39:a1:ce:cf:67:
                    cb:ae:43:37:57:c5:94:ac:c9:6a:9f:df:bf:bc:d1:
                    aa:00:29:a6:45:0b:6a:7f:a6:4e:73:d7:be:6a:d7:
                    ee:8f:72:44:f4:9a:14:24:c6:8d:79:79:a1:14:a8:
                    1a:a6:a9:93:82:a6:10:10:e9:fb:aa:a7:93:79:53:
                    83:7b:36:63:2a:91:45:69:87:e0:6f:27:02:c6:0e:
                    05:6d:e6:1a:0e:93:b6:92:cf:fe:16:41:e4:89:c0:
                    0a:8b:15:c2:59:01:8e:99:24:d6:19:42:59:88:d4:
                    72:20:69:ac:3d:e5:f8:40:a9:3b:2e:89:1f:63:b4:
                    5b:8c:b6:87:27:72:b3:39:06:99:cf:e2:8e:a2:af:
                    22:74:30:f7:36:21:5b:52:a0:f0:ab:18:11:d3:d9:
                    98:57:58:36:46:c7:b0:00:35:a2:02:5f:79:ac:5a:
                    6e:f5:7d:bf:e7:35:da:54:d2:98:4b:92:f5:bb:78:
                    9b:92:1f:25:6b:9e:83:45:54:12:2a:76:f3:21:34:
                    f0:0f
                Exponent: 65537 (0x10001)
        X509v3 extensions:
            X509v3 Basic Constraints: 
                CA:FALSE
            Netscape Comment: 
                OpenSSL Generated Certificate
            X509v3 Subject Key Identifier: 
                D0:15:2C:A8:BD:9E:80:BB:92:78:CD:B7:A1:D3:EC:74:E9:F6:29:E9
            X509v3 Authority Key Identifier: 
                keyid:D6:88:F1:AA:C1:2B:09:8C:B8:5C:9D:CE:DF:57:39:62:26:10:20:90
                DirName:/C=CH/ST=Thurgau/L=Kefikon/O=guengel.ch/CN=CA guengel.ch/emailAddress=postmaster@guengel.ch
                serial:E5:25:3B:A6:77:BD:CB:FF

    Signature Algorithm: sha256WithRSAEncryption
         4b:e2:96:af:ad:97:59:c1:52:46:65:1b:81:37:92:8a:84:b0:
         9a:9c:5f:87:0c:a8:f5:3a:4a:cd:22:00:f9:75:14:50:4f:44:
         90:64:b2:92:e8:9a:cf:68:07:70:66:42:60:9b:6f:88:eb:d8:
         17:97:58:0c:02:df:c2:a8:62:29:1a:c2:08:1f:56:ee:3d:f0:
         24:d8:df:17:dd:9d:36:76:fb:88:f7:ff:aa:51:89:70:fe:37:
         8e:bc:1e:ff:a3:a3:96:97:50:3c:3a:ad:cd:b8:8e:19:9d:19:
         0c:c2:71:16:fc:c1:c5:8e:97:e4:11:ab:1d:2f:6d:1b:46:c7:
         d6:5b:89:77:5c:44:7e:2a:c5:3e:4f:c7:2f:2d:f2:bb:46:69:
         74:38:10:ca:bf:30:63:e4:81:cc:30:ed:cc:3f:1f:22:4b:be:
         c9:e3:82:56:29:d1:da:d0:fa:45:e2:30:96:54:81:15:32:99:
         55:29:85:e7:4d:89:29:25:3f:9d:9c:68:83:d8:e4:32:83:7b:
         40:5b:11:53:cd:58:28:07:38:8e:55:2f:65:eb:6d:88:fe:d8:
         4b:9d:5d:e5:e7:12:a1:25:23:dd:5d:c4:9c:a9:55:4f:1d:05:
         51:29:6a:7c:72:1e:6a:be:f4:47:38:db:74:15:82:f2:b8:9e:
         9e:ca:30:76:81:d8:03:3c:cb:85:cf:52:2a:19:03:a0:63:c5:
         2a:91:35:14:3f:0e:f0:71:46:da:49:54:5e:9c:2d:68:07:bd:
         33:c1:c1:f4:67:23:e6:78:8a:98:98:b8:28:3b:40:ed:2f:2d:
         c1:a5:ee:7d:a0:13:c6:09:81:cf:7c:0f:d0:76:5c:b7:72:ad:
         a4:27:4b:a0:60:09:6f:60:47:8b:c3:55:37:7c:41:54:b6:3b:
         4d:3c:8c:55:e2:9a:8a:90:90:78:69:5e:3a:2a:59:88:fb:ce:
         22:a6:14:c8:c4:0e:2a:ba:00:50:03:70:79:76:07:cc:2b:cc:
         ea:6a:45:c5:13:7f:66:50:ef:9d:dc:9e:7a:cc:ca:b2:be:c4:
         59:53:24:b8:76:7a:ff:9b:7d:95:d2:40:d3:4a:b4:08:a7:27:
         1f:7d:5d:3f:3c:1e:bd:ec:c6:d4:ed:5f:f0:22:45:2e:6c:01:
         a7:9b:6b:a8:ca:79:9a:18:2f:44:72:3d:36:48:41:12:c2:0b:
         f2:20:62:82:dd:1a:07:ac:fe:bb:04:b6:38:a3:0e:51:45:13:
         ea:d5:76:e0:24:20:92:5c:44:c7:8a:c4:1b:36:d0:fe:a6:31:
         dd:7a:bb:86:49:98:51:4b:1c:f7:94:0f:cc:60:96:12:66:13:
         4e:31:b1:46:5c:5e:1c:52
-----BEGIN CERTIFICATE-----
MIIFojCCA4qgAwIBAgICAQkwDQYJKoZIhvcNAQELBQAwgYQxCzAJBgNVBAYTAkNI
MRAwDgYDVQQIEwdUaHVyZ2F1MRAwDgYDVQQHEwdLZWZpa29uMRMwEQYDVQQKEwpn
dWVuZ2VsLmNoMRYwFAYDVQQDEw1DQSBndWVuZ2VsLmNoMSQwIgYJKoZIhvcNAQkB
FhVwb3N0bWFzdGVyQGd1ZW5nZWwuY2gwHhcNMTYxMTIwMDkxNzI4WhcNMTgwNDA0
MDkxNzI4WjCBhjELMAkGA1UEBhMCQ0gxEDAOBgNVBAgTB1RodXJnYXUxEzARBgNV
BAoTCmd1ZW5nZWwuY2gxKjAoBgNVBAMTIXNvbGFyaXN4ODYtMy52aXJ0dWFsLmty
dWVtZWwuaG9tZTEkMCIGCSqGSIb3DQEJARYVcG9zdG1hc3RlckBndWVuZ2VsLmNo
MIIBIjANBgkqhkiG9w0BAQEFAAOCAQ8AMIIBCgKCAQEA26xGBuKZ+1EEoOzfvX25
cX6F+Z2J4JBrKDlkf4SjQJ1CeZjPPcU8b0uttuVhd6RyEnNCWiuzOaHOz2fLrkM3
V8WUrMlqn9+/vNGqACmmRQtqf6ZOc9e+atfuj3JE9JoUJMaNeXmhFKgapqmTgqYQ
EOn7qqeTeVODezZjKpFFaYfgbycCxg4FbeYaDpO2ks/+FkHkicAKixXCWQGOmSTW
GUJZiNRyIGmsPeX4QKk7LokfY7RbjLaHJ3KzOQaZz+KOoq8idDD3NiFbUqDwqxgR
09mYV1g2RsewADWiAl95rFpu9X2/5zXaVNKYS5L1u3ibkh8la56DRVQSKnbzITTw
DwIDAQABo4IBGDCCARQwCQYDVR0TBAIwADAsBglghkgBhvhCAQ0EHxYdT3BlblNT
TCBHZW5lcmF0ZWQgQ2VydGlmaWNhdGUwHQYDVR0OBBYEFNAVLKi9noC7knjNt6HT
7HTp9inpMIG5BgNVHSMEgbEwga6AFNaI8arBKwmMuFydzt9XOWImECCQoYGKpIGH
MIGEMQswCQYDVQQGEwJDSDEQMA4GA1UECBMHVGh1cmdhdTEQMA4GA1UEBxMHS2Vm
aWtvbjETMBEGA1UEChMKZ3VlbmdlbC5jaDEWMBQGA1UEAxMNQ0EgZ3VlbmdlbC5j
aDEkMCIGCSqGSIb3DQEJARYVcG9zdG1hc3RlckBndWVuZ2VsLmNoggkA5SU7pne9
y/8wDQYJKoZIhvcNAQELBQADggIBAEvilq+tl1nBUkZlG4E3koqEsJqcX4cMqPU6
Ss0iAPl1FFBPRJBkspLoms9oB3BmQmCbb4jr2BeXWAwC38KoYikawggfVu498CTY
3xfdnTZ2+4j3/6pRiXD+N468Hv+jo5aXUDw6rc24jhmdGQzCcRb8wcWOl+QRqx0v
bRtGx9ZbiXdcRH4qxT5Pxy8t8rtGaXQ4EMq/MGPkgcww7cw/HyJLvsnjglYp0drQ
+kXiMJZUgRUymVUphedNiSklP52caIPY5DKDe0BbEVPNWCgHOI5VL2XrbYj+2Eud
XeXnEqElI91dxJypVU8dBVEpanxyHmq+9Ec423QVgvK4np7KMHaB2AM8y4XPUioZ
A6BjxSqRNRQ/DvBxRtpJVF6cLWgHvTPBwfRnI+Z4ipiYuCg7QO0vLcGl7n2gE8YJ
gc98D9B2XLdyraQnS6BgCW9gR4vDVTd8QVS2O008jFXimoqQkHhpXjoqWYj7ziKm
FMjEDiq6AFADcHl2B8wrzOpqRcUTf2ZQ753cnnrMyrK+xFlTJLh2ev+bfZXSQNNK
tAinJx99XT88Hr3sxtTtX/AiRS5sAaeba6jKeZoYL0RyPTZIQRLCC/IgYoLdGges
/rsEtjijDlFFE+rVduAkIJJcRMeKxBs20P6mMd16u4ZJmFFLHPeUD8xglhJmE04x
sUZcXhxS
-----END CERTIFICATE-----
