Certificate:
    Data:
        Version: 3 (0x2)
        Serial Number: 354 (0x162)
    Signature Algorithm: sha256WithRSAEncryption
        Issuer: C=CH, ST=Thurgau, L=Kefikon, O=guengel.ch, CN=CA guengel.ch/emailAddress=postmaster@guengel.ch
        Validity
            Not Before: Dec 29 14:40:04 2018 GMT
            Not After : Feb  2 14:40:04 2020 GMT
        Subject: C=CH, ST=Thurgau, O=guengel.ch, CN=solaris.web.kruemel.home/emailAddress=postmaster@guengel.ch
        Subject Public Key Info:
            Public Key Algorithm: rsaEncryption
                Public-Key: (2048 bit)
                Modulus:
                    00:cf:80:d7:07:68:bc:a6:52:a7:18:23:ef:fe:07:
                    30:21:2b:a4:36:3b:db:dd:1e:91:1e:70:df:7b:2d:
                    28:f3:29:5a:b5:79:dc:6a:c0:18:b2:dc:52:20:22:
                    4a:d9:2b:d2:19:ee:bd:6d:3e:6a:0f:df:4f:64:7c:
                    fe:cb:0c:be:47:ef:3a:14:4c:81:0a:e4:6d:70:02:
                    cf:99:dc:17:1c:4e:64:9d:96:f9:ad:6a:9b:f7:05:
                    e2:74:a4:c8:44:8f:e3:a4:39:20:ab:89:3c:62:36:
                    ab:ce:dd:82:ad:0f:02:a3:48:59:26:5c:6d:06:fa:
                    25:8e:1c:2a:53:a4:58:8d:d2:44:32:62:2c:b0:64:
                    d6:39:69:ef:d9:19:8e:75:69:81:d7:c6:f9:45:2f:
                    79:16:31:b1:ff:5a:f3:0a:8a:48:c9:51:a9:a8:39:
                    d3:40:a5:80:43:83:5c:e1:79:9d:76:e1:33:02:b9:
                    3a:32:b1:7c:f0:f6:8c:ef:af:ad:6e:98:fd:d4:1a:
                    22:8c:7f:e9:e6:4b:8b:aa:59:e2:c9:05:e6:11:1f:
                    80:3a:e7:b9:e6:1b:9d:b6:21:bb:19:e2:c4:13:fd:
                    b6:2c:de:34:ca:3d:bb:b4:d8:4f:88:c5:6f:9f:f2:
                    4d:09:fb:88:6d:f8:8c:db:a7:b0:e2:53:78:73:4e:
                    a7:83
                Exponent: 65537 (0x10001)
        X509v3 extensions:
            X509v3 Basic Constraints: 
                CA:FALSE
            Netscape Comment: 
                OpenSSL Generated Certificate
            X509v3 Subject Key Identifier: 
                E7:E5:10:B3:AA:EF:C8:7B:D8:5D:DC:2B:C5:B4:14:82:DC:EF:AC:1B
            X509v3 Authority Key Identifier: 
                keyid:D6:88:F1:AA:C1:2B:09:8C:B8:5C:9D:CE:DF:57:39:62:26:10:20:90
                DirName:/C=CH/ST=Thurgau/L=Kefikon/O=guengel.ch/CN=CA guengel.ch/emailAddress=postmaster@guengel.ch
                serial:E5:25:3B:A6:77:BD:CB:FF

    Signature Algorithm: sha256WithRSAEncryption
         9b:e3:b8:b6:6b:2d:53:a6:da:f6:43:27:1a:80:f7:b4:ad:e5:
         54:d1:56:93:c9:33:bf:74:bd:4c:9f:1a:dd:b1:27:ac:b7:d3:
         40:31:60:f6:5e:98:1e:6e:34:46:86:03:fe:d0:34:98:7b:ce:
         bd:5a:49:54:77:ea:f6:5c:77:ce:c9:d9:51:39:69:4a:d0:d9:
         95:39:70:cf:aa:98:92:0e:7e:c8:2e:59:0c:53:44:19:00:9d:
         ee:a4:66:69:bc:50:ff:d4:83:64:83:6c:15:49:bc:ab:13:7c:
         c2:24:8c:23:4d:b4:cc:3a:85:a0:69:27:ad:03:61:96:f2:37:
         31:19:83:ce:37:a0:d6:3a:8a:10:a6:e8:41:55:83:bb:04:09:
         fe:c1:46:de:3f:6a:9a:7b:85:47:7b:0b:7c:94:fa:95:97:2a:
         e0:4e:64:a8:48:dc:a9:61:1d:eb:0c:33:07:1a:62:ee:dd:22:
         c5:46:34:3c:59:ae:ea:ae:c7:89:f1:6f:78:f5:cc:f0:ea:06:
         f4:f8:ef:7f:62:3b:54:2c:49:00:c9:2c:ed:eb:50:e4:1a:1c:
         51:68:26:15:81:be:ea:3a:fa:14:06:c7:97:fe:9a:0f:b1:ac:
         f1:ce:7d:a2:16:71:5d:6e:95:5d:44:8f:d5:6d:7e:9e:4d:d2:
         37:00:8e:17:7a:c2:5b:3e:fd:f1:13:85:a8:2e:92:80:16:40:
         d7:0b:f4:52:b9:73:b8:e5:5a:7c:99:3c:5e:12:eb:36:55:3a:
         3d:4b:89:07:73:4a:83:54:c9:a0:e5:91:e2:f9:e6:7c:68:65:
         11:3a:d4:98:0a:af:0d:36:9d:4a:be:c8:e2:89:1b:92:3b:c5:
         b2:a0:42:4c:a5:d4:19:65:57:0f:ae:4e:28:c0:4f:3f:0d:e5:
         57:03:ed:4d:43:b0:55:d1:c1:22:76:fe:ec:7c:6d:da:56:16:
         64:bf:79:51:b9:92:3f:2e:78:a2:70:19:03:cd:e8:3f:23:25:
         be:9f:92:fb:94:2c:ad:75:e0:98:ac:28:2c:a4:d1:90:1a:39:
         bb:39:8a:a5:9d:12:db:59:4a:c2:6b:4b:c5:a2:83:37:90:f4:
         1d:1a:c1:73:f8:22:61:0e:d9:6e:41:58:ac:6f:62:6e:1b:96:
         58:15:35:92:c2:b7:8b:15:72:80:98:f7:e9:d4:fa:c4:09:fb:
         d0:0a:ad:49:e6:e1:d5:7a:00:24:ce:b6:48:82:5d:ce:1a:1d:
         df:2f:6f:b4:74:fd:f4:44:11:73:dc:d9:09:1d:02:a2:bf:89:
         36:6d:9d:27:59:fe:f8:87:f4:97:87:17:a9:aa:a4:c2:7f:77:
         10:1b:1b:ef:a8:bb:c9:e3
-----BEGIN CERTIFICATE-----
MIIFmDCCA4CgAwIBAgICAWIwDQYJKoZIhvcNAQELBQAwgYQxCzAJBgNVBAYTAkNI
MRAwDgYDVQQIEwdUaHVyZ2F1MRAwDgYDVQQHEwdLZWZpa29uMRMwEQYDVQQKEwpn
dWVuZ2VsLmNoMRYwFAYDVQQDEw1DQSBndWVuZ2VsLmNoMSQwIgYJKoZIhvcNAQkB
FhVwb3N0bWFzdGVyQGd1ZW5nZWwuY2gwHhcNMTgxMjI5MTQ0MDA0WhcNMjAwMjAy
MTQ0MDA0WjB9MQswCQYDVQQGEwJDSDEQMA4GA1UECBMHVGh1cmdhdTETMBEGA1UE
ChMKZ3VlbmdlbC5jaDEhMB8GA1UEAxMYc29sYXJpcy53ZWIua3J1ZW1lbC5ob21l
MSQwIgYJKoZIhvcNAQkBFhVwb3N0bWFzdGVyQGd1ZW5nZWwuY2gwggEiMA0GCSqG
SIb3DQEBAQUAA4IBDwAwggEKAoIBAQDPgNcHaLymUqcYI+/+BzAhK6Q2O9vdHpEe
cN97LSjzKVq1edxqwBiy3FIgIkrZK9IZ7r1tPmoP309kfP7LDL5H7zoUTIEK5G1w
As+Z3BccTmSdlvmtapv3BeJ0pMhEj+OkOSCriTxiNqvO3YKtDwKjSFkmXG0G+iWO
HCpTpFiN0kQyYiywZNY5ae/ZGY51aYHXxvlFL3kWMbH/WvMKikjJUamoOdNApYBD
g1zheZ124TMCuToysXzw9ozvr61umP3UGiKMf+nmS4uqWeLJBeYRH4A657nmG522
IbsZ4sQT/bYs3jTKPbu02E+IxW+f8k0J+4ht+Izbp7DiU3hzTqeDAgMBAAGjggEY
MIIBFDAJBgNVHRMEAjAAMCwGCWCGSAGG+EIBDQQfFh1PcGVuU1NMIEdlbmVyYXRl
ZCBDZXJ0aWZpY2F0ZTAdBgNVHQ4EFgQU5+UQs6rvyHvYXdwrxbQUgtzvrBswgbkG
A1UdIwSBsTCBroAU1ojxqsErCYy4XJ3O31c5YiYQIJChgYqkgYcwgYQxCzAJBgNV
BAYTAkNIMRAwDgYDVQQIEwdUaHVyZ2F1MRAwDgYDVQQHEwdLZWZpa29uMRMwEQYD
VQQKEwpndWVuZ2VsLmNoMRYwFAYDVQQDEw1DQSBndWVuZ2VsLmNoMSQwIgYJKoZI
hvcNAQkBFhVwb3N0bWFzdGVyQGd1ZW5nZWwuY2iCCQDlJTumd73L/zANBgkqhkiG
9w0BAQsFAAOCAgEAm+O4tmstU6ba9kMnGoD3tK3lVNFWk8kzv3S9TJ8a3bEnrLfT
QDFg9l6YHm40RoYD/tA0mHvOvVpJVHfq9lx3zsnZUTlpStDZlTlwz6qYkg5+yC5Z
DFNEGQCd7qRmabxQ/9SDZINsFUm8qxN8wiSMI020zDqFoGknrQNhlvI3MRmDzjeg
1jqKEKboQVWDuwQJ/sFG3j9qmnuFR3sLfJT6lZcq4E5kqEjcqWEd6wwzBxpi7t0i
xUY0PFmu6q7HifFvePXM8OoG9Pjvf2I7VCxJAMks7etQ5BocUWgmFYG+6jr6FAbH
l/6aD7Gs8c59ohZxXW6VXUSP1W1+nk3SNwCOF3rCWz798ROFqC6SgBZA1wv0Urlz
uOVafJk8XhLrNlU6PUuJB3NKg1TJoOWR4vnmfGhlETrUmAqvDTadSr7I4okbkjvF
sqBCTKXUGWVXD65OKMBPPw3lVwPtTUOwVdHBInb+7Hxt2lYWZL95UbmSPy54onAZ
A83oPyMlvp+S+5QsrXXgmKwoLKTRkBo5uzmKpZ0S21lKwmtLxaKDN5D0HRrBc/gi
YQ7ZbkFYrG9ibhuWWBU1ksK3ixVygJj36dT6xAn70AqtSebh1XoAJM62SIJdzhod
3y9vtHT99EQRc9zZCR0Cor+JNm2dJ1n++If0l4cXqaqkwn93EBsb76i7yeM=
-----END CERTIFICATE-----
