Certificate:
    Data:
        Version: 3 (0x2)
        Serial Number: 288 (0x120)
    Signature Algorithm: sha256WithRSAEncryption
        Issuer: C=CH, ST=Thurgau, L=Kefikon, O=guengel.ch, CN=CA guengel.ch/emailAddress=postmaster@guengel.ch
        Validity
            Not Before: Dec 26 11:15:23 2017 GMT
            Not After : Jan 10 11:15:23 2019 GMT
        Subject: C=CH, ST=Thurgau, O=guengel.ch, CN=solaris.web.kruemel.home/emailAddress=postmaster@guengel.ch
        Subject Public Key Info:
            Public Key Algorithm: rsaEncryption
                Public-Key: (2048 bit)
                Modulus:
                    00:cf:80:d7:07:68:bc:a6:52:a7:18:23:ef:fe:07:
                    30:21:2b:a4:36:3b:db:dd:1e:91:1e:70:df:7b:2d:
                    28:f3:29:5a:b5:79:dc:6a:c0:18:b2:dc:52:20:22:
                    4a:d9:2b:d2:19:ee:bd:6d:3e:6a:0f:df:4f:64:7c:
                    fe:cb:0c:be:47:ef:3a:14:4c:81:0a:e4:6d:70:02:
                    cf:99:dc:17:1c:4e:64:9d:96:f9:ad:6a:9b:f7:05:
                    e2:74:a4:c8:44:8f:e3:a4:39:20:ab:89:3c:62:36:
                    ab:ce:dd:82:ad:0f:02:a3:48:59:26:5c:6d:06:fa:
                    25:8e:1c:2a:53:a4:58:8d:d2:44:32:62:2c:b0:64:
                    d6:39:69:ef:d9:19:8e:75:69:81:d7:c6:f9:45:2f:
                    79:16:31:b1:ff:5a:f3:0a:8a:48:c9:51:a9:a8:39:
                    d3:40:a5:80:43:83:5c:e1:79:9d:76:e1:33:02:b9:
                    3a:32:b1:7c:f0:f6:8c:ef:af:ad:6e:98:fd:d4:1a:
                    22:8c:7f:e9:e6:4b:8b:aa:59:e2:c9:05:e6:11:1f:
                    80:3a:e7:b9:e6:1b:9d:b6:21:bb:19:e2:c4:13:fd:
                    b6:2c:de:34:ca:3d:bb:b4:d8:4f:88:c5:6f:9f:f2:
                    4d:09:fb:88:6d:f8:8c:db:a7:b0:e2:53:78:73:4e:
                    a7:83
                Exponent: 65537 (0x10001)
        X509v3 extensions:
            X509v3 Basic Constraints: 
                CA:FALSE
            Netscape Comment: 
                OpenSSL Generated Certificate
            X509v3 Subject Key Identifier: 
                E7:E5:10:B3:AA:EF:C8:7B:D8:5D:DC:2B:C5:B4:14:82:DC:EF:AC:1B
            X509v3 Authority Key Identifier: 
                keyid:D6:88:F1:AA:C1:2B:09:8C:B8:5C:9D:CE:DF:57:39:62:26:10:20:90
                DirName:/C=CH/ST=Thurgau/L=Kefikon/O=guengel.ch/CN=CA guengel.ch/emailAddress=postmaster@guengel.ch
                serial:E5:25:3B:A6:77:BD:CB:FF

    Signature Algorithm: sha256WithRSAEncryption
         a9:eb:39:8e:4b:1a:26:32:d9:12:4d:6c:b1:e1:e5:be:d7:bd:
         c8:37:c4:dc:3b:16:54:69:61:f8:48:d2:a4:c9:fa:fa:41:36:
         88:f7:b0:39:ae:6f:35:e6:60:2f:a3:e4:c2:3b:a9:b6:0e:34:
         c1:81:82:21:25:06:96:83:92:b9:5f:c4:3e:ca:0a:61:e7:72:
         6e:c5:12:96:20:90:18:97:b2:f0:06:e3:a1:87:7f:de:70:32:
         26:5d:d3:59:e5:84:33:21:7a:fa:fa:88:ae:03:96:b0:56:04:
         85:52:d2:a6:81:22:61:7a:fa:2b:03:cd:f2:3e:60:1e:ba:e1:
         37:bd:c0:9f:7c:b9:33:1e:b0:8d:45:73:90:7c:0f:0d:7d:33:
         64:31:4a:82:91:17:c0:59:63:3b:30:f8:85:93:af:fe:c6:41:
         5c:61:a2:10:24:25:7d:29:61:31:39:e5:94:31:c6:a4:98:68:
         3f:41:05:02:5e:cf:60:21:aa:70:b3:27:dd:9e:4b:4a:0f:c0:
         19:fd:04:89:07:6d:d6:8a:6e:93:e3:aa:0c:ab:ab:43:42:3f:
         84:1b:5f:22:2e:64:8b:62:0b:a3:36:6f:32:07:da:cf:ad:82:
         09:31:02:54:77:83:20:9a:a1:ba:9e:95:a9:84:01:85:7e:9a:
         47:be:86:84:48:ff:09:6e:13:16:68:2f:99:19:18:0a:29:9d:
         0d:50:75:0b:1c:90:62:e2:43:9e:82:f0:8e:29:41:eb:4e:06:
         e0:15:92:48:cf:f5:fc:5b:16:cf:35:cd:02:c6:d3:e4:99:c3:
         68:3a:0e:63:2f:56:95:64:87:c7:7c:40:b0:be:e6:73:91:4a:
         61:5b:40:98:22:46:af:d9:14:99:97:ec:a5:68:77:db:77:71:
         c1:eb:c2:64:43:d1:41:85:51:33:5f:be:16:d1:2e:3e:26:33:
         d1:16:85:0e:57:07:d4:71:00:f2:72:ef:95:42:15:d9:cc:90:
         9f:b8:71:3d:30:71:b2:1c:cd:78:42:8e:16:ef:56:6f:9c:29:
         f7:90:f3:9d:81:5f:f8:80:17:6a:e3:1b:ab:18:00:1f:2d:03:
         c5:5a:5c:03:48:db:c5:52:15:ab:d6:17:3e:10:61:65:04:c3:
         04:98:8b:98:0f:7d:ee:7a:ac:38:6c:b5:f4:8d:c7:42:7e:a3:
         37:e7:65:7c:b9:b7:cc:26:da:46:7f:e1:ab:cf:b7:9b:12:ea:
         b6:5c:55:b2:85:12:6a:cf:dd:24:19:b3:33:66:cd:3e:ba:dc:
         df:87:e6:4d:f8:a2:27:5c:5c:3c:83:0d:9e:c4:1b:69:79:09:
         26:dd:16:b4:2c:a0:69:49
-----BEGIN CERTIFICATE-----
MIIFmDCCA4CgAwIBAgICASAwDQYJKoZIhvcNAQELBQAwgYQxCzAJBgNVBAYTAkNI
MRAwDgYDVQQIEwdUaHVyZ2F1MRAwDgYDVQQHEwdLZWZpa29uMRMwEQYDVQQKEwpn
dWVuZ2VsLmNoMRYwFAYDVQQDEw1DQSBndWVuZ2VsLmNoMSQwIgYJKoZIhvcNAQkB
FhVwb3N0bWFzdGVyQGd1ZW5nZWwuY2gwHhcNMTcxMjI2MTExNTIzWhcNMTkwMTEw
MTExNTIzWjB9MQswCQYDVQQGEwJDSDEQMA4GA1UECBMHVGh1cmdhdTETMBEGA1UE
ChMKZ3VlbmdlbC5jaDEhMB8GA1UEAxMYc29sYXJpcy53ZWIua3J1ZW1lbC5ob21l
MSQwIgYJKoZIhvcNAQkBFhVwb3N0bWFzdGVyQGd1ZW5nZWwuY2gwggEiMA0GCSqG
SIb3DQEBAQUAA4IBDwAwggEKAoIBAQDPgNcHaLymUqcYI+/+BzAhK6Q2O9vdHpEe
cN97LSjzKVq1edxqwBiy3FIgIkrZK9IZ7r1tPmoP309kfP7LDL5H7zoUTIEK5G1w
As+Z3BccTmSdlvmtapv3BeJ0pMhEj+OkOSCriTxiNqvO3YKtDwKjSFkmXG0G+iWO
HCpTpFiN0kQyYiywZNY5ae/ZGY51aYHXxvlFL3kWMbH/WvMKikjJUamoOdNApYBD
g1zheZ124TMCuToysXzw9ozvr61umP3UGiKMf+nmS4uqWeLJBeYRH4A657nmG522
IbsZ4sQT/bYs3jTKPbu02E+IxW+f8k0J+4ht+Izbp7DiU3hzTqeDAgMBAAGjggEY
MIIBFDAJBgNVHRMEAjAAMCwGCWCGSAGG+EIBDQQfFh1PcGVuU1NMIEdlbmVyYXRl
ZCBDZXJ0aWZpY2F0ZTAdBgNVHQ4EFgQU5+UQs6rvyHvYXdwrxbQUgtzvrBswgbkG
A1UdIwSBsTCBroAU1ojxqsErCYy4XJ3O31c5YiYQIJChgYqkgYcwgYQxCzAJBgNV
BAYTAkNIMRAwDgYDVQQIEwdUaHVyZ2F1MRAwDgYDVQQHEwdLZWZpa29uMRMwEQYD
VQQKEwpndWVuZ2VsLmNoMRYwFAYDVQQDEw1DQSBndWVuZ2VsLmNoMSQwIgYJKoZI
hvcNAQkBFhVwb3N0bWFzdGVyQGd1ZW5nZWwuY2iCCQDlJTumd73L/zANBgkqhkiG
9w0BAQsFAAOCAgEAqes5jksaJjLZEk1sseHlvte9yDfE3DsWVGlh+EjSpMn6+kE2
iPewOa5vNeZgL6Pkwjuptg40wYGCISUGloOSuV/EPsoKYedybsUSliCQGJey8Abj
oYd/3nAyJl3TWeWEMyF6+vqIrgOWsFYEhVLSpoEiYXr6KwPN8j5gHrrhN73An3y5
Mx6wjUVzkHwPDX0zZDFKgpEXwFljOzD4hZOv/sZBXGGiECQlfSlhMTnllDHGpJho
P0EFAl7PYCGqcLMn3Z5LSg/AGf0EiQdt1opuk+OqDKurQ0I/hBtfIi5ki2ILozZv
Mgfaz62CCTECVHeDIJqhup6VqYQBhX6aR76GhEj/CW4TFmgvmRkYCimdDVB1CxyQ
YuJDnoLwjilB604G4BWSSM/1/FsWzzXNAsbT5JnDaDoOYy9WlWSHx3xAsL7mc5FK
YVtAmCJGr9kUmZfspWh323dxwevCZEPRQYVRM1++FtEuPiYz0RaFDlcH1HEA8nLv
lUIV2cyQn7hxPTBxshzNeEKOFu9Wb5wp95DznYFf+IAXauMbqxgAHy0DxVpcA0jb
xVIVq9YXPhBhZQTDBJiLmA997nqsOGy19I3HQn6jN+dlfLm3zCbaRn/hq8+3mxLq
tlxVsoUSas/dJBmzM2bNPrrc34fmTfiiJ1xcPIMNnsQbaXkJJt0WtCygaUk=
-----END CERTIFICATE-----
