Certificate:
    Data:
        Version: 3 (0x2)
        Serial Number: 315 (0x13b)
    Signature Algorithm: sha256WithRSAEncryption
        Issuer: C=CH, ST=Thurgau, L=Kefikon, O=guengel.ch, CN=CA guengel.ch/emailAddress=postmaster@guengel.ch
        Validity
            Not Before: Jan  6 18:03:01 2018 GMT
            Not After : Feb 10 18:03:01 2019 GMT
        Subject: C=CH, ST=Thurgau, O=guengel.ch, CN=solaris.web.kruemel.home/emailAddress=postmaster@guengel.ch
        Subject Public Key Info:
            Public Key Algorithm: rsaEncryption
                Public-Key: (2048 bit)
                Modulus:
                    00:cf:80:d7:07:68:bc:a6:52:a7:18:23:ef:fe:07:
                    30:21:2b:a4:36:3b:db:dd:1e:91:1e:70:df:7b:2d:
                    28:f3:29:5a:b5:79:dc:6a:c0:18:b2:dc:52:20:22:
                    4a:d9:2b:d2:19:ee:bd:6d:3e:6a:0f:df:4f:64:7c:
                    fe:cb:0c:be:47:ef:3a:14:4c:81:0a:e4:6d:70:02:
                    cf:99:dc:17:1c:4e:64:9d:96:f9:ad:6a:9b:f7:05:
                    e2:74:a4:c8:44:8f:e3:a4:39:20:ab:89:3c:62:36:
                    ab:ce:dd:82:ad:0f:02:a3:48:59:26:5c:6d:06:fa:
                    25:8e:1c:2a:53:a4:58:8d:d2:44:32:62:2c:b0:64:
                    d6:39:69:ef:d9:19:8e:75:69:81:d7:c6:f9:45:2f:
                    79:16:31:b1:ff:5a:f3:0a:8a:48:c9:51:a9:a8:39:
                    d3:40:a5:80:43:83:5c:e1:79:9d:76:e1:33:02:b9:
                    3a:32:b1:7c:f0:f6:8c:ef:af:ad:6e:98:fd:d4:1a:
                    22:8c:7f:e9:e6:4b:8b:aa:59:e2:c9:05:e6:11:1f:
                    80:3a:e7:b9:e6:1b:9d:b6:21:bb:19:e2:c4:13:fd:
                    b6:2c:de:34:ca:3d:bb:b4:d8:4f:88:c5:6f:9f:f2:
                    4d:09:fb:88:6d:f8:8c:db:a7:b0:e2:53:78:73:4e:
                    a7:83
                Exponent: 65537 (0x10001)
        X509v3 extensions:
            X509v3 Basic Constraints: 
                CA:FALSE
            Netscape Comment: 
                OpenSSL Generated Certificate
            X509v3 Subject Key Identifier: 
                E7:E5:10:B3:AA:EF:C8:7B:D8:5D:DC:2B:C5:B4:14:82:DC:EF:AC:1B
            X509v3 Authority Key Identifier: 
                keyid:D6:88:F1:AA:C1:2B:09:8C:B8:5C:9D:CE:DF:57:39:62:26:10:20:90
                DirName:/C=CH/ST=Thurgau/L=Kefikon/O=guengel.ch/CN=CA guengel.ch/emailAddress=postmaster@guengel.ch
                serial:E5:25:3B:A6:77:BD:CB:FF

    Signature Algorithm: sha256WithRSAEncryption
         1c:01:bc:6c:bd:ba:ef:fc:a3:da:4d:79:75:f0:89:12:7f:b8:
         8d:15:2d:ad:20:a4:73:d0:f8:8a:4a:28:da:d4:be:35:de:7c:
         c1:92:7e:8e:25:c9:ac:ac:29:f3:cc:96:4c:cf:f4:57:cc:da:
         be:4f:73:f1:3d:12:40:39:0c:e2:bc:80:24:62:7f:26:d9:4c:
         6a:f2:25:f5:11:d4:ad:b1:fb:9a:25:5d:99:0f:11:cc:1c:51:
         d4:04:a3:1a:3b:a7:b2:3a:a9:d7:c0:32:46:0c:0e:96:32:4c:
         68:b1:f5:5f:42:25:90:55:13:48:d4:3d:c6:7c:15:2d:fa:c3:
         3a:37:b3:8d:33:c7:ef:d5:aa:e8:02:47:e6:57:17:db:8f:93:
         b8:13:31:ff:a6:83:6b:0e:5a:13:48:3f:3d:4c:32:c5:1b:88:
         cc:e4:a4:3b:19:74:79:2b:95:71:8f:f1:a2:3a:64:03:61:18:
         f8:13:13:2f:63:26:dd:e4:c7:3c:2a:7d:23:76:3d:1d:a2:df:
         c2:0d:b3:32:07:bd:82:50:bf:8d:e2:9e:d5:bf:bf:88:3e:c7:
         31:88:03:26:f5:b7:27:63:a4:bb:40:80:06:5e:c7:57:9a:27:
         05:7e:1e:d4:a3:ac:0a:10:a9:8e:20:6a:e5:09:02:40:96:8d:
         86:a9:a1:1e:4e:95:86:9e:0b:f9:da:6c:03:8b:cf:de:4d:99:
         a3:af:28:98:b3:ea:84:23:e9:51:77:8f:9e:9d:3e:3c:f3:e3:
         cc:b1:6d:ea:79:d1:12:2b:f2:7b:32:4d:1c:2a:f0:1b:c6:68:
         d4:41:a8:ff:a5:52:1b:fb:38:17:cc:ff:72:05:32:a2:0f:9e:
         60:f0:3d:6d:74:55:9a:b3:5e:23:db:59:fd:f7:cc:dd:14:52:
         83:22:4d:cd:26:bc:3d:3e:26:74:28:10:38:bb:7f:c6:33:e8:
         7e:a2:bc:48:6e:3f:74:00:32:fd:59:96:e3:53:e5:33:d6:18:
         2b:bb:cb:c8:ed:66:6d:91:12:0e:3b:97:3d:67:47:05:a2:aa:
         c4:f7:c6:53:2b:3e:3b:ce:b2:4d:7e:50:b2:7e:fb:43:a2:9e:
         b3:63:1c:d8:2f:de:bb:3e:0d:91:69:f3:81:51:9e:37:45:1b:
         82:bb:57:52:af:3c:34:19:f8:75:66:7a:20:c1:87:a1:2f:5f:
         a7:45:30:50:29:be:32:7c:ac:7d:9d:74:1f:e4:7c:30:b4:7c:
         ac:e6:fe:fd:e2:ec:b8:91:82:73:2e:3c:01:e6:09:61:3c:6c:
         2c:3d:95:f1:8c:4d:8d:cc:ba:d4:22:af:1a:a9:05:53:27:44:
         51:43:fb:37:c7:5b:59:d2
-----BEGIN CERTIFICATE-----
MIIFmDCCA4CgAwIBAgICATswDQYJKoZIhvcNAQELBQAwgYQxCzAJBgNVBAYTAkNI
MRAwDgYDVQQIEwdUaHVyZ2F1MRAwDgYDVQQHEwdLZWZpa29uMRMwEQYDVQQKEwpn
dWVuZ2VsLmNoMRYwFAYDVQQDEw1DQSBndWVuZ2VsLmNoMSQwIgYJKoZIhvcNAQkB
FhVwb3N0bWFzdGVyQGd1ZW5nZWwuY2gwHhcNMTgwMTA2MTgwMzAxWhcNMTkwMjEw
MTgwMzAxWjB9MQswCQYDVQQGEwJDSDEQMA4GA1UECBMHVGh1cmdhdTETMBEGA1UE
ChMKZ3VlbmdlbC5jaDEhMB8GA1UEAxMYc29sYXJpcy53ZWIua3J1ZW1lbC5ob21l
MSQwIgYJKoZIhvcNAQkBFhVwb3N0bWFzdGVyQGd1ZW5nZWwuY2gwggEiMA0GCSqG
SIb3DQEBAQUAA4IBDwAwggEKAoIBAQDPgNcHaLymUqcYI+/+BzAhK6Q2O9vdHpEe
cN97LSjzKVq1edxqwBiy3FIgIkrZK9IZ7r1tPmoP309kfP7LDL5H7zoUTIEK5G1w
As+Z3BccTmSdlvmtapv3BeJ0pMhEj+OkOSCriTxiNqvO3YKtDwKjSFkmXG0G+iWO
HCpTpFiN0kQyYiywZNY5ae/ZGY51aYHXxvlFL3kWMbH/WvMKikjJUamoOdNApYBD
g1zheZ124TMCuToysXzw9ozvr61umP3UGiKMf+nmS4uqWeLJBeYRH4A657nmG522
IbsZ4sQT/bYs3jTKPbu02E+IxW+f8k0J+4ht+Izbp7DiU3hzTqeDAgMBAAGjggEY
MIIBFDAJBgNVHRMEAjAAMCwGCWCGSAGG+EIBDQQfFh1PcGVuU1NMIEdlbmVyYXRl
ZCBDZXJ0aWZpY2F0ZTAdBgNVHQ4EFgQU5+UQs6rvyHvYXdwrxbQUgtzvrBswgbkG
A1UdIwSBsTCBroAU1ojxqsErCYy4XJ3O31c5YiYQIJChgYqkgYcwgYQxCzAJBgNV
BAYTAkNIMRAwDgYDVQQIEwdUaHVyZ2F1MRAwDgYDVQQHEwdLZWZpa29uMRMwEQYD
VQQKEwpndWVuZ2VsLmNoMRYwFAYDVQQDEw1DQSBndWVuZ2VsLmNoMSQwIgYJKoZI
hvcNAQkBFhVwb3N0bWFzdGVyQGd1ZW5nZWwuY2iCCQDlJTumd73L/zANBgkqhkiG
9w0BAQsFAAOCAgEAHAG8bL267/yj2k15dfCJEn+4jRUtrSCkc9D4ikoo2tS+Nd58
wZJ+jiXJrKwp88yWTM/0V8zavk9z8T0SQDkM4ryAJGJ/JtlMavIl9RHUrbH7miVd
mQ8RzBxR1ASjGjunsjqp18AyRgwOljJMaLH1X0IlkFUTSNQ9xnwVLfrDOjezjTPH
79Wq6AJH5lcX24+TuBMx/6aDaw5aE0g/PUwyxRuIzOSkOxl0eSuVcY/xojpkA2EY
+BMTL2Mm3eTHPCp9I3Y9HaLfwg2zMge9glC/jeKe1b+/iD7HMYgDJvW3J2Oku0CA
Bl7HV5onBX4e1KOsChCpjiBq5QkCQJaNhqmhHk6Vhp4L+dpsA4vP3k2Zo68omLPq
hCPpUXePnp0+PPPjzLFt6nnREivyezJNHCrwG8Zo1EGo/6VSG/s4F8z/cgUyog+e
YPA9bXRVmrNeI9tZ/ffM3RRSgyJNzSa8PT4mdCgQOLt/xjPofqK8SG4/dAAy/VmW
41PlM9YYK7vLyO1mbZESDjuXPWdHBaKqxPfGUys+O86yTX5Qsn77Q6Kes2Mc2C/e
uz4NkWnzgVGeN0UbgrtXUq88NBn4dWZ6IMGHoS9fp0UwUCm+MnysfZ10H+R8MLR8
rOb+/eLsuJGCcy48AeYJYTxsLD2V8YxNjcy61CKvGqkFUydEUUP7N8dbWdI=
-----END CERTIFICATE-----
