Certificate:
    Data:
        Version: 3 (0x2)
        Serial Number: 263 (0x107)
    Signature Algorithm: sha256WithRSAEncryption
        Issuer: C=CH, ST=Thurgau, L=Kefikon, O=guengel.ch, CN=CA guengel.ch/emailAddress=postmaster@guengel.ch
        Validity
            Not Before: Nov 20 09:17:27 2016 GMT
            Not After : Apr  4 09:17:27 2018 GMT
        Subject: C=CH, ST=Thurgau, O=guengel.ch, CN=solarisx86-1.virtual.kruemel.home/emailAddress=postmaster@guengel.ch
        Subject Public Key Info:
            Public Key Algorithm: rsaEncryption
                Public-Key: (2048 bit)
                Modulus:
                    00:f5:c7:56:c7:71:2b:aa:be:b6:d3:44:26:96:90:
                    6a:8d:93:d4:b1:0e:a6:02:c3:ee:6b:73:a8:13:1f:
                    4c:03:3c:06:b8:95:5f:67:93:72:b7:70:8d:8a:c9:
                    b5:9c:1d:3c:35:1b:ec:34:8b:44:86:0d:16:42:77:
                    bd:1c:29:a0:88:4e:79:41:c5:e7:cf:65:fa:0c:dd:
                    a1:b8:30:18:9d:b6:37:09:5f:b0:84:af:a8:84:b9:
                    da:e9:c9:0a:ee:38:28:31:c4:2f:13:32:e7:58:e6:
                    17:26:8c:62:b5:0f:60:0f:9e:eb:a4:3e:9b:05:72:
                    e9:a4:1f:23:4a:12:c4:5d:40:b8:12:c1:1c:14:9e:
                    52:a8:75:dc:64:29:24:1e:fe:1f:13:27:c7:54:98:
                    45:7a:7a:5f:74:80:20:a1:af:14:d9:75:05:e6:f0:
                    ed:ed:6c:39:38:b0:97:96:09:22:b8:1c:41:80:62:
                    fe:82:57:5b:53:70:e0:4d:31:78:1b:1a:04:26:2c:
                    0b:33:f8:c8:05:77:fd:93:af:b6:e5:c3:33:f6:b4:
                    8a:20:47:91:05:55:a3:aa:b0:6a:4d:51:30:6b:65:
                    fd:57:c8:dd:bf:19:cc:c1:2b:77:f0:32:ab:eb:fb:
                    8e:b3:51:d7:50:aa:1c:01:f2:de:1d:91:1e:97:5c:
                    1d:0b
                Exponent: 65537 (0x10001)
        X509v3 extensions:
            X509v3 Basic Constraints: 
                CA:FALSE
            Netscape Comment: 
                OpenSSL Generated Certificate
            X509v3 Subject Key Identifier: 
                11:F6:A6:91:53:93:F0:00:93:DF:AB:61:A9:97:99:53:5B:DE:C5:D0
            X509v3 Authority Key Identifier: 
                keyid:D6:88:F1:AA:C1:2B:09:8C:B8:5C:9D:CE:DF:57:39:62:26:10:20:90
                DirName:/C=CH/ST=Thurgau/L=Kefikon/O=guengel.ch/CN=CA guengel.ch/emailAddress=postmaster@guengel.ch
                serial:E5:25:3B:A6:77:BD:CB:FF

    Signature Algorithm: sha256WithRSAEncryption
         5a:a0:7b:f6:d1:34:c3:af:40:c1:29:23:4f:20:4c:6f:49:5b:
         06:85:e1:ad:27:41:3a:3f:d3:b3:ae:69:9e:fe:ea:2b:91:65:
         92:7a:88:11:3d:61:0c:84:3d:11:0d:4a:4d:71:17:88:43:7d:
         82:09:2a:dc:d0:b0:49:a3:06:c2:a9:bf:25:4a:42:15:98:02:
         79:84:88:55:da:ef:4f:19:e3:6e:05:63:de:a3:30:f4:23:71:
         ee:c7:4f:b8:3e:9d:c7:04:8f:ae:18:32:5d:3f:d3:da:28:cc:
         57:10:c3:9a:b9:ea:53:05:04:89:0e:3e:d1:96:fc:43:57:ae:
         0f:26:e3:b0:d3:fe:1b:ff:75:ca:0b:28:c3:72:8a:44:d5:02:
         2b:75:75:35:e1:fe:6e:db:8e:37:f8:e0:d3:90:6f:c3:38:f5:
         63:23:be:67:ed:be:9b:4c:89:8a:f1:21:51:bb:9d:4e:da:15:
         95:18:05:2e:d7:7b:16:6d:dd:10:ee:94:54:0e:f4:f5:76:a1:
         e4:8f:fd:a3:53:c5:c0:e6:4b:ee:a6:6f:f3:dd:a7:e0:04:59:
         4e:38:95:d6:46:15:fc:53:40:8d:d1:ec:ff:b2:ca:ba:60:81:
         02:8a:6d:70:2f:f2:02:19:83:43:28:2d:3b:db:3c:75:4b:17:
         84:73:21:b1:45:30:df:0f:50:61:ba:b6:9b:cd:3f:01:3c:57:
         af:c9:78:7b:d9:be:b8:19:90:c8:9d:3c:be:70:3a:ba:5d:73:
         6a:f7:69:cc:7d:87:fb:aa:60:31:d3:0c:92:2b:ed:dd:f8:af:
         91:85:89:96:28:a8:f9:36:0a:bf:d1:32:8f:0f:08:55:7b:48:
         eb:23:fa:ed:a1:e2:b6:39:d5:bc:89:97:7c:de:0b:59:81:9f:
         f7:64:3d:a6:d2:08:b6:d8:3c:39:80:fa:00:a3:ea:37:2e:49:
         e3:1b:d4:fd:9f:86:c5:7e:2e:a3:48:62:8e:42:1e:fe:19:59:
         e0:db:70:9e:bd:de:9e:b2:6d:73:d2:fe:c3:97:57:1c:31:65:
         75:85:5a:63:36:b5:ac:f7:14:e3:d0:8e:5c:c0:09:d1:5e:87:
         30:cb:30:a2:47:e6:56:7e:6e:7b:81:bd:57:92:78:44:81:ae:
         0d:3c:c2:1d:fe:d6:39:dc:ee:08:f7:c4:d9:40:93:cf:38:fa:
         94:44:15:a9:80:2e:37:2f:a4:71:05:f9:f9:13:11:b0:d8:0d:
         81:cf:06:36:02:2c:71:43:22:0f:79:0a:91:c7:23:52:6d:dd:
         3e:71:57:62:35:da:94:5a:41:59:27:65:81:7f:af:32:72:80:
         46:be:ae:0f:bf:0d:7f:e9
-----BEGIN CERTIFICATE-----
MIIFojCCA4qgAwIBAgICAQcwDQYJKoZIhvcNAQELBQAwgYQxCzAJBgNVBAYTAkNI
MRAwDgYDVQQIEwdUaHVyZ2F1MRAwDgYDVQQHEwdLZWZpa29uMRMwEQYDVQQKEwpn
dWVuZ2VsLmNoMRYwFAYDVQQDEw1DQSBndWVuZ2VsLmNoMSQwIgYJKoZIhvcNAQkB
FhVwb3N0bWFzdGVyQGd1ZW5nZWwuY2gwHhcNMTYxMTIwMDkxNzI3WhcNMTgwNDA0
MDkxNzI3WjCBhjELMAkGA1UEBhMCQ0gxEDAOBgNVBAgTB1RodXJnYXUxEzARBgNV
BAoTCmd1ZW5nZWwuY2gxKjAoBgNVBAMTIXNvbGFyaXN4ODYtMS52aXJ0dWFsLmty
dWVtZWwuaG9tZTEkMCIGCSqGSIb3DQEJARYVcG9zdG1hc3RlckBndWVuZ2VsLmNo
MIIBIjANBgkqhkiG9w0BAQEFAAOCAQ8AMIIBCgKCAQEA9cdWx3Erqr6200QmlpBq
jZPUsQ6mAsPua3OoEx9MAzwGuJVfZ5Nyt3CNism1nB08NRvsNItEhg0WQne9HCmg
iE55QcXnz2X6DN2huDAYnbY3CV+whK+ohLna6ckK7jgoMcQvEzLnWOYXJoxitQ9g
D57rpD6bBXLppB8jShLEXUC4EsEcFJ5SqHXcZCkkHv4fEyfHVJhFenpfdIAgoa8U
2XUF5vDt7Ww5OLCXlgkiuBxBgGL+gldbU3DgTTF4GxoEJiwLM/jIBXf9k6+25cMz
9rSKIEeRBVWjqrBqTVEwa2X9V8jdvxnMwSt38DKr6/uOs1HXUKocAfLeHZEel1wd
CwIDAQABo4IBGDCCARQwCQYDVR0TBAIwADAsBglghkgBhvhCAQ0EHxYdT3BlblNT
TCBHZW5lcmF0ZWQgQ2VydGlmaWNhdGUwHQYDVR0OBBYEFBH2ppFTk/AAk9+rYamX
mVNb3sXQMIG5BgNVHSMEgbEwga6AFNaI8arBKwmMuFydzt9XOWImECCQoYGKpIGH
MIGEMQswCQYDVQQGEwJDSDEQMA4GA1UECBMHVGh1cmdhdTEQMA4GA1UEBxMHS2Vm
aWtvbjETMBEGA1UEChMKZ3VlbmdlbC5jaDEWMBQGA1UEAxMNQ0EgZ3VlbmdlbC5j
aDEkMCIGCSqGSIb3DQEJARYVcG9zdG1hc3RlckBndWVuZ2VsLmNoggkA5SU7pne9
y/8wDQYJKoZIhvcNAQELBQADggIBAFqge/bRNMOvQMEpI08gTG9JWwaF4a0nQTo/
07OuaZ7+6iuRZZJ6iBE9YQyEPRENSk1xF4hDfYIJKtzQsEmjBsKpvyVKQhWYAnmE
iFXa708Z424FY96jMPQjce7HT7g+nccEj64YMl0/09oozFcQw5q56lMFBIkOPtGW
/ENXrg8m47DT/hv/dcoLKMNyikTVAit1dTXh/m7bjjf44NOQb8M49WMjvmftvptM
iYrxIVG7nU7aFZUYBS7XexZt3RDulFQO9PV2oeSP/aNTxcDmS+6mb/Pdp+AEWU44
ldZGFfxTQI3R7P+yyrpggQKKbXAv8gIZg0MoLTvbPHVLF4RzIbFFMN8PUGG6tpvN
PwE8V6/JeHvZvrgZkMidPL5wOrpdc2r3acx9h/uqYDHTDJIr7d34r5GFiZYoqPk2
Cr/RMo8PCFV7SOsj+u2h4rY51byJl3zeC1mBn/dkPabSCLbYPDmA+gCj6jcuSeMb
1P2fhsV+LqNIYo5CHv4ZWeDbcJ693p6ybXPS/sOXVxwxZXWFWmM2taz3FOPQjlzA
CdFehzDLMKJH5lZ+bnuBvVeSeESBrg08wh3+1jnc7gj3xNlAk884+pREFamALjcv
pHEF+fkTEbDYDYHPBjYCLHFDIg95CpHHI1Jt3T5xV2I12pRaQVknZYF/rzJygEa+
rg+/DX/p
-----END CERTIFICATE-----
