Certificate:
    Data:
        Version: 3 (0x2)
        Serial Number: 316 (0x13c)
    Signature Algorithm: sha256WithRSAEncryption
        Issuer: C=CH, ST=Thurgau, L=Kefikon, O=guengel.ch, CN=CA guengel.ch/emailAddress=postmaster@guengel.ch
        Validity
            Not Before: Jan  6 18:03:01 2018 GMT
            Not After : Feb 10 18:03:01 2019 GMT
        Subject: C=CH, ST=Thurgau, O=guengel.ch, CN=starscream.dmz.kruemel.home/emailAddress=postmaster@guengel.ch
        Subject Public Key Info:
            Public Key Algorithm: rsaEncryption
                Public-Key: (2048 bit)
                Modulus:
                    00:c4:64:a4:99:5a:fa:f6:d3:06:39:27:9e:7b:9a:
                    dd:6e:f6:35:cf:39:84:17:df:d6:d9:d3:46:36:4e:
                    05:d5:9d:40:af:51:2f:be:f0:f6:97:76:95:09:71:
                    ef:1a:a8:a3:70:35:08:10:4a:ea:60:44:ed:c7:fc:
                    2b:29:4e:56:83:f7:96:fb:ca:0b:d9:dc:1d:5e:3e:
                    e2:c9:d8:48:61:1d:42:e4:30:4b:11:b9:c4:c2:f7:
                    fa:48:4a:39:f5:1d:3a:8d:b4:8f:9f:f0:d2:d8:b2:
                    98:47:01:ee:b0:3a:b9:67:d9:93:07:21:b0:62:50:
                    05:fd:cc:ed:6c:cb:dd:08:45:bf:58:0b:a1:8f:a1:
                    7b:19:d3:ef:0c:d3:98:65:39:f5:73:5f:62:a7:9f:
                    4d:85:20:d9:02:f6:23:1b:9a:ed:59:a0:3d:31:14:
                    3b:5a:30:4c:22:bb:d4:49:8c:1b:cb:45:68:28:19:
                    2b:4b:ad:af:27:2a:93:d9:fa:10:20:82:aa:67:6f:
                    a3:bc:92:76:b5:ce:b1:4a:ae:3e:37:2b:ee:0e:98:
                    25:c9:b9:f0:41:e2:d6:0b:46:df:c9:9b:a5:4c:f8:
                    24:e6:41:70:25:42:95:87:59:33:02:61:51:ef:b4:
                    fe:fb:92:48:84:14:51:06:6c:a8:18:e8:5e:0b:a7:
                    c4:ad
                Exponent: 65537 (0x10001)
        X509v3 extensions:
            X509v3 Basic Constraints: 
                CA:FALSE
            Netscape Comment: 
                OpenSSL Generated Certificate
            X509v3 Subject Key Identifier: 
                72:51:A7:FF:0C:5F:2D:63:5C:24:15:7F:2B:3F:BB:FC:C2:C5:8F:AA
            X509v3 Authority Key Identifier: 
                keyid:D6:88:F1:AA:C1:2B:09:8C:B8:5C:9D:CE:DF:57:39:62:26:10:20:90
                DirName:/C=CH/ST=Thurgau/L=Kefikon/O=guengel.ch/CN=CA guengel.ch/emailAddress=postmaster@guengel.ch
                serial:E5:25:3B:A6:77:BD:CB:FF

    Signature Algorithm: sha256WithRSAEncryption
         39:ba:83:9b:78:c4:90:70:42:45:c5:e2:79:e7:70:87:a8:12:
         7f:c3:bb:3c:eb:8b:e8:96:79:c6:ee:79:dd:ad:a0:b7:89:9a:
         e0:42:fb:86:72:a4:68:68:bc:83:ee:38:d8:ca:fd:db:6a:77:
         19:7b:3c:61:db:a8:8f:a6:46:bd:a6:ca:38:db:eb:d4:9d:d6:
         8f:28:e9:eb:57:fa:df:e3:96:3e:75:aa:6a:ce:e7:c5:be:b5:
         81:97:ae:5b:ce:2b:6c:5d:c8:b3:01:76:b7:44:df:63:b7:92:
         b4:4b:be:e7:cf:f3:ff:30:37:5c:8d:72:d3:61:75:b0:5c:e8:
         eb:41:91:9b:fb:ac:fc:60:ba:44:be:39:58:ab:1f:b8:e8:67:
         80:6f:5c:5d:e3:f5:40:59:e2:99:92:98:49:d8:79:0f:04:28:
         d2:07:c3:38:9f:47:f5:ac:7d:1f:6f:7b:86:8c:4e:ff:87:d0:
         c8:05:18:33:24:e4:f8:0e:ce:2b:76:61:10:c9:18:14:79:81:
         bb:a6:47:18:b6:dd:51:ec:00:58:cd:ed:eb:b3:3f:3f:f5:f2:
         01:51:3f:7d:ad:4e:01:42:a6:36:ac:ab:3d:67:37:2d:70:a9:
         0f:0a:29:1c:51:25:3e:42:85:c6:f9:4b:77:84:13:f7:8b:ce:
         21:b2:39:fc:30:75:93:36:00:74:7b:de:9f:cc:8f:61:9c:fc:
         2f:0d:20:ea:28:75:06:f0:da:0b:6f:2f:e4:27:e8:4a:e9:0f:
         b9:68:19:08:b3:31:24:7e:48:26:0a:83:58:73:18:ba:ef:d4:
         3c:ee:92:d3:06:8f:0c:1a:56:78:f1:c9:78:69:de:0a:83:dc:
         81:ba:40:c1:95:24:dc:c3:4f:ca:a1:14:d7:75:bd:6c:20:57:
         dc:7a:38:a0:e5:1b:c8:98:b4:f5:15:e1:b3:e4:23:32:6f:b2:
         66:39:4e:e0:52:02:c0:b7:4c:27:60:42:58:a7:a9:39:96:c4:
         f8:9c:85:da:ee:41:62:cb:6c:02:dd:d4:d6:74:2c:27:fb:62:
         da:d7:71:b4:0f:88:18:a7:33:e3:46:62:c4:0f:03:27:d4:4b:
         46:aa:cf:59:52:6c:db:1b:c2:96:e9:fd:07:db:58:00:cf:f1:
         30:d1:06:9d:67:2e:6b:dd:48:49:5c:c9:85:e2:a8:06:4a:cb:
         56:0a:09:53:ce:07:be:b3:4c:0c:f3:aa:d8:43:88:d7:d0:34:
         a5:06:60:c8:37:17:c5:64:7c:05:07:8e:4c:de:c2:8d:3b:cb:
         d8:0f:16:41:28:47:6c:5f:9f:dc:60:15:d1:83:1a:59:76:6d:
         09:79:de:1e:b2:8a:4d:65
-----BEGIN CERTIFICATE-----
MIIFnDCCA4SgAwIBAgICATwwDQYJKoZIhvcNAQELBQAwgYQxCzAJBgNVBAYTAkNI
MRAwDgYDVQQIEwdUaHVyZ2F1MRAwDgYDVQQHEwdLZWZpa29uMRMwEQYDVQQKEwpn
dWVuZ2VsLmNoMRYwFAYDVQQDEw1DQSBndWVuZ2VsLmNoMSQwIgYJKoZIhvcNAQkB
FhVwb3N0bWFzdGVyQGd1ZW5nZWwuY2gwHhcNMTgwMTA2MTgwMzAxWhcNMTkwMjEw
MTgwMzAxWjCBgDELMAkGA1UEBhMCQ0gxEDAOBgNVBAgTB1RodXJnYXUxEzARBgNV
BAoTCmd1ZW5nZWwuY2gxJDAiBgNVBAMTG3N0YXJzY3JlYW0uZG16LmtydWVtZWwu
aG9tZTEkMCIGCSqGSIb3DQEJARYVcG9zdG1hc3RlckBndWVuZ2VsLmNoMIIBIjAN
BgkqhkiG9w0BAQEFAAOCAQ8AMIIBCgKCAQEAxGSkmVr69tMGOSeee5rdbvY1zzmE
F9/W2dNGNk4F1Z1Ar1EvvvD2l3aVCXHvGqijcDUIEErqYETtx/wrKU5Wg/eW+8oL
2dwdXj7iydhIYR1C5DBLEbnEwvf6SEo59R06jbSPn/DS2LKYRwHusDq5Z9mTByGw
YlAF/cztbMvdCEW/WAuhj6F7GdPvDNOYZTn1c19ip59NhSDZAvYjG5rtWaA9MRQ7
WjBMIrvUSYwby0VoKBkrS62vJyqT2foQIIKqZ2+jvJJ2tc6xSq4+NyvuDpglybnw
QeLWC0bfyZulTPgk5kFwJUKVh1kzAmFR77T++5JIhBRRBmyoGOheC6fErQIDAQAB
o4IBGDCCARQwCQYDVR0TBAIwADAsBglghkgBhvhCAQ0EHxYdT3BlblNTTCBHZW5l
cmF0ZWQgQ2VydGlmaWNhdGUwHQYDVR0OBBYEFHJRp/8MXy1jXCQVfys/u/zCxY+q
MIG5BgNVHSMEgbEwga6AFNaI8arBKwmMuFydzt9XOWImECCQoYGKpIGHMIGEMQsw
CQYDVQQGEwJDSDEQMA4GA1UECBMHVGh1cmdhdTEQMA4GA1UEBxMHS2VmaWtvbjET
MBEGA1UEChMKZ3VlbmdlbC5jaDEWMBQGA1UEAxMNQ0EgZ3VlbmdlbC5jaDEkMCIG
CSqGSIb3DQEJARYVcG9zdG1hc3RlckBndWVuZ2VsLmNoggkA5SU7pne9y/8wDQYJ
KoZIhvcNAQELBQADggIBADm6g5t4xJBwQkXF4nnncIeoEn/Duzzri+iWecbued2t
oLeJmuBC+4ZypGhovIPuONjK/dtqdxl7PGHbqI+mRr2myjjb69Sd1o8o6etX+t/j
lj51qmrO58W+tYGXrlvOK2xdyLMBdrdE32O3krRLvufP8/8wN1yNctNhdbBc6OtB
kZv7rPxgukS+OVirH7joZ4BvXF3j9UBZ4pmSmEnYeQ8EKNIHwzifR/WsfR9ve4aM
Tv+H0MgFGDMk5PgOzit2YRDJGBR5gbumRxi23VHsAFjN7euzPz/18gFRP32tTgFC
pjasqz1nNy1wqQ8KKRxRJT5Chcb5S3eEE/eLziGyOfwwdZM2AHR73p/Mj2Gc/C8N
IOoodQbw2gtvL+Qn6ErpD7loGQizMSR+SCYKg1hzGLrv1DzuktMGjwwaVnjxyXhp
3gqD3IG6QMGVJNzDT8qhFNd1vWwgV9x6OKDlG8iYtPUV4bPkIzJvsmY5TuBSAsC3
TCdgQlinqTmWxPichdruQWLLbALd1NZ0LCf7YtrXcbQPiBinM+NGYsQPAyfUS0aq
z1lSbNsbwpbp/QfbWADP8TDRBp1nLmvdSElcyYXiqAZKy1YKCVPOB76zTAzzqthD
iNfQNKUGYMg3F8VkfAUHjkzewo07y9gPFkEoR2xfn9xgFdGDGll2bQl53h6yik1l
-----END CERTIFICATE-----
