Certificate:
    Data:
        Version: 3 (0x2)
        Serial Number: 355 (0x163)
    Signature Algorithm: sha256WithRSAEncryption
        Issuer: C=CH, ST=Thurgau, L=Kefikon, O=guengel.ch, CN=CA guengel.ch/emailAddress=postmaster@guengel.ch
        Validity
            Not Before: Dec 29 14:40:04 2018 GMT
            Not After : Feb  2 14:40:04 2020 GMT
        Subject: C=CH, ST=Thurgau, O=guengel.ch, CN=starscream.dmz.kruemel.home/emailAddress=postmaster@guengel.ch
        Subject Public Key Info:
            Public Key Algorithm: rsaEncryption
                Public-Key: (2048 bit)
                Modulus:
                    00:c4:64:a4:99:5a:fa:f6:d3:06:39:27:9e:7b:9a:
                    dd:6e:f6:35:cf:39:84:17:df:d6:d9:d3:46:36:4e:
                    05:d5:9d:40:af:51:2f:be:f0:f6:97:76:95:09:71:
                    ef:1a:a8:a3:70:35:08:10:4a:ea:60:44:ed:c7:fc:
                    2b:29:4e:56:83:f7:96:fb:ca:0b:d9:dc:1d:5e:3e:
                    e2:c9:d8:48:61:1d:42:e4:30:4b:11:b9:c4:c2:f7:
                    fa:48:4a:39:f5:1d:3a:8d:b4:8f:9f:f0:d2:d8:b2:
                    98:47:01:ee:b0:3a:b9:67:d9:93:07:21:b0:62:50:
                    05:fd:cc:ed:6c:cb:dd:08:45:bf:58:0b:a1:8f:a1:
                    7b:19:d3:ef:0c:d3:98:65:39:f5:73:5f:62:a7:9f:
                    4d:85:20:d9:02:f6:23:1b:9a:ed:59:a0:3d:31:14:
                    3b:5a:30:4c:22:bb:d4:49:8c:1b:cb:45:68:28:19:
                    2b:4b:ad:af:27:2a:93:d9:fa:10:20:82:aa:67:6f:
                    a3:bc:92:76:b5:ce:b1:4a:ae:3e:37:2b:ee:0e:98:
                    25:c9:b9:f0:41:e2:d6:0b:46:df:c9:9b:a5:4c:f8:
                    24:e6:41:70:25:42:95:87:59:33:02:61:51:ef:b4:
                    fe:fb:92:48:84:14:51:06:6c:a8:18:e8:5e:0b:a7:
                    c4:ad
                Exponent: 65537 (0x10001)
        X509v3 extensions:
            X509v3 Basic Constraints: 
                CA:FALSE
            Netscape Comment: 
                OpenSSL Generated Certificate
            X509v3 Subject Key Identifier: 
                72:51:A7:FF:0C:5F:2D:63:5C:24:15:7F:2B:3F:BB:FC:C2:C5:8F:AA
            X509v3 Authority Key Identifier: 
                keyid:D6:88:F1:AA:C1:2B:09:8C:B8:5C:9D:CE:DF:57:39:62:26:10:20:90
                DirName:/C=CH/ST=Thurgau/L=Kefikon/O=guengel.ch/CN=CA guengel.ch/emailAddress=postmaster@guengel.ch
                serial:E5:25:3B:A6:77:BD:CB:FF

    Signature Algorithm: sha256WithRSAEncryption
         30:c7:4c:f0:1a:84:33:33:1c:bb:05:d3:32:b5:23:e8:da:59:
         f5:20:3d:88:ac:4c:8f:d5:3e:65:61:aa:3e:f5:fd:4f:95:9d:
         16:b4:3e:dd:32:83:04:2c:a0:f0:98:fc:2f:a9:eb:4c:f8:b9:
         da:5c:d9:7e:9a:57:74:af:36:3c:43:1c:b7:8d:c8:5d:51:30:
         a2:dd:5a:07:0c:d5:ca:0d:54:69:57:eb:37:da:d7:6c:c3:4a:
         8e:06:a9:e2:b5:c1:b7:cc:55:98:79:f6:23:0e:bc:ae:fc:5f:
         2d:a7:d5:40:34:a2:a2:9c:8e:39:25:e4:6a:44:f5:91:63:ff:
         5c:53:7e:3e:ad:fd:77:65:57:0e:21:39:8e:e6:42:44:ea:41:
         13:2d:6b:f0:79:59:8c:84:f8:01:29:da:4e:65:5f:60:63:4f:
         2e:a4:66:aa:bd:4e:b3:fb:c1:e3:f2:4f:25:0c:ff:b2:28:cb:
         a9:e9:21:fe:a4:2a:98:92:8a:fc:17:db:de:f4:63:6f:08:ac:
         78:84:62:bf:7c:06:6f:16:81:db:19:bd:cb:9c:02:b0:8a:5e:
         03:9a:67:3e:62:02:eb:24:aa:bd:aa:ac:fa:67:c7:d4:74:a2:
         68:e7:48:53:14:06:cf:c2:a1:d6:ae:04:84:b5:d5:fc:9d:94:
         68:0f:e7:7a:a7:8d:ac:24:b8:c1:60:81:20:c2:cd:41:4c:8a:
         bd:5c:7b:51:89:f2:99:71:75:9a:9d:7e:28:47:26:8d:91:d3:
         d9:2b:c3:02:22:2e:99:16:e7:0c:f3:40:b3:50:14:31:6a:20:
         fb:a7:90:d9:6f:f1:8d:83:8c:84:b6:ab:93:0a:c6:26:41:00:
         f3:75:5f:0f:58:b1:9a:4f:87:c5:c8:31:2a:22:73:7f:bd:2a:
         0b:6b:91:5a:cd:92:11:6e:f8:7b:03:71:de:c0:8a:3c:64:a8:
         f5:c8:69:c2:1b:fb:f5:24:2a:a5:7e:c7:df:9b:db:c1:1c:f4:
         f9:a3:e6:90:3d:6d:49:e7:96:ea:7c:87:43:2b:78:14:1b:6b:
         16:a1:f7:b7:10:87:04:ae:fb:5e:d5:a1:85:fc:97:84:fb:35:
         92:66:1a:ea:e7:6b:f6:6d:01:84:03:51:02:d5:30:22:d7:f0:
         7c:18:05:0c:94:45:bf:96:0c:5a:7b:00:70:68:e6:69:83:c5:
         cb:d7:03:68:a9:3b:2e:e8:5f:7f:ae:72:b4:b4:5f:b5:86:71:
         f6:e6:4c:5c:85:23:7f:7e:e7:83:51:7d:46:71:58:c4:ef:06:
         67:88:51:a3:ba:90:a7:be:24:54:b1:dd:e4:e1:89:1d:22:f6:
         d3:9e:23:3f:7e:7c:aa:f6
-----BEGIN CERTIFICATE-----
MIIFnDCCA4SgAwIBAgICAWMwDQYJKoZIhvcNAQELBQAwgYQxCzAJBgNVBAYTAkNI
MRAwDgYDVQQIEwdUaHVyZ2F1MRAwDgYDVQQHEwdLZWZpa29uMRMwEQYDVQQKEwpn
dWVuZ2VsLmNoMRYwFAYDVQQDEw1DQSBndWVuZ2VsLmNoMSQwIgYJKoZIhvcNAQkB
FhVwb3N0bWFzdGVyQGd1ZW5nZWwuY2gwHhcNMTgxMjI5MTQ0MDA0WhcNMjAwMjAy
MTQ0MDA0WjCBgDELMAkGA1UEBhMCQ0gxEDAOBgNVBAgTB1RodXJnYXUxEzARBgNV
BAoTCmd1ZW5nZWwuY2gxJDAiBgNVBAMTG3N0YXJzY3JlYW0uZG16LmtydWVtZWwu
aG9tZTEkMCIGCSqGSIb3DQEJARYVcG9zdG1hc3RlckBndWVuZ2VsLmNoMIIBIjAN
BgkqhkiG9w0BAQEFAAOCAQ8AMIIBCgKCAQEAxGSkmVr69tMGOSeee5rdbvY1zzmE
F9/W2dNGNk4F1Z1Ar1EvvvD2l3aVCXHvGqijcDUIEErqYETtx/wrKU5Wg/eW+8oL
2dwdXj7iydhIYR1C5DBLEbnEwvf6SEo59R06jbSPn/DS2LKYRwHusDq5Z9mTByGw
YlAF/cztbMvdCEW/WAuhj6F7GdPvDNOYZTn1c19ip59NhSDZAvYjG5rtWaA9MRQ7
WjBMIrvUSYwby0VoKBkrS62vJyqT2foQIIKqZ2+jvJJ2tc6xSq4+NyvuDpglybnw
QeLWC0bfyZulTPgk5kFwJUKVh1kzAmFR77T++5JIhBRRBmyoGOheC6fErQIDAQAB
o4IBGDCCARQwCQYDVR0TBAIwADAsBglghkgBhvhCAQ0EHxYdT3BlblNTTCBHZW5l
cmF0ZWQgQ2VydGlmaWNhdGUwHQYDVR0OBBYEFHJRp/8MXy1jXCQVfys/u/zCxY+q
MIG5BgNVHSMEgbEwga6AFNaI8arBKwmMuFydzt9XOWImECCQoYGKpIGHMIGEMQsw
CQYDVQQGEwJDSDEQMA4GA1UECBMHVGh1cmdhdTEQMA4GA1UEBxMHS2VmaWtvbjET
MBEGA1UEChMKZ3VlbmdlbC5jaDEWMBQGA1UEAxMNQ0EgZ3VlbmdlbC5jaDEkMCIG
CSqGSIb3DQEJARYVcG9zdG1hc3RlckBndWVuZ2VsLmNoggkA5SU7pne9y/8wDQYJ
KoZIhvcNAQELBQADggIBADDHTPAahDMzHLsF0zK1I+jaWfUgPYisTI/VPmVhqj71
/U+VnRa0Pt0ygwQsoPCY/C+p60z4udpc2X6aV3SvNjxDHLeNyF1RMKLdWgcM1coN
VGlX6zfa12zDSo4GqeK1wbfMVZh59iMOvK78Xy2n1UA0oqKcjjkl5GpE9ZFj/1xT
fj6t/XdlVw4hOY7mQkTqQRMta/B5WYyE+AEp2k5lX2BjTy6kZqq9TrP7wePyTyUM
/7Ioy6npIf6kKpiSivwX2970Y28IrHiEYr98Bm8WgdsZvcucArCKXgOaZz5iAusk
qr2qrPpnx9R0omjnSFMUBs/CodauBIS11fydlGgP53qnjawkuMFggSDCzUFMir1c
e1GJ8plxdZqdfihHJo2R09krwwIiLpkW5wzzQLNQFDFqIPunkNlv8Y2DjIS2q5MK
xiZBAPN1Xw9YsZpPh8XIMSoic3+9KgtrkVrNkhFu+HsDcd7AijxkqPXIacIb+/Uk
KqV+x9+b28Ec9Pmj5pA9bUnnlup8h0MreBQbaxah97cQhwSu+17VoYX8l4T7NZJm
Gurna/ZtAYQDUQLVMCLX8HwYBQyURb+WDFp7AHBo5mmDxcvXA2ipOy7oX3+ucrS0
X7WGcfbmTFyFI39+54NRfUZxWMTvBmeIUaO6kKe+JFSx3eThiR0i9tOeIz9+fKr2
-----END CERTIFICATE-----
