Certificate:
    Data:
        Version: 3 (0x2)
        Serial Number: 268 (0x10c)
    Signature Algorithm: sha256WithRSAEncryption
        Issuer: C=CH, ST=Thurgau, L=Kefikon, O=guengel.ch, CN=CA guengel.ch/emailAddress=postmaster@guengel.ch
        Validity
            Not Before: Nov 20 09:17:30 2016 GMT
            Not After : Apr  4 09:17:30 2018 GMT
        Subject: C=CH, ST=Thurgau, O=guengel.ch, CN=thor.virtual.kruemel.home/emailAddress=postmaster@guengel.ch
        Subject Public Key Info:
            Public Key Algorithm: rsaEncryption
                Public-Key: (2048 bit)
                Modulus:
                    00:be:77:a5:b9:0c:90:90:a4:76:fc:60:ed:7d:89:
                    d9:01:12:69:fd:4c:f7:a9:be:9b:13:ba:82:6c:c8:
                    d4:1e:39:b6:da:3a:07:b5:1d:f9:d8:63:51:09:32:
                    91:c6:57:c6:79:56:ef:44:0f:99:53:1b:d7:33:5e:
                    1b:8a:2d:0b:49:c2:26:a0:85:4d:45:08:aa:bf:e7:
                    af:68:49:68:7f:ea:07:91:2c:ac:17:fa:c5:db:a6:
                    a3:dc:1c:4d:cf:29:84:2d:d8:57:fc:ba:0a:3a:ff:
                    64:cf:ad:6b:e3:ad:42:28:e0:eb:66:39:b7:c0:8a:
                    16:7a:9c:b1:45:b9:99:28:2b:26:24:2f:53:59:35:
                    d5:15:27:2b:b8:b8:12:70:fb:32:23:52:30:06:b4:
                    b0:6e:c8:be:2c:bb:b1:7d:4a:81:19:4d:2d:1e:b4:
                    9b:14:73:1c:d3:d2:1b:78:d0:3d:b2:76:38:b7:06:
                    f3:7b:9d:ad:49:c3:21:18:5b:ce:2f:b7:86:e7:ea:
                    5d:7c:d8:9e:f0:9d:7d:af:c4:0e:77:03:f2:05:9f:
                    cc:f0:11:f3:ee:59:79:a7:93:04:5a:cb:25:c9:36:
                    44:f3:2f:11:2d:3d:39:1c:1b:ff:4b:f7:3e:eb:2b:
                    2c:89:2c:68:2c:a9:b7:36:e8:ad:86:fc:aa:a9:a6:
                    23:e5
                Exponent: 65537 (0x10001)
        X509v3 extensions:
            X509v3 Basic Constraints: 
                CA:FALSE
            Netscape Comment: 
                OpenSSL Generated Certificate
            X509v3 Subject Key Identifier: 
                C6:DE:DD:DC:E9:55:4D:D6:FF:14:EE:CD:04:B4:45:35:1C:88:27:42
            X509v3 Authority Key Identifier: 
                keyid:D6:88:F1:AA:C1:2B:09:8C:B8:5C:9D:CE:DF:57:39:62:26:10:20:90
                DirName:/C=CH/ST=Thurgau/L=Kefikon/O=guengel.ch/CN=CA guengel.ch/emailAddress=postmaster@guengel.ch
                serial:E5:25:3B:A6:77:BD:CB:FF

    Signature Algorithm: sha256WithRSAEncryption
         86:0b:28:d5:52:17:52:9b:f4:4d:c6:8a:79:f0:d3:41:83:88:
         ff:d5:70:81:10:89:9b:3a:ec:d2:9c:b5:1e:f2:1a:8e:27:92:
         10:ad:5e:88:78:19:c8:68:c6:e1:d1:af:c5:8f:c9:31:a4:3b:
         a7:71:68:41:da:f4:21:1d:3a:07:59:b0:af:ac:60:60:fa:44:
         29:0a:66:57:b8:f6:b3:22:62:79:4a:22:62:65:70:84:f1:d1:
         c0:f4:4e:c4:00:85:81:09:2c:a7:5d:06:e8:09:dc:2f:e5:e3:
         82:67:e0:6b:3c:0b:46:9f:26:04:c7:f4:70:d1:bb:b9:07:20:
         f6:ae:0a:b8:0c:ab:be:49:a4:fa:a4:79:a2:d0:fc:33:6e:af:
         6c:1c:03:03:23:12:5a:86:13:24:f6:32:e0:e6:7b:af:96:ee:
         9a:2e:d1:5d:99:61:d4:be:d8:64:62:39:1e:21:f8:21:ed:e0:
         9a:8b:57:c4:f7:e0:84:3d:1c:31:80:e0:8b:36:dc:3a:ed:29:
         2b:91:b9:44:49:c0:a9:d1:80:7c:49:63:f1:62:54:16:3e:5e:
         ae:6c:c7:d3:d9:0e:82:89:91:6a:6f:b2:c1:be:55:5a:b0:5b:
         01:ba:50:d7:92:00:2f:ef:6e:2a:7a:68:a4:0c:99:85:66:98:
         cb:fe:d7:29:df:95:8e:b7:50:00:72:63:7a:be:70:77:9c:0d:
         19:92:8d:e1:25:67:ca:26:10:95:bf:df:35:c3:eb:b2:4c:9b:
         c7:6e:17:f9:71:ce:9a:62:cc:7d:db:95:6a:ec:f5:75:25:1f:
         9b:70:37:6d:88:31:d2:a2:4d:b3:0c:b4:d4:66:7e:27:c5:52:
         ce:7a:6f:81:1c:e4:47:b0:a2:8c:62:28:77:1a:58:15:1d:0c:
         39:80:40:cd:8b:88:fb:16:2f:c1:dd:f1:5e:47:d0:85:4c:3b:
         26:95:60:8f:22:0d:d9:2a:f8:ff:0d:8a:47:01:30:22:6b:cf:
         9a:78:81:07:c7:9b:6d:08:4b:c1:47:d8:63:9b:2f:08:59:35:
         61:52:9a:66:30:a0:7e:00:88:f2:86:11:58:04:66:85:22:02:
         70:63:f8:1d:b1:4d:b1:77:1d:50:3c:2e:8c:b1:7d:74:4f:fb:
         fa:20:e8:27:ab:be:bb:2f:32:c5:81:95:de:29:46:63:b4:e9:
         c9:95:06:3d:04:e7:f2:e4:0f:e5:24:0e:ac:c5:f2:d6:83:e3:
         35:af:78:d5:af:58:4a:98:8e:d1:e7:5c:09:b7:c6:35:8d:ab:
         62:4e:1a:f2:ef:ee:e2:66:91:33:0e:f7:75:65:38:84:64:27:
         48:13:0a:ba:12:59:f7:c0
-----BEGIN CERTIFICATE-----
MIIFmTCCA4GgAwIBAgICAQwwDQYJKoZIhvcNAQELBQAwgYQxCzAJBgNVBAYTAkNI
MRAwDgYDVQQIEwdUaHVyZ2F1MRAwDgYDVQQHEwdLZWZpa29uMRMwEQYDVQQKEwpn
dWVuZ2VsLmNoMRYwFAYDVQQDEw1DQSBndWVuZ2VsLmNoMSQwIgYJKoZIhvcNAQkB
FhVwb3N0bWFzdGVyQGd1ZW5nZWwuY2gwHhcNMTYxMTIwMDkxNzMwWhcNMTgwNDA0
MDkxNzMwWjB+MQswCQYDVQQGEwJDSDEQMA4GA1UECBMHVGh1cmdhdTETMBEGA1UE
ChMKZ3VlbmdlbC5jaDEiMCAGA1UEAxMZdGhvci52aXJ0dWFsLmtydWVtZWwuaG9t
ZTEkMCIGCSqGSIb3DQEJARYVcG9zdG1hc3RlckBndWVuZ2VsLmNoMIIBIjANBgkq
hkiG9w0BAQEFAAOCAQ8AMIIBCgKCAQEAvneluQyQkKR2/GDtfYnZARJp/Uz3qb6b
E7qCbMjUHjm22joHtR352GNRCTKRxlfGeVbvRA+ZUxvXM14bii0LScImoIVNRQiq
v+evaElof+oHkSysF/rF26aj3BxNzymELdhX/LoKOv9kz61r461CKODrZjm3wIoW
epyxRbmZKCsmJC9TWTXVFScruLgScPsyI1IwBrSwbsi+LLuxfUqBGU0tHrSbFHMc
09IbeNA9snY4twbze52tScMhGFvOL7eG5+pdfNie8J19r8QOdwPyBZ/M8BHz7ll5
p5MEWsslyTZE8y8RLT05HBv/S/c+6yssiSxoLKm3NuithvyqqaYj5QIDAQABo4IB
GDCCARQwCQYDVR0TBAIwADAsBglghkgBhvhCAQ0EHxYdT3BlblNTTCBHZW5lcmF0
ZWQgQ2VydGlmaWNhdGUwHQYDVR0OBBYEFMbe3dzpVU3W/xTuzQS0RTUciCdCMIG5
BgNVHSMEgbEwga6AFNaI8arBKwmMuFydzt9XOWImECCQoYGKpIGHMIGEMQswCQYD
VQQGEwJDSDEQMA4GA1UECBMHVGh1cmdhdTEQMA4GA1UEBxMHS2VmaWtvbjETMBEG
A1UEChMKZ3VlbmdlbC5jaDEWMBQGA1UEAxMNQ0EgZ3VlbmdlbC5jaDEkMCIGCSqG
SIb3DQEJARYVcG9zdG1hc3RlckBndWVuZ2VsLmNoggkA5SU7pne9y/8wDQYJKoZI
hvcNAQELBQADggIBAIYLKNVSF1Kb9E3Ginnw00GDiP/VcIEQiZs67NKctR7yGo4n
khCtXoh4GchoxuHRr8WPyTGkO6dxaEHa9CEdOgdZsK+sYGD6RCkKZle49rMiYnlK
ImJlcITx0cD0TsQAhYEJLKddBugJ3C/l44Jn4Gs8C0afJgTH9HDRu7kHIPauCrgM
q75JpPqkeaLQ/DNur2wcAwMjElqGEyT2MuDme6+W7pou0V2ZYdS+2GRiOR4h+CHt
4JqLV8T34IQ9HDGA4Is23DrtKSuRuURJwKnRgHxJY/FiVBY+Xq5sx9PZDoKJkWpv
ssG+VVqwWwG6UNeSAC/vbip6aKQMmYVmmMv+1ynflY63UAByY3q+cHecDRmSjeEl
Z8omEJW/3zXD67JMm8duF/lxzppizH3blWrs9XUlH5twN22IMdKiTbMMtNRmfifF
Us56b4Ec5EewooxiKHcaWBUdDDmAQM2LiPsWL8Hd8V5H0IVMOyaVYI8iDdkq+P8N
ikcBMCJrz5p4gQfHm20IS8FH2GObLwhZNWFSmmYwoH4AiPKGEVgEZoUiAnBj+B2x
TbF3HVA8LoyxfXRP+/og6CervrsvMsWBld4pRmO06cmVBj0E5/LkD+UkDqzF8taD
4zWveNWvWEqYjtHnXAm3xjWNq2JOGvLv7uJmkTMO93VlOIRkJ0gTCroSWffA
-----END CERTIFICATE-----
