Certificate:
    Data:
        Version: 3 (0x2)
        Serial Number: 47 (0x2f)
        Signature Algorithm: sha1WithRSAEncryption
        Issuer: C=CH, ST=Thurgau, L=Kefikon, O=guengel.ch, CN=CA guengel.ch/emailAddress=postmaster@guengel.ch
        Validity
            Not Before: Jun 22 20:56:41 2013 GMT
            Not After : Jul  7 20:56:41 2014 GMT
        Subject: C=CH, ST=Thurgau, O=guengel.ch, CN=thumper.kruemel.home/emailAddress=postmaster@guengel.ch
        Subject Public Key Info:
            Public Key Algorithm: rsaEncryption
            RSA Public Key: (2048 bit)
                Modulus (2048 bit):
                    00:a5:42:a9:01:85:ca:93:41:36:04:64:9e:d3:c7:
                    50:08:b4:ad:6f:b0:3a:b1:19:0d:9c:d0:d0:83:ff:
                    e1:39:2e:c6:46:ff:8d:32:10:c1:45:a5:00:6e:4e:
                    16:c2:de:20:0f:f6:f4:99:ed:c0:2a:39:93:04:51:
                    03:d7:3a:aa:c0:9c:7c:f4:b0:4f:7a:e1:45:fa:dc:
                    d1:6a:2a:9d:7f:05:9e:92:b6:ab:81:8c:4e:85:20:
                    3a:1d:7f:64:31:82:f3:46:fb:01:b7:2d:e3:90:71:
                    ba:47:d3:b3:b5:0e:f0:c2:a3:82:f0:73:2b:20:e7:
                    57:6a:19:33:10:f6:32:66:b5:91:da:47:0e:5c:a1:
                    2b:76:d9:75:e0:45:6e:0e:19:d0:e3:37:65:ec:84:
                    7a:b1:6d:02:74:7e:9a:27:c6:89:4e:d8:65:c8:72:
                    13:a1:dc:44:aa:32:7b:43:2c:2d:54:11:c4:68:71:
                    0a:9f:56:d0:8f:fa:0c:e1:a1:0c:e1:8c:fc:63:58:
                    b9:8c:c5:ff:5f:76:21:8a:0a:55:ca:eb:b8:5f:19:
                    1f:2e:41:49:0d:1a:a1:2c:03:b8:f6:0c:77:2d:79:
                    46:08:ca:b6:67:bb:49:2b:7b:37:39:9e:6c:2a:1b:
                    69:79:01:0f:2b:fb:55:d7:50:8d:30:7c:88:1f:66:
                    fb:39
                Exponent: 65537 (0x10001)
        X509v3 extensions:
            X509v3 Basic Constraints: 
                CA:FALSE
            Netscape Comment: 
                OpenSSL Generated Certificate
            X509v3 Subject Key Identifier: 
                82:67:11:26:71:3A:A2:6C:FA:1A:89:9C:13:99:AA:7B:42:BE:41:BB
            X509v3 Authority Key Identifier: 
                keyid:D6:88:F1:AA:C1:2B:09:8C:B8:5C:9D:CE:DF:57:39:62:26:10:20:90
                DirName:/C=CH/ST=Thurgau/L=Kefikon/O=guengel.ch/CN=CA guengel.ch/emailAddress=postmaster@guengel.ch
                serial:E5:25:3B:A6:77:BD:CB:FF

    Signature Algorithm: sha1WithRSAEncryption
        03:f0:2c:9d:06:42:06:9f:6d:cb:d2:a5:76:a0:d7:31:a9:62:
        e6:18:b8:a6:50:72:14:e2:53:6d:6e:31:dc:1a:0d:8d:5c:b6:
        4a:d2:96:b7:68:7c:ef:65:b2:b7:06:bd:28:95:98:d6:de:df:
        0a:bc:0a:20:f2:c2:56:a1:ac:c5:84:12:66:91:75:09:4c:1d:
        ad:46:69:bb:d0:37:52:66:5e:39:65:c7:9c:1f:cf:3f:8d:86:
        97:f6:4d:3e:57:c9:62:8c:1c:cf:ed:f9:e2:f2:e9:3d:bf:c8:
        51:b6:3c:69:27:3e:0e:67:88:b3:2e:41:ae:ec:d6:c8:a7:4e:
        70:82:40:db:21:d5:9c:b8:02:2b:70:d4:1a:96:47:07:5f:26:
        cb:0f:0f:ab:f6:e7:b1:f2:db:9e:25:c3:41:09:e2:0e:45:cb:
        e5:45:32:02:19:1a:9f:5f:69:cb:90:a1:ed:26:aa:04:42:24:
        85:37:a4:2a:f7:47:2c:80:6f:d0:27:16:db:2e:ab:3f:88:3e:
        90:25:56:3f:32:5d:b1:d7:6d:b9:95:b1:c2:c9:c0:0c:08:61:
        08:c5:4f:d3:4c:a9:a7:39:6b:45:97:86:66:36:a6:29:df:9f:
        e5:98:f8:a1:8c:98:db:f3:81:5f:e8:e5:c8:b4:d8:42:b5:6e:
        b5:83:7e:e3:41:3b:c5:c2:26:0a:2d:5c:cc:12:5d:c1:0f:6e:
        b2:b8:d3:93:f1:6a:32:1c:fb:82:3f:5c:58:71:18:c3:e3:44:
        88:32:0c:42:cd:67:c5:f5:11:02:c0:52:c5:08:62:eb:59:d7:
        94:f1:ea:d3:2a:9b:ed:f9:50:58:53:10:f6:ef:f7:75:38:e3:
        ac:b9:a0:89:5a:e2:98:63:ff:19:2a:4c:e8:09:e0:4f:57:60:
        5d:f1:93:8b:0d:ef:f0:a5:84:9d:98:f8:55:f6:bd:3d:f2:2e:
        1c:30:52:f8:f4:38:ad:5f:47:dd:dd:71:1b:78:4c:ef:90:4d:
        76:61:db:6a:e1:54:5f:47:c3:f5:a3:bc:23:5f:f5:78:c0:04:
        6f:c2:37:76:f9:08:98:65:57:b8:2f:ff:21:cc:da:90:3f:7d:
        3b:d7:8e:f5:e3:57:b5:15:da:d6:e9:90:e0:70:c7:c9:e1:a9:
        cd:ec:b6:ae:06:b6:a6:47:b7:9e:5c:d0:0e:d5:99:24:c5:d3:
        45:43:a3:20:91:e6:fc:3f:7a:43:9a:9f:14:ee:57:aa:0f:b8:
        97:b4:e2:5b:dc:63:53:36:7f:e9:54:b2:f7:55:72:aa:e3:33:
        f0:23:06:af:82:5f:07:ba:ad:26:44:62:3b:15:6a:8f:61:95:
        47:95:85:d0:81:ac:9a:7f
-----BEGIN CERTIFICATE-----
MIIFkzCCA3ugAwIBAgIBLzANBgkqhkiG9w0BAQUFADCBhDELMAkGA1UEBhMCQ0gx
EDAOBgNVBAgTB1RodXJnYXUxEDAOBgNVBAcTB0tlZmlrb24xEzARBgNVBAoTCmd1
ZW5nZWwuY2gxFjAUBgNVBAMTDUNBIGd1ZW5nZWwuY2gxJDAiBgkqhkiG9w0BCQEW
FXBvc3RtYXN0ZXJAZ3VlbmdlbC5jaDAeFw0xMzA2MjIyMDU2NDFaFw0xNDA3MDcy
MDU2NDFaMHkxCzAJBgNVBAYTAkNIMRAwDgYDVQQIEwdUaHVyZ2F1MRMwEQYDVQQK
EwpndWVuZ2VsLmNoMR0wGwYDVQQDExR0aHVtcGVyLmtydWVtZWwuaG9tZTEkMCIG
CSqGSIb3DQEJARYVcG9zdG1hc3RlckBndWVuZ2VsLmNoMIIBIjANBgkqhkiG9w0B
AQEFAAOCAQ8AMIIBCgKCAQEApUKpAYXKk0E2BGSe08dQCLStb7A6sRkNnNDQg//h
OS7GRv+NMhDBRaUAbk4Wwt4gD/b0me3AKjmTBFED1zqqwJx89LBPeuFF+tzRaiqd
fwWekrargYxOhSA6HX9kMYLzRvsBty3jkHG6R9OztQ7wwqOC8HMrIOdXahkzEPYy
ZrWR2kcOXKErdtl14EVuDhnQ4zdl7IR6sW0CdH6aJ8aJTthlyHITodxEqjJ7Qywt
VBHEaHEKn1bQj/oM4aEM4Yz8Y1i5jMX/X3YhigpVyuu4XxkfLkFJDRqhLAO49gx3
LXlGCMq2Z7tJK3s3OZ5sKhtpeQEPK/tV11CNMHyIH2b7OQIDAQABo4IBGDCCARQw
CQYDVR0TBAIwADAsBglghkgBhvhCAQ0EHxYdT3BlblNTTCBHZW5lcmF0ZWQgQ2Vy
dGlmaWNhdGUwHQYDVR0OBBYEFIJnESZxOqJs+hqJnBOZqntCvkG7MIG5BgNVHSME
gbEwga6AFNaI8arBKwmMuFydzt9XOWImECCQoYGKpIGHMIGEMQswCQYDVQQGEwJD
SDEQMA4GA1UECBMHVGh1cmdhdTEQMA4GA1UEBxMHS2VmaWtvbjETMBEGA1UEChMK
Z3VlbmdlbC5jaDEWMBQGA1UEAxMNQ0EgZ3VlbmdlbC5jaDEkMCIGCSqGSIb3DQEJ
ARYVcG9zdG1hc3RlckBndWVuZ2VsLmNoggkA5SU7pne9y/8wDQYJKoZIhvcNAQEF
BQADggIBAAPwLJ0GQgafbcvSpXag1zGpYuYYuKZQchTiU21uMdwaDY1ctkrSlrdo
fO9lsrcGvSiVmNbe3wq8CiDywlahrMWEEmaRdQlMHa1GabvQN1JmXjllx5wfzz+N
hpf2TT5XyWKMHM/t+eLy6T2/yFG2PGknPg5niLMuQa7s1sinTnCCQNsh1Zy4Aitw
1BqWRwdfJssPD6v257Hy254lw0EJ4g5Fy+VFMgIZGp9facuQoe0mqgRCJIU3pCr3
RyyAb9AnFtsuqz+IPpAlVj8yXbHXbbmVscLJwAwIYQjFT9NMqac5a0WXhmY2pinf
n+WY+KGMmNvzgV/o5ci02EK1brWDfuNBO8XCJgotXMwSXcEPbrK405PxajIc+4I/
XFhxGMPjRIgyDELNZ8X1EQLAUsUIYutZ15Tx6tMqm+35UFhTEPbv93U446y5oIla
4phj/xkqTOgJ4E9XYF3xk4sN7/ClhJ2Y+FX2vT3yLhwwUvj0OK1fR93dcRt4TO+Q
TXZh22rhVF9Hw/WjvCNf9XjABG/CN3b5CJhlV7gv/yHM2pA/fTvXjvXjV7UV2tbp
kOBwx8nhqc3stq4GtqZHt55c0A7VmSTF00VDoyCR5vw/ekOanxTuV6oPuJe04lvc
Y1M2f+lUsvdVcqrjM/AjBq+CXwe6rSZEYjsVao9hlUeVhdCBrJp/
-----END CERTIFICATE-----
