Certificate:
    Data:
        Version: 3 (0x2)
        Serial Number: 439 (0x1b7)
        Signature Algorithm: sha256WithRSAEncryption
        Issuer: C=CH, ST=Thurgau, L=Kefikon, O=guengel.ch, CN=CA guengel.ch/emailAddress=postmaster@guengel.ch
        Validity
            Not Before: Feb  6 15:19:06 2021 GMT
            Not After : Mar 13 15:19:06 2022 GMT
        Subject: C=CH, ST=Thurgau, O=guengel.ch, CN=viking.kruemel.home/emailAddress=postmaster@guengel.ch
        Subject Public Key Info:
            Public Key Algorithm: rsaEncryption
                RSA Public-Key: (2048 bit)
                Modulus:
                    00:d8:d2:fc:65:4a:0f:9a:52:07:c4:82:fb:40:c0:
                    dc:11:c8:f8:6c:47:06:74:69:a8:f5:e7:6c:98:6a:
                    53:79:9c:b8:5d:d2:3e:bf:11:41:01:4c:98:a3:48:
                    99:03:54:b3:bc:b6:9e:c0:a7:2b:c8:0b:d6:2b:e3:
                    88:ee:19:02:79:19:35:9e:b9:e0:63:72:81:a8:9f:
                    6a:c4:84:6b:4c:08:ff:75:08:6f:49:62:fa:80:ac:
                    92:f2:8a:d5:fb:33:37:4d:92:36:ff:f9:20:66:9a:
                    29:8b:54:32:20:57:8d:1c:c3:11:87:05:3e:04:01:
                    01:99:b0:38:aa:d3:7c:5e:c9:90:09:33:33:32:45:
                    df:86:83:f1:84:6a:a9:be:6e:15:4c:64:f8:09:07:
                    a8:6b:72:55:f9:13:31:2d:75:87:69:bf:89:ea:17:
                    78:2b:02:7e:f2:ad:86:91:de:35:27:a4:08:44:d4:
                    f7:63:6b:4a:6a:77:0c:de:9b:72:14:48:73:09:f0:
                    5d:aa:1f:29:ca:62:da:52:5c:22:ec:33:f6:7d:36:
                    c0:3f:f2:1c:f9:0c:ba:7d:1d:cd:4e:2f:de:62:ad:
                    1e:4a:7e:0e:ba:20:0b:93:6c:6a:2f:d7:b4:04:e3:
                    44:e6:59:e0:46:7e:6b:37:8e:a6:33:59:8d:bd:21:
                    ef:23
                Exponent: 65537 (0x10001)
        X509v3 extensions:
            X509v3 Key Usage: 
                Digital Signature, Key Encipherment, Key Agreement
            X509v3 Basic Constraints: critical
                CA:FALSE
            Netscape Cert Type: 
                SSL Client, SSL Server
            X509v3 Extended Key Usage: 
                TLS Web Server Authentication, TLS Web Client Authentication
            X509v3 Subject Alternative Name: 
                DNS:viking.kruemel.home
            X509v3 Subject Key Identifier: 
                7E:93:A2:AB:64:5C:62:E6:63:3C:41:6E:DF:08:83:A2:34:8F:35:42
            X509v3 Authority Key Identifier: 
                keyid:D6:88:F1:AA:C1:2B:09:8C:B8:5C:9D:CE:DF:57:39:62:26:10:20:90
                DirName:/C=CH/ST=Thurgau/L=Kefikon/O=guengel.ch/CN=CA guengel.ch/emailAddress=postmaster@guengel.ch
                serial:E5:25:3B:A6:77:BD:CB:FF

    Signature Algorithm: sha256WithRSAEncryption
         67:ef:b0:a2:30:d9:e9:cb:f5:75:55:76:e2:0a:2e:d9:e2:5e:
         43:14:13:08:a3:09:50:11:05:0b:33:a2:4a:aa:34:d6:2c:4a:
         d0:a2:9e:fc:16:89:90:c4:fd:06:64:91:94:b1:dd:d8:88:50:
         35:61:2b:af:1d:6e:c0:1f:76:e0:95:ce:69:bf:d0:2d:a9:98:
         2a:93:b3:60:9c:d6:ea:91:ab:fe:92:a2:c9:d9:60:80:b3:c9:
         7d:df:88:c6:c6:8b:b1:c2:55:ab:02:43:16:a9:54:ca:00:a7:
         ed:b3:57:20:32:78:a1:18:c3:aa:87:0f:aa:2c:a2:bd:b1:97:
         42:e4:c7:1e:27:12:b7:df:5c:22:32:6f:43:93:bf:7a:fb:63:
         8d:25:e6:83:41:0a:7a:b7:91:58:6c:7b:39:9b:00:c0:7a:25:
         a9:73:66:1b:fa:fd:38:a9:0e:65:35:02:18:8a:53:78:2c:7f:
         50:4b:fb:24:31:e3:19:d4:0d:1c:05:5a:f2:17:fd:a3:cc:3d:
         70:4e:0c:ad:85:43:85:1f:1f:63:42:5c:ab:2d:64:0c:3e:d3:
         d4:e8:33:a9:a4:12:86:11:ed:6e:75:10:00:cd:4f:3f:b2:e7:
         4a:7a:9a:a3:20:3c:ee:39:54:a4:98:a1:3b:75:0a:b3:d6:fa:
         35:d8:5e:8c:fb:a9:c6:9f:f2:a2:37:db:a6:4d:68:d4:6e:31:
         b9:4b:4a:64:28:24:c6:35:7d:f8:7d:28:f5:93:89:7e:80:94:
         7e:41:7e:8d:4d:fa:72:3c:bd:15:79:65:95:3a:1c:28:69:85:
         16:b2:2a:96:9f:c8:c3:ca:8f:b2:f5:f4:40:82:17:dc:a9:33:
         a3:2a:4e:c8:e0:4f:e1:89:92:20:58:e1:e6:97:17:4a:0a:99:
         b8:56:d6:4b:4d:5e:4f:4c:98:45:88:0d:dd:d5:64:6b:e8:a1:
         8e:cd:7d:1f:38:9c:c9:d8:51:9f:27:84:fd:8c:18:9d:97:50:
         68:6c:2f:22:f3:b5:32:d3:88:b2:2c:c8:5b:ec:fb:68:56:f9:
         3d:fd:b9:2c:bf:3a:c6:d0:b5:f4:f0:9d:da:10:be:25:3c:a3:
         bf:09:fb:22:82:58:15:58:ff:e8:68:d1:c4:e7:7a:38:c6:48:
         dc:17:a3:48:12:fe:02:94:a5:94:4a:fe:9a:d9:7d:dc:14:58:
         1c:c0:23:6b:14:ba:8c:df:5c:a7:d1:10:28:5b:e5:67:8d:3b:
         8d:fa:c7:2d:0e:f4:b2:c9:8a:4a:de:bd:c5:0d:61:c8:d4:d7:
         8a:3b:ab:1a:eb:5d:ad:63:a9:32:ab:1d:ba:06:a2:dc:23:f0:
         f9:18:f5:0f:45:ff:b1:00
-----BEGIN CERTIFICATE-----
MIIFxzCCA6+gAwIBAgICAbcwDQYJKoZIhvcNAQELBQAwgYQxCzAJBgNVBAYTAkNI
MRAwDgYDVQQIEwdUaHVyZ2F1MRAwDgYDVQQHEwdLZWZpa29uMRMwEQYDVQQKEwpn
dWVuZ2VsLmNoMRYwFAYDVQQDEw1DQSBndWVuZ2VsLmNoMSQwIgYJKoZIhvcNAQkB
FhVwb3N0bWFzdGVyQGd1ZW5nZWwuY2gwHhcNMjEwMjA2MTUxOTA2WhcNMjIwMzEz
MTUxOTA2WjB4MQswCQYDVQQGEwJDSDEQMA4GA1UECBMHVGh1cmdhdTETMBEGA1UE
ChMKZ3VlbmdlbC5jaDEcMBoGA1UEAxMTdmlraW5nLmtydWVtZWwuaG9tZTEkMCIG
CSqGSIb3DQEJARYVcG9zdG1hc3RlckBndWVuZ2VsLmNoMIIBIjANBgkqhkiG9w0B
AQEFAAOCAQ8AMIIBCgKCAQEA2NL8ZUoPmlIHxIL7QMDcEcj4bEcGdGmo9edsmGpT
eZy4XdI+vxFBAUyYo0iZA1SzvLaewKcryAvWK+OI7hkCeRk1nrngY3KBqJ9qxIRr
TAj/dQhvSWL6gKyS8orV+zM3TZI2//kgZpopi1QyIFeNHMMRhwU+BAEBmbA4qtN8
XsmQCTMzMkXfhoPxhGqpvm4VTGT4CQeoa3JV+RMxLXWHab+J6hd4KwJ+8q2Gkd41
J6QIRNT3Y2tKancM3ptyFEhzCfBdqh8pymLaUlwi7DP2fTbAP/Ic+Qy6fR3NTi/e
Yq0eSn4OuiALk2xqL9e0BONE5lngRn5rN46mM1mNvSHvIwIDAQABo4IBTDCCAUgw
CwYDVR0PBAQDAgOoMAwGA1UdEwEB/wQCMAAwEQYJYIZIAYb4QgEBBAQDAgbAMB0G
A1UdJQQWMBQGCCsGAQUFBwMBBggrBgEFBQcDAjAeBgNVHREEFzAVghN2aWtpbmcu
a3J1ZW1lbC5ob21lMB0GA1UdDgQWBBR+k6KrZFxi5mM8QW7fCIOiNI81QjCBuQYD
VR0jBIGxMIGugBTWiPGqwSsJjLhcnc7fVzliJhAgkKGBiqSBhzCBhDELMAkGA1UE
BhMCQ0gxEDAOBgNVBAgTB1RodXJnYXUxEDAOBgNVBAcTB0tlZmlrb24xEzARBgNV
BAoTCmd1ZW5nZWwuY2gxFjAUBgNVBAMTDUNBIGd1ZW5nZWwuY2gxJDAiBgkqhkiG
9w0BCQEWFXBvc3RtYXN0ZXJAZ3VlbmdlbC5jaIIJAOUlO6Z3vcv/MA0GCSqGSIb3
DQEBCwUAA4ICAQBn77CiMNnpy/V1VXbiCi7Z4l5DFBMIowlQEQULM6JKqjTWLErQ
op78FomQxP0GZJGUsd3YiFA1YSuvHW7AH3bglc5pv9AtqZgqk7NgnNbqkav+kqLJ
2WCAs8l934jGxouxwlWrAkMWqVTKAKfts1cgMnihGMOqhw+qLKK9sZdC5MceJxK3
31wiMm9Dk796+2ONJeaDQQp6t5FYbHs5mwDAeiWpc2Yb+v04qQ5lNQIYilN4LH9Q
S/skMeMZ1A0cBVryF/2jzD1wTgythUOFHx9jQlyrLWQMPtPU6DOppBKGEe1udRAA
zU8/sudKepqjIDzuOVSkmKE7dQqz1vo12F6M+6nGn/KiN9umTWjUbjG5S0pkKCTG
NX34fSj1k4l+gJR+QX6NTfpyPL0VeWWVOhwoaYUWsiqWn8jDyo+y9fRAghfcqTOj
Kk7I4E/hiZIgWOHmlxdKCpm4VtZLTV5PTJhFiA3d1WRr6KGOzX0fOJzJ2FGfJ4T9
jBidl1BobC8i87Uy04iyLMhb7PtoVvk9/bksvzrG0LX08J3aEL4lPKO/CfsiglgV
WP/oaNHE53o4xkjcF6NIEv4ClKWUSv6a2X3cFFgcwCNrFLqM31yn0RAoW+VnjTuN
+sctDvSyyYpK3r3FDWHI1NeKO6sa612tY6kyqx26BqLcI/D5GPUPRf+xAA==
-----END CERTIFICATE-----
