Certificate:
    Data:
        Version: 3 (0x2)
        Serial Number: 379 (0x17b)
        Signature Algorithm: sha256WithRSAEncryption
        Issuer: C=CH, ST=Thurgau, L=Kefikon, O=guengel.ch, CN=CA guengel.ch/emailAddress=postmaster@guengel.ch
        Validity
            Not Before: Jan  3 10:08:55 2020 GMT
            Not After : Feb  6 10:08:55 2021 GMT
        Subject: C=CH, ST=Thurgau, O=guengel.ch, CN=viking.kruemel.home/emailAddress=postmaster@guengel.ch
        Subject Public Key Info:
            Public Key Algorithm: rsaEncryption
                RSA Public-Key: (2048 bit)
                Modulus:
                    00:d8:d2:fc:65:4a:0f:9a:52:07:c4:82:fb:40:c0:
                    dc:11:c8:f8:6c:47:06:74:69:a8:f5:e7:6c:98:6a:
                    53:79:9c:b8:5d:d2:3e:bf:11:41:01:4c:98:a3:48:
                    99:03:54:b3:bc:b6:9e:c0:a7:2b:c8:0b:d6:2b:e3:
                    88:ee:19:02:79:19:35:9e:b9:e0:63:72:81:a8:9f:
                    6a:c4:84:6b:4c:08:ff:75:08:6f:49:62:fa:80:ac:
                    92:f2:8a:d5:fb:33:37:4d:92:36:ff:f9:20:66:9a:
                    29:8b:54:32:20:57:8d:1c:c3:11:87:05:3e:04:01:
                    01:99:b0:38:aa:d3:7c:5e:c9:90:09:33:33:32:45:
                    df:86:83:f1:84:6a:a9:be:6e:15:4c:64:f8:09:07:
                    a8:6b:72:55:f9:13:31:2d:75:87:69:bf:89:ea:17:
                    78:2b:02:7e:f2:ad:86:91:de:35:27:a4:08:44:d4:
                    f7:63:6b:4a:6a:77:0c:de:9b:72:14:48:73:09:f0:
                    5d:aa:1f:29:ca:62:da:52:5c:22:ec:33:f6:7d:36:
                    c0:3f:f2:1c:f9:0c:ba:7d:1d:cd:4e:2f:de:62:ad:
                    1e:4a:7e:0e:ba:20:0b:93:6c:6a:2f:d7:b4:04:e3:
                    44:e6:59:e0:46:7e:6b:37:8e:a6:33:59:8d:bd:21:
                    ef:23
                Exponent: 65537 (0x10001)
        X509v3 extensions:
            X509v3 Basic Constraints: 
                CA:FALSE
            Netscape Comment: 
                OpenSSL Generated Certificate
            X509v3 Subject Key Identifier: 
                7E:93:A2:AB:64:5C:62:E6:63:3C:41:6E:DF:08:83:A2:34:8F:35:42
            X509v3 Authority Key Identifier: 
                keyid:D6:88:F1:AA:C1:2B:09:8C:B8:5C:9D:CE:DF:57:39:62:26:10:20:90
                DirName:/C=CH/ST=Thurgau/L=Kefikon/O=guengel.ch/CN=CA guengel.ch/emailAddress=postmaster@guengel.ch
                serial:E5:25:3B:A6:77:BD:CB:FF

    Signature Algorithm: sha256WithRSAEncryption
         bf:bd:96:37:36:74:26:bb:a5:59:2c:db:c1:50:32:98:41:e0:
         6b:07:fa:03:73:bf:4a:0b:7a:b5:97:53:13:d2:74:63:59:bc:
         12:0e:65:c7:1b:80:fe:13:1b:27:07:b5:b0:24:2f:4f:d4:9e:
         de:9c:55:ea:9c:c3:fc:8c:8c:9b:2c:62:c2:e5:b8:8b:31:f4:
         49:7e:29:65:57:27:ea:4d:43:74:9a:f2:14:6c:5c:73:94:ae:
         16:45:03:93:8b:cd:1f:4b:76:a0:97:e3:74:29:9b:08:f8:ab:
         57:c0:c6:d2:2d:b0:f9:9e:86:77:33:9b:bb:ed:8c:f6:fa:13:
         32:ac:41:6e:b2:cb:60:6c:c2:be:bc:44:61:39:64:b0:3d:73:
         5e:8d:33:05:85:21:09:79:68:8d:fa:88:16:c8:40:26:08:9e:
         73:25:f0:c7:9e:69:10:53:65:5e:0f:b5:2e:f3:89:50:71:86:
         da:35:94:1e:4b:54:c1:a7:06:24:e8:9d:97:c6:73:c0:5e:14:
         b3:ae:a1:11:21:34:52:86:78:01:28:19:e6:88:78:10:be:82:
         ed:f8:74:76:73:b7:06:3c:af:50:ad:c9:23:49:35:57:cb:a8:
         33:e5:5d:b1:86:94:21:7e:c1:28:64:47:cc:ee:51:89:91:ca:
         ee:b2:09:5f:fa:97:1f:0a:91:20:45:d7:61:69:0e:11:81:2b:
         84:e3:2b:b3:f9:56:f3:9a:fb:08:07:44:01:ef:40:7f:4f:30:
         92:ea:e7:20:6f:cc:f5:b2:a8:ec:17:24:cb:5b:48:b4:67:f8:
         58:45:77:33:28:fa:96:4c:6d:09:df:1d:7a:9b:d6:94:4a:0f:
         11:3b:0d:c6:19:38:a8:72:9c:5d:cd:17:83:90:e0:8b:87:6a:
         9c:a5:8c:b7:e0:dd:72:0b:d2:20:d2:ee:11:74:e4:ec:fd:1c:
         68:3c:26:de:ce:ee:17:4b:03:6d:10:6e:a6:79:ae:68:a1:e7:
         08:ad:d1:fc:52:1f:ac:ef:9b:1b:9d:86:21:80:8f:c6:11:0a:
         47:c3:b2:60:28:0f:3c:43:6b:b2:5a:8d:59:7e:22:a5:9d:61:
         24:e8:c1:0d:86:5a:24:27:f8:1c:97:18:b7:ba:63:d8:47:34:
         90:77:91:19:4f:e6:44:53:fe:da:7d:c0:02:f1:18:f3:be:6b:
         19:f2:75:4a:c6:63:e5:5a:f6:26:2c:08:ec:a4:7d:cd:a4:b7:
         9e:39:ed:f5:e4:d1:90:d7:cb:a1:e3:98:7e:cd:39:5f:a0:62:
         43:8f:14:59:30:b6:d4:4a:2f:aa:bb:8b:36:87:0f:ee:ec:7c:
         de:7e:af:cd:07:fc:ea:af
-----BEGIN CERTIFICATE-----
MIIFkzCCA3ugAwIBAgICAXswDQYJKoZIhvcNAQELBQAwgYQxCzAJBgNVBAYTAkNI
MRAwDgYDVQQIEwdUaHVyZ2F1MRAwDgYDVQQHEwdLZWZpa29uMRMwEQYDVQQKEwpn
dWVuZ2VsLmNoMRYwFAYDVQQDEw1DQSBndWVuZ2VsLmNoMSQwIgYJKoZIhvcNAQkB
FhVwb3N0bWFzdGVyQGd1ZW5nZWwuY2gwHhcNMjAwMTAzMTAwODU1WhcNMjEwMjA2
MTAwODU1WjB4MQswCQYDVQQGEwJDSDEQMA4GA1UECBMHVGh1cmdhdTETMBEGA1UE
ChMKZ3VlbmdlbC5jaDEcMBoGA1UEAxMTdmlraW5nLmtydWVtZWwuaG9tZTEkMCIG
CSqGSIb3DQEJARYVcG9zdG1hc3RlckBndWVuZ2VsLmNoMIIBIjANBgkqhkiG9w0B
AQEFAAOCAQ8AMIIBCgKCAQEA2NL8ZUoPmlIHxIL7QMDcEcj4bEcGdGmo9edsmGpT
eZy4XdI+vxFBAUyYo0iZA1SzvLaewKcryAvWK+OI7hkCeRk1nrngY3KBqJ9qxIRr
TAj/dQhvSWL6gKyS8orV+zM3TZI2//kgZpopi1QyIFeNHMMRhwU+BAEBmbA4qtN8
XsmQCTMzMkXfhoPxhGqpvm4VTGT4CQeoa3JV+RMxLXWHab+J6hd4KwJ+8q2Gkd41
J6QIRNT3Y2tKancM3ptyFEhzCfBdqh8pymLaUlwi7DP2fTbAP/Ic+Qy6fR3NTi/e
Yq0eSn4OuiALk2xqL9e0BONE5lngRn5rN46mM1mNvSHvIwIDAQABo4IBGDCCARQw
CQYDVR0TBAIwADAsBglghkgBhvhCAQ0EHxYdT3BlblNTTCBHZW5lcmF0ZWQgQ2Vy
dGlmaWNhdGUwHQYDVR0OBBYEFH6ToqtkXGLmYzxBbt8Ig6I0jzVCMIG5BgNVHSME
gbEwga6AFNaI8arBKwmMuFydzt9XOWImECCQoYGKpIGHMIGEMQswCQYDVQQGEwJD
SDEQMA4GA1UECBMHVGh1cmdhdTEQMA4GA1UEBxMHS2VmaWtvbjETMBEGA1UEChMK
Z3VlbmdlbC5jaDEWMBQGA1UEAxMNQ0EgZ3VlbmdlbC5jaDEkMCIGCSqGSIb3DQEJ
ARYVcG9zdG1hc3RlckBndWVuZ2VsLmNoggkA5SU7pne9y/8wDQYJKoZIhvcNAQEL
BQADggIBAL+9ljc2dCa7pVks28FQMphB4GsH+gNzv0oLerWXUxPSdGNZvBIOZccb
gP4TGycHtbAkL0/Unt6cVeqcw/yMjJssYsLluIsx9El+KWVXJ+pNQ3Sa8hRsXHOU
rhZFA5OLzR9LdqCX43Qpmwj4q1fAxtItsPmehnczm7vtjPb6EzKsQW6yy2Bswr68
RGE5ZLA9c16NMwWFIQl5aI36iBbIQCYInnMl8MeeaRBTZV4PtS7ziVBxhto1lB5L
VMGnBiTonZfGc8BeFLOuoREhNFKGeAEoGeaIeBC+gu34dHZztwY8r1CtySNJNVfL
qDPlXbGGlCF+wShkR8zuUYmRyu6yCV/6lx8KkSBF12FpDhGBK4TjK7P5VvOa+wgH
RAHvQH9PMJLq5yBvzPWyqOwXJMtbSLRn+FhFdzMo+pZMbQnfHXqb1pRKDxE7DcYZ
OKhynF3NF4OQ4IuHapyljLfg3XIL0iDS7hF05Oz9HGg8Jt7O7hdLA20QbqZ5rmih
5wit0fxSH6zvmxudhiGAj8YRCkfDsmAoDzxDa7JajVl+IqWdYSTowQ2GWiQn+ByX
GLe6Y9hHNJB3kRlP5kRT/tp9wALxGPO+axnydUrGY+Va9iYsCOykfc2kt5457fXk
0ZDXy6HjmH7NOV+gYkOPFFkwttRKL6q7izaHD+7sfN5+r80H/Oqv
-----END CERTIFICATE-----
