Certificate:
    Data:
        Version: 3 (0x2)
        Serial Number: 468 (0x1d4)
        Signature Algorithm: sha256WithRSAEncryption
        Issuer: C=CH, ST=Thurgau, L=Kefikon, O=guengel.ch, CN=CA guengel.ch/emailAddress=postmaster@guengel.ch
        Validity
            Not Before: Feb 11 07:07:18 2022 GMT
            Not After : Mar 18 07:07:18 2023 GMT
        Subject: C=CH, ST=Thurgau, O=guengel.ch, CN=viking.kruemel.home/emailAddress=postmaster@guengel.ch
        Subject Public Key Info:
            Public Key Algorithm: rsaEncryption
                RSA Public-Key: (2048 bit)
                Modulus:
                    00:d8:d2:fc:65:4a:0f:9a:52:07:c4:82:fb:40:c0:
                    dc:11:c8:f8:6c:47:06:74:69:a8:f5:e7:6c:98:6a:
                    53:79:9c:b8:5d:d2:3e:bf:11:41:01:4c:98:a3:48:
                    99:03:54:b3:bc:b6:9e:c0:a7:2b:c8:0b:d6:2b:e3:
                    88:ee:19:02:79:19:35:9e:b9:e0:63:72:81:a8:9f:
                    6a:c4:84:6b:4c:08:ff:75:08:6f:49:62:fa:80:ac:
                    92:f2:8a:d5:fb:33:37:4d:92:36:ff:f9:20:66:9a:
                    29:8b:54:32:20:57:8d:1c:c3:11:87:05:3e:04:01:
                    01:99:b0:38:aa:d3:7c:5e:c9:90:09:33:33:32:45:
                    df:86:83:f1:84:6a:a9:be:6e:15:4c:64:f8:09:07:
                    a8:6b:72:55:f9:13:31:2d:75:87:69:bf:89:ea:17:
                    78:2b:02:7e:f2:ad:86:91:de:35:27:a4:08:44:d4:
                    f7:63:6b:4a:6a:77:0c:de:9b:72:14:48:73:09:f0:
                    5d:aa:1f:29:ca:62:da:52:5c:22:ec:33:f6:7d:36:
                    c0:3f:f2:1c:f9:0c:ba:7d:1d:cd:4e:2f:de:62:ad:
                    1e:4a:7e:0e:ba:20:0b:93:6c:6a:2f:d7:b4:04:e3:
                    44:e6:59:e0:46:7e:6b:37:8e:a6:33:59:8d:bd:21:
                    ef:23
                Exponent: 65537 (0x10001)
        X509v3 extensions:
            X509v3 Key Usage: 
                Digital Signature, Key Encipherment, Key Agreement
            X509v3 Basic Constraints: critical
                CA:FALSE
            Netscape Cert Type: 
                SSL Client, SSL Server
            X509v3 Extended Key Usage: 
                TLS Web Server Authentication, TLS Web Client Authentication
            X509v3 Subject Alternative Name: 
                DNS:viking.kruemel.home
            X509v3 Subject Key Identifier: 
                7E:93:A2:AB:64:5C:62:E6:63:3C:41:6E:DF:08:83:A2:34:8F:35:42
            X509v3 Authority Key Identifier: 
                keyid:D6:88:F1:AA:C1:2B:09:8C:B8:5C:9D:CE:DF:57:39:62:26:10:20:90
                DirName:/C=CH/ST=Thurgau/L=Kefikon/O=guengel.ch/CN=CA guengel.ch/emailAddress=postmaster@guengel.ch
                serial:E5:25:3B:A6:77:BD:CB:FF

    Signature Algorithm: sha256WithRSAEncryption
         2b:aa:b4:66:1f:0c:fe:5a:ab:89:76:a1:98:df:67:c3:d1:bf:
         ee:20:6e:17:3d:be:e8:ca:82:7e:11:09:08:75:4d:87:a0:b1:
         c2:a4:46:22:09:bb:e6:66:61:fd:4e:81:38:5f:6e:8a:2f:63:
         d5:fc:be:22:6a:b5:a3:0e:44:b1:2b:c4:9e:08:44:8c:31:af:
         84:f9:99:a9:22:f3:4c:6a:9b:29:43:bd:37:56:2d:8a:97:e3:
         77:89:da:24:81:76:36:ab:0d:76:dd:82:d0:f6:5e:e5:2a:f3:
         04:90:21:d1:67:d4:41:c4:28:94:15:8b:79:f3:34:c1:c3:bd:
         bb:0f:0b:7e:bc:d1:d1:fa:75:d5:40:76:4f:05:26:5c:0d:56:
         7f:84:6b:bf:89:67:96:11:40:64:6a:a3:18:8b:78:f7:5b:1e:
         93:e5:b4:e3:bf:e4:d9:33:91:13:fd:48:47:21:c1:3f:cc:ac:
         85:f3:c3:cc:ed:7b:a3:ff:ed:19:00:0a:e5:04:ef:f4:bf:9a:
         23:50:d6:53:fc:3b:64:59:2d:e4:d6:cc:fe:c8:4f:a2:54:ac:
         cf:b8:8f:6c:48:71:0a:d2:59:a3:81:95:59:93:05:1d:7f:75:
         db:25:0a:52:a0:b0:5d:5e:bc:f3:08:b5:37:6c:23:c7:74:f8:
         03:70:8d:14:6e:28:35:28:fe:55:d8:7f:fe:8d:3f:7c:a6:a4:
         4b:06:0f:76:99:a4:e4:2a:ff:44:f3:c1:ba:6f:67:81:82:19:
         35:12:f9:5e:c3:23:23:45:86:1e:44:dc:83:68:2a:7d:fc:72:
         50:aa:48:4f:07:4d:4e:f0:9a:56:69:90:2e:fa:ad:da:a0:db:
         db:3e:7c:8d:42:88:81:d6:6a:ba:b5:c2:d1:b9:b6:90:d2:88:
         b5:22:cc:81:71:56:e7:75:99:b1:7d:7b:cf:a6:b7:59:f6:c8:
         21:d4:ca:a9:a8:71:40:03:c7:f4:43:1d:97:ed:4e:8a:82:32:
         50:05:1d:df:9c:4a:25:72:77:b4:dd:c1:f8:c3:e6:de:2a:9e:
         8f:26:4b:29:57:c0:52:ae:7e:6f:04:f4:78:44:ab:a6:e3:51:
         ee:f7:8b:df:e9:96:c9:5f:02:91:09:e1:bf:07:7d:22:fa:f0:
         e2:f0:0b:b7:ca:6c:4f:10:95:4d:56:5a:5c:96:80:b1:d1:25:
         34:94:be:7c:22:e2:01:88:40:69:db:67:f9:15:dc:fa:30:72:
         ba:23:27:14:36:23:d5:9f:4a:e7:c9:56:2c:b5:c9:d8:f3:6d:
         73:fe:1e:ae:65:30:02:c0:f4:b3:0a:fb:e0:b0:56:7e:67:f9:
         cd:e6:23:6d:46:9e:f0:08
-----BEGIN CERTIFICATE-----
MIIFxzCCA6+gAwIBAgICAdQwDQYJKoZIhvcNAQELBQAwgYQxCzAJBgNVBAYTAkNI
MRAwDgYDVQQIEwdUaHVyZ2F1MRAwDgYDVQQHEwdLZWZpa29uMRMwEQYDVQQKEwpn
dWVuZ2VsLmNoMRYwFAYDVQQDEw1DQSBndWVuZ2VsLmNoMSQwIgYJKoZIhvcNAQkB
FhVwb3N0bWFzdGVyQGd1ZW5nZWwuY2gwHhcNMjIwMjExMDcwNzE4WhcNMjMwMzE4
MDcwNzE4WjB4MQswCQYDVQQGEwJDSDEQMA4GA1UECBMHVGh1cmdhdTETMBEGA1UE
ChMKZ3VlbmdlbC5jaDEcMBoGA1UEAxMTdmlraW5nLmtydWVtZWwuaG9tZTEkMCIG
CSqGSIb3DQEJARYVcG9zdG1hc3RlckBndWVuZ2VsLmNoMIIBIjANBgkqhkiG9w0B
AQEFAAOCAQ8AMIIBCgKCAQEA2NL8ZUoPmlIHxIL7QMDcEcj4bEcGdGmo9edsmGpT
eZy4XdI+vxFBAUyYo0iZA1SzvLaewKcryAvWK+OI7hkCeRk1nrngY3KBqJ9qxIRr
TAj/dQhvSWL6gKyS8orV+zM3TZI2//kgZpopi1QyIFeNHMMRhwU+BAEBmbA4qtN8
XsmQCTMzMkXfhoPxhGqpvm4VTGT4CQeoa3JV+RMxLXWHab+J6hd4KwJ+8q2Gkd41
J6QIRNT3Y2tKancM3ptyFEhzCfBdqh8pymLaUlwi7DP2fTbAP/Ic+Qy6fR3NTi/e
Yq0eSn4OuiALk2xqL9e0BONE5lngRn5rN46mM1mNvSHvIwIDAQABo4IBTDCCAUgw
CwYDVR0PBAQDAgOoMAwGA1UdEwEB/wQCMAAwEQYJYIZIAYb4QgEBBAQDAgbAMB0G
A1UdJQQWMBQGCCsGAQUFBwMBBggrBgEFBQcDAjAeBgNVHREEFzAVghN2aWtpbmcu
a3J1ZW1lbC5ob21lMB0GA1UdDgQWBBR+k6KrZFxi5mM8QW7fCIOiNI81QjCBuQYD
VR0jBIGxMIGugBTWiPGqwSsJjLhcnc7fVzliJhAgkKGBiqSBhzCBhDELMAkGA1UE
BhMCQ0gxEDAOBgNVBAgTB1RodXJnYXUxEDAOBgNVBAcTB0tlZmlrb24xEzARBgNV
BAoTCmd1ZW5nZWwuY2gxFjAUBgNVBAMTDUNBIGd1ZW5nZWwuY2gxJDAiBgkqhkiG
9w0BCQEWFXBvc3RtYXN0ZXJAZ3VlbmdlbC5jaIIJAOUlO6Z3vcv/MA0GCSqGSIb3
DQEBCwUAA4ICAQArqrRmHwz+WquJdqGY32fD0b/uIG4XPb7oyoJ+EQkIdU2HoLHC
pEYiCbvmZmH9ToE4X26KL2PV/L4iarWjDkSxK8SeCESMMa+E+ZmpIvNMapspQ703
Vi2Kl+N3idokgXY2qw123YLQ9l7lKvMEkCHRZ9RBxCiUFYt58zTBw727Dwt+vNHR
+nXVQHZPBSZcDVZ/hGu/iWeWEUBkaqMYi3j3Wx6T5bTjv+TZM5ET/UhHIcE/zKyF
88PM7Xuj/+0ZAArlBO/0v5ojUNZT/DtkWS3k1sz+yE+iVKzPuI9sSHEK0lmjgZVZ
kwUdf3XbJQpSoLBdXrzzCLU3bCPHdPgDcI0Ubig1KP5V2H/+jT98pqRLBg92maTk
Kv9E88G6b2eBghk1EvlewyMjRYYeRNyDaCp9/HJQqkhPB01O8JpWaZAu+q3aoNvb
PnyNQoiB1mq6tcLRubaQ0oi1IsyBcVbndZmxfXvPprdZ9sgh1MqpqHFAA8f0Qx2X
7U6KgjJQBR3fnEolcne03cH4w+beKp6PJkspV8BSrn5vBPR4RKum41Hu94vf6ZbJ
XwKRCeG/B30i+vDi8Au3ymxPEJVNVlpcloCx0SU0lL58IuIBiEBp22f5Fdz6MHK6
IycUNiPVn0rnyVYstcnY821z/h6uZTACwPSzCvvgsFZ+Z/nN5iNtRp7wCA==
-----END CERTIFICATE-----
