Certificate:
    Data:
        Version: 3 (0x2)
        Serial Number: 417 (0x1a1)
        Signature Algorithm: sha256WithRSAEncryption
        Issuer: C=CH, ST=Thurgau, L=Kefikon, O=guengel.ch, CN=CA guengel.ch/emailAddress=postmaster@guengel.ch
        Validity
            Not Before: Dec 24 08:03:36 2020 GMT
            Not After : Jan 28 08:03:36 2022 GMT
        Subject: C=CH, ST=Thurgau, O=guengel.ch, CN=viking.kruemel.home/emailAddress=postmaster@guengel.ch
        Subject Public Key Info:
            Public Key Algorithm: rsaEncryption
                RSA Public-Key: (2048 bit)
                Modulus:
                    00:d8:d2:fc:65:4a:0f:9a:52:07:c4:82:fb:40:c0:
                    dc:11:c8:f8:6c:47:06:74:69:a8:f5:e7:6c:98:6a:
                    53:79:9c:b8:5d:d2:3e:bf:11:41:01:4c:98:a3:48:
                    99:03:54:b3:bc:b6:9e:c0:a7:2b:c8:0b:d6:2b:e3:
                    88:ee:19:02:79:19:35:9e:b9:e0:63:72:81:a8:9f:
                    6a:c4:84:6b:4c:08:ff:75:08:6f:49:62:fa:80:ac:
                    92:f2:8a:d5:fb:33:37:4d:92:36:ff:f9:20:66:9a:
                    29:8b:54:32:20:57:8d:1c:c3:11:87:05:3e:04:01:
                    01:99:b0:38:aa:d3:7c:5e:c9:90:09:33:33:32:45:
                    df:86:83:f1:84:6a:a9:be:6e:15:4c:64:f8:09:07:
                    a8:6b:72:55:f9:13:31:2d:75:87:69:bf:89:ea:17:
                    78:2b:02:7e:f2:ad:86:91:de:35:27:a4:08:44:d4:
                    f7:63:6b:4a:6a:77:0c:de:9b:72:14:48:73:09:f0:
                    5d:aa:1f:29:ca:62:da:52:5c:22:ec:33:f6:7d:36:
                    c0:3f:f2:1c:f9:0c:ba:7d:1d:cd:4e:2f:de:62:ad:
                    1e:4a:7e:0e:ba:20:0b:93:6c:6a:2f:d7:b4:04:e3:
                    44:e6:59:e0:46:7e:6b:37:8e:a6:33:59:8d:bd:21:
                    ef:23
                Exponent: 65537 (0x10001)
        X509v3 extensions:
            X509v3 Key Usage: 
                Digital Signature, Key Encipherment, Key Agreement
            X509v3 Basic Constraints: critical
                CA:FALSE
            Netscape Cert Type: 
                SSL Client, SSL Server
            X509v3 Extended Key Usage: 
                TLS Web Server Authentication, TLS Web Client Authentication
            X509v3 Subject Alternative Name: 
                DNS:viking.kruemel.home
            X509v3 Subject Key Identifier: 
                7E:93:A2:AB:64:5C:62:E6:63:3C:41:6E:DF:08:83:A2:34:8F:35:42
            X509v3 Authority Key Identifier: 
                keyid:D6:88:F1:AA:C1:2B:09:8C:B8:5C:9D:CE:DF:57:39:62:26:10:20:90
                DirName:/C=CH/ST=Thurgau/L=Kefikon/O=guengel.ch/CN=CA guengel.ch/emailAddress=postmaster@guengel.ch
                serial:E5:25:3B:A6:77:BD:CB:FF

    Signature Algorithm: sha256WithRSAEncryption
         8b:da:f3:ff:bf:8c:0d:17:e6:56:cc:6a:84:38:95:56:b5:67:
         b5:89:3c:10:8e:8d:23:78:6c:4a:a1:7e:9c:86:4b:0a:01:50:
         ae:2b:09:55:53:13:0b:9b:ad:59:1b:37:49:7c:5c:0e:3c:40:
         92:e0:91:9f:31:9f:db:93:ba:20:2c:6f:b1:c8:64:da:db:28:
         fc:c6:99:7c:5b:01:57:9d:ec:1d:53:9f:12:cb:8d:48:44:6c:
         92:61:6d:30:c1:a2:35:3e:8f:00:97:9a:f2:49:c7:ae:eb:70:
         44:3a:31:f5:67:8a:c9:c6:9f:e3:77:4e:51:73:5e:6b:77:0c:
         8d:56:4c:90:c0:5c:44:95:4d:be:81:2c:fb:52:d1:1b:68:6e:
         18:df:83:ec:6a:6d:5b:48:08:1b:72:cb:45:fe:4d:db:88:83:
         55:42:8f:60:e1:86:3b:bf:48:ff:0e:a7:9c:f9:88:fd:c8:1e:
         42:a5:f1:95:a6:fa:63:41:7c:f8:1e:34:02:fd:75:43:8f:3c:
         53:8f:0d:f7:27:a7:8b:51:5d:28:47:6a:35:1a:fd:b1:1d:4e:
         f9:f8:81:d7:a4:4f:55:a8:67:4c:fb:fa:8f:7b:d8:22:f2:81:
         ef:f9:08:07:8b:ea:58:70:81:bc:3d:15:e4:01:9a:a1:64:23:
         10:fd:16:b4:52:ea:8a:95:5f:2a:a5:95:3a:6f:0c:4e:a2:a4:
         f0:fe:e6:7c:58:0a:7b:fb:d5:ce:d2:0d:8c:fa:74:2c:8f:dd:
         ab:bf:37:28:56:c5:dc:f6:a4:49:0f:3f:df:64:1c:18:9d:4f:
         25:51:eb:64:a0:70:ee:23:de:78:cd:4c:8a:1a:17:a8:4d:8d:
         4b:db:d5:59:27:90:6e:1e:9c:98:ad:1a:66:a8:97:e6:93:fa:
         ff:85:c7:20:b8:23:09:43:f9:46:9e:dd:71:fd:1e:bb:77:b2:
         4a:ab:7b:d6:bd:d3:1b:87:72:d2:0e:ed:70:81:d9:68:13:4f:
         25:2d:03:7f:ea:a7:67:d0:ca:e3:28:f8:44:73:48:a7:12:f5:
         e8:23:16:15:1a:be:00:07:9e:51:2b:b2:96:9e:87:52:ce:cb:
         37:dc:21:18:f5:98:d8:86:fc:54:dc:1e:27:7d:dc:b8:6d:10:
         b2:ef:d1:e8:09:b1:0d:f9:5c:c0:7c:56:3f:ce:3e:e9:dd:e6:
         df:59:71:bf:fd:c2:8e:79:cc:90:34:e2:a5:b3:6b:a3:5a:6c:
         f6:d3:49:77:77:0d:45:26:c9:1f:5d:c4:33:f6:f0:15:d7:6b:
         90:fe:2e:64:68:98:c9:6f:8d:e9:5d:26:bc:d3:10:62:ae:83:
         b8:fd:3e:1b:d8:5b:34:b8
-----BEGIN CERTIFICATE-----
MIIFxzCCA6+gAwIBAgICAaEwDQYJKoZIhvcNAQELBQAwgYQxCzAJBgNVBAYTAkNI
MRAwDgYDVQQIEwdUaHVyZ2F1MRAwDgYDVQQHEwdLZWZpa29uMRMwEQYDVQQKEwpn
dWVuZ2VsLmNoMRYwFAYDVQQDEw1DQSBndWVuZ2VsLmNoMSQwIgYJKoZIhvcNAQkB
FhVwb3N0bWFzdGVyQGd1ZW5nZWwuY2gwHhcNMjAxMjI0MDgwMzM2WhcNMjIwMTI4
MDgwMzM2WjB4MQswCQYDVQQGEwJDSDEQMA4GA1UECBMHVGh1cmdhdTETMBEGA1UE
ChMKZ3VlbmdlbC5jaDEcMBoGA1UEAxMTdmlraW5nLmtydWVtZWwuaG9tZTEkMCIG
CSqGSIb3DQEJARYVcG9zdG1hc3RlckBndWVuZ2VsLmNoMIIBIjANBgkqhkiG9w0B
AQEFAAOCAQ8AMIIBCgKCAQEA2NL8ZUoPmlIHxIL7QMDcEcj4bEcGdGmo9edsmGpT
eZy4XdI+vxFBAUyYo0iZA1SzvLaewKcryAvWK+OI7hkCeRk1nrngY3KBqJ9qxIRr
TAj/dQhvSWL6gKyS8orV+zM3TZI2//kgZpopi1QyIFeNHMMRhwU+BAEBmbA4qtN8
XsmQCTMzMkXfhoPxhGqpvm4VTGT4CQeoa3JV+RMxLXWHab+J6hd4KwJ+8q2Gkd41
J6QIRNT3Y2tKancM3ptyFEhzCfBdqh8pymLaUlwi7DP2fTbAP/Ic+Qy6fR3NTi/e
Yq0eSn4OuiALk2xqL9e0BONE5lngRn5rN46mM1mNvSHvIwIDAQABo4IBTDCCAUgw
CwYDVR0PBAQDAgOoMAwGA1UdEwEB/wQCMAAwEQYJYIZIAYb4QgEBBAQDAgbAMB0G
A1UdJQQWMBQGCCsGAQUFBwMBBggrBgEFBQcDAjAeBgNVHREEFzAVghN2aWtpbmcu
a3J1ZW1lbC5ob21lMB0GA1UdDgQWBBR+k6KrZFxi5mM8QW7fCIOiNI81QjCBuQYD
VR0jBIGxMIGugBTWiPGqwSsJjLhcnc7fVzliJhAgkKGBiqSBhzCBhDELMAkGA1UE
BhMCQ0gxEDAOBgNVBAgTB1RodXJnYXUxEDAOBgNVBAcTB0tlZmlrb24xEzARBgNV
BAoTCmd1ZW5nZWwuY2gxFjAUBgNVBAMTDUNBIGd1ZW5nZWwuY2gxJDAiBgkqhkiG
9w0BCQEWFXBvc3RtYXN0ZXJAZ3VlbmdlbC5jaIIJAOUlO6Z3vcv/MA0GCSqGSIb3
DQEBCwUAA4ICAQCL2vP/v4wNF+ZWzGqEOJVWtWe1iTwQjo0jeGxKoX6chksKAVCu
KwlVUxMLm61ZGzdJfFwOPECS4JGfMZ/bk7ogLG+xyGTa2yj8xpl8WwFXnewdU58S
y41IRGySYW0wwaI1Po8Al5rySceu63BEOjH1Z4rJxp/jd05Rc15rdwyNVkyQwFxE
lU2+gSz7UtEbaG4Y34Psam1bSAgbcstF/k3biINVQo9g4YY7v0j/Dqec+Yj9yB5C
pfGVpvpjQXz4HjQC/XVDjzxTjw33J6eLUV0oR2o1Gv2xHU75+IHXpE9VqGdM+/qP
e9gi8oHv+QgHi+pYcIG8PRXkAZqhZCMQ/Ra0UuqKlV8qpZU6bwxOoqTw/uZ8WAp7
+9XO0g2M+nQsj92rvzcoVsXc9qRJDz/fZBwYnU8lUetkoHDuI954zUyKGheoTY1L
29VZJ5BuHpyYrRpmqJfmk/r/hccguCMJQ/lGnt1x/R67d7JKq3vWvdMbh3LSDu1w
gdloE08lLQN/6qdn0MrjKPhEc0inEvXoIxYVGr4AB55RK7KWnodSzss33CEY9ZjY
hvxU3B4nfdy4bRCy79HoCbEN+VzAfFY/zj7p3ebfWXG//cKOecyQNOKls2ujWmz2
00l3dw1FJskfXcQz9vAV12uQ/i5kaJjJb43pXSa80xBiroO4/T4b2Fs0uA==
-----END CERTIFICATE-----
