Certificate:
    Data:
        Version: 3 (0x2)
        Serial Number:
            37:2f:71:f0:3b:78:7a:a6:f3:f6:7a:6e:d7:cd:a2:d7:42:66:5b:55
        Signature Algorithm: sha256WithRSAEncryption
        Issuer: C=CH, ST=Thurgau, L=Kefikon, O=guengel.ch, CN=CA 2022/emailAddress=postmaster@guengel.ch
        Validity
            Not Before: Dec 30 08:44:51 2023 GMT
            Not After : Feb  2 08:44:51 2025 GMT
        Subject: C=CH, ST=Thurgau, O=guengel.ch, CN=viking.kruemel.home/emailAddress=postmaster@guengel.ch
        Subject Public Key Info:
            Public Key Algorithm: rsaEncryption
                RSA Public-Key: (2048 bit)
                Modulus:
                    00:d5:f9:8c:60:36:e2:13:37:fb:7e:61:bb:6f:f1:
                    f4:b2:8b:03:f5:4a:1a:40:5f:66:ff:fc:95:af:ef:
                    db:73:ff:13:23:aa:b5:a8:76:68:7b:a4:25:d1:1e:
                    4f:f5:bc:1f:81:7f:5f:d7:97:90:51:ab:a2:c8:f7:
                    22:f1:73:14:e1:30:e8:e9:6e:0c:ad:8f:a7:14:8e:
                    d7:2c:25:9f:05:c3:b3:64:a3:8e:f5:5f:fd:0c:f2:
                    02:2b:64:2b:c9:0b:fa:95:4e:fc:5d:af:35:08:56:
                    2c:15:9d:3e:fa:0e:df:4b:62:48:55:72:a5:1d:c1:
                    85:51:4d:12:cb:21:e7:11:2e:41:c9:9d:0c:31:5d:
                    8c:6b:fb:bb:4b:74:ad:f8:25:15:23:81:12:b8:13:
                    fc:9a:49:36:44:ed:5a:92:ee:4e:49:c3:73:49:0a:
                    92:fa:ac:98:88:2c:c0:76:00:54:a9:5b:3a:b2:f2:
                    19:a5:13:2d:14:c1:df:aa:24:7d:c7:52:bd:c3:32:
                    54:a1:b4:5d:11:6d:14:e9:41:b4:74:d4:22:ba:33:
                    cb:00:ba:2d:57:17:4c:16:74:89:a9:8a:58:fe:73:
                    a2:f8:98:a0:a1:dc:83:27:be:98:79:61:06:13:c5:
                    bb:2e:da:17:84:30:2c:a1:0f:93:59:9d:4d:5e:a1:
                    6f:19
                Exponent: 65537 (0x10001)
        X509v3 extensions:
            X509v3 Basic Constraints: critical
                CA:FALSE
            X509v3 Key Usage: 
                Digital Signature, Key Encipherment, Key Agreement
            X509v3 Subject Key Identifier: 
                AA:12:DF:7C:4D:00:DE:B5:97:C5:96:B3:FC:B0:BF:B3:52:F6:D0:2A
            X509v3 Authority Key Identifier: 
                keyid:22:20:0D:51:40:61:42:BE:DD:BA:D9:C9:C1:77:B6:93:28:C3:99:EC
                DirName:/C=CH/ST=Thurgau/L=Kefikon/O=guengel.ch/CN=CA 2022/emailAddress=postmaster@guengel.ch
                serial:6D:29:90:54:E9:17:E9:C2:6A:E6:52:AD:84:4E:30:8E:6E:57:FB:1C

            Netscape Cert Type: 
                SSL Client, SSL Server
            X509v3 Extended Key Usage: 
                TLS Web Server Authentication, TLS Web Client Authentication
            X509v3 Subject Alternative Name: 
                DNS:viking.kruemel.home
    Signature Algorithm: sha256WithRSAEncryption
         17:9e:9b:6c:9b:11:de:76:d7:fd:73:09:63:84:68:29:7e:d6:
         9f:83:7b:af:bb:97:8e:64:aa:19:fc:52:3f:b4:b2:fa:9a:fc:
         1a:8b:38:44:4f:aa:0d:c3:02:65:0b:40:b1:12:d5:38:a9:a2:
         87:09:bc:7f:02:4c:48:4f:59:8f:2b:b5:31:c1:f5:20:1f:42:
         75:56:40:fc:40:22:23:9e:bd:75:57:7f:b3:61:b0:ed:54:eb:
         a0:80:2a:cb:6d:b9:60:75:af:fd:ee:42:0f:bc:c3:e3:7d:af:
         31:8f:3f:c7:2d:e2:4d:d2:39:5a:d7:17:b3:a5:5e:18:43:84:
         ed:e0:9f:2d:bf:66:c6:b5:e7:98:43:53:35:ce:b9:b2:82:c5:
         fb:29:04:c3:e9:51:fd:fa:a9:d1:9d:fc:9e:ab:6a:62:00:4e:
         56:82:88:c3:97:1f:27:22:cc:13:ff:3e:63:d4:da:12:24:cf:
         21:f3:2d:16:c5:77:8f:20:c0:8f:8c:cd:45:b0:ee:95:82:1c:
         15:28:75:ee:27:c3:52:fc:da:8c:ea:0a:96:95:52:12:19:4f:
         f3:44:50:19:14:a9:f6:34:e5:93:14:f3:1f:af:d0:37:b8:1e:
         f8:4e:76:ba:74:45:cd:71:53:62:52:6b:6a:03:05:a1:51:59:
         d5:5f:8a:a4:e9:f9:8f:cf:fc:82:f4:59:1f:bc:a1:e8:a4:fd:
         17:9c:76:58:26:d7:79:77:33:be:1d:28:d1:cd:b8:d5:fd:a1:
         9a:7b:7d:3a:1e:cc:f6:4f:7d:ee:58:6b:cf:9b:13:78:aa:b0:
         49:54:7d:4f:1e:3b:6a:7c:e4:59:48:21:08:f4:5b:7f:df:82:
         a7:34:ac:1c:2a:69:72:aa:0e:d6:94:f4:47:bf:c9:e6:1e:3c:
         55:97:70:30:63:71:c2:13:04:d4:2c:9b:98:f4:ee:7d:53:ad:
         af:2b:ae:a8:54:a4:28:cc:d0:e5:2a:f6:30:9e:35:34:c2:ad:
         60:b7:ab:48:c5:31:66:ea:b1:e1:0a:b9:9b:ae:7b:70:48:47:
         e4:3a:c9:12:a7:d1:61:34:08:ba:99:67:a7:65:b8:3b:8c:97:
         ee:69:ca:28:fb:7e:09:2d:89:2e:8e:46:18:4a:f8:3f:a0:8d:
         a7:96:b8:3e:fc:0f:be:0d:d7:2c:4f:8b:e4:68:3f:e9:16:f7:
         75:94:8e:ff:b0:d7:1f:0d:72:5b:ac:db:e7:67:65:37:8a:8c:
         e7:fa:8c:08:66:01:53:a3:5b:77:58:53:07:23:ff:18:1e:a5:
         95:ec:cf:61:16:7d:bc:a3:7d:c0:2e:41:a9:11:95:06:6f:a0:
         d7:4b:ae:ab:40:53:ff:0d
-----BEGIN CERTIFICATE-----
MIIF1jCCA76gAwIBAgIUNy9x8Dt4eqbz9npu182i10JmW1UwDQYJKoZIhvcNAQEL
BQAwfjELMAkGA1UEBhMCQ0gxEDAOBgNVBAgTB1RodXJnYXUxEDAOBgNVBAcTB0tl
Zmlrb24xEzARBgNVBAoTCmd1ZW5nZWwuY2gxEDAOBgNVBAMTB0NBIDIwMjIxJDAi
BgkqhkiG9w0BCQEWFXBvc3RtYXN0ZXJAZ3VlbmdlbC5jaDAeFw0yMzEyMzAwODQ0
NTFaFw0yNTAyMDIwODQ0NTFaMHgxCzAJBgNVBAYTAkNIMRAwDgYDVQQIEwdUaHVy
Z2F1MRMwEQYDVQQKEwpndWVuZ2VsLmNoMRwwGgYDVQQDExN2aWtpbmcua3J1ZW1l
bC5ob21lMSQwIgYJKoZIhvcNAQkBFhVwb3N0bWFzdGVyQGd1ZW5nZWwuY2gwggEi
MA0GCSqGSIb3DQEBAQUAA4IBDwAwggEKAoIBAQDV+YxgNuITN/t+Ybtv8fSyiwP1
ShpAX2b//JWv79tz/xMjqrWodmh7pCXRHk/1vB+Bf1/Xl5BRq6LI9yLxcxThMOjp
bgytj6cUjtcsJZ8Fw7Nko471X/0M8gIrZCvJC/qVTvxdrzUIViwVnT76Dt9LYkhV
cqUdwYVRTRLLIecRLkHJnQwxXYxr+7tLdK34JRUjgRK4E/yaSTZE7VqS7k5Jw3NJ
CpL6rJiILMB2AFSpWzqy8hmlEy0Uwd+qJH3HUr3DMlShtF0RbRTpQbR01CK6M8sA
ui1XF0wWdImpilj+c6L4mKCh3IMnvph5YQYTxbsu2heEMCyhD5NZnU1eoW8ZAgMB
AAGjggFQMIIBTDAMBgNVHRMBAf8EAjAAMAsGA1UdDwQEAwIDqDAdBgNVHQ4EFgQU
qhLffE0A3rWXxZaz/LC/s1L20Cowgb0GA1UdIwSBtTCBsoAUIiANUUBhQr7dutnJ
wXe2kyjDmeyhgYOkgYAwfjELMAkGA1UEBhMCQ0gxEDAOBgNVBAgTB1RodXJnYXUx
EDAOBgNVBAcTB0tlZmlrb24xEzARBgNVBAoTCmd1ZW5nZWwuY2gxEDAOBgNVBAMT
B0NBIDIwMjIxJDAiBgkqhkiG9w0BCQEWFXBvc3RtYXN0ZXJAZ3VlbmdlbC5jaIIU
bSmQVOkX6cJq5lKthE4wjm5X+xwwEQYJYIZIAYb4QgEBBAQDAgbAMB0GA1UdJQQW
MBQGCCsGAQUFBwMBBggrBgEFBQcDAjAeBgNVHREEFzAVghN2aWtpbmcua3J1ZW1l
bC5ob21lMA0GCSqGSIb3DQEBCwUAA4ICAQAXnptsmxHedtf9cwljhGgpftafg3uv
u5eOZKoZ/FI/tLL6mvwaizhET6oNwwJlC0CxEtU4qaKHCbx/AkxIT1mPK7UxwfUg
H0J1VkD8QCIjnr11V3+zYbDtVOuggCrLbblgda/97kIPvMPjfa8xjz/HLeJN0jla
1xezpV4YQ4Tt4J8tv2bGteeYQ1M1zrmygsX7KQTD6VH9+qnRnfyeq2piAE5WgojD
lx8nIswT/z5j1NoSJM8h8y0WxXePIMCPjM1FsO6VghwVKHXuJ8NS/NqM6gqWlVIS
GU/zRFAZFKn2NOWTFPMfr9A3uB74Tna6dEXNcVNiUmtqAwWhUVnVX4qk6fmPz/yC
9FkfvKHopP0XnHZYJtd5dzO+HSjRzbjV/aGae306Hsz2T33uWGvPmxN4qrBJVH1P
HjtqfORZSCEI9Ft/34KnNKwcKmlyqg7WlPRHv8nmHjxVl3AwY3HCEwTULJuY9O59
U62vK66oVKQozNDlKvYwnjU0wq1gt6tIxTFm6rHhCrmbrntwSEfkOskSp9FhNAi6
mWenZbg7jJfuacoo+34JLYkujkYYSvg/oI2nlrg+/A++DdcsT4vkaD/pFvd1lI7/
sNcfDXJbrNvnZ2U3iozn+owIZgFTo1t3WFMHI/8YHqWV7M9hFn28o33ALkGpEZUG
b6DXS66rQFP/DQ==
-----END CERTIFICATE-----
