Certificate:
    Data:
        Version: 3 (0x2)
        Serial Number:
            2c:44:8e:9e:b4:73:77:d5:1f:59:d1:9c:90:d3:8d:71:2d:e7:8f:c8
        Signature Algorithm: sha256WithRSAEncryption
        Issuer: C=CH, ST=Thurgau, L=Kefikon, O=guengel.ch, CN=CA 2022/emailAddress=postmaster@guengel.ch
        Validity
            Not Before: Jan  3 14:04:32 2025 GMT
            Not After : Feb  7 14:04:32 2026 GMT
        Subject: C=CH, ST=Thurgau, O=guengel.ch, CN=viking.kruemel.home/emailAddress=postmaster@guengel.ch
        Subject Public Key Info:
            Public Key Algorithm: rsaEncryption
                Public-Key: (2048 bit)
                Modulus:
                    00:d5:f9:8c:60:36:e2:13:37:fb:7e:61:bb:6f:f1:
                    f4:b2:8b:03:f5:4a:1a:40:5f:66:ff:fc:95:af:ef:
                    db:73:ff:13:23:aa:b5:a8:76:68:7b:a4:25:d1:1e:
                    4f:f5:bc:1f:81:7f:5f:d7:97:90:51:ab:a2:c8:f7:
                    22:f1:73:14:e1:30:e8:e9:6e:0c:ad:8f:a7:14:8e:
                    d7:2c:25:9f:05:c3:b3:64:a3:8e:f5:5f:fd:0c:f2:
                    02:2b:64:2b:c9:0b:fa:95:4e:fc:5d:af:35:08:56:
                    2c:15:9d:3e:fa:0e:df:4b:62:48:55:72:a5:1d:c1:
                    85:51:4d:12:cb:21:e7:11:2e:41:c9:9d:0c:31:5d:
                    8c:6b:fb:bb:4b:74:ad:f8:25:15:23:81:12:b8:13:
                    fc:9a:49:36:44:ed:5a:92:ee:4e:49:c3:73:49:0a:
                    92:fa:ac:98:88:2c:c0:76:00:54:a9:5b:3a:b2:f2:
                    19:a5:13:2d:14:c1:df:aa:24:7d:c7:52:bd:c3:32:
                    54:a1:b4:5d:11:6d:14:e9:41:b4:74:d4:22:ba:33:
                    cb:00:ba:2d:57:17:4c:16:74:89:a9:8a:58:fe:73:
                    a2:f8:98:a0:a1:dc:83:27:be:98:79:61:06:13:c5:
                    bb:2e:da:17:84:30:2c:a1:0f:93:59:9d:4d:5e:a1:
                    6f:19
                Exponent: 65537 (0x10001)
        X509v3 extensions:
            X509v3 Basic Constraints: critical
                CA:FALSE
            X509v3 Key Usage: 
                Digital Signature, Key Encipherment, Key Agreement
            X509v3 Subject Key Identifier: 
                AA:12:DF:7C:4D:00:DE:B5:97:C5:96:B3:FC:B0:BF:B3:52:F6:D0:2A
            X509v3 Authority Key Identifier: 
                keyid:22:20:0D:51:40:61:42:BE:DD:BA:D9:C9:C1:77:B6:93:28:C3:99:EC
                DirName:/C=CH/ST=Thurgau/L=Kefikon/O=guengel.ch/CN=CA 2022/emailAddress=postmaster@guengel.ch
                serial:6D:29:90:54:E9:17:E9:C2:6A:E6:52:AD:84:4E:30:8E:6E:57:FB:1C
            Netscape Cert Type: 
                SSL Client, SSL Server
            X509v3 Extended Key Usage: 
                TLS Web Server Authentication, TLS Web Client Authentication
            X509v3 Subject Alternative Name: 
                DNS:viking.kruemel.home
    Signature Algorithm: sha256WithRSAEncryption
    Signature Value:
        52:1a:a9:8a:43:a3:db:4a:42:f9:34:35:92:d5:b9:9f:9b:11:
        d0:88:ae:43:6d:b0:28:fa:d6:ef:30:00:3c:40:14:87:89:0c:
        6e:ae:e7:3a:ec:ce:3e:0f:a6:62:36:e5:c8:8c:92:3d:8e:3b:
        8f:6a:9b:63:31:5e:0d:a9:14:39:93:2a:6b:9f:56:3c:45:19:
        64:63:ed:71:47:db:6c:f3:43:6b:65:87:2b:b1:2c:61:fa:98:
        e5:ef:1a:b4:5c:8a:c3:31:dd:df:e9:e2:bc:c6:9d:b2:c3:30:
        29:ea:10:94:82:26:5b:b8:b0:b0:63:8a:e4:66:32:4e:e5:1f:
        fa:b6:28:82:7b:6e:40:2e:3a:89:f5:24:e0:64:4f:fb:ac:10:
        98:37:70:f6:eb:58:41:ab:99:70:39:d4:23:20:2f:78:08:62:
        a6:f1:7a:81:4b:56:98:49:e7:7e:90:81:72:84:8f:e0:bd:84:
        3d:00:e1:7d:61:2a:42:71:64:ae:3c:b2:1d:1c:98:d3:14:53:
        3a:b6:b6:bd:71:af:3c:aa:d7:2c:37:72:32:17:17:9a:fb:19:
        1a:90:3b:ba:aa:e8:f3:f6:0e:c0:1a:6e:12:fc:c8:c8:07:43:
        84:aa:cb:9d:35:a5:b4:36:a5:18:af:74:8b:79:66:a8:ce:74:
        6f:30:52:b0:92:bf:be:0c:e7:c9:77:11:c8:15:f4:84:e8:3c:
        f1:d8:7c:73:ec:a1:9c:92:03:6a:5e:86:bc:00:da:26:45:56:
        dd:f3:fa:30:60:19:3e:9b:3d:22:45:29:40:c0:4a:d6:66:2f:
        a2:0d:d9:c9:be:f1:72:35:ab:2f:4d:35:1f:20:b5:61:01:c5:
        fd:58:c0:0a:3b:20:7e:fc:d9:df:b2:74:1b:c9:9f:54:33:61:
        f0:3f:cc:f2:78:28:a0:69:c9:1c:c7:6f:9e:00:96:a6:a7:ad:
        d5:eb:e1:84:08:c9:a0:9e:ab:de:0c:13:3e:c5:66:80:47:fc:
        88:2e:07:8c:ab:14:c5:5a:28:af:7b:f2:f3:63:0b:27:f7:28:
        4c:a9:a1:99:d0:6d:0a:e2:b0:18:57:f4:02:62:55:a1:ad:41:
        35:44:fa:fd:11:21:05:b1:44:40:48:3b:50:84:55:62:79:4a:
        7a:04:15:fd:c1:b9:bf:a7:1b:da:0f:49:86:e6:b4:29:18:7e:
        52:7e:c3:9b:3e:fd:b5:3c:ee:aa:72:04:5d:86:59:e9:7e:e1:
        aa:9a:11:c6:ba:1e:19:a7:f0:ee:bb:ce:cd:5e:dc:8e:61:24:
        20:de:dd:e9:5d:59:54:6d:7a:2a:53:5b:52:c5:42:d8:94:5f:
        cb:63:ff:e2:89:81:ef:1a
-----BEGIN CERTIFICATE-----
MIIF1jCCA76gAwIBAgIULESOnrRzd9UfWdGckNONcS3nj8gwDQYJKoZIhvcNAQEL
BQAwfjELMAkGA1UEBhMCQ0gxEDAOBgNVBAgTB1RodXJnYXUxEDAOBgNVBAcTB0tl
Zmlrb24xEzARBgNVBAoTCmd1ZW5nZWwuY2gxEDAOBgNVBAMTB0NBIDIwMjIxJDAi
BgkqhkiG9w0BCQEWFXBvc3RtYXN0ZXJAZ3VlbmdlbC5jaDAeFw0yNTAxMDMxNDA0
MzJaFw0yNjAyMDcxNDA0MzJaMHgxCzAJBgNVBAYTAkNIMRAwDgYDVQQIEwdUaHVy
Z2F1MRMwEQYDVQQKEwpndWVuZ2VsLmNoMRwwGgYDVQQDExN2aWtpbmcua3J1ZW1l
bC5ob21lMSQwIgYJKoZIhvcNAQkBFhVwb3N0bWFzdGVyQGd1ZW5nZWwuY2gwggEi
MA0GCSqGSIb3DQEBAQUAA4IBDwAwggEKAoIBAQDV+YxgNuITN/t+Ybtv8fSyiwP1
ShpAX2b//JWv79tz/xMjqrWodmh7pCXRHk/1vB+Bf1/Xl5BRq6LI9yLxcxThMOjp
bgytj6cUjtcsJZ8Fw7Nko471X/0M8gIrZCvJC/qVTvxdrzUIViwVnT76Dt9LYkhV
cqUdwYVRTRLLIecRLkHJnQwxXYxr+7tLdK34JRUjgRK4E/yaSTZE7VqS7k5Jw3NJ
CpL6rJiILMB2AFSpWzqy8hmlEy0Uwd+qJH3HUr3DMlShtF0RbRTpQbR01CK6M8sA
ui1XF0wWdImpilj+c6L4mKCh3IMnvph5YQYTxbsu2heEMCyhD5NZnU1eoW8ZAgMB
AAGjggFQMIIBTDAMBgNVHRMBAf8EAjAAMAsGA1UdDwQEAwIDqDAdBgNVHQ4EFgQU
qhLffE0A3rWXxZaz/LC/s1L20Cowgb0GA1UdIwSBtTCBsoAUIiANUUBhQr7dutnJ
wXe2kyjDmeyhgYOkgYAwfjELMAkGA1UEBhMCQ0gxEDAOBgNVBAgTB1RodXJnYXUx
EDAOBgNVBAcTB0tlZmlrb24xEzARBgNVBAoTCmd1ZW5nZWwuY2gxEDAOBgNVBAMT
B0NBIDIwMjIxJDAiBgkqhkiG9w0BCQEWFXBvc3RtYXN0ZXJAZ3VlbmdlbC5jaIIU
bSmQVOkX6cJq5lKthE4wjm5X+xwwEQYJYIZIAYb4QgEBBAQDAgbAMB0GA1UdJQQW
MBQGCCsGAQUFBwMBBggrBgEFBQcDAjAeBgNVHREEFzAVghN2aWtpbmcua3J1ZW1l
bC5ob21lMA0GCSqGSIb3DQEBCwUAA4ICAQBSGqmKQ6PbSkL5NDWS1bmfmxHQiK5D
bbAo+tbvMAA8QBSHiQxuruc67M4+D6ZiNuXIjJI9jjuPaptjMV4NqRQ5kyprn1Y8
RRlkY+1xR9ts80NrZYcrsSxh+pjl7xq0XIrDMd3f6eK8xp2ywzAp6hCUgiZbuLCw
Y4rkZjJO5R/6tiiCe25ALjqJ9STgZE/7rBCYN3D261hBq5lwOdQjIC94CGKm8XqB
S1aYSed+kIFyhI/gvYQ9AOF9YSpCcWSuPLIdHJjTFFM6tra9ca88qtcsN3IyFxea
+xkakDu6qujz9g7AGm4S/MjIB0OEqsudNaW0NqUYr3SLeWaoznRvMFKwkr++DOfJ
dxHIFfSE6Dzx2Hxz7KGckgNqXoa8ANomRVbd8/owYBk+mz0iRSlAwErWZi+iDdnJ
vvFyNasvTTUfILVhAcX9WMAKOyB+/NnfsnQbyZ9UM2HwP8zyeCigackcx2+eAJam
p63V6+GECMmgnqveDBM+xWaAR/yILgeMqxTFWiive/LzYwsn9yhMqaGZ0G0K4rAY
V/QCYlWhrUE1RPr9ESEFsURASDtQhFVieUp6BBX9wbm/pxvaD0mG5rQpGH5SfsOb
Pv21PO6qcgRdhlnpfuGqmhHGuh4Zp/Duu87NXtyOYSQg3t3pXVlUbXoqU1tSxULY
lF/LY//iiYHvGg==
-----END CERTIFICATE-----
