Certificate:
    Data:
        Version: 3 (0x2)
        Serial Number:
            2e:37:ca:cc:a0:9b:45:a8:00:14:54:61:17:de:f3:a1:73:c5:7b:72
        Signature Algorithm: sha256WithRSAEncryption
        Issuer: C=CH, ST=Thurgau, L=Kefikon, O=guengel.ch, CN=CA 2022/emailAddress=postmaster@guengel.ch
        Validity
            Not Before: Feb 22 18:38:47 2022 GMT
            Not After : Mar 29 18:38:47 2023 GMT
        Subject: C=CH, ST=Thurgau, O=guengel.ch, CN=viking.kruemel.home/emailAddress=postmaster@guengel.ch
        Subject Public Key Info:
            Public Key Algorithm: rsaEncryption
                RSA Public-Key: (2048 bit)
                Modulus:
                    00:d5:f9:8c:60:36:e2:13:37:fb:7e:61:bb:6f:f1:
                    f4:b2:8b:03:f5:4a:1a:40:5f:66:ff:fc:95:af:ef:
                    db:73:ff:13:23:aa:b5:a8:76:68:7b:a4:25:d1:1e:
                    4f:f5:bc:1f:81:7f:5f:d7:97:90:51:ab:a2:c8:f7:
                    22:f1:73:14:e1:30:e8:e9:6e:0c:ad:8f:a7:14:8e:
                    d7:2c:25:9f:05:c3:b3:64:a3:8e:f5:5f:fd:0c:f2:
                    02:2b:64:2b:c9:0b:fa:95:4e:fc:5d:af:35:08:56:
                    2c:15:9d:3e:fa:0e:df:4b:62:48:55:72:a5:1d:c1:
                    85:51:4d:12:cb:21:e7:11:2e:41:c9:9d:0c:31:5d:
                    8c:6b:fb:bb:4b:74:ad:f8:25:15:23:81:12:b8:13:
                    fc:9a:49:36:44:ed:5a:92:ee:4e:49:c3:73:49:0a:
                    92:fa:ac:98:88:2c:c0:76:00:54:a9:5b:3a:b2:f2:
                    19:a5:13:2d:14:c1:df:aa:24:7d:c7:52:bd:c3:32:
                    54:a1:b4:5d:11:6d:14:e9:41:b4:74:d4:22:ba:33:
                    cb:00:ba:2d:57:17:4c:16:74:89:a9:8a:58:fe:73:
                    a2:f8:98:a0:a1:dc:83:27:be:98:79:61:06:13:c5:
                    bb:2e:da:17:84:30:2c:a1:0f:93:59:9d:4d:5e:a1:
                    6f:19
                Exponent: 65537 (0x10001)
        X509v3 extensions:
            X509v3 Basic Constraints: critical
                CA:FALSE
            X509v3 Key Usage: 
                Digital Signature, Key Encipherment, Key Agreement
            X509v3 Subject Key Identifier: 
                AA:12:DF:7C:4D:00:DE:B5:97:C5:96:B3:FC:B0:BF:B3:52:F6:D0:2A
            X509v3 Authority Key Identifier: 
                keyid:22:20:0D:51:40:61:42:BE:DD:BA:D9:C9:C1:77:B6:93:28:C3:99:EC
                DirName:/C=CH/ST=Thurgau/L=Kefikon/O=guengel.ch/CN=CA 2022/emailAddress=postmaster@guengel.ch
                serial:6D:29:90:54:E9:17:E9:C2:6A:E6:52:AD:84:4E:30:8E:6E:57:FB:1C

            Netscape Cert Type: 
                SSL Client, SSL Server
            X509v3 Extended Key Usage: 
                TLS Web Server Authentication, TLS Web Client Authentication
            X509v3 Subject Alternative Name: 
                DNS:viking.kruemel.home
    Signature Algorithm: sha256WithRSAEncryption
         3e:58:f4:18:9f:ba:fd:59:6f:30:c1:1c:e5:19:f1:c1:cd:c8:
         71:12:2c:3a:c1:cf:20:78:de:85:d7:c4:cc:66:ea:cf:23:d7:
         77:ac:99:de:c0:a9:67:96:d8:40:93:9a:de:9d:e2:a3:41:b9:
         8f:44:4a:d0:04:a2:1e:34:26:0e:c1:dd:13:f6:3b:26:f9:17:
         c3:bc:0c:dc:e5:d2:2f:65:47:da:26:94:ce:88:4d:ac:e2:ac:
         71:94:7e:30:76:c0:27:87:42:54:33:6d:12:97:4d:66:a6:85:
         6b:1d:42:37:20:b3:33:27:56:b0:4b:ec:e3:7c:fd:36:9e:cf:
         1e:1e:6a:51:2f:50:a8:37:71:c4:f2:b8:64:7b:53:b9:87:77:
         c5:32:13:9e:8f:e0:75:fd:e4:53:55:2b:ef:d9:bf:63:19:c3:
         04:69:23:8e:52:17:86:cc:93:40:b1:f1:c6:22:73:ef:34:8a:
         ce:e5:e1:e5:1b:06:55:e6:39:71:dd:f1:e1:2d:c5:af:30:8d:
         d9:7e:0b:56:b6:98:1d:70:79:5e:43:43:44:33:8c:bb:ad:dd:
         0f:5b:9e:f0:a1:6b:dc:16:2d:4a:34:ce:1b:9b:00:d2:b5:13:
         28:d4:57:b1:65:bb:20:5c:aa:17:2d:74:db:76:aa:2c:5c:47:
         af:91:e8:4a:5f:6a:9d:97:3c:d5:b1:9e:c0:78:d0:b2:89:a7:
         26:ab:ee:1d:44:a8:54:a3:60:05:94:9e:38:f7:70:bd:b0:b2:
         81:47:cc:67:30:68:0e:45:72:a6:03:fe:51:77:cc:e9:ef:89:
         78:8e:57:d3:46:4c:4c:d4:f7:52:da:5e:97:3a:97:81:21:be:
         14:01:11:d0:7f:11:79:b5:37:b1:b3:f9:f5:c2:2c:ef:9d:f9:
         b2:a5:30:5d:87:32:86:58:79:d1:4f:8b:19:b4:0f:fb:f6:5f:
         53:1e:0d:97:f9:81:9c:8c:26:b0:a5:57:65:03:c1:2c:b6:5f:
         5a:c3:92:92:e8:88:2d:e7:c3:f5:75:0b:48:27:15:98:91:88:
         cb:48:c8:ff:81:54:bc:98:ff:25:8e:aa:c1:23:38:3e:28:89:
         60:9a:8a:42:fa:3c:c9:56:22:e7:16:4a:95:ed:b4:f4:4d:d2:
         cd:08:22:d4:83:f8:ae:42:7a:f0:1b:76:55:d3:a0:c3:9a:e3:
         69:a9:e7:43:2d:99:2b:33:ea:32:26:97:2c:f1:db:ad:cd:b0:
         bc:c5:f3:17:a6:b7:ed:8f:a6:59:cb:3a:a6:3b:30:74:2a:86:
         8a:84:53:2c:40:fa:c9:7f:55:a7:30:bb:ec:5d:04:7b:3d:59:
         d8:ad:98:48:3e:b1:e2:2f
-----BEGIN CERTIFICATE-----
MIIF1jCCA76gAwIBAgIULjfKzKCbRagAFFRhF97zoXPFe3IwDQYJKoZIhvcNAQEL
BQAwfjELMAkGA1UEBhMCQ0gxEDAOBgNVBAgTB1RodXJnYXUxEDAOBgNVBAcTB0tl
Zmlrb24xEzARBgNVBAoTCmd1ZW5nZWwuY2gxEDAOBgNVBAMTB0NBIDIwMjIxJDAi
BgkqhkiG9w0BCQEWFXBvc3RtYXN0ZXJAZ3VlbmdlbC5jaDAeFw0yMjAyMjIxODM4
NDdaFw0yMzAzMjkxODM4NDdaMHgxCzAJBgNVBAYTAkNIMRAwDgYDVQQIEwdUaHVy
Z2F1MRMwEQYDVQQKEwpndWVuZ2VsLmNoMRwwGgYDVQQDExN2aWtpbmcua3J1ZW1l
bC5ob21lMSQwIgYJKoZIhvcNAQkBFhVwb3N0bWFzdGVyQGd1ZW5nZWwuY2gwggEi
MA0GCSqGSIb3DQEBAQUAA4IBDwAwggEKAoIBAQDV+YxgNuITN/t+Ybtv8fSyiwP1
ShpAX2b//JWv79tz/xMjqrWodmh7pCXRHk/1vB+Bf1/Xl5BRq6LI9yLxcxThMOjp
bgytj6cUjtcsJZ8Fw7Nko471X/0M8gIrZCvJC/qVTvxdrzUIViwVnT76Dt9LYkhV
cqUdwYVRTRLLIecRLkHJnQwxXYxr+7tLdK34JRUjgRK4E/yaSTZE7VqS7k5Jw3NJ
CpL6rJiILMB2AFSpWzqy8hmlEy0Uwd+qJH3HUr3DMlShtF0RbRTpQbR01CK6M8sA
ui1XF0wWdImpilj+c6L4mKCh3IMnvph5YQYTxbsu2heEMCyhD5NZnU1eoW8ZAgMB
AAGjggFQMIIBTDAMBgNVHRMBAf8EAjAAMAsGA1UdDwQEAwIDqDAdBgNVHQ4EFgQU
qhLffE0A3rWXxZaz/LC/s1L20Cowgb0GA1UdIwSBtTCBsoAUIiANUUBhQr7dutnJ
wXe2kyjDmeyhgYOkgYAwfjELMAkGA1UEBhMCQ0gxEDAOBgNVBAgTB1RodXJnYXUx
EDAOBgNVBAcTB0tlZmlrb24xEzARBgNVBAoTCmd1ZW5nZWwuY2gxEDAOBgNVBAMT
B0NBIDIwMjIxJDAiBgkqhkiG9w0BCQEWFXBvc3RtYXN0ZXJAZ3VlbmdlbC5jaIIU
bSmQVOkX6cJq5lKthE4wjm5X+xwwEQYJYIZIAYb4QgEBBAQDAgbAMB0GA1UdJQQW
MBQGCCsGAQUFBwMBBggrBgEFBQcDAjAeBgNVHREEFzAVghN2aWtpbmcua3J1ZW1l
bC5ob21lMA0GCSqGSIb3DQEBCwUAA4ICAQA+WPQYn7r9WW8wwRzlGfHBzchxEiw6
wc8geN6F18TMZurPI9d3rJnewKlnlthAk5reneKjQbmPRErQBKIeNCYOwd0T9jsm
+RfDvAzc5dIvZUfaJpTOiE2s4qxxlH4wdsAnh0JUM20Sl01mpoVrHUI3ILMzJ1aw
S+zjfP02ns8eHmpRL1CoN3HE8rhke1O5h3fFMhOej+B1/eRTVSvv2b9jGcMEaSOO
UheGzJNAsfHGInPvNIrO5eHlGwZV5jlx3fHhLcWvMI3ZfgtWtpgdcHleQ0NEM4y7
rd0PW57woWvcFi1KNM4bmwDStRMo1FexZbsgXKoXLXTbdqosXEevkehKX2qdlzzV
sZ7AeNCyiacmq+4dRKhUo2AFlJ4493C9sLKBR8xnMGgORXKmA/5Rd8zp74l4jlfT
RkxM1PdS2l6XOpeBIb4UARHQfxF5tTexs/n1wizvnfmypTBdhzKGWHnRT4sZtA/7
9l9THg2X+YGcjCawpVdlA8Estl9aw5KS6Igt58P1dQtIJxWYkYjLSMj/gVS8mP8l
jqrBIzg+KIlgmopC+jzJViLnFkqV7bT0TdLNCCLUg/iuQnrwG3ZV06DDmuNpqedD
LZkrM+oyJpcs8dutzbC8xfMXprftj6ZZyzqmOzB0KoaKhFMsQPrJf1WnMLvsXQR7
PVnYrZhIPrHiLw==
-----END CERTIFICATE-----
