Certificate:
    Data:
        Version: 3 (0x2)
        Serial Number: 356 (0x164)
    Signature Algorithm: sha256WithRSAEncryption
        Issuer: C=CH, ST=Thurgau, L=Kefikon, O=guengel.ch, CN=CA guengel.ch/emailAddress=postmaster@guengel.ch
        Validity
            Not Before: Dec 29 14:40:05 2018 GMT
            Not After : Feb  2 14:40:05 2020 GMT
        Subject: C=CH, ST=Thurgau, O=guengel.ch, CN=viking.kruemel.home/emailAddress=postmaster@guengel.ch
        Subject Public Key Info:
            Public Key Algorithm: rsaEncryption
                Public-Key: (2048 bit)
                Modulus:
                    00:d8:d2:fc:65:4a:0f:9a:52:07:c4:82:fb:40:c0:
                    dc:11:c8:f8:6c:47:06:74:69:a8:f5:e7:6c:98:6a:
                    53:79:9c:b8:5d:d2:3e:bf:11:41:01:4c:98:a3:48:
                    99:03:54:b3:bc:b6:9e:c0:a7:2b:c8:0b:d6:2b:e3:
                    88:ee:19:02:79:19:35:9e:b9:e0:63:72:81:a8:9f:
                    6a:c4:84:6b:4c:08:ff:75:08:6f:49:62:fa:80:ac:
                    92:f2:8a:d5:fb:33:37:4d:92:36:ff:f9:20:66:9a:
                    29:8b:54:32:20:57:8d:1c:c3:11:87:05:3e:04:01:
                    01:99:b0:38:aa:d3:7c:5e:c9:90:09:33:33:32:45:
                    df:86:83:f1:84:6a:a9:be:6e:15:4c:64:f8:09:07:
                    a8:6b:72:55:f9:13:31:2d:75:87:69:bf:89:ea:17:
                    78:2b:02:7e:f2:ad:86:91:de:35:27:a4:08:44:d4:
                    f7:63:6b:4a:6a:77:0c:de:9b:72:14:48:73:09:f0:
                    5d:aa:1f:29:ca:62:da:52:5c:22:ec:33:f6:7d:36:
                    c0:3f:f2:1c:f9:0c:ba:7d:1d:cd:4e:2f:de:62:ad:
                    1e:4a:7e:0e:ba:20:0b:93:6c:6a:2f:d7:b4:04:e3:
                    44:e6:59:e0:46:7e:6b:37:8e:a6:33:59:8d:bd:21:
                    ef:23
                Exponent: 65537 (0x10001)
        X509v3 extensions:
            X509v3 Basic Constraints: 
                CA:FALSE
            Netscape Comment: 
                OpenSSL Generated Certificate
            X509v3 Subject Key Identifier: 
                7E:93:A2:AB:64:5C:62:E6:63:3C:41:6E:DF:08:83:A2:34:8F:35:42
            X509v3 Authority Key Identifier: 
                keyid:D6:88:F1:AA:C1:2B:09:8C:B8:5C:9D:CE:DF:57:39:62:26:10:20:90
                DirName:/C=CH/ST=Thurgau/L=Kefikon/O=guengel.ch/CN=CA guengel.ch/emailAddress=postmaster@guengel.ch
                serial:E5:25:3B:A6:77:BD:CB:FF

    Signature Algorithm: sha256WithRSAEncryption
         2c:61:8f:93:de:29:80:8a:33:dc:5d:45:a9:79:55:60:79:4c:
         40:32:62:b9:84:a6:57:16:93:ab:c2:36:a0:09:e4:92:0d:28:
         3e:4f:a8:84:93:2a:16:09:3b:ac:d3:63:a4:ac:09:5d:72:60:
         f4:be:5d:8d:ce:df:e3:5b:f9:7b:87:78:98:30:2b:ea:90:4c:
         2c:b1:6f:6a:03:f5:dd:86:26:c8:bd:8e:b1:ce:d0:6a:f3:a1:
         82:06:e7:a8:2d:14:98:8c:9d:e0:49:d3:c8:9b:af:d2:0a:3a:
         a6:e8:59:48:99:f9:76:e5:25:a5:c0:97:d6:8e:d3:26:51:37:
         39:83:92:7e:7e:f6:35:77:49:b7:dc:89:66:ba:8b:1e:d5:bc:
         03:93:18:73:97:72:17:04:40:87:a5:f4:85:86:53:a0:a2:af:
         09:73:f9:99:2f:da:59:4b:03:4e:73:b0:61:91:ee:3b:bb:52:
         c4:7b:c3:20:43:14:cd:ac:99:f3:27:4a:34:a8:d4:5f:95:1b:
         1e:59:7d:58:f1:80:b7:95:5c:fa:b6:27:92:91:d1:4b:cc:90:
         1e:58:33:16:8c:1a:f1:ac:c6:a1:21:49:6e:b2:94:68:57:91:
         47:59:97:aa:f0:09:39:83:ae:bf:a2:91:58:6c:cb:45:7f:b5:
         46:25:71:36:24:7f:82:4a:f1:c6:0d:dd:73:1a:c3:f1:7c:83:
         93:b6:82:b3:b5:43:be:a7:46:1c:6b:91:96:02:45:a9:44:75:
         1e:71:06:7b:ae:88:e1:c6:2a:6d:d1:c7:ae:3d:24:8f:ee:86:
         69:65:3c:94:c3:6b:05:b8:e2:11:b2:6c:7e:a2:3a:61:6b:9b:
         9d:bf:6c:af:3e:98:64:b5:94:71:01:8c:be:6b:31:0f:c1:ad:
         81:d6:76:12:d9:9e:f7:7c:98:38:f9:3c:a3:3d:de:a0:db:24:
         c1:de:43:b2:84:c6:48:28:7d:47:e4:8e:43:66:52:62:e7:b8:
         c4:49:9a:ab:df:8e:8b:60:9d:ba:45:68:83:3e:62:cf:e4:69:
         4e:4c:5c:f6:6c:05:19:15:34:11:0c:d6:7e:3a:46:60:fa:b0:
         07:79:6d:8e:0a:ff:dc:e2:38:61:2c:3f:c5:1e:dc:76:ae:b5:
         66:9d:4c:ac:9b:1f:db:12:ee:8a:b3:c7:bc:d7:83:03:ee:c6:
         3b:9e:33:72:c3:b3:92:63:c2:40:8f:c2:0b:d9:89:62:5c:c4:
         32:80:32:90:69:97:f6:3c:39:41:2a:2d:a9:ee:7a:ef:1b:3f:
         03:0f:20:18:90:b9:cd:dd:19:a6:ad:99:9b:60:fb:9e:af:60:
         5c:01:a2:2c:e5:90:4a:a9
-----BEGIN CERTIFICATE-----
MIIFkzCCA3ugAwIBAgICAWQwDQYJKoZIhvcNAQELBQAwgYQxCzAJBgNVBAYTAkNI
MRAwDgYDVQQIEwdUaHVyZ2F1MRAwDgYDVQQHEwdLZWZpa29uMRMwEQYDVQQKEwpn
dWVuZ2VsLmNoMRYwFAYDVQQDEw1DQSBndWVuZ2VsLmNoMSQwIgYJKoZIhvcNAQkB
FhVwb3N0bWFzdGVyQGd1ZW5nZWwuY2gwHhcNMTgxMjI5MTQ0MDA1WhcNMjAwMjAy
MTQ0MDA1WjB4MQswCQYDVQQGEwJDSDEQMA4GA1UECBMHVGh1cmdhdTETMBEGA1UE
ChMKZ3VlbmdlbC5jaDEcMBoGA1UEAxMTdmlraW5nLmtydWVtZWwuaG9tZTEkMCIG
CSqGSIb3DQEJARYVcG9zdG1hc3RlckBndWVuZ2VsLmNoMIIBIjANBgkqhkiG9w0B
AQEFAAOCAQ8AMIIBCgKCAQEA2NL8ZUoPmlIHxIL7QMDcEcj4bEcGdGmo9edsmGpT
eZy4XdI+vxFBAUyYo0iZA1SzvLaewKcryAvWK+OI7hkCeRk1nrngY3KBqJ9qxIRr
TAj/dQhvSWL6gKyS8orV+zM3TZI2//kgZpopi1QyIFeNHMMRhwU+BAEBmbA4qtN8
XsmQCTMzMkXfhoPxhGqpvm4VTGT4CQeoa3JV+RMxLXWHab+J6hd4KwJ+8q2Gkd41
J6QIRNT3Y2tKancM3ptyFEhzCfBdqh8pymLaUlwi7DP2fTbAP/Ic+Qy6fR3NTi/e
Yq0eSn4OuiALk2xqL9e0BONE5lngRn5rN46mM1mNvSHvIwIDAQABo4IBGDCCARQw
CQYDVR0TBAIwADAsBglghkgBhvhCAQ0EHxYdT3BlblNTTCBHZW5lcmF0ZWQgQ2Vy
dGlmaWNhdGUwHQYDVR0OBBYEFH6ToqtkXGLmYzxBbt8Ig6I0jzVCMIG5BgNVHSME
gbEwga6AFNaI8arBKwmMuFydzt9XOWImECCQoYGKpIGHMIGEMQswCQYDVQQGEwJD
SDEQMA4GA1UECBMHVGh1cmdhdTEQMA4GA1UEBxMHS2VmaWtvbjETMBEGA1UEChMK
Z3VlbmdlbC5jaDEWMBQGA1UEAxMNQ0EgZ3VlbmdlbC5jaDEkMCIGCSqGSIb3DQEJ
ARYVcG9zdG1hc3RlckBndWVuZ2VsLmNoggkA5SU7pne9y/8wDQYJKoZIhvcNAQEL
BQADggIBACxhj5PeKYCKM9xdRal5VWB5TEAyYrmEplcWk6vCNqAJ5JINKD5PqIST
KhYJO6zTY6SsCV1yYPS+XY3O3+Nb+XuHeJgwK+qQTCyxb2oD9d2GJsi9jrHO0Grz
oYIG56gtFJiMneBJ08ibr9IKOqboWUiZ+XblJaXAl9aO0yZRNzmDkn5+9jV3Sbfc
iWa6ix7VvAOTGHOXchcEQIel9IWGU6Cirwlz+Zkv2llLA05zsGGR7ju7UsR7wyBD
FM2smfMnSjSo1F+VGx5ZfVjxgLeVXPq2J5KR0UvMkB5YMxaMGvGsxqEhSW6ylGhX
kUdZl6rwCTmDrr+ikVhsy0V/tUYlcTYkf4JK8cYN3XMaw/F8g5O2grO1Q76nRhxr
kZYCRalEdR5xBnuuiOHGKm3Rx649JI/uhmllPJTDawW44hGybH6iOmFrm52/bK8+
mGS1lHEBjL5rMQ/BrYHWdhLZnvd8mDj5PKM93qDbJMHeQ7KExkgofUfkjkNmUmLn
uMRJmqvfjotgnbpFaIM+Ys/kaU5MXPZsBRkVNBEM1n46RmD6sAd5bY4K/9ziOGEs
P8Ue3HautWadTKybH9sS7oqzx7zXgwPuxjueM3LDs5JjwkCPwgvZiWJcxDKAMpBp
l/Y8OUEqLanueu8bPwMPIBiQuc3dGaatmZtg+56vYFwBoizlkEqp
-----END CERTIFICATE-----
