Certificate:
    Data:
        Version: 3 (0x2)
        Serial Number:
            54:d1:95:d2:bb:cc:23:82:3d:7b:48:d3:1b:56:2b:08:9b:f0:51:3d
        Signature Algorithm: sha256WithRSAEncryption
        Issuer: C=CH, ST=Thurgau, L=Kefikon, O=guengel.ch, CN=CA 2022/emailAddress=postmaster@guengel.ch
        Validity
            Not Before: Feb 28 06:43:07 2023 GMT
            Not After : Apr  3 06:43:07 2024 GMT
        Subject: C=CH, ST=Thurgau, O=guengel.ch, CN=viking.kruemel.home/emailAddress=postmaster@guengel.ch
        Subject Public Key Info:
            Public Key Algorithm: rsaEncryption
                RSA Public-Key: (2048 bit)
                Modulus:
                    00:d5:f9:8c:60:36:e2:13:37:fb:7e:61:bb:6f:f1:
                    f4:b2:8b:03:f5:4a:1a:40:5f:66:ff:fc:95:af:ef:
                    db:73:ff:13:23:aa:b5:a8:76:68:7b:a4:25:d1:1e:
                    4f:f5:bc:1f:81:7f:5f:d7:97:90:51:ab:a2:c8:f7:
                    22:f1:73:14:e1:30:e8:e9:6e:0c:ad:8f:a7:14:8e:
                    d7:2c:25:9f:05:c3:b3:64:a3:8e:f5:5f:fd:0c:f2:
                    02:2b:64:2b:c9:0b:fa:95:4e:fc:5d:af:35:08:56:
                    2c:15:9d:3e:fa:0e:df:4b:62:48:55:72:a5:1d:c1:
                    85:51:4d:12:cb:21:e7:11:2e:41:c9:9d:0c:31:5d:
                    8c:6b:fb:bb:4b:74:ad:f8:25:15:23:81:12:b8:13:
                    fc:9a:49:36:44:ed:5a:92:ee:4e:49:c3:73:49:0a:
                    92:fa:ac:98:88:2c:c0:76:00:54:a9:5b:3a:b2:f2:
                    19:a5:13:2d:14:c1:df:aa:24:7d:c7:52:bd:c3:32:
                    54:a1:b4:5d:11:6d:14:e9:41:b4:74:d4:22:ba:33:
                    cb:00:ba:2d:57:17:4c:16:74:89:a9:8a:58:fe:73:
                    a2:f8:98:a0:a1:dc:83:27:be:98:79:61:06:13:c5:
                    bb:2e:da:17:84:30:2c:a1:0f:93:59:9d:4d:5e:a1:
                    6f:19
                Exponent: 65537 (0x10001)
        X509v3 extensions:
            X509v3 Basic Constraints: critical
                CA:FALSE
            X509v3 Key Usage: 
                Digital Signature, Key Encipherment, Key Agreement
            X509v3 Subject Key Identifier: 
                AA:12:DF:7C:4D:00:DE:B5:97:C5:96:B3:FC:B0:BF:B3:52:F6:D0:2A
            X509v3 Authority Key Identifier: 
                keyid:22:20:0D:51:40:61:42:BE:DD:BA:D9:C9:C1:77:B6:93:28:C3:99:EC
                DirName:/C=CH/ST=Thurgau/L=Kefikon/O=guengel.ch/CN=CA 2022/emailAddress=postmaster@guengel.ch
                serial:6D:29:90:54:E9:17:E9:C2:6A:E6:52:AD:84:4E:30:8E:6E:57:FB:1C

            Netscape Cert Type: 
                SSL Client, SSL Server
            X509v3 Extended Key Usage: 
                TLS Web Server Authentication, TLS Web Client Authentication
            X509v3 Subject Alternative Name: 
                DNS:viking.kruemel.home
    Signature Algorithm: sha256WithRSAEncryption
         66:37:71:88:ab:d9:ca:a1:58:9a:ea:c3:e1:8d:03:8a:e5:c7:
         66:be:c7:85:56:94:a7:1b:59:f3:8c:31:87:79:f4:81:ab:c2:
         0c:8c:8f:be:f9:eb:b8:87:f2:d5:72:80:f3:fb:3f:2a:f3:cd:
         47:a4:9d:3d:c3:e1:2b:3a:d7:55:20:4f:2e:92:cd:ea:43:f2:
         08:2d:24:52:c8:ae:ae:b2:79:85:fa:2e:73:69:90:25:b0:1f:
         b1:a3:2f:84:aa:68:6c:bb:8c:69:90:4e:24:b1:4e:dd:9e:71:
         cc:45:8e:6f:51:27:b8:be:61:b9:8e:33:c0:98:98:84:3c:97:
         27:b5:0b:5f:e0:d4:b8:ec:cd:7a:ad:66:7a:1d:30:a6:2f:88:
         ae:13:47:9e:38:08:04:d9:59:d1:50:af:db:e7:5b:14:bf:89:
         f1:fa:48:38:23:7a:85:2d:f4:f1:34:2d:b2:3b:f0:26:aa:a5:
         5a:35:a1:9f:be:3f:47:e6:8f:ea:42:d1:4e:af:34:26:54:1e:
         f6:3f:b7:9c:d4:9d:33:e5:53:5e:5b:55:a7:81:e7:01:78:1b:
         15:49:7e:fd:b5:45:d1:a9:ca:5f:10:18:e2:65:79:c5:42:7d:
         fb:cf:b9:bc:3c:15:e2:70:57:2d:8e:5d:75:72:ef:10:11:f4:
         d4:dd:de:bc:6f:4a:c1:6d:78:0f:13:da:ca:a5:2a:f8:ca:89:
         a0:2f:3c:95:eb:0c:fe:a9:62:04:82:43:7e:3c:d7:d5:79:83:
         a5:a7:af:49:0d:17:b1:30:40:29:0e:43:05:a2:c3:35:4d:a6:
         24:f3:64:21:3e:36:e5:5c:6b:77:2c:8a:23:92:ad:20:e6:5d:
         65:0a:00:2b:6e:94:f8:4f:c7:3a:0f:bb:2e:9d:46:60:a0:88:
         fe:c5:28:cf:ee:dd:d5:6d:7e:65:0f:61:3e:a3:87:3a:b7:66:
         df:ad:f7:28:38:0b:f9:c3:c7:0d:3c:e0:d0:bd:1c:3c:cb:15:
         01:f4:06:e2:b9:11:9c:ae:45:da:04:cb:78:e3:0a:19:25:71:
         b8:ae:9f:a4:8c:bb:aa:8c:72:a0:61:5a:82:56:71:71:01:87:
         64:e4:d3:99:19:fd:0a:a0:fd:fc:a9:45:f0:cb:22:7f:e8:20:
         07:cd:84:90:b9:78:e5:87:c8:c6:27:93:d6:dd:32:9d:b7:bd:
         2d:8f:d4:ab:da:a8:3f:5a:50:37:6f:0b:97:12:6a:1d:60:09:
         77:97:12:07:5a:71:f4:a5:63:81:d2:0a:b8:5b:64:d1:53:8a:
         30:33:e4:4e:9b:fc:2b:e4:df:f4:e5:7e:01:1e:9d:3b:91:62:
         01:53:27:ff:94:f6:e1:ae
-----BEGIN CERTIFICATE-----
MIIF1jCCA76gAwIBAgIUVNGV0rvMI4I9e0jTG1YrCJvwUT0wDQYJKoZIhvcNAQEL
BQAwfjELMAkGA1UEBhMCQ0gxEDAOBgNVBAgTB1RodXJnYXUxEDAOBgNVBAcTB0tl
Zmlrb24xEzARBgNVBAoTCmd1ZW5nZWwuY2gxEDAOBgNVBAMTB0NBIDIwMjIxJDAi
BgkqhkiG9w0BCQEWFXBvc3RtYXN0ZXJAZ3VlbmdlbC5jaDAeFw0yMzAyMjgwNjQz
MDdaFw0yNDA0MDMwNjQzMDdaMHgxCzAJBgNVBAYTAkNIMRAwDgYDVQQIEwdUaHVy
Z2F1MRMwEQYDVQQKEwpndWVuZ2VsLmNoMRwwGgYDVQQDExN2aWtpbmcua3J1ZW1l
bC5ob21lMSQwIgYJKoZIhvcNAQkBFhVwb3N0bWFzdGVyQGd1ZW5nZWwuY2gwggEi
MA0GCSqGSIb3DQEBAQUAA4IBDwAwggEKAoIBAQDV+YxgNuITN/t+Ybtv8fSyiwP1
ShpAX2b//JWv79tz/xMjqrWodmh7pCXRHk/1vB+Bf1/Xl5BRq6LI9yLxcxThMOjp
bgytj6cUjtcsJZ8Fw7Nko471X/0M8gIrZCvJC/qVTvxdrzUIViwVnT76Dt9LYkhV
cqUdwYVRTRLLIecRLkHJnQwxXYxr+7tLdK34JRUjgRK4E/yaSTZE7VqS7k5Jw3NJ
CpL6rJiILMB2AFSpWzqy8hmlEy0Uwd+qJH3HUr3DMlShtF0RbRTpQbR01CK6M8sA
ui1XF0wWdImpilj+c6L4mKCh3IMnvph5YQYTxbsu2heEMCyhD5NZnU1eoW8ZAgMB
AAGjggFQMIIBTDAMBgNVHRMBAf8EAjAAMAsGA1UdDwQEAwIDqDAdBgNVHQ4EFgQU
qhLffE0A3rWXxZaz/LC/s1L20Cowgb0GA1UdIwSBtTCBsoAUIiANUUBhQr7dutnJ
wXe2kyjDmeyhgYOkgYAwfjELMAkGA1UEBhMCQ0gxEDAOBgNVBAgTB1RodXJnYXUx
EDAOBgNVBAcTB0tlZmlrb24xEzARBgNVBAoTCmd1ZW5nZWwuY2gxEDAOBgNVBAMT
B0NBIDIwMjIxJDAiBgkqhkiG9w0BCQEWFXBvc3RtYXN0ZXJAZ3VlbmdlbC5jaIIU
bSmQVOkX6cJq5lKthE4wjm5X+xwwEQYJYIZIAYb4QgEBBAQDAgbAMB0GA1UdJQQW
MBQGCCsGAQUFBwMBBggrBgEFBQcDAjAeBgNVHREEFzAVghN2aWtpbmcua3J1ZW1l
bC5ob21lMA0GCSqGSIb3DQEBCwUAA4ICAQBmN3GIq9nKoVia6sPhjQOK5cdmvseF
VpSnG1nzjDGHefSBq8IMjI+++eu4h/LVcoDz+z8q881HpJ09w+ErOtdVIE8uks3q
Q/IILSRSyK6usnmF+i5zaZAlsB+xoy+Eqmhsu4xpkE4ksU7dnnHMRY5vUSe4vmG5
jjPAmJiEPJcntQtf4NS47M16rWZ6HTCmL4iuE0eeOAgE2VnRUK/b51sUv4nx+kg4
I3qFLfTxNC2yO/AmqqVaNaGfvj9H5o/qQtFOrzQmVB72P7ec1J0z5VNeW1WngecB
eBsVSX79tUXRqcpfEBjiZXnFQn37z7m8PBXicFctjl11cu8QEfTU3d68b0rBbXgP
E9rKpSr4yomgLzyV6wz+qWIEgkN+PNfVeYOlp69JDRexMEApDkMFosM1TaYk82Qh
PjblXGt3LIojkq0g5l1lCgArbpT4T8c6D7sunUZgoIj+xSjP7t3VbX5lD2E+o4c6
t2bfrfcoOAv5w8cNPODQvRw8yxUB9AbiuRGcrkXaBMt44woZJXG4rp+kjLuqjHKg
YVqCVnFxAYdk5NOZGf0KoP38qUXwyyJ/6CAHzYSQuXjlh8jGJ5PW3TKdt70tj9Sr
2qg/WlA3bwuXEmodYAl3lxIHWnH0pWOB0gq4W2TRU4owM+ROm/wr5N/05X4BHp07
kWIBUyf/lPbhrg==
-----END CERTIFICATE-----
