Certificate:
    Data:
        Version: 3 (0x2)
        Serial Number: 317 (0x13d)
    Signature Algorithm: sha256WithRSAEncryption
        Issuer: C=CH, ST=Thurgau, L=Kefikon, O=guengel.ch, CN=CA guengel.ch/emailAddress=postmaster@guengel.ch
        Validity
            Not Before: Jan  6 18:03:01 2018 GMT
            Not After : Feb 10 18:03:01 2019 GMT
        Subject: C=CH, ST=Thurgau, O=guengel.ch, CN=viking.kruemel.home/emailAddress=postmaster@guengel.ch
        Subject Public Key Info:
            Public Key Algorithm: rsaEncryption
                Public-Key: (2048 bit)
                Modulus:
                    00:d8:d2:fc:65:4a:0f:9a:52:07:c4:82:fb:40:c0:
                    dc:11:c8:f8:6c:47:06:74:69:a8:f5:e7:6c:98:6a:
                    53:79:9c:b8:5d:d2:3e:bf:11:41:01:4c:98:a3:48:
                    99:03:54:b3:bc:b6:9e:c0:a7:2b:c8:0b:d6:2b:e3:
                    88:ee:19:02:79:19:35:9e:b9:e0:63:72:81:a8:9f:
                    6a:c4:84:6b:4c:08:ff:75:08:6f:49:62:fa:80:ac:
                    92:f2:8a:d5:fb:33:37:4d:92:36:ff:f9:20:66:9a:
                    29:8b:54:32:20:57:8d:1c:c3:11:87:05:3e:04:01:
                    01:99:b0:38:aa:d3:7c:5e:c9:90:09:33:33:32:45:
                    df:86:83:f1:84:6a:a9:be:6e:15:4c:64:f8:09:07:
                    a8:6b:72:55:f9:13:31:2d:75:87:69:bf:89:ea:17:
                    78:2b:02:7e:f2:ad:86:91:de:35:27:a4:08:44:d4:
                    f7:63:6b:4a:6a:77:0c:de:9b:72:14:48:73:09:f0:
                    5d:aa:1f:29:ca:62:da:52:5c:22:ec:33:f6:7d:36:
                    c0:3f:f2:1c:f9:0c:ba:7d:1d:cd:4e:2f:de:62:ad:
                    1e:4a:7e:0e:ba:20:0b:93:6c:6a:2f:d7:b4:04:e3:
                    44:e6:59:e0:46:7e:6b:37:8e:a6:33:59:8d:bd:21:
                    ef:23
                Exponent: 65537 (0x10001)
        X509v3 extensions:
            X509v3 Basic Constraints: 
                CA:FALSE
            Netscape Comment: 
                OpenSSL Generated Certificate
            X509v3 Subject Key Identifier: 
                7E:93:A2:AB:64:5C:62:E6:63:3C:41:6E:DF:08:83:A2:34:8F:35:42
            X509v3 Authority Key Identifier: 
                keyid:D6:88:F1:AA:C1:2B:09:8C:B8:5C:9D:CE:DF:57:39:62:26:10:20:90
                DirName:/C=CH/ST=Thurgau/L=Kefikon/O=guengel.ch/CN=CA guengel.ch/emailAddress=postmaster@guengel.ch
                serial:E5:25:3B:A6:77:BD:CB:FF

    Signature Algorithm: sha256WithRSAEncryption
         b7:0e:0e:2b:d2:bc:dd:86:87:96:38:ae:7b:01:19:ae:6c:cf:
         af:d5:9d:80:51:7c:d3:3c:ff:60:89:3b:11:07:cf:a7:b7:c7:
         c5:62:26:27:93:0f:37:0b:7c:d2:9c:2f:6e:f0:52:30:85:4a:
         92:d9:90:24:26:f7:b2:e0:fc:11:94:5e:9a:83:9a:88:c6:ee:
         76:6d:d0:29:c4:2f:8b:fa:99:99:cf:86:62:e9:59:0a:ef:2b:
         d6:e8:d4:38:dc:ce:dc:e3:5b:89:42:83:ab:83:3e:b2:09:85:
         5e:5f:48:f3:09:59:5c:30:34:90:3e:d9:c1:c0:27:78:d3:b4:
         1d:f7:3a:4d:5e:05:c5:28:83:c1:0b:1b:8f:33:96:d3:2a:26:
         57:2c:db:aa:1b:17:8e:c5:d3:b8:2e:48:25:aa:e3:b7:2c:a7:
         77:54:24:2e:41:ab:5b:ec:0a:d6:45:a3:01:97:a7:ff:c9:61:
         7f:b0:d8:9f:f1:72:de:08:5f:fd:d3:12:b9:6d:84:de:06:35:
         18:40:14:33:24:b0:52:8c:ff:0a:1a:0c:a0:e0:c4:b4:81:31:
         8e:09:00:48:7e:7c:5c:d0:e3:c8:23:83:d0:6a:b6:8c:3a:66:
         5d:47:9f:d1:05:9e:f8:e4:da:27:f8:d3:52:0b:23:21:2d:80:
         7f:b4:c3:67:7f:67:e8:25:1b:33:82:84:3b:76:3e:52:ba:49:
         c6:13:a0:30:4c:ed:ce:c9:0c:66:d4:4f:16:e7:c8:8e:e9:16:
         c9:dc:b2:35:a0:43:3e:fa:c1:ca:43:d2:bb:ed:ab:f1:5f:6b:
         b0:ad:dd:d1:05:bc:ce:9c:3c:6a:2c:3a:ed:6f:ce:5e:dd:48:
         43:d1:a4:94:ba:71:6d:06:94:a2:db:51:fe:b8:f0:78:06:6c:
         3e:28:8a:c3:96:cc:18:49:9e:af:2e:b4:41:50:69:d6:7a:50:
         18:e2:ad:9c:f6:3d:ce:88:fa:e1:8e:1a:6b:cf:91:39:a4:42:
         5c:3a:e6:21:33:42:60:bd:2c:c3:99:7b:73:e9:e6:4a:df:64:
         a7:67:d4:55:f4:12:01:87:48:d7:3b:d4:b7:c0:cf:90:7b:91:
         d9:11:ef:3e:1a:11:ff:6a:bd:3b:5c:15:ed:c5:89:0a:25:0d:
         c1:89:62:19:06:0e:ba:0f:84:3b:82:68:d9:b5:b9:91:2b:0c:
         8e:4e:75:27:10:77:7c:d3:ec:9f:6c:b6:4d:5c:e9:4d:ac:f6:
         5d:a0:86:0e:af:20:7f:70:c7:a5:54:34:df:9f:5c:ec:52:1c:
         89:47:1e:c9:8a:9d:d1:d2:a9:66:cf:41:bc:12:f6:16:83:e9:
         c1:5c:d1:54:57:99:19:23
-----BEGIN CERTIFICATE-----
MIIFkzCCA3ugAwIBAgICAT0wDQYJKoZIhvcNAQELBQAwgYQxCzAJBgNVBAYTAkNI
MRAwDgYDVQQIEwdUaHVyZ2F1MRAwDgYDVQQHEwdLZWZpa29uMRMwEQYDVQQKEwpn
dWVuZ2VsLmNoMRYwFAYDVQQDEw1DQSBndWVuZ2VsLmNoMSQwIgYJKoZIhvcNAQkB
FhVwb3N0bWFzdGVyQGd1ZW5nZWwuY2gwHhcNMTgwMTA2MTgwMzAxWhcNMTkwMjEw
MTgwMzAxWjB4MQswCQYDVQQGEwJDSDEQMA4GA1UECBMHVGh1cmdhdTETMBEGA1UE
ChMKZ3VlbmdlbC5jaDEcMBoGA1UEAxMTdmlraW5nLmtydWVtZWwuaG9tZTEkMCIG
CSqGSIb3DQEJARYVcG9zdG1hc3RlckBndWVuZ2VsLmNoMIIBIjANBgkqhkiG9w0B
AQEFAAOCAQ8AMIIBCgKCAQEA2NL8ZUoPmlIHxIL7QMDcEcj4bEcGdGmo9edsmGpT
eZy4XdI+vxFBAUyYo0iZA1SzvLaewKcryAvWK+OI7hkCeRk1nrngY3KBqJ9qxIRr
TAj/dQhvSWL6gKyS8orV+zM3TZI2//kgZpopi1QyIFeNHMMRhwU+BAEBmbA4qtN8
XsmQCTMzMkXfhoPxhGqpvm4VTGT4CQeoa3JV+RMxLXWHab+J6hd4KwJ+8q2Gkd41
J6QIRNT3Y2tKancM3ptyFEhzCfBdqh8pymLaUlwi7DP2fTbAP/Ic+Qy6fR3NTi/e
Yq0eSn4OuiALk2xqL9e0BONE5lngRn5rN46mM1mNvSHvIwIDAQABo4IBGDCCARQw
CQYDVR0TBAIwADAsBglghkgBhvhCAQ0EHxYdT3BlblNTTCBHZW5lcmF0ZWQgQ2Vy
dGlmaWNhdGUwHQYDVR0OBBYEFH6ToqtkXGLmYzxBbt8Ig6I0jzVCMIG5BgNVHSME
gbEwga6AFNaI8arBKwmMuFydzt9XOWImECCQoYGKpIGHMIGEMQswCQYDVQQGEwJD
SDEQMA4GA1UECBMHVGh1cmdhdTEQMA4GA1UEBxMHS2VmaWtvbjETMBEGA1UEChMK
Z3VlbmdlbC5jaDEWMBQGA1UEAxMNQ0EgZ3VlbmdlbC5jaDEkMCIGCSqGSIb3DQEJ
ARYVcG9zdG1hc3RlckBndWVuZ2VsLmNoggkA5SU7pne9y/8wDQYJKoZIhvcNAQEL
BQADggIBALcODivSvN2Gh5Y4rnsBGa5sz6/VnYBRfNM8/2CJOxEHz6e3x8ViJieT
DzcLfNKcL27wUjCFSpLZkCQm97Lg/BGUXpqDmojG7nZt0CnEL4v6mZnPhmLpWQrv
K9bo1DjcztzjW4lCg6uDPrIJhV5fSPMJWVwwNJA+2cHAJ3jTtB33Ok1eBcUog8EL
G48zltMqJlcs26obF47F07guSCWq47csp3dUJC5Bq1vsCtZFowGXp//JYX+w2J/x
ct4IX/3TErlthN4GNRhAFDMksFKM/woaDKDgxLSBMY4JAEh+fFzQ48gjg9Bqtow6
Zl1Hn9EFnvjk2if401ILIyEtgH+0w2d/Z+glGzOChDt2PlK6ScYToDBM7c7JDGbU
TxbnyI7pFsncsjWgQz76wcpD0rvtq/Ffa7Ct3dEFvM6cPGosOu1vzl7dSEPRpJS6
cW0GlKLbUf648HgGbD4oisOWzBhJnq8utEFQadZ6UBjirZz2Pc6I+uGOGmvPkTmk
Qlw65iEzQmC9LMOZe3Pp5krfZKdn1FX0EgGHSNc71LfAz5B7kdkR7z4aEf9qvTtc
Fe3FiQolDcGJYhkGDroPhDuCaNm1uZErDI5OdScQd3zT7J9stk1c6U2s9l2ghg6v
IH9wx6VUNN+fXOxSHIlHHsmKndHSqWbPQbwS9haD6cFc0VRXmRkj
-----END CERTIFICATE-----
