Certificate:
    Data:
        Version: 3 (0x2)
        Serial Number:
            07:24:09:7b:ef:33:67:6b:85:19:5e:4c:d9:2c:58:17:1c:bb:e1:7e
        Signature Algorithm: sha256WithRSAEncryption
        Issuer: C=CH, ST=Thurgau, L=Kefikon, O=guengel.ch, CN=CA 2022/emailAddress=postmaster@guengel.ch
        Validity
            Not Before: Feb 11 14:09:43 2022 GMT
            Not After : Mar 18 14:09:43 2023 GMT
        Subject: C=CH, ST=Thurgau, O=guengel.ch, CN=vpn.guengel.ch/emailAddress=postmaster@guengel.ch
        Subject Public Key Info:
            Public Key Algorithm: rsaEncryption
                RSA Public-Key: (2048 bit)
                Modulus:
                    00:a5:3b:ed:c9:35:1d:fc:b0:a7:b7:13:ab:8c:ac:
                    84:a4:d9:a0:7b:27:95:6e:2e:c5:2e:72:c4:b4:36:
                    18:db:27:d7:59:b7:61:69:ee:33:1b:64:02:d4:3d:
                    b8:b7:df:5b:2a:9d:be:8d:32:3b:b1:0a:da:39:b1:
                    76:e6:e5:b1:b2:44:fb:0d:41:1c:54:74:41:99:dd:
                    bf:65:2d:90:98:68:1c:27:dd:70:f7:f9:b3:2f:b3:
                    6b:51:ee:47:92:2e:7c:4d:9a:5e:6b:8f:dc:16:75:
                    6d:5d:1f:05:43:3f:9a:15:8d:84:d8:0f:25:0f:3d:
                    47:8d:36:f1:ed:86:35:7a:47:af:54:f3:73:cc:e3:
                    6c:65:c5:8d:2e:ce:32:fb:47:ae:68:07:1a:f6:14:
                    ff:22:87:53:40:c8:75:46:99:fd:a5:50:ce:f8:9d:
                    88:7f:8f:67:f4:79:46:40:cb:a3:80:b8:59:a5:89:
                    b7:9e:97:5b:99:d0:82:0a:21:61:9d:c0:55:a0:ae:
                    74:b2:22:fc:f0:3a:5b:4d:e2:37:28:c0:11:37:68:
                    d6:fc:b1:96:79:66:71:26:8f:8a:ab:e5:f6:62:ab:
                    e8:36:e3:2d:e2:d2:8c:52:46:9a:cc:39:66:64:5d:
                    cd:e8:ae:66:7a:72:80:23:c2:d0:98:37:24:2e:ec:
                    2c:e9
                Exponent: 65537 (0x10001)
        X509v3 extensions:
            X509v3 Basic Constraints: critical
                CA:FALSE
            X509v3 Key Usage: 
                Digital Signature, Key Encipherment, Key Agreement
            X509v3 Subject Key Identifier: 
                2F:4E:D0:0E:16:2C:BA:E0:69:9D:B7:2B:7C:6E:05:4C:29:A0:EC:23
            X509v3 Authority Key Identifier: 
                keyid:22:20:0D:51:40:61:42:BE:DD:BA:D9:C9:C1:77:B6:93:28:C3:99:EC
                DirName:/C=CH/ST=Thurgau/L=Kefikon/O=guengel.ch/CN=CA 2022/emailAddress=postmaster@guengel.ch
                serial:6D:29:90:54:E9:17:E9:C2:6A:E6:52:AD:84:4E:30:8E:6E:57:FB:1C

            Netscape Cert Type: 
                SSL Server
            X509v3 Extended Key Usage: 
                TLS Web Server Authentication
            X509v3 Subject Alternative Name: 
                DNS:vpn.guengel.ch, DNS:yayap.dmz.kruemel.home, DNS:yayap.wlan.kruemel.home, DNS:yayap.vpn.kruemel.home
    Signature Algorithm: sha256WithRSAEncryption
         6c:bb:b9:49:da:85:01:9d:57:fa:82:2c:fa:a7:f2:df:dd:f3:
         c8:f0:0a:27:12:e7:1e:e4:b4:5e:fb:b7:4b:72:83:9a:4d:45:
         e6:f3:80:75:ee:da:bf:ef:8a:13:59:6e:33:c6:7f:ba:50:55:
         20:03:14:6b:a1:8f:04:f3:e8:c1:dc:54:29:ad:74:58:93:cd:
         fc:1b:a7:9c:97:67:2a:df:7c:b7:d5:b5:c0:a2:27:ee:d7:ad:
         6a:0e:15:68:82:e0:7e:1c:72:35:28:87:47:dd:c3:11:d8:b0:
         70:07:67:06:10:19:b0:36:7c:98:f9:68:43:29:b2:f6:ab:e5:
         5c:f3:c6:c9:5d:f3:4c:d0:9b:35:8e:1d:42:61:b7:49:01:d9:
         61:7c:23:80:c1:5c:a9:ca:0d:85:4b:c6:a4:e1:57:77:47:13:
         52:ef:0f:96:23:5b:7c:f7:35:85:31:a8:a2:d6:9c:1d:da:be:
         85:de:c3:20:c1:79:a6:fc:27:1d:c7:86:46:8a:62:1b:7a:c4:
         bb:2a:e6:3e:07:e3:24:60:ac:5e:49:22:11:dc:c8:7f:1c:35:
         80:f2:4a:fd:ea:25:96:7d:35:d6:12:35:54:85:28:db:51:47:
         27:37:26:b3:85:e4:f1:3c:f0:f3:d3:ee:c2:f6:32:5c:66:5d:
         f5:52:15:41:4a:38:99:34:59:ab:92:de:b6:a9:da:11:1f:0f:
         30:d6:10:b6:fa:e4:aa:2a:ce:48:d0:a9:99:c7:13:f1:d8:9b:
         72:20:79:78:85:bd:08:75:c4:5e:db:3a:1f:94:b2:c4:24:b0:
         b1:9b:b3:0a:03:b0:e7:bb:f9:88:d2:5f:9c:1e:e9:67:ac:9a:
         64:22:61:5c:3d:a7:c6:06:bd:0c:e9:bb:e1:ca:6e:4d:de:bf:
         b6:65:6b:6b:93:b7:92:6c:76:07:63:65:af:1d:09:df:06:80:
         1c:14:a2:c4:11:ca:d9:88:bc:ab:79:34:90:14:10:3c:f7:d4:
         43:39:18:c5:3f:06:fc:5a:c0:08:06:c4:56:99:c6:f0:b2:11:
         64:53:ff:0f:15:4b:2f:9e:67:d1:c5:3f:ee:a3:6f:51:86:7a:
         9c:0f:d7:22:82:65:19:e5:67:4a:3f:dc:30:7c:70:3b:33:b4:
         f2:0f:d8:1b:11:d3:33:8e:e8:a4:fe:71:78:78:66:5c:86:ad:
         70:ed:cc:b6:91:f6:4d:96:65:1b:b5:f8:a5:dd:43:5e:f3:6e:
         52:bc:e0:f1:3a:99:b0:13:72:5d:61:49:77:e5:21:e6:ee:4b:
         92:42:99:08:49:88:01:09:26:b0:dd:bf:6e:07:41:87:aa:1e:
         84:27:dd:e7:a0:33:2a:bb
-----BEGIN CERTIFICATE-----
MIIGCzCCA/OgAwIBAgIUByQJe+8zZ2uFGV5M2SxYFxy74X4wDQYJKoZIhvcNAQEL
BQAwfjELMAkGA1UEBhMCQ0gxEDAOBgNVBAgTB1RodXJnYXUxEDAOBgNVBAcTB0tl
Zmlrb24xEzARBgNVBAoTCmd1ZW5nZWwuY2gxEDAOBgNVBAMTB0NBIDIwMjIxJDAi
BgkqhkiG9w0BCQEWFXBvc3RtYXN0ZXJAZ3VlbmdlbC5jaDAeFw0yMjAyMTExNDA5
NDNaFw0yMzAzMTgxNDA5NDNaMHMxCzAJBgNVBAYTAkNIMRAwDgYDVQQIEwdUaHVy
Z2F1MRMwEQYDVQQKEwpndWVuZ2VsLmNoMRcwFQYDVQQDEw52cG4uZ3VlbmdlbC5j
aDEkMCIGCSqGSIb3DQEJARYVcG9zdG1hc3RlckBndWVuZ2VsLmNoMIIBIjANBgkq
hkiG9w0BAQEFAAOCAQ8AMIIBCgKCAQEApTvtyTUd/LCntxOrjKyEpNmgeyeVbi7F
LnLEtDYY2yfXWbdhae4zG2QC1D24t99bKp2+jTI7sQraObF25uWxskT7DUEcVHRB
md2/ZS2QmGgcJ91w9/mzL7NrUe5Hki58TZpea4/cFnVtXR8FQz+aFY2E2A8lDz1H
jTbx7YY1ekevVPNzzONsZcWNLs4y+0euaAca9hT/IodTQMh1Rpn9pVDO+J2If49n
9HlGQMujgLhZpYm3npdbmdCCCiFhncBVoK50siL88DpbTeI3KMARN2jW/LGWeWZx
Jo+Kq+X2YqvoNuMt4tKMUkaazDlmZF3N6K5menKAI8LQmDckLuws6QIDAQABo4IB
ijCCAYYwDAYDVR0TAQH/BAIwADALBgNVHQ8EBAMCA6gwHQYDVR0OBBYEFC9O0A4W
LLrgaZ23K3xuBUwpoOwjMIG9BgNVHSMEgbUwgbKAFCIgDVFAYUK+3brZycF3tpMo
w5nsoYGDpIGAMH4xCzAJBgNVBAYTAkNIMRAwDgYDVQQIEwdUaHVyZ2F1MRAwDgYD
VQQHEwdLZWZpa29uMRMwEQYDVQQKEwpndWVuZ2VsLmNoMRAwDgYDVQQDEwdDQSAy
MDIyMSQwIgYJKoZIhvcNAQkBFhVwb3N0bWFzdGVyQGd1ZW5nZWwuY2iCFG0pkFTp
F+nCauZSrYROMI5uV/scMBEGCWCGSAGG+EIBAQQEAwIGQDATBgNVHSUEDDAKBggr
BgEFBQcDATBiBgNVHREEWzBZgg52cG4uZ3VlbmdlbC5jaIIWeWF5YXAuZG16Lmty
dWVtZWwuaG9tZYIXeWF5YXAud2xhbi5rcnVlbWVsLmhvbWWCFnlheWFwLnZwbi5r
cnVlbWVsLmhvbWUwDQYJKoZIhvcNAQELBQADggIBAGy7uUnahQGdV/qCLPqn8t/d
88jwCicS5x7ktF77t0tyg5pNRebzgHXu2r/vihNZbjPGf7pQVSADFGuhjwTz6MHc
VCmtdFiTzfwbp5yXZyrffLfVtcCiJ+7XrWoOFWiC4H4ccjUoh0fdwxHYsHAHZwYQ
GbA2fJj5aEMpsvar5Vzzxsld80zQmzWOHUJht0kB2WF8I4DBXKnKDYVLxqThV3dH
E1LvD5YjW3z3NYUxqKLWnB3avoXewyDBeab8Jx3HhkaKYht6xLsq5j4H4yRgrF5J
IhHcyH8cNYDySv3qJZZ9NdYSNVSFKNtRRyc3JrOF5PE88PPT7sL2MlxmXfVSFUFK
OJk0WauS3rap2hEfDzDWELb65KoqzkjQqZnHE/HYm3IgeXiFvQh1xF7bOh+UssQk
sLGbswoDsOe7+YjSX5we6WesmmQiYVw9p8YGvQzpu+HKbk3ev7Zla2uTt5Jsdgdj
Za8dCd8GgBwUosQRytmIvKt5NJAUEDz31EM5GMU/BvxawAgGxFaZxvCyEWRT/w8V
Sy+eZ9HFP+6jb1GGepwP1yKCZRnlZ0o/3DB8cDsztPIP2BsR0zOO6KT+cXh4ZlyG
rXDtzLaR9k2WZRu1+KXdQ17zblK84PE6mbATcl1hSXflIebuS5JCmQhJiAEJJrDd
v24HQYeqHoQn3eegMyq7
-----END CERTIFICATE-----
