Certificate:
    Data:
        Version: 3 (0x2)
        Serial Number: 480 (0x1e0)
        Signature Algorithm: sha256WithRSAEncryption
        Issuer: C=CH, ST=Thurgau, L=Kefikon, O=guengel.ch, CN=CA guengel.ch/emailAddress=postmaster@guengel.ch
        Validity
            Not Before: Feb 11 07:07:37 2022 GMT
            Not After : Mar 18 07:07:37 2023 GMT
        Subject: C=CH, ST=Thurgau, O=guengel.ch, CN=vpn.guengel.ch/emailAddress=postmaster@guengel.ch
        Subject Public Key Info:
            Public Key Algorithm: rsaEncryption
                RSA Public-Key: (2048 bit)
                Modulus:
                    00:c8:70:d3:3c:c1:ac:23:48:a2:8c:a4:8e:ce:9f:
                    66:15:a3:c4:04:1c:eb:d2:85:14:0c:70:41:26:76:
                    54:79:72:ed:0c:7e:e4:15:07:b0:2c:c7:d7:12:88:
                    3b:fd:57:93:69:04:12:7c:f5:bb:12:c1:39:51:5a:
                    9d:1f:1c:c6:8a:14:b4:6e:c1:0c:38:3e:fb:8a:02:
                    b3:7c:33:99:ee:32:86:bd:45:70:ea:87:59:18:2f:
                    fd:98:24:ff:df:9a:32:b9:bf:39:d6:64:5d:57:ad:
                    7b:d9:3e:97:ec:9a:fc:5c:8d:48:01:bf:74:08:9e:
                    7f:2c:d4:d1:dd:e3:62:4f:e6:53:c9:4d:24:1f:f1:
                    1c:d4:d4:fa:10:e1:76:85:3e:c7:6c:90:2c:65:77:
                    66:26:9c:bd:01:9b:2c:9b:ee:b2:29:ab:8f:06:00:
                    d5:89:b2:47:46:32:20:e6:a1:2e:66:57:3b:00:00:
                    fe:53:8e:46:69:9a:ec:c2:49:42:c9:7d:b7:50:1c:
                    c0:34:b9:9a:1e:17:3f:f7:5b:57:07:87:46:b9:17:
                    fc:34:af:e7:42:54:de:e8:d1:e1:c9:a4:66:c8:5b:
                    a4:c9:80:8c:c0:62:25:6d:0c:65:60:97:e4:f4:9a:
                    61:00:f4:89:24:d5:8d:51:33:09:9d:b9:3f:4a:1f:
                    29:5d
                Exponent: 65537 (0x10001)
        X509v3 extensions:
            X509v3 Key Usage: 
                Digital Signature, Key Encipherment, Key Agreement
            X509v3 Basic Constraints: critical
                CA:FALSE
            Netscape Cert Type: 
                SSL Client, SSL Server
            X509v3 Extended Key Usage: 
                TLS Web Server Authentication, TLS Web Client Authentication
            X509v3 Subject Alternative Name: 
                DNS:vpn.guengel.ch
            X509v3 Subject Key Identifier: 
                B7:E6:1F:75:79:8B:3E:29:52:92:C4:07:60:A6:BB:81:A0:17:58:44
            X509v3 Authority Key Identifier: 
                keyid:D6:88:F1:AA:C1:2B:09:8C:B8:5C:9D:CE:DF:57:39:62:26:10:20:90
                DirName:/C=CH/ST=Thurgau/L=Kefikon/O=guengel.ch/CN=CA guengel.ch/emailAddress=postmaster@guengel.ch
                serial:E5:25:3B:A6:77:BD:CB:FF

    Signature Algorithm: sha256WithRSAEncryption
         bd:6a:46:e7:06:70:ae:6a:d3:38:f5:48:0e:7a:bd:fb:89:4f:
         c4:df:af:70:67:7f:29:97:dc:54:bf:25:12:24:19:77:88:79:
         79:83:a4:e2:b3:33:c3:c3:47:b3:83:cd:32:0c:0c:34:9a:d9:
         b4:7d:c6:34:36:f2:e5:bc:7e:8d:57:94:8e:32:5c:51:33:82:
         88:22:a0:b0:8a:0b:90:59:f9:1c:83:80:76:6f:ac:e3:ce:a2:
         c5:67:f4:f1:19:b6:03:06:66:23:e7:84:0b:41:7c:a7:2d:5e:
         26:31:47:13:f5:d4:25:08:a1:e0:70:22:cc:d9:c0:21:31:7c:
         30:28:60:5c:f0:cb:c9:e2:84:1d:4a:09:99:c8:08:11:3d:83:
         c1:ad:ca:23:fa:50:ab:b1:cb:bd:8a:d3:48:a7:67:fc:a5:ca:
         07:e7:fb:bd:68:2e:e3:25:67:27:44:a4:24:ae:2d:e8:56:52:
         e6:f7:10:b6:65:05:17:da:4a:8e:ff:5f:ff:55:f2:c5:ef:5e:
         ea:9f:9d:f2:7e:84:0d:07:67:ca:e7:62:e5:56:19:00:2c:16:
         79:0f:7c:1f:2d:3f:93:4b:03:b9:8e:28:e3:c1:71:dc:7b:00:
         80:e4:0c:b0:2d:62:6e:a7:09:4d:5b:4c:89:d5:76:f9:17:c8:
         de:f1:23:c8:0f:40:7c:70:dc:88:5b:14:3c:3a:d3:1c:76:8d:
         fc:4b:30:6f:c1:e9:62:c1:c5:5e:93:b4:06:7d:4f:98:62:44:
         44:b1:f7:4e:cb:c3:02:f6:34:0b:b3:17:b9:36:df:6f:7c:18:
         b3:9c:69:14:ed:81:d8:87:be:d1:5b:9b:f5:68:45:a6:ce:a8:
         e3:87:80:40:03:5e:25:9c:08:02:f4:f2:3a:18:c2:87:6f:38:
         98:e2:46:bd:21:e3:69:86:a1:55:cb:89:d2:e5:16:f2:9c:03:
         99:bd:76:29:8b:24:5b:05:20:05:47:38:ca:cb:ea:b7:5f:d1:
         3b:43:76:42:63:fc:02:e9:68:71:0e:fb:e0:2f:33:6f:03:79:
         fc:c4:0f:cc:61:c7:4d:06:d5:13:7d:a0:a9:3f:6f:1d:7d:18:
         24:f2:48:43:63:da:2f:79:ff:ab:36:66:03:13:f2:36:dd:33:
         d9:35:4f:af:06:7a:d4:0f:cc:ef:b3:9d:e7:01:fc:ef:90:3d:
         f5:59:ec:66:0a:e0:d2:f8:af:75:db:04:01:e9:d8:bf:5c:8d:
         e9:37:bc:7d:97:bd:28:6e:a9:b8:78:55:5e:b4:c5:3c:dd:73:
         26:53:0b:3d:8a:18:d5:39:32:d0:e7:87:51:bb:e9:c6:e0:2f:
         3d:29:92:6e:69:95:c0:ea
-----BEGIN CERTIFICATE-----
MIIFvTCCA6WgAwIBAgICAeAwDQYJKoZIhvcNAQELBQAwgYQxCzAJBgNVBAYTAkNI
MRAwDgYDVQQIEwdUaHVyZ2F1MRAwDgYDVQQHEwdLZWZpa29uMRMwEQYDVQQKEwpn
dWVuZ2VsLmNoMRYwFAYDVQQDEw1DQSBndWVuZ2VsLmNoMSQwIgYJKoZIhvcNAQkB
FhVwb3N0bWFzdGVyQGd1ZW5nZWwuY2gwHhcNMjIwMjExMDcwNzM3WhcNMjMwMzE4
MDcwNzM3WjBzMQswCQYDVQQGEwJDSDEQMA4GA1UECBMHVGh1cmdhdTETMBEGA1UE
ChMKZ3VlbmdlbC5jaDEXMBUGA1UEAxMOdnBuLmd1ZW5nZWwuY2gxJDAiBgkqhkiG
9w0BCQEWFXBvc3RtYXN0ZXJAZ3VlbmdlbC5jaDCCASIwDQYJKoZIhvcNAQEBBQAD
ggEPADCCAQoCggEBAMhw0zzBrCNIooykjs6fZhWjxAQc69KFFAxwQSZ2VHly7Qx+
5BUHsCzH1xKIO/1Xk2kEEnz1uxLBOVFanR8cxooUtG7BDDg++4oCs3wzme4yhr1F
cOqHWRgv/Zgk/9+aMrm/OdZkXVete9k+l+ya/FyNSAG/dAiefyzU0d3jYk/mU8lN
JB/xHNTU+hDhdoU+x2yQLGV3ZiacvQGbLJvusimrjwYA1YmyR0YyIOahLmZXOwAA
/lOORmma7MJJQsl9t1AcwDS5mh4XP/dbVweHRrkX/DSv50JU3ujR4cmkZshbpMmA
jMBiJW0MZWCX5PSaYQD0iSTVjVEzCZ25P0ofKV0CAwEAAaOCAUcwggFDMAsGA1Ud
DwQEAwIDqDAMBgNVHRMBAf8EAjAAMBEGCWCGSAGG+EIBAQQEAwIGwDAdBgNVHSUE
FjAUBggrBgEFBQcDAQYIKwYBBQUHAwIwGQYDVR0RBBIwEIIOdnBuLmd1ZW5nZWwu
Y2gwHQYDVR0OBBYEFLfmH3V5iz4pUpLEB2Cmu4GgF1hEMIG5BgNVHSMEgbEwga6A
FNaI8arBKwmMuFydzt9XOWImECCQoYGKpIGHMIGEMQswCQYDVQQGEwJDSDEQMA4G
A1UECBMHVGh1cmdhdTEQMA4GA1UEBxMHS2VmaWtvbjETMBEGA1UEChMKZ3Vlbmdl
bC5jaDEWMBQGA1UEAxMNQ0EgZ3VlbmdlbC5jaDEkMCIGCSqGSIb3DQEJARYVcG9z
dG1hc3RlckBndWVuZ2VsLmNoggkA5SU7pne9y/8wDQYJKoZIhvcNAQELBQADggIB
AL1qRucGcK5q0zj1SA56vfuJT8Tfr3BnfymX3FS/JRIkGXeIeXmDpOKzM8PDR7OD
zTIMDDSa2bR9xjQ28uW8fo1XlI4yXFEzgogioLCKC5BZ+RyDgHZvrOPOosVn9PEZ
tgMGZiPnhAtBfKctXiYxRxP11CUIoeBwIszZwCExfDAoYFzwy8nihB1KCZnICBE9
g8GtyiP6UKuxy72K00inZ/ylygfn+71oLuMlZydEpCSuLehWUub3ELZlBRfaSo7/
X/9V8sXvXuqfnfJ+hA0HZ8rnYuVWGQAsFnkPfB8tP5NLA7mOKOPBcdx7AIDkDLAt
Ym6nCU1bTInVdvkXyN7xI8gPQHxw3IhbFDw60xx2jfxLMG/B6WLBxV6TtAZ9T5hi
RESx907LwwL2NAuzF7k23298GLOcaRTtgdiHvtFbm/VoRabOqOOHgEADXiWcCAL0
8joYwodvOJjiRr0h42mGoVXLidLlFvKcA5m9dimLJFsFIAVHOMrL6rdf0TtDdkJj
/ALpaHEO++AvM28DefzED8xhx00G1RN9oKk/bx19GCTySENj2i95/6s2ZgMT8jbd
M9k1T68GetQPzO+znecB/O+QPfVZ7GYK4NL4r3XbBAHp2L9cjek3vH2XvShuqbh4
VV60xTzdcyZTCz2KGNU5MtDnh1G76cbgLz0pkm5plcDq
-----END CERTIFICATE-----
