Certificate:
    Data:
        Version: 3 (0x2)
        Serial Number:
            01:c2:fd:af:5e:c4:be:69:76:7d:70:7b:ef:18:48:f5:d8:2c:74:98
        Signature Algorithm: sha256WithRSAEncryption
        Issuer: C=CH, ST=Thurgau, L=Kefikon, O=guengel.ch, CN=CA 2022/emailAddress=postmaster@guengel.ch
        Validity
            Not Before: Jan  3 14:07:32 2025 GMT
            Not After : Feb  7 14:07:32 2026 GMT
        Subject: C=CH, ST=Thurgau, O=guengel.ch, CN=vpn.guengel.ch/emailAddress=postmaster@guengel.ch
        Subject Public Key Info:
            Public Key Algorithm: rsaEncryption
                Public-Key: (2048 bit)
                Modulus:
                    00:a5:3b:ed:c9:35:1d:fc:b0:a7:b7:13:ab:8c:ac:
                    84:a4:d9:a0:7b:27:95:6e:2e:c5:2e:72:c4:b4:36:
                    18:db:27:d7:59:b7:61:69:ee:33:1b:64:02:d4:3d:
                    b8:b7:df:5b:2a:9d:be:8d:32:3b:b1:0a:da:39:b1:
                    76:e6:e5:b1:b2:44:fb:0d:41:1c:54:74:41:99:dd:
                    bf:65:2d:90:98:68:1c:27:dd:70:f7:f9:b3:2f:b3:
                    6b:51:ee:47:92:2e:7c:4d:9a:5e:6b:8f:dc:16:75:
                    6d:5d:1f:05:43:3f:9a:15:8d:84:d8:0f:25:0f:3d:
                    47:8d:36:f1:ed:86:35:7a:47:af:54:f3:73:cc:e3:
                    6c:65:c5:8d:2e:ce:32:fb:47:ae:68:07:1a:f6:14:
                    ff:22:87:53:40:c8:75:46:99:fd:a5:50:ce:f8:9d:
                    88:7f:8f:67:f4:79:46:40:cb:a3:80:b8:59:a5:89:
                    b7:9e:97:5b:99:d0:82:0a:21:61:9d:c0:55:a0:ae:
                    74:b2:22:fc:f0:3a:5b:4d:e2:37:28:c0:11:37:68:
                    d6:fc:b1:96:79:66:71:26:8f:8a:ab:e5:f6:62:ab:
                    e8:36:e3:2d:e2:d2:8c:52:46:9a:cc:39:66:64:5d:
                    cd:e8:ae:66:7a:72:80:23:c2:d0:98:37:24:2e:ec:
                    2c:e9
                Exponent: 65537 (0x10001)
        X509v3 extensions:
            X509v3 Basic Constraints: critical
                CA:FALSE
            X509v3 Key Usage: 
                Digital Signature, Key Encipherment, Key Agreement
            X509v3 Subject Key Identifier: 
                2F:4E:D0:0E:16:2C:BA:E0:69:9D:B7:2B:7C:6E:05:4C:29:A0:EC:23
            X509v3 Authority Key Identifier: 
                keyid:22:20:0D:51:40:61:42:BE:DD:BA:D9:C9:C1:77:B6:93:28:C3:99:EC
                DirName:/C=CH/ST=Thurgau/L=Kefikon/O=guengel.ch/CN=CA 2022/emailAddress=postmaster@guengel.ch
                serial:6D:29:90:54:E9:17:E9:C2:6A:E6:52:AD:84:4E:30:8E:6E:57:FB:1C
            Netscape Cert Type: 
                SSL Server
            X509v3 Extended Key Usage: 
                TLS Web Server Authentication
            X509v3 Subject Alternative Name: 
                DNS:vpn.guengel.ch, DNS:yayap.dmz.kruemel.home, DNS:yayap.wlan.kruemel.home, DNS:yayap.vpn.kruemel.home
    Signature Algorithm: sha256WithRSAEncryption
    Signature Value:
        00:41:b3:e3:19:bf:3e:40:1b:c1:8b:84:24:5f:07:5c:fc:82:
        fd:c3:d1:00:6c:02:55:8f:b9:25:5b:e1:c1:34:b6:66:29:27:
        20:07:57:31:d6:82:32:34:a3:0d:91:c0:da:e9:92:69:4f:01:
        61:b9:75:f0:f2:04:da:d8:f8:af:ac:5e:06:97:09:e4:c5:0e:
        cd:4a:3a:b6:48:94:87:0a:c0:7b:6f:cc:ae:68:05:84:a3:24:
        06:33:b6:59:20:60:1f:75:41:f9:80:d6:01:4c:12:0d:1d:52:
        b4:c2:f8:bd:eb:1e:a8:78:b6:41:19:38:0b:d2:9f:6c:fb:ec:
        5b:f9:f7:1d:67:c0:79:2f:53:80:a5:64:e2:e8:44:bf:dc:e8:
        b7:7a:0b:f1:05:18:ef:d6:b8:a6:ed:0b:10:b6:5d:bc:d6:b2:
        70:e4:6c:01:b0:90:b5:1d:ca:1b:2b:10:f9:a2:59:65:65:3c:
        9c:7d:08:d7:c3:bd:79:aa:da:b3:51:44:dd:5d:57:35:47:90:
        ed:58:96:21:8a:27:35:de:a1:cd:12:38:c0:18:bf:1d:66:6d:
        0d:9b:77:d8:9f:10:d8:d5:2c:70:db:db:f3:3a:79:c0:87:dd:
        3d:4a:1c:c6:29:2f:12:f8:7b:f2:60:da:74:fc:7d:41:4d:a1:
        8d:07:25:02:51:bb:97:49:c2:25:39:7f:30:bc:1a:42:9e:b7:
        c3:4c:9c:4c:ba:b5:cc:cd:43:b6:a5:65:58:bc:d1:ba:16:7c:
        93:b3:e5:e1:72:91:97:0f:fb:5a:d6:d3:05:ac:3d:d7:a2:c9:
        89:3c:c6:ab:b7:1b:cf:81:9d:65:1b:f4:71:d9:78:e8:1c:e9:
        ce:73:15:6a:a8:9e:32:3a:ed:71:70:32:26:4d:76:a7:b3:b3:
        0f:e8:09:06:d6:19:89:42:52:9a:98:76:0c:b2:77:65:e0:11:
        55:49:5b:bd:ec:0e:d6:16:c5:d4:82:0f:08:97:5d:dd:f3:b1:
        51:b0:84:d7:22:f1:49:08:7f:da:f1:b1:30:91:3e:bd:6c:c3:
        37:d5:59:ae:39:81:ff:9d:39:a5:49:14:f4:3b:c8:e9:60:ea:
        9d:d2:4f:41:2f:72:f1:77:ed:c8:82:e3:f1:6d:2b:3e:a6:32:
        3e:6b:ef:6c:36:91:e5:6e:bc:0a:31:66:8a:2b:74:fc:68:61:
        b7:63:9c:1e:ea:af:80:e0:5c:21:77:f3:f0:a8:f7:3d:f8:3f:
        06:08:0d:26:38:bd:0a:61:db:a6:49:78:18:e1:c1:a3:b0:15:
        43:0a:c2:c4:97:e6:18:86:8a:bb:09:96:95:b8:3d:de:c7:c3:
        e5:fc:18:d1:dd:66:3d:af
-----BEGIN CERTIFICATE-----
MIIGCzCCA/OgAwIBAgIUAcL9r17Evml2fXB77xhI9dgsdJgwDQYJKoZIhvcNAQEL
BQAwfjELMAkGA1UEBhMCQ0gxEDAOBgNVBAgTB1RodXJnYXUxEDAOBgNVBAcTB0tl
Zmlrb24xEzARBgNVBAoTCmd1ZW5nZWwuY2gxEDAOBgNVBAMTB0NBIDIwMjIxJDAi
BgkqhkiG9w0BCQEWFXBvc3RtYXN0ZXJAZ3VlbmdlbC5jaDAeFw0yNTAxMDMxNDA3
MzJaFw0yNjAyMDcxNDA3MzJaMHMxCzAJBgNVBAYTAkNIMRAwDgYDVQQIEwdUaHVy
Z2F1MRMwEQYDVQQKEwpndWVuZ2VsLmNoMRcwFQYDVQQDEw52cG4uZ3VlbmdlbC5j
aDEkMCIGCSqGSIb3DQEJARYVcG9zdG1hc3RlckBndWVuZ2VsLmNoMIIBIjANBgkq
hkiG9w0BAQEFAAOCAQ8AMIIBCgKCAQEApTvtyTUd/LCntxOrjKyEpNmgeyeVbi7F
LnLEtDYY2yfXWbdhae4zG2QC1D24t99bKp2+jTI7sQraObF25uWxskT7DUEcVHRB
md2/ZS2QmGgcJ91w9/mzL7NrUe5Hki58TZpea4/cFnVtXR8FQz+aFY2E2A8lDz1H
jTbx7YY1ekevVPNzzONsZcWNLs4y+0euaAca9hT/IodTQMh1Rpn9pVDO+J2If49n
9HlGQMujgLhZpYm3npdbmdCCCiFhncBVoK50siL88DpbTeI3KMARN2jW/LGWeWZx
Jo+Kq+X2YqvoNuMt4tKMUkaazDlmZF3N6K5menKAI8LQmDckLuws6QIDAQABo4IB
ijCCAYYwDAYDVR0TAQH/BAIwADALBgNVHQ8EBAMCA6gwHQYDVR0OBBYEFC9O0A4W
LLrgaZ23K3xuBUwpoOwjMIG9BgNVHSMEgbUwgbKAFCIgDVFAYUK+3brZycF3tpMo
w5nsoYGDpIGAMH4xCzAJBgNVBAYTAkNIMRAwDgYDVQQIEwdUaHVyZ2F1MRAwDgYD
VQQHEwdLZWZpa29uMRMwEQYDVQQKEwpndWVuZ2VsLmNoMRAwDgYDVQQDEwdDQSAy
MDIyMSQwIgYJKoZIhvcNAQkBFhVwb3N0bWFzdGVyQGd1ZW5nZWwuY2iCFG0pkFTp
F+nCauZSrYROMI5uV/scMBEGCWCGSAGG+EIBAQQEAwIGQDATBgNVHSUEDDAKBggr
BgEFBQcDATBiBgNVHREEWzBZgg52cG4uZ3VlbmdlbC5jaIIWeWF5YXAuZG16Lmty
dWVtZWwuaG9tZYIXeWF5YXAud2xhbi5rcnVlbWVsLmhvbWWCFnlheWFwLnZwbi5r
cnVlbWVsLmhvbWUwDQYJKoZIhvcNAQELBQADggIBAABBs+MZvz5AG8GLhCRfB1z8
gv3D0QBsAlWPuSVb4cE0tmYpJyAHVzHWgjI0ow2RwNrpkmlPAWG5dfDyBNrY+K+s
XgaXCeTFDs1KOrZIlIcKwHtvzK5oBYSjJAYztlkgYB91QfmA1gFMEg0dUrTC+L3r
Hqh4tkEZOAvSn2z77Fv59x1nwHkvU4ClZOLoRL/c6Ld6C/EFGO/WuKbtCxC2XbzW
snDkbAGwkLUdyhsrEPmiWWVlPJx9CNfDvXmq2rNRRN1dVzVHkO1YliGKJzXeoc0S
OMAYvx1mbQ2bd9ifENjVLHDb2/M6ecCH3T1KHMYpLxL4e/Jg2nT8fUFNoY0HJQJR
u5dJwiU5fzC8GkKet8NMnEy6tczNQ7alZVi80boWfJOz5eFykZcP+1rW0wWsPdei
yYk8xqu3G8+BnWUb9HHZeOgc6c5zFWqonjI67XFwMiZNdqezsw/oCQbWGYlCUpqY
dgyyd2XgEVVJW73sDtYWxdSCDwiXXd3zsVGwhNci8UkIf9rxsTCRPr1swzfVWa45
gf+dOaVJFPQ7yOlg6p3ST0EvcvF37ciC4/FtKz6mMj5r72w2keVuvAoxZoordPxo
YbdjnB7qr4DgXCF38/Co9z34PwYIDSY4vQph26ZJeBjhwaOwFUMKwsSX5hiGirsJ
lpW4Pd7Hw+X8GNHdZj2v
-----END CERTIFICATE-----
