Certificate:
    Data:
        Version: 3 (0x2)
        Serial Number: 423 (0x1a7)
        Signature Algorithm: sha256WithRSAEncryption
        Issuer: C=CH, ST=Thurgau, L=Kefikon, O=guengel.ch, CN=CA guengel.ch/emailAddress=postmaster@guengel.ch
        Validity
            Not Before: Feb  6 15:10:12 2021 GMT
            Not After : Mar 13 15:10:12 2022 GMT
        Subject: C=CH, ST=Thurgau, O=guengel.ch, CN=vpn.guengel.ch/emailAddress=postmaster@guengel.ch
        Subject Public Key Info:
            Public Key Algorithm: rsaEncryption
                RSA Public-Key: (2048 bit)
                Modulus:
                    00:c8:70:d3:3c:c1:ac:23:48:a2:8c:a4:8e:ce:9f:
                    66:15:a3:c4:04:1c:eb:d2:85:14:0c:70:41:26:76:
                    54:79:72:ed:0c:7e:e4:15:07:b0:2c:c7:d7:12:88:
                    3b:fd:57:93:69:04:12:7c:f5:bb:12:c1:39:51:5a:
                    9d:1f:1c:c6:8a:14:b4:6e:c1:0c:38:3e:fb:8a:02:
                    b3:7c:33:99:ee:32:86:bd:45:70:ea:87:59:18:2f:
                    fd:98:24:ff:df:9a:32:b9:bf:39:d6:64:5d:57:ad:
                    7b:d9:3e:97:ec:9a:fc:5c:8d:48:01:bf:74:08:9e:
                    7f:2c:d4:d1:dd:e3:62:4f:e6:53:c9:4d:24:1f:f1:
                    1c:d4:d4:fa:10:e1:76:85:3e:c7:6c:90:2c:65:77:
                    66:26:9c:bd:01:9b:2c:9b:ee:b2:29:ab:8f:06:00:
                    d5:89:b2:47:46:32:20:e6:a1:2e:66:57:3b:00:00:
                    fe:53:8e:46:69:9a:ec:c2:49:42:c9:7d:b7:50:1c:
                    c0:34:b9:9a:1e:17:3f:f7:5b:57:07:87:46:b9:17:
                    fc:34:af:e7:42:54:de:e8:d1:e1:c9:a4:66:c8:5b:
                    a4:c9:80:8c:c0:62:25:6d:0c:65:60:97:e4:f4:9a:
                    61:00:f4:89:24:d5:8d:51:33:09:9d:b9:3f:4a:1f:
                    29:5d
                Exponent: 65537 (0x10001)
        X509v3 extensions:
            X509v3 Basic Constraints: critical
                CA:FALSE
            X509v3 Key Usage: 
                Digital Signature, Key Encipherment, Key Agreement
            Netscape Cert Type: 
                SSL Server
    Signature Algorithm: sha256WithRSAEncryption
         2c:f2:97:5f:d7:12:7d:a8:98:60:47:12:12:7f:96:6f:18:fb:
         2d:98:a9:d5:97:20:2c:d8:15:19:5b:a0:c5:76:09:38:a9:34:
         42:7e:e2:53:90:62:99:79:5b:01:f7:ca:96:21:bc:cf:e2:47:
         d5:04:21:2a:08:d8:4e:09:d9:3e:40:cb:67:32:f3:b2:5e:f0:
         f1:49:56:a2:e6:48:2d:d8:18:94:0b:a5:82:b6:01:ef:ac:e5:
         99:e7:49:30:26:24:26:b7:98:dc:d4:2f:60:d4:54:8f:01:32:
         55:44:c3:4e:c4:bd:80:80:78:4f:1f:6d:82:65:4e:e9:48:c0:
         34:31:5b:08:c7:c0:08:eb:02:cc:cd:17:7d:39:c1:ce:c6:90:
         c6:39:56:3b:e9:2c:28:59:06:df:df:5b:1b:75:59:74:cc:97:
         3e:db:e8:b3:c6:4f:1a:2a:7e:96:40:fc:89:2e:29:08:7e:5d:
         0a:1a:18:04:94:64:75:8e:68:13:62:51:c3:85:ab:e7:24:d3:
         a0:a7:cc:e7:fa:7f:27:40:fe:2e:e9:ba:a9:50:dd:4c:6e:6d:
         70:4c:19:23:83:14:33:53:86:f9:ac:07:35:67:41:bb:af:37:
         54:e0:4c:f1:b8:ae:77:6c:91:dd:d1:6a:23:00:0a:c9:26:e8:
         1a:b4:08:2e:4c:c2:21:8f:af:0a:6f:3c:62:be:18:86:ab:92:
         38:24:af:57:56:6f:eb:7f:3d:27:ae:a4:dd:65:d2:0b:b7:e9:
         34:64:6f:21:4e:05:fa:9b:e3:8c:d7:09:59:15:10:91:35:84:
         3b:69:57:56:5b:bd:12:f6:f0:03:dc:0e:6a:82:80:91:c8:d2:
         fa:a4:b3:4a:fc:83:b8:67:05:26:12:07:91:19:2d:4c:bb:b5:
         3c:29:1f:22:e1:e9:38:58:7d:ca:ed:2e:23:47:da:93:00:61:
         c3:22:03:95:1c:9e:0d:d2:cf:be:1d:70:b0:15:8d:80:dc:5d:
         0e:0e:e4:cb:cc:2b:ac:28:47:be:a2:b6:f2:50:c6:5e:53:ca:
         c2:97:de:98:6c:92:de:b5:f3:8b:e2:6e:54:86:21:f0:d7:62:
         7d:29:c1:a3:bc:f9:e8:9c:cc:0a:ec:b0:80:13:48:b7:21:de:
         fa:fc:ac:90:42:c3:47:9a:16:e4:79:1d:63:9e:18:18:47:5f:
         03:f3:35:40:99:9d:17:97:90:d8:eb:0a:f3:82:8b:78:5f:b4:
         9c:27:54:8d:46:5c:42:dc:c7:cd:c0:ab:a9:c2:71:c1:2a:fa:
         78:f6:ec:c3:62:6f:ab:93:3f:72:e6:31:40:d1:4d:49:be:96:
         23:54:3e:0b:5c:4e:b1:67
-----BEGIN CERTIFICATE-----
MIIEpDCCAoygAwIBAgICAacwDQYJKoZIhvcNAQELBQAwgYQxCzAJBgNVBAYTAkNI
MRAwDgYDVQQIEwdUaHVyZ2F1MRAwDgYDVQQHEwdLZWZpa29uMRMwEQYDVQQKEwpn
dWVuZ2VsLmNoMRYwFAYDVQQDEw1DQSBndWVuZ2VsLmNoMSQwIgYJKoZIhvcNAQkB
FhVwb3N0bWFzdGVyQGd1ZW5nZWwuY2gwHhcNMjEwMjA2MTUxMDEyWhcNMjIwMzEz
MTUxMDEyWjBzMQswCQYDVQQGEwJDSDEQMA4GA1UECBMHVGh1cmdhdTETMBEGA1UE
ChMKZ3VlbmdlbC5jaDEXMBUGA1UEAxMOdnBuLmd1ZW5nZWwuY2gxJDAiBgkqhkiG
9w0BCQEWFXBvc3RtYXN0ZXJAZ3VlbmdlbC5jaDCCASIwDQYJKoZIhvcNAQEBBQAD
ggEPADCCAQoCggEBAMhw0zzBrCNIooykjs6fZhWjxAQc69KFFAxwQSZ2VHly7Qx+
5BUHsCzH1xKIO/1Xk2kEEnz1uxLBOVFanR8cxooUtG7BDDg++4oCs3wzme4yhr1F
cOqHWRgv/Zgk/9+aMrm/OdZkXVete9k+l+ya/FyNSAG/dAiefyzU0d3jYk/mU8lN
JB/xHNTU+hDhdoU+x2yQLGV3ZiacvQGbLJvusimrjwYA1YmyR0YyIOahLmZXOwAA
/lOORmma7MJJQsl9t1AcwDS5mh4XP/dbVweHRrkX/DSv50JU3ujR4cmkZshbpMmA
jMBiJW0MZWCX5PSaYQD0iSTVjVEzCZ25P0ofKV0CAwEAAaMwMC4wDAYDVR0TAQH/
BAIwADALBgNVHQ8EBAMCA6gwEQYJYIZIAYb4QgEBBAQDAgZAMA0GCSqGSIb3DQEB
CwUAA4ICAQAs8pdf1xJ9qJhgRxISf5ZvGPstmKnVlyAs2BUZW6DFdgk4qTRCfuJT
kGKZeVsB98qWIbzP4kfVBCEqCNhOCdk+QMtnMvOyXvDxSVai5kgt2BiUC6WCtgHv
rOWZ50kwJiQmt5jc1C9g1FSPATJVRMNOxL2AgHhPH22CZU7pSMA0MVsIx8AI6wLM
zRd9OcHOxpDGOVY76SwoWQbf31sbdVl0zJc+2+izxk8aKn6WQPyJLikIfl0KGhgE
lGR1jmgTYlHDhavnJNOgp8zn+n8nQP4u6bqpUN1Mbm1wTBkjgxQzU4b5rAc1Z0G7
rzdU4EzxuK53bJHd0WojAArJJugatAguTMIhj68KbzxivhiGq5I4JK9XVm/rfz0n
rqTdZdILt+k0ZG8hTgX6m+OM1wlZFRCRNYQ7aVdWW70S9vAD3A5qgoCRyNL6pLNK
/IO4ZwUmEgeRGS1Mu7U8KR8i4ek4WH3K7S4jR9qTAGHDIgOVHJ4N0s++HXCwFY2A
3F0ODuTLzCusKEe+orbyUMZeU8rCl96YbJLetfOL4m5UhiHw12J9KcGjvPnonMwK
7LCAE0i3Id76/KyQQsNHmhbkeR1jnhgYR18D8zVAmZ0Xl5DY6wrzgot4X7ScJ1SN
RlxC3MfNwKupwnHBKvp49uzDYm+rkz9y5jFA0U1JvpYjVD4LXE6xZw==
-----END CERTIFICATE-----
