Certificate:
    Data:
        Version: 3 (0x2)
        Serial Number:
            2b:3a:8e:53:91:87:dd:ce:2e:6e:1b:24:f3:37:43:51:f6:a7:ba:5c
        Signature Algorithm: sha256WithRSAEncryption
        Issuer: C=CH, ST=Thurgau, L=Kefikon, O=guengel.ch, CN=CA 2022/emailAddress=postmaster@guengel.ch
        Validity
            Not Before: Feb 28 06:43:08 2023 GMT
            Not After : Apr  3 06:43:08 2024 GMT
        Subject: C=CH, ST=Thurgau, O=guengel.ch, CN=vpn.guengel.ch/emailAddress=postmaster@guengel.ch
        Subject Public Key Info:
            Public Key Algorithm: rsaEncryption
                RSA Public-Key: (2048 bit)
                Modulus:
                    00:a5:3b:ed:c9:35:1d:fc:b0:a7:b7:13:ab:8c:ac:
                    84:a4:d9:a0:7b:27:95:6e:2e:c5:2e:72:c4:b4:36:
                    18:db:27:d7:59:b7:61:69:ee:33:1b:64:02:d4:3d:
                    b8:b7:df:5b:2a:9d:be:8d:32:3b:b1:0a:da:39:b1:
                    76:e6:e5:b1:b2:44:fb:0d:41:1c:54:74:41:99:dd:
                    bf:65:2d:90:98:68:1c:27:dd:70:f7:f9:b3:2f:b3:
                    6b:51:ee:47:92:2e:7c:4d:9a:5e:6b:8f:dc:16:75:
                    6d:5d:1f:05:43:3f:9a:15:8d:84:d8:0f:25:0f:3d:
                    47:8d:36:f1:ed:86:35:7a:47:af:54:f3:73:cc:e3:
                    6c:65:c5:8d:2e:ce:32:fb:47:ae:68:07:1a:f6:14:
                    ff:22:87:53:40:c8:75:46:99:fd:a5:50:ce:f8:9d:
                    88:7f:8f:67:f4:79:46:40:cb:a3:80:b8:59:a5:89:
                    b7:9e:97:5b:99:d0:82:0a:21:61:9d:c0:55:a0:ae:
                    74:b2:22:fc:f0:3a:5b:4d:e2:37:28:c0:11:37:68:
                    d6:fc:b1:96:79:66:71:26:8f:8a:ab:e5:f6:62:ab:
                    e8:36:e3:2d:e2:d2:8c:52:46:9a:cc:39:66:64:5d:
                    cd:e8:ae:66:7a:72:80:23:c2:d0:98:37:24:2e:ec:
                    2c:e9
                Exponent: 65537 (0x10001)
        X509v3 extensions:
            X509v3 Basic Constraints: critical
                CA:FALSE
            X509v3 Key Usage: 
                Digital Signature, Key Encipherment, Key Agreement
            X509v3 Subject Key Identifier: 
                2F:4E:D0:0E:16:2C:BA:E0:69:9D:B7:2B:7C:6E:05:4C:29:A0:EC:23
            X509v3 Authority Key Identifier: 
                keyid:22:20:0D:51:40:61:42:BE:DD:BA:D9:C9:C1:77:B6:93:28:C3:99:EC
                DirName:/C=CH/ST=Thurgau/L=Kefikon/O=guengel.ch/CN=CA 2022/emailAddress=postmaster@guengel.ch
                serial:6D:29:90:54:E9:17:E9:C2:6A:E6:52:AD:84:4E:30:8E:6E:57:FB:1C

            Netscape Cert Type: 
                SSL Server
            X509v3 Extended Key Usage: 
                TLS Web Server Authentication
            X509v3 Subject Alternative Name: 
                DNS:vpn.guengel.ch, DNS:yayap.dmz.kruemel.home, DNS:yayap.wlan.kruemel.home, DNS:yayap.vpn.kruemel.home
    Signature Algorithm: sha256WithRSAEncryption
         22:39:d2:f2:92:06:dc:c6:1b:0f:68:b4:b5:c7:47:48:49:9b:
         c5:94:e4:07:f4:91:60:3f:d5:43:36:70:9a:bd:29:17:55:dd:
         b5:a8:1d:e0:7e:33:82:66:91:74:05:a1:7f:e4:ad:29:01:72:
         b5:58:32:d8:16:6d:92:2f:2a:a4:e2:a6:9e:3d:2f:01:00:76:
         4c:41:63:ce:f1:e2:bf:cf:cb:5f:8d:2f:c8:be:88:77:12:69:
         2d:05:2b:7c:a9:0e:df:79:e3:ac:07:fa:1d:23:ef:8d:5f:2d:
         41:db:74:de:52:3c:98:ad:ac:2d:0f:86:c2:18:d5:6e:90:7f:
         d5:2c:39:58:66:a8:87:7a:30:63:b2:16:44:db:50:9a:ac:9f:
         a8:4d:99:92:45:a0:bd:c8:a7:c1:6f:c0:9d:84:b0:da:33:95:
         2b:89:87:f6:de:c5:c4:2a:87:a7:5d:4f:1b:da:dc:a3:bb:72:
         eb:a8:35:c4:92:86:ab:f5:e8:4d:78:61:14:01:a0:9d:1d:f4:
         0b:f5:62:69:5c:ee:a6:2a:58:23:0b:67:32:86:f6:59:74:25:
         96:0c:f1:11:68:ff:10:c2:ba:f3:39:65:67:07:07:6c:f0:e2:
         42:70:ad:b6:2c:c4:5d:6b:d5:43:2e:6a:92:c6:81:d9:b1:c1:
         a5:bd:00:be:99:6b:16:43:69:36:fd:62:9e:59:5e:68:fe:cf:
         41:7f:4f:e4:ef:71:da:b3:4e:b2:43:9b:6a:d2:82:4b:a1:d4:
         f5:20:50:b2:56:6e:09:1e:e2:35:d4:92:e4:51:64:64:bf:0e:
         e9:63:31:42:99:f2:b2:c4:20:f9:2e:2e:6c:a8:8b:ad:3f:e0:
         e0:7b:66:50:6c:cd:66:d7:48:b1:7e:10:5f:9e:e3:ff:f4:7e:
         19:98:7b:a2:57:46:f3:3b:71:3b:58:08:e7:26:7f:8f:4f:66:
         82:35:a7:55:84:75:fc:3c:ca:33:54:08:d1:77:fd:e4:b7:a1:
         04:a1:45:43:0f:2f:65:c5:48:8c:dd:c1:53:85:e4:80:d5:0e:
         0e:66:34:9a:29:21:b6:ca:78:8c:54:0a:4b:2f:e6:10:ff:f8:
         44:18:a1:9a:6c:ae:8e:c3:e2:5b:cb:32:7f:17:7c:f1:65:ec:
         c4:c6:39:b1:47:ae:10:cb:67:eb:45:e3:f9:03:e3:26:82:e6:
         8e:3c:2e:4f:9a:c6:98:06:14:dd:bd:b2:27:f2:c8:d7:94:9b:
         29:e7:98:52:35:b6:db:0c:a5:80:e9:c5:a5:ef:ff:6f:e3:28:
         49:2b:1c:c1:ea:da:cd:b2:94:c0:f7:df:4f:21:97:7f:a0:1d:
         58:6b:a4:c0:52:8d:95:79
-----BEGIN CERTIFICATE-----
MIIGCzCCA/OgAwIBAgIUKzqOU5GH3c4ubhsk8zdDUfanulwwDQYJKoZIhvcNAQEL
BQAwfjELMAkGA1UEBhMCQ0gxEDAOBgNVBAgTB1RodXJnYXUxEDAOBgNVBAcTB0tl
Zmlrb24xEzARBgNVBAoTCmd1ZW5nZWwuY2gxEDAOBgNVBAMTB0NBIDIwMjIxJDAi
BgkqhkiG9w0BCQEWFXBvc3RtYXN0ZXJAZ3VlbmdlbC5jaDAeFw0yMzAyMjgwNjQz
MDhaFw0yNDA0MDMwNjQzMDhaMHMxCzAJBgNVBAYTAkNIMRAwDgYDVQQIEwdUaHVy
Z2F1MRMwEQYDVQQKEwpndWVuZ2VsLmNoMRcwFQYDVQQDEw52cG4uZ3VlbmdlbC5j
aDEkMCIGCSqGSIb3DQEJARYVcG9zdG1hc3RlckBndWVuZ2VsLmNoMIIBIjANBgkq
hkiG9w0BAQEFAAOCAQ8AMIIBCgKCAQEApTvtyTUd/LCntxOrjKyEpNmgeyeVbi7F
LnLEtDYY2yfXWbdhae4zG2QC1D24t99bKp2+jTI7sQraObF25uWxskT7DUEcVHRB
md2/ZS2QmGgcJ91w9/mzL7NrUe5Hki58TZpea4/cFnVtXR8FQz+aFY2E2A8lDz1H
jTbx7YY1ekevVPNzzONsZcWNLs4y+0euaAca9hT/IodTQMh1Rpn9pVDO+J2If49n
9HlGQMujgLhZpYm3npdbmdCCCiFhncBVoK50siL88DpbTeI3KMARN2jW/LGWeWZx
Jo+Kq+X2YqvoNuMt4tKMUkaazDlmZF3N6K5menKAI8LQmDckLuws6QIDAQABo4IB
ijCCAYYwDAYDVR0TAQH/BAIwADALBgNVHQ8EBAMCA6gwHQYDVR0OBBYEFC9O0A4W
LLrgaZ23K3xuBUwpoOwjMIG9BgNVHSMEgbUwgbKAFCIgDVFAYUK+3brZycF3tpMo
w5nsoYGDpIGAMH4xCzAJBgNVBAYTAkNIMRAwDgYDVQQIEwdUaHVyZ2F1MRAwDgYD
VQQHEwdLZWZpa29uMRMwEQYDVQQKEwpndWVuZ2VsLmNoMRAwDgYDVQQDEwdDQSAy
MDIyMSQwIgYJKoZIhvcNAQkBFhVwb3N0bWFzdGVyQGd1ZW5nZWwuY2iCFG0pkFTp
F+nCauZSrYROMI5uV/scMBEGCWCGSAGG+EIBAQQEAwIGQDATBgNVHSUEDDAKBggr
BgEFBQcDATBiBgNVHREEWzBZgg52cG4uZ3VlbmdlbC5jaIIWeWF5YXAuZG16Lmty
dWVtZWwuaG9tZYIXeWF5YXAud2xhbi5rcnVlbWVsLmhvbWWCFnlheWFwLnZwbi5r
cnVlbWVsLmhvbWUwDQYJKoZIhvcNAQELBQADggIBACI50vKSBtzGGw9otLXHR0hJ
m8WU5Af0kWA/1UM2cJq9KRdV3bWoHeB+M4JmkXQFoX/krSkBcrVYMtgWbZIvKqTi
pp49LwEAdkxBY87x4r/Py1+NL8i+iHcSaS0FK3ypDt9546wH+h0j741fLUHbdN5S
PJitrC0PhsIY1W6Qf9UsOVhmqId6MGOyFkTbUJqsn6hNmZJFoL3Ip8FvwJ2EsNoz
lSuJh/bexcQqh6ddTxva3KO7cuuoNcSShqv16E14YRQBoJ0d9Av1Ymlc7qYqWCML
ZzKG9ll0JZYM8RFo/xDCuvM5ZWcHB2zw4kJwrbYsxF1r1UMuapLGgdmxwaW9AL6Z
axZDaTb9Yp5ZXmj+z0F/T+TvcdqzTrJDm2rSgkuh1PUgULJWbgke4jXUkuRRZGS/
DuljMUKZ8rLEIPkuLmyoi60/4OB7ZlBszWbXSLF+EF+e4//0fhmYe6JXRvM7cTtY
COcmf49PZoI1p1WEdfw8yjNUCNF3/eS3oQShRUMPL2XFSIzdwVOF5IDVDg5mNJop
IbbKeIxUCksv5hD/+EQYoZpsro7D4lvLMn8XfPFl7MTGObFHrhDLZ+tF4/kD4yaC
5o48Lk+axpgGFN29sifyyNeUmynnmFI1ttsMpYDpxaXv/2/jKEkrHMHq2s2ylMD3
308hl3+gHVhrpMBSjZV5
-----END CERTIFICATE-----
