Certificate:
    Data:
        Version: 3 (0x2)
        Serial Number:
            5c:09:3a:45:ce:61:e8:5c:bb:f6:29:8b:56:9e:03:8c:30:ae:94:47
        Signature Algorithm: sha256WithRSAEncryption
        Issuer: C=CH, ST=Thurgau, L=Kefikon, O=guengel.ch, CN=CA 2022/emailAddress=postmaster@guengel.ch
        Validity
            Not Before: Apr  3 15:15:36 2024 GMT
            Not After : May  8 15:15:36 2025 GMT
        Subject: C=CH, ST=Thurgau, O=guengel.ch, CN=vpn.guengel.ch/emailAddress=postmaster@guengel.ch
        Subject Public Key Info:
            Public Key Algorithm: rsaEncryption
                RSA Public-Key: (2048 bit)
                Modulus:
                    00:a5:3b:ed:c9:35:1d:fc:b0:a7:b7:13:ab:8c:ac:
                    84:a4:d9:a0:7b:27:95:6e:2e:c5:2e:72:c4:b4:36:
                    18:db:27:d7:59:b7:61:69:ee:33:1b:64:02:d4:3d:
                    b8:b7:df:5b:2a:9d:be:8d:32:3b:b1:0a:da:39:b1:
                    76:e6:e5:b1:b2:44:fb:0d:41:1c:54:74:41:99:dd:
                    bf:65:2d:90:98:68:1c:27:dd:70:f7:f9:b3:2f:b3:
                    6b:51:ee:47:92:2e:7c:4d:9a:5e:6b:8f:dc:16:75:
                    6d:5d:1f:05:43:3f:9a:15:8d:84:d8:0f:25:0f:3d:
                    47:8d:36:f1:ed:86:35:7a:47:af:54:f3:73:cc:e3:
                    6c:65:c5:8d:2e:ce:32:fb:47:ae:68:07:1a:f6:14:
                    ff:22:87:53:40:c8:75:46:99:fd:a5:50:ce:f8:9d:
                    88:7f:8f:67:f4:79:46:40:cb:a3:80:b8:59:a5:89:
                    b7:9e:97:5b:99:d0:82:0a:21:61:9d:c0:55:a0:ae:
                    74:b2:22:fc:f0:3a:5b:4d:e2:37:28:c0:11:37:68:
                    d6:fc:b1:96:79:66:71:26:8f:8a:ab:e5:f6:62:ab:
                    e8:36:e3:2d:e2:d2:8c:52:46:9a:cc:39:66:64:5d:
                    cd:e8:ae:66:7a:72:80:23:c2:d0:98:37:24:2e:ec:
                    2c:e9
                Exponent: 65537 (0x10001)
        X509v3 extensions:
            X509v3 Basic Constraints: critical
                CA:FALSE
            X509v3 Key Usage: 
                Digital Signature, Key Encipherment, Key Agreement
            X509v3 Subject Key Identifier: 
                2F:4E:D0:0E:16:2C:BA:E0:69:9D:B7:2B:7C:6E:05:4C:29:A0:EC:23
            X509v3 Authority Key Identifier: 
                keyid:22:20:0D:51:40:61:42:BE:DD:BA:D9:C9:C1:77:B6:93:28:C3:99:EC
                DirName:/C=CH/ST=Thurgau/L=Kefikon/O=guengel.ch/CN=CA 2022/emailAddress=postmaster@guengel.ch
                serial:6D:29:90:54:E9:17:E9:C2:6A:E6:52:AD:84:4E:30:8E:6E:57:FB:1C

            Netscape Cert Type: 
                SSL Server
            X509v3 Extended Key Usage: 
                TLS Web Server Authentication
            X509v3 Subject Alternative Name: 
                DNS:vpn.guengel.ch, DNS:yayap.dmz.kruemel.home, DNS:yayap.wlan.kruemel.home, DNS:yayap.vpn.kruemel.home
    Signature Algorithm: sha256WithRSAEncryption
         25:e6:18:4f:91:03:ca:08:84:45:d1:b9:9d:ef:8e:5d:26:af:
         04:b7:b0:75:d1:fe:bd:9e:7c:2c:e2:98:75:a5:33:3c:22:80:
         94:b2:d0:83:fd:2a:67:0c:8f:58:60:fc:d7:87:77:24:25:eb:
         c0:99:52:bd:25:d2:e1:3f:10:ee:bd:d0:a4:af:e8:19:50:68:
         81:9c:9d:68:b0:97:0e:d1:67:f9:eb:ca:8c:11:b9:a3:8f:9f:
         6b:20:c1:38:8e:ba:96:e6:53:78:1c:7a:31:ff:8d:1f:68:80:
         8c:27:cb:04:76:81:ae:ea:97:7e:5c:6d:b5:22:4d:7d:45:46:
         c7:24:c8:d1:b1:02:de:1a:c4:14:51:62:a8:05:a5:5f:50:6d:
         fa:58:32:4c:e5:63:6c:2b:2c:78:c2:c0:12:14:21:88:7c:94:
         a8:35:14:bd:6b:38:71:5d:3a:93:8c:d1:19:8a:91:34:77:6e:
         b1:e1:08:5a:24:df:61:3e:f7:ff:12:f2:62:f8:23:09:1d:a1:
         82:55:bb:3d:69:0a:79:af:f5:f9:4b:9b:ac:9a:19:59:ed:c7:
         ee:6a:8f:51:8f:f6:cc:66:cf:91:22:c0:2e:02:9e:65:a1:b3:
         04:13:de:88:c7:cd:26:bc:5c:5b:ee:e1:af:f9:33:47:60:1a:
         18:cb:61:a9:39:0d:eb:2d:04:0d:04:56:13:e7:fa:e1:d6:b2:
         65:fb:b3:49:56:b6:5b:51:94:7d:cc:e3:36:33:bc:0e:dc:ca:
         9a:bc:85:e7:9f:b2:aa:9e:18:df:89:9c:0d:b3:65:3b:2a:29:
         2e:76:c5:36:41:13:de:13:93:4b:c9:f1:0e:00:8f:85:07:38:
         85:fe:1e:00:6d:03:7e:97:95:53:c3:9e:04:bb:09:84:2f:39:
         3a:82:08:bc:ff:28:a2:c0:67:7e:de:dd:17:7f:23:79:7f:22:
         ac:be:74:5a:31:4a:5f:05:d0:32:23:6d:7d:54:ed:c5:0e:b4:
         cb:ab:e0:cd:f7:12:5f:10:f5:19:2c:40:19:2c:35:f3:55:06:
         9b:3c:06:44:e2:ad:b5:a1:8a:2c:be:e9:30:11:83:fb:de:e5:
         31:ec:fc:89:bb:59:73:ef:7e:f3:24:61:c2:cc:ff:8e:87:39:
         6c:1f:5c:a1:1e:10:bd:6b:b4:3e:b6:45:70:71:6e:5f:70:b7:
         27:78:8d:48:70:21:62:90:1f:99:bd:f5:d8:d3:de:61:7b:ba:
         5b:8e:a8:b0:ab:87:85:61:12:99:1c:27:cd:31:9e:31:7c:02:
         a2:9e:2f:6c:7e:38:f6:20:df:3e:7f:9e:c9:02:1b:de:a2:f0:
         ce:8b:c8:0d:8c:46:2a:cc
-----BEGIN CERTIFICATE-----
MIIGCzCCA/OgAwIBAgIUXAk6Rc5h6Fy79imLVp4DjDCulEcwDQYJKoZIhvcNAQEL
BQAwfjELMAkGA1UEBhMCQ0gxEDAOBgNVBAgTB1RodXJnYXUxEDAOBgNVBAcTB0tl
Zmlrb24xEzARBgNVBAoTCmd1ZW5nZWwuY2gxEDAOBgNVBAMTB0NBIDIwMjIxJDAi
BgkqhkiG9w0BCQEWFXBvc3RtYXN0ZXJAZ3VlbmdlbC5jaDAeFw0yNDA0MDMxNTE1
MzZaFw0yNTA1MDgxNTE1MzZaMHMxCzAJBgNVBAYTAkNIMRAwDgYDVQQIEwdUaHVy
Z2F1MRMwEQYDVQQKEwpndWVuZ2VsLmNoMRcwFQYDVQQDEw52cG4uZ3VlbmdlbC5j
aDEkMCIGCSqGSIb3DQEJARYVcG9zdG1hc3RlckBndWVuZ2VsLmNoMIIBIjANBgkq
hkiG9w0BAQEFAAOCAQ8AMIIBCgKCAQEApTvtyTUd/LCntxOrjKyEpNmgeyeVbi7F
LnLEtDYY2yfXWbdhae4zG2QC1D24t99bKp2+jTI7sQraObF25uWxskT7DUEcVHRB
md2/ZS2QmGgcJ91w9/mzL7NrUe5Hki58TZpea4/cFnVtXR8FQz+aFY2E2A8lDz1H
jTbx7YY1ekevVPNzzONsZcWNLs4y+0euaAca9hT/IodTQMh1Rpn9pVDO+J2If49n
9HlGQMujgLhZpYm3npdbmdCCCiFhncBVoK50siL88DpbTeI3KMARN2jW/LGWeWZx
Jo+Kq+X2YqvoNuMt4tKMUkaazDlmZF3N6K5menKAI8LQmDckLuws6QIDAQABo4IB
ijCCAYYwDAYDVR0TAQH/BAIwADALBgNVHQ8EBAMCA6gwHQYDVR0OBBYEFC9O0A4W
LLrgaZ23K3xuBUwpoOwjMIG9BgNVHSMEgbUwgbKAFCIgDVFAYUK+3brZycF3tpMo
w5nsoYGDpIGAMH4xCzAJBgNVBAYTAkNIMRAwDgYDVQQIEwdUaHVyZ2F1MRAwDgYD
VQQHEwdLZWZpa29uMRMwEQYDVQQKEwpndWVuZ2VsLmNoMRAwDgYDVQQDEwdDQSAy
MDIyMSQwIgYJKoZIhvcNAQkBFhVwb3N0bWFzdGVyQGd1ZW5nZWwuY2iCFG0pkFTp
F+nCauZSrYROMI5uV/scMBEGCWCGSAGG+EIBAQQEAwIGQDATBgNVHSUEDDAKBggr
BgEFBQcDATBiBgNVHREEWzBZgg52cG4uZ3VlbmdlbC5jaIIWeWF5YXAuZG16Lmty
dWVtZWwuaG9tZYIXeWF5YXAud2xhbi5rcnVlbWVsLmhvbWWCFnlheWFwLnZwbi5r
cnVlbWVsLmhvbWUwDQYJKoZIhvcNAQELBQADggIBACXmGE+RA8oIhEXRuZ3vjl0m
rwS3sHXR/r2efCzimHWlMzwigJSy0IP9KmcMj1hg/NeHdyQl68CZUr0l0uE/EO69
0KSv6BlQaIGcnWiwlw7RZ/nryowRuaOPn2sgwTiOupbmU3gcejH/jR9ogIwnywR2
ga7ql35cbbUiTX1FRsckyNGxAt4axBRRYqgFpV9QbfpYMkzlY2wrLHjCwBIUIYh8
lKg1FL1rOHFdOpOM0RmKkTR3brHhCFok32E+9/8S8mL4IwkdoYJVuz1pCnmv9flL
m6yaGVntx+5qj1GP9sxmz5EiwC4CnmWhswQT3ojHzSa8XFvu4a/5M0dgGhjLYak5
DestBA0EVhPn+uHWsmX7s0lWtltRlH3M4zYzvA7cypq8heefsqqeGN+JnA2zZTsq
KS52xTZBE94Tk0vJ8Q4Aj4UHOIX+HgBtA36XlVPDngS7CYQvOTqCCLz/KKLAZ37e
3Rd/I3l/Iqy+dFoxSl8F0DIjbX1U7cUOtMur4M33El8Q9RksQBksNfNVBps8BkTi
rbWhiiy+6TARg/ve5THs/Im7WXPvfvMkYcLM/46HOWwfXKEeEL1rtD62RXBxbl9w
tyd4jUhwIWKQH5m99djT3mF7uluOqLCrh4VhEpkcJ80xnjF8AqKeL2x+OPYg3z5/
nskCG96i8M6LyA2MRirM
-----END CERTIFICATE-----
