Certificate:
    Data:
        Version: 3 (0x2)
        Serial Number: 364 (0x16c)
        Signature Algorithm: sha256WithRSAEncryption
        Issuer: C=CH, ST=Thurgau, L=Kefikon, O=guengel.ch, CN=CA guengel.ch/emailAddress=postmaster@guengel.ch
        Validity
            Not Before: Aug 17 10:44:23 2019 GMT
            Not After : Aug 31 10:44:23 2020 GMT
        Subject: C=CH, ST=Thurgau, O=guengel.ch, CN=web-1/emailAddress=postmaster@guengel.ch
        Subject Public Key Info:
            Public Key Algorithm: rsaEncryption
                RSA Public-Key: (2048 bit)
                Modulus:
                    00:c5:d6:10:3c:be:87:59:63:df:e3:b3:6c:8a:6d:
                    d6:d6:1f:60:1a:34:90:78:e9:96:17:c6:22:d9:19:
                    bd:aa:8d:de:0e:03:85:21:1a:be:f6:65:12:2a:08:
                    23:0b:95:f3:19:96:3e:7b:2d:7f:ca:5e:5f:76:53:
                    66:d9:06:96:a5:8e:f7:6a:92:3e:6a:33:3d:6f:7f:
                    1f:cd:73:37:af:95:0d:92:db:83:b1:00:2d:1e:fb:
                    9f:c1:ac:f7:9f:d8:56:eb:6a:89:49:17:87:b3:41:
                    fb:89:73:6e:ab:22:69:ba:7f:0b:51:03:00:59:bb:
                    ae:3d:76:66:c8:c6:0c:c3:f5:65:ad:b5:3c:ae:ed:
                    42:4d:f2:59:4a:f5:83:3e:ac:51:6c:a1:17:60:10:
                    b5:bc:cb:e0:72:0e:99:a1:e5:7a:f0:75:77:55:98:
                    7a:d3:ff:9e:ca:c1:69:94:cb:5c:30:25:3e:d6:c8:
                    ef:d2:32:67:1b:21:ee:23:a4:5e:2f:bf:3c:0c:89:
                    64:47:08:6b:56:41:6f:f3:42:dc:4f:32:62:f1:e7:
                    7d:11:8f:38:fe:6f:57:1e:9d:74:bc:5b:40:41:82:
                    5d:17:15:54:0a:f3:0a:2e:a0:68:7d:7d:94:aa:af:
                    b5:13:53:9a:f8:40:fd:2b:d1:19:32:6c:0f:95:8f:
                    c9:b7
                Exponent: 65537 (0x10001)
        X509v3 extensions:
            X509v3 Basic Constraints: 
                CA:FALSE
            Netscape Comment: 
                OpenSSL Generated Certificate
            X509v3 Subject Key Identifier: 
                B4:AC:5C:36:06:45:E8:94:64:7F:DF:3D:AD:0A:FA:71:A5:F4:7F:4C
            X509v3 Authority Key Identifier: 
                keyid:D6:88:F1:AA:C1:2B:09:8C:B8:5C:9D:CE:DF:57:39:62:26:10:20:90
                DirName:/C=CH/ST=Thurgau/L=Kefikon/O=guengel.ch/CN=CA guengel.ch/emailAddress=postmaster@guengel.ch
                serial:E5:25:3B:A6:77:BD:CB:FF

    Signature Algorithm: sha256WithRSAEncryption
         d2:ba:d2:6c:2e:9b:75:03:79:18:1f:7a:21:1e:41:72:38:9e:
         87:f4:bc:4b:6b:f6:49:8f:12:8c:89:c5:45:7a:22:f0:a2:ec:
         c0:ad:d6:25:8a:32:b6:38:89:fc:9d:a7:80:09:d9:be:1d:db:
         3b:8c:f6:40:84:71:da:e3:a7:15:18:f2:02:2f:86:8d:05:26:
         66:35:e2:33:26:c4:03:19:32:1a:f7:94:88:db:7d:b3:b7:7e:
         f6:c5:3a:a0:40:e7:73:02:43:4a:a9:58:43:f9:b9:91:4a:d9:
         b3:15:d6:bd:b6:60:bf:9d:01:de:4a:7a:43:8f:5c:79:2c:e3:
         65:72:68:5d:7e:9a:1a:9a:de:6d:b4:ed:b1:56:1f:11:95:10:
         21:16:81:b0:9d:16:18:30:18:19:ad:85:eb:40:78:36:e3:e7:
         32:a0:a9:b6:e1:20:57:dd:d2:07:68:52:d0:22:35:b3:ee:ca:
         06:08:0a:e4:69:50:22:f2:84:a0:ef:90:0f:42:23:45:af:7c:
         7e:fb:7b:3a:e1:7d:c9:bf:73:98:d0:53:86:e9:14:56:88:cb:
         74:9e:61:41:d7:c8:8c:56:c5:5b:13:9c:41:f7:74:4d:fb:66:
         1d:c2:99:02:c1:d2:fa:f2:0b:d5:61:51:fa:7a:be:62:f0:8a:
         0d:a2:95:97:53:52:1c:3d:d6:91:52:4b:65:f5:77:85:72:90:
         fa:8f:99:81:36:0e:c6:66:87:fa:17:57:1f:a6:47:df:a7:90:
         ab:05:b3:d1:f4:41:8d:02:a3:80:8a:63:26:45:81:b5:fd:60:
         d2:aa:77:4d:55:86:56:b5:74:40:f9:26:e9:db:10:e6:db:0b:
         5d:0a:87:2c:82:45:ab:01:31:28:01:ad:8b:c7:e3:2e:36:b9:
         cb:6a:99:b6:46:01:eb:5e:c9:40:ad:fd:49:0b:7b:aa:b9:61:
         f5:bd:9a:a3:65:6e:43:ac:54:1d:62:4d:32:ae:4e:41:e1:8f:
         37:18:f7:7b:d0:97:fb:b5:f7:47:fd:96:02:ab:43:f3:4e:b0:
         ab:f9:b3:91:98:7f:f0:53:69:61:a3:14:13:9f:4f:2e:c2:ac:
         b2:f8:9f:b4:30:92:b4:7c:0e:54:91:55:73:e3:f8:39:07:ca:
         0e:35:86:33:53:9b:a5:4b:8b:a7:53:b5:ee:76:09:ac:26:b8:
         fb:4b:d0:b2:9e:d5:cd:9c:5e:80:54:3e:2f:24:d8:d0:ab:b9:
         6c:03:ee:a9:56:b3:06:4e:0b:59:68:b9:9c:e6:94:47:e0:da:
         07:cd:21:6a:ea:99:07:0e:a1:2b:3f:dd:6b:b3:9a:99:26:2e:
         0a:27:09:f1:94:f8:4a:e4
-----BEGIN CERTIFICATE-----
MIIFhTCCA22gAwIBAgICAWwwDQYJKoZIhvcNAQELBQAwgYQxCzAJBgNVBAYTAkNI
MRAwDgYDVQQIEwdUaHVyZ2F1MRAwDgYDVQQHEwdLZWZpa29uMRMwEQYDVQQKEwpn
dWVuZ2VsLmNoMRYwFAYDVQQDEw1DQSBndWVuZ2VsLmNoMSQwIgYJKoZIhvcNAQkB
FhVwb3N0bWFzdGVyQGd1ZW5nZWwuY2gwHhcNMTkwODE3MTA0NDIzWhcNMjAwODMx
MTA0NDIzWjBqMQswCQYDVQQGEwJDSDEQMA4GA1UECBMHVGh1cmdhdTETMBEGA1UE
ChMKZ3VlbmdlbC5jaDEOMAwGA1UEAxMFd2ViLTExJDAiBgkqhkiG9w0BCQEWFXBv
c3RtYXN0ZXJAZ3VlbmdlbC5jaDCCASIwDQYJKoZIhvcNAQEBBQADggEPADCCAQoC
ggEBAMXWEDy+h1lj3+OzbIpt1tYfYBo0kHjplhfGItkZvaqN3g4DhSEavvZlEioI
IwuV8xmWPnstf8peX3ZTZtkGlqWO92qSPmozPW9/H81zN6+VDZLbg7EALR77n8Gs
95/YVutqiUkXh7NB+4lzbqsiabp/C1EDAFm7rj12ZsjGDMP1Za21PK7tQk3yWUr1
gz6sUWyhF2AQtbzL4HIOmaHlevB1d1WYetP/nsrBaZTLXDAlPtbI79IyZxsh7iOk
Xi+/PAyJZEcIa1ZBb/NC3E8yYvHnfRGPOP5vVx6ddLxbQEGCXRcVVArzCi6gaH19
lKqvtRNTmvhA/SvRGTJsD5WPybcCAwEAAaOCARgwggEUMAkGA1UdEwQCMAAwLAYJ
YIZIAYb4QgENBB8WHU9wZW5TU0wgR2VuZXJhdGVkIENlcnRpZmljYXRlMB0GA1Ud
DgQWBBS0rFw2BkXolGR/3z2tCvpxpfR/TDCBuQYDVR0jBIGxMIGugBTWiPGqwSsJ
jLhcnc7fVzliJhAgkKGBiqSBhzCBhDELMAkGA1UEBhMCQ0gxEDAOBgNVBAgTB1Ro
dXJnYXUxEDAOBgNVBAcTB0tlZmlrb24xEzARBgNVBAoTCmd1ZW5nZWwuY2gxFjAU
BgNVBAMTDUNBIGd1ZW5nZWwuY2gxJDAiBgkqhkiG9w0BCQEWFXBvc3RtYXN0ZXJA
Z3VlbmdlbC5jaIIJAOUlO6Z3vcv/MA0GCSqGSIb3DQEBCwUAA4ICAQDSutJsLpt1
A3kYH3ohHkFyOJ6H9LxLa/ZJjxKMicVFeiLwouzArdYlijK2OIn8naeACdm+Hds7
jPZAhHHa46cVGPICL4aNBSZmNeIzJsQDGTIa95SI232zt372xTqgQOdzAkNKqVhD
+bmRStmzFda9tmC/nQHeSnpDj1x5LONlcmhdfpoamt5ttO2xVh8RlRAhFoGwnRYY
MBgZrYXrQHg24+cyoKm24SBX3dIHaFLQIjWz7soGCArkaVAi8oSg75APQiNFr3x+
+3s64X3Jv3OY0FOG6RRWiMt0nmFB18iMVsVbE5xB93RN+2YdwpkCwdL68gvVYVH6
er5i8IoNopWXU1IcPdaRUktl9XeFcpD6j5mBNg7GZof6F1cfpkffp5CrBbPR9EGN
AqOAimMmRYG1/WDSqndNVYZWtXRA+Sbp2xDm2wtdCocsgkWrATEoAa2Lx+MuNrnL
apm2RgHrXslArf1JC3uquWH1vZqjZW5DrFQdYk0yrk5B4Y83GPd70Jf7tfdH/ZYC
q0PzTrCr+bORmH/wU2lhoxQTn08uwqyy+J+0MJK0fA5UkVVz4/g5B8oONYYzU5ul
S4unU7XudgmsJrj7S9CyntXNnF6AVD4vJNjQq7lsA+6pVrMGTgtZaLmc5pRH4NoH
zSFq6pkHDqErP91rs5qZJi4KJwnxlPhK5A==
-----END CERTIFICATE-----
