Certificate:
    Data:
        Version: 3 (0x2)
        Serial Number:
            56:7c:84:a8:44:20:a2:73:04:e2:f7:ec:6e:2a:f4:e0:76:fb:95:b6
        Signature Algorithm: sha256WithRSAEncryption
        Issuer: C=CH, ST=Thurgau, L=Kefikon, O=guengel.ch, CN=CA 2022/emailAddress=postmaster@guengel.ch
        Validity
            Not Before: Jan  3 14:04:38 2025 GMT
            Not After : Feb  7 14:04:38 2026 GMT
        Subject: C=CH, ST=Thurgau, O=guengel.ch, CN=web-1/emailAddress=postmaster@guengel.ch
        Subject Public Key Info:
            Public Key Algorithm: rsaEncryption
                Public-Key: (2048 bit)
                Modulus:
                    00:b0:72:e7:54:64:0d:39:ef:8e:e0:da:b9:e0:1b:
                    4f:b8:d6:e2:98:bc:63:16:f2:08:8c:be:22:9a:ae:
                    f5:71:62:d0:0f:a0:f5:3b:cf:ed:69:11:b6:e8:e7:
                    dd:cf:17:80:8d:90:7f:cf:bb:9e:d1:b2:2a:36:0e:
                    d3:33:f3:6c:04:5b:b8:f6:4b:26:cc:29:32:c5:49:
                    e7:75:d7:72:e1:f8:6a:2c:59:da:43:e1:c1:10:ee:
                    91:5b:4d:de:4b:01:06:45:68:9b:da:e9:b4:72:06:
                    25:73:e9:80:24:4d:25:fb:27:67:94:30:66:f9:bf:
                    61:c5:a1:54:ad:a4:82:50:04:ee:0d:04:e5:2d:c3:
                    50:5f:3b:15:e6:af:fb:fe:00:01:d2:71:8c:c1:4a:
                    b7:b8:ae:9d:31:09:ed:fc:b1:3b:f1:c6:d0:f3:29:
                    e1:23:d6:f3:03:1c:65:ee:e2:ad:41:5c:24:99:22:
                    7c:87:c4:f9:69:36:96:8e:37:af:74:cc:06:61:fe:
                    f5:b6:05:ea:8c:6b:50:7e:d8:93:de:b7:89:d8:17:
                    05:1a:36:68:cf:5e:31:c0:90:a9:e8:08:74:02:ff:
                    ae:15:cb:fd:4a:78:36:e3:fd:fb:bf:70:d1:01:8c:
                    4b:6f:55:8d:77:ab:af:d2:ba:23:74:6f:58:10:4d:
                    7d:17
                Exponent: 65537 (0x10001)
        X509v3 extensions:
            X509v3 Basic Constraints: critical
                CA:FALSE
            X509v3 Key Usage: 
                Digital Signature, Key Encipherment, Key Agreement
            X509v3 Subject Key Identifier: 
                5A:7E:83:79:BB:21:43:2A:5A:63:FA:36:E3:89:5F:DB:60:3C:FF:E5
            X509v3 Authority Key Identifier: 
                keyid:22:20:0D:51:40:61:42:BE:DD:BA:D9:C9:C1:77:B6:93:28:C3:99:EC
                DirName:/C=CH/ST=Thurgau/L=Kefikon/O=guengel.ch/CN=CA 2022/emailAddress=postmaster@guengel.ch
                serial:6D:29:90:54:E9:17:E9:C2:6A:E6:52:AD:84:4E:30:8E:6E:57:FB:1C
            Netscape Cert Type: 
                SSL Client, SSL Server
            X509v3 Extended Key Usage: 
                TLS Web Server Authentication, TLS Web Client Authentication
    Signature Algorithm: sha256WithRSAEncryption
    Signature Value:
        6f:e5:41:ba:6e:00:01:dc:5e:00:3c:1a:a8:57:d1:b3:d1:2c:
        73:bf:ef:0d:3b:20:d0:f4:04:2d:0c:d5:b3:4a:68:26:68:6f:
        07:9d:c9:29:9f:46:61:20:6a:df:e3:08:28:ae:72:48:de:22:
        c9:45:d0:1f:72:e7:f4:e3:3d:97:43:e5:4b:19:b8:aa:16:8e:
        5a:89:7a:b6:1c:98:cf:bd:1a:f9:29:a0:27:94:8b:46:3d:68:
        82:3a:3e:ba:d3:43:bb:78:e7:77:a1:b1:2a:0c:90:9e:75:7c:
        59:92:bf:20:50:22:ae:f1:57:97:e0:65:dd:4c:95:4d:8e:09:
        d9:ab:13:77:1b:9e:64:4e:50:af:44:ce:73:13:52:2e:e0:f7:
        a6:b9:95:ab:5c:56:7a:d9:e4:0a:27:e8:f9:b0:92:a2:2c:3f:
        f0:4d:9b:b8:2e:ff:df:96:ca:59:85:ab:5b:3d:3b:b2:dd:4a:
        fe:1c:4e:bd:68:70:e1:1d:c1:ca:ba:fb:8c:23:2c:ef:31:03:
        fd:b5:23:8d:41:c9:de:f3:20:ba:47:77:89:98:34:9a:30:4b:
        c1:4c:51:8b:35:95:82:78:ab:81:10:26:b1:ea:a4:08:56:5a:
        e6:64:ed:cd:9d:da:2a:4a:c8:51:16:fc:20:96:19:03:36:88:
        20:2f:e8:8e:d8:8d:e0:92:9a:47:b9:43:00:ac:dd:13:45:99:
        33:59:32:ad:78:86:58:d7:18:43:c5:52:a1:91:a6:43:f5:67:
        c9:c9:81:a0:c3:27:4c:07:79:50:15:a0:ee:76:74:be:63:e7:
        9a:c0:f6:48:f7:d1:c3:70:7e:7f:e6:8a:99:a5:b3:b5:11:93:
        6e:6c:cf:b3:aa:70:9b:00:5a:2b:59:71:d1:9d:4f:39:58:a8:
        ef:3b:3e:e9:12:9c:ac:13:c7:29:9e:77:9f:b3:1d:d0:30:78:
        b6:40:9a:95:d0:1f:7e:81:43:b0:e5:d6:6e:2a:99:5e:da:c8:
        45:5a:b2:9a:bc:68:0f:41:cb:04:bf:5c:99:8b:31:e6:8a:00:
        f9:1b:5f:44:f6:0d:4e:20:74:08:a7:84:df:d1:ef:60:ae:8a:
        77:52:a8:df:12:a3:45:20:fd:82:99:51:1a:81:e8:4d:d9:8e:
        ab:38:7f:63:a4:53:17:d0:d4:eb:bf:8b:3a:61:b4:0b:1b:9d:
        01:12:2a:d8:45:7f:38:ff:9b:69:06:f9:0e:0f:2e:00:f0:66:
        9d:0a:b6:6f:b7:85:98:68:cc:1d:a7:94:ef:c6:7d:02:65:ed:
        8a:3f:38:ad:5d:0f:99:b6:d5:82:e6:ac:00:31:a6:47:a3:68:
        2a:b9:b9:33:5d:ad:7c:f7
-----BEGIN CERTIFICATE-----
MIIFqDCCA5CgAwIBAgIUVnyEqEQgonME4vfsbir04Hb7lbYwDQYJKoZIhvcNAQEL
BQAwfjELMAkGA1UEBhMCQ0gxEDAOBgNVBAgTB1RodXJnYXUxEDAOBgNVBAcTB0tl
Zmlrb24xEzARBgNVBAoTCmd1ZW5nZWwuY2gxEDAOBgNVBAMTB0NBIDIwMjIxJDAi
BgkqhkiG9w0BCQEWFXBvc3RtYXN0ZXJAZ3VlbmdlbC5jaDAeFw0yNTAxMDMxNDA0
MzhaFw0yNjAyMDcxNDA0MzhaMGoxCzAJBgNVBAYTAkNIMRAwDgYDVQQIEwdUaHVy
Z2F1MRMwEQYDVQQKEwpndWVuZ2VsLmNoMQ4wDAYDVQQDEwV3ZWItMTEkMCIGCSqG
SIb3DQEJARYVcG9zdG1hc3RlckBndWVuZ2VsLmNoMIIBIjANBgkqhkiG9w0BAQEF
AAOCAQ8AMIIBCgKCAQEAsHLnVGQNOe+O4Nq54BtPuNbimLxjFvIIjL4imq71cWLQ
D6D1O8/taRG26OfdzxeAjZB/z7ue0bIqNg7TM/NsBFu49ksmzCkyxUnndddy4fhq
LFnaQ+HBEO6RW03eSwEGRWib2um0cgYlc+mAJE0l+ydnlDBm+b9hxaFUraSCUATu
DQTlLcNQXzsV5q/7/gAB0nGMwUq3uK6dMQnt/LE78cbQ8ynhI9bzAxxl7uKtQVwk
mSJ8h8T5aTaWjjevdMwGYf71tgXqjGtQftiT3reJ2BcFGjZoz14xwJCp6Ah0Av+u
Fcv9Sng24/37v3DRAYxLb1WNd6uv0rojdG9YEE19FwIDAQABo4IBMDCCASwwDAYD
VR0TAQH/BAIwADALBgNVHQ8EBAMCA6gwHQYDVR0OBBYEFFp+g3m7IUMqWmP6NuOJ
X9tgPP/lMIG9BgNVHSMEgbUwgbKAFCIgDVFAYUK+3brZycF3tpMow5nsoYGDpIGA
MH4xCzAJBgNVBAYTAkNIMRAwDgYDVQQIEwdUaHVyZ2F1MRAwDgYDVQQHEwdLZWZp
a29uMRMwEQYDVQQKEwpndWVuZ2VsLmNoMRAwDgYDVQQDEwdDQSAyMDIyMSQwIgYJ
KoZIhvcNAQkBFhVwb3N0bWFzdGVyQGd1ZW5nZWwuY2iCFG0pkFTpF+nCauZSrYRO
MI5uV/scMBEGCWCGSAGG+EIBAQQEAwIGwDAdBgNVHSUEFjAUBggrBgEFBQcDAQYI
KwYBBQUHAwIwDQYJKoZIhvcNAQELBQADggIBAG/lQbpuAAHcXgA8GqhX0bPRLHO/
7w07IND0BC0M1bNKaCZobwedySmfRmEgat/jCCiuckjeIslF0B9y5/TjPZdD5UsZ
uKoWjlqJerYcmM+9GvkpoCeUi0Y9aII6PrrTQ7t453ehsSoMkJ51fFmSvyBQIq7x
V5fgZd1MlU2OCdmrE3cbnmROUK9EznMTUi7g96a5latcVnrZ5Aon6PmwkqIsP/BN
m7gu/9+WylmFq1s9O7LdSv4cTr1ocOEdwcq6+4wjLO8xA/21I41Byd7zILpHd4mY
NJowS8FMUYs1lYJ4q4EQJrHqpAhWWuZk7c2d2ipKyFEW/CCWGQM2iCAv6I7YjeCS
mke5QwCs3RNFmTNZMq14hljXGEPFUqGRpkP1Z8nJgaDDJ0wHeVAVoO52dL5j55rA
9kj30cNwfn/mipmls7URk25sz7OqcJsAWitZcdGdTzlYqO87PukSnKwTxymed5+z
HdAweLZAmpXQH36BQ7Dl1m4qmV7ayEVaspq8aA9BywS/XJmLMeaKAPkbX0T2DU4g
dAinhN/R72CuindSqN8So0Ug/YKZURqB6E3Zjqs4f2OkUxfQ1Ou/izphtAsbnQES
KthFfzj/m2kG+Q4PLgDwZp0Ktm+3hZhozB2nlO/GfQJl7Yo/OK1dD5m21YLmrAAx
pkejaCq5uTNdrXz3
-----END CERTIFICATE-----
