Certificate:
    Data:
        Version: 3 (0x2)
        Serial Number:
            68:28:27:30:85:70:20:f6:18:dc:2d:f1:8a:8e:3d:bd:a0:c0:b6:b4
        Signature Algorithm: sha256WithRSAEncryption
        Issuer: C=CH, ST=Thurgau, L=Kefikon, O=guengel.ch, CN=CA 2022/emailAddress=postmaster@guengel.ch
        Validity
            Not Before: Dec 30 08:48:59 2023 GMT
            Not After : Feb  2 08:48:59 2025 GMT
        Subject: C=CH, ST=Thurgau, O=guengel.ch, CN=web-1/emailAddress=postmaster@guengel.ch
        Subject Public Key Info:
            Public Key Algorithm: rsaEncryption
                RSA Public-Key: (2048 bit)
                Modulus:
                    00:b0:72:e7:54:64:0d:39:ef:8e:e0:da:b9:e0:1b:
                    4f:b8:d6:e2:98:bc:63:16:f2:08:8c:be:22:9a:ae:
                    f5:71:62:d0:0f:a0:f5:3b:cf:ed:69:11:b6:e8:e7:
                    dd:cf:17:80:8d:90:7f:cf:bb:9e:d1:b2:2a:36:0e:
                    d3:33:f3:6c:04:5b:b8:f6:4b:26:cc:29:32:c5:49:
                    e7:75:d7:72:e1:f8:6a:2c:59:da:43:e1:c1:10:ee:
                    91:5b:4d:de:4b:01:06:45:68:9b:da:e9:b4:72:06:
                    25:73:e9:80:24:4d:25:fb:27:67:94:30:66:f9:bf:
                    61:c5:a1:54:ad:a4:82:50:04:ee:0d:04:e5:2d:c3:
                    50:5f:3b:15:e6:af:fb:fe:00:01:d2:71:8c:c1:4a:
                    b7:b8:ae:9d:31:09:ed:fc:b1:3b:f1:c6:d0:f3:29:
                    e1:23:d6:f3:03:1c:65:ee:e2:ad:41:5c:24:99:22:
                    7c:87:c4:f9:69:36:96:8e:37:af:74:cc:06:61:fe:
                    f5:b6:05:ea:8c:6b:50:7e:d8:93:de:b7:89:d8:17:
                    05:1a:36:68:cf:5e:31:c0:90:a9:e8:08:74:02:ff:
                    ae:15:cb:fd:4a:78:36:e3:fd:fb:bf:70:d1:01:8c:
                    4b:6f:55:8d:77:ab:af:d2:ba:23:74:6f:58:10:4d:
                    7d:17
                Exponent: 65537 (0x10001)
        X509v3 extensions:
            X509v3 Basic Constraints: critical
                CA:FALSE
            X509v3 Key Usage: 
                Digital Signature, Key Encipherment, Key Agreement
            X509v3 Subject Key Identifier: 
                5A:7E:83:79:BB:21:43:2A:5A:63:FA:36:E3:89:5F:DB:60:3C:FF:E5
            X509v3 Authority Key Identifier: 
                keyid:22:20:0D:51:40:61:42:BE:DD:BA:D9:C9:C1:77:B6:93:28:C3:99:EC
                DirName:/C=CH/ST=Thurgau/L=Kefikon/O=guengel.ch/CN=CA 2022/emailAddress=postmaster@guengel.ch
                serial:6D:29:90:54:E9:17:E9:C2:6A:E6:52:AD:84:4E:30:8E:6E:57:FB:1C

            Netscape Cert Type: 
                SSL Client, SSL Server
            X509v3 Extended Key Usage: 
                TLS Web Server Authentication, TLS Web Client Authentication
    Signature Algorithm: sha256WithRSAEncryption
         a0:21:03:e7:18:1b:e0:9c:25:b0:57:c5:9f:d3:35:f4:6d:a3:
         cb:04:6b:77:f5:1f:54:f0:93:6f:c4:01:6c:35:6e:06:5e:b4:
         66:05:b9:a8:61:6e:be:95:1f:40:81:63:3e:31:49:46:5c:d1:
         5e:64:6d:21:f6:68:60:59:2e:cb:54:0a:22:42:8a:26:91:65:
         70:95:56:15:46:1d:41:8e:9c:66:dd:c7:35:f8:d6:08:99:71:
         91:2e:48:4b:2b:dd:23:fc:1f:62:23:e7:c6:7c:3b:38:3c:1a:
         96:cf:13:3d:f9:89:58:5d:2a:4f:91:23:de:3e:9e:55:35:72:
         66:d0:59:ec:66:80:38:62:a0:58:98:25:f7:8b:18:65:67:92:
         72:e0:6c:c7:b3:f2:69:e3:9e:cf:1f:70:9e:b6:de:bc:27:21:
         6e:80:20:79:d8:20:75:4b:69:5b:ed:9c:14:ff:9d:aa:c0:75:
         40:f8:81:67:6f:4d:1d:99:da:5e:d5:4d:72:c0:9d:54:d7:cb:
         99:f3:d9:80:dd:fa:f3:4f:36:dd:cf:67:a3:15:c4:74:09:24:
         a9:a2:c0:fa:8e:9f:30:a9:ba:4b:21:31:be:61:3b:40:9b:d2:
         de:0d:15:23:ea:4b:1d:98:fa:34:7b:f1:1f:99:d7:9e:30:ca:
         87:03:e3:f1:b3:fc:19:87:36:ab:8b:57:16:04:7a:4f:18:5f:
         88:83:a8:b6:e2:82:de:01:9e:e1:c2:cc:13:80:70:e2:a6:8c:
         ed:8f:64:e8:09:51:3a:03:23:df:ee:35:a7:d2:87:df:dd:8b:
         4c:05:1a:b1:30:cb:78:b1:61:a5:fe:ca:8e:b5:2f:b7:84:fc:
         c7:35:27:bf:c8:fd:7b:a0:32:e0:09:31:85:ff:94:e6:5f:69:
         d5:76:2e:d4:e6:31:b3:be:cf:47:f5:a1:8c:37:6b:4c:f1:11:
         3f:8c:0e:4e:64:3b:41:80:c2:b2:c6:d0:5a:a7:2e:d9:44:ed:
         56:e3:d2:32:4f:bc:8b:da:6a:58:96:e0:cf:3f:cc:49:f3:f4:
         d8:64:32:6d:ae:30:47:3b:90:66:bb:15:1a:f7:b8:d0:31:1a:
         79:99:54:d5:53:a5:d9:28:a7:76:47:b0:b0:0d:f4:d4:d3:47:
         2e:39:a9:d4:4e:c9:4f:b6:d2:ed:eb:cf:93:93:89:83:f7:67:
         b4:2f:25:9d:7a:95:b0:dd:5a:1d:8d:8f:d3:32:02:e6:8f:06:
         36:dd:1d:44:d9:4a:80:21:e7:5c:c4:8b:59:4a:5f:73:96:d5:
         b9:a8:a0:98:2f:fa:e8:a1:60:41:31:73:d7:eb:1c:46:53:3b:
         cf:31:81:71:5a:16:03:ad
-----BEGIN CERTIFICATE-----
MIIFqDCCA5CgAwIBAgIUaCgnMIVwIPYY3C3xio49vaDAtrQwDQYJKoZIhvcNAQEL
BQAwfjELMAkGA1UEBhMCQ0gxEDAOBgNVBAgTB1RodXJnYXUxEDAOBgNVBAcTB0tl
Zmlrb24xEzARBgNVBAoTCmd1ZW5nZWwuY2gxEDAOBgNVBAMTB0NBIDIwMjIxJDAi
BgkqhkiG9w0BCQEWFXBvc3RtYXN0ZXJAZ3VlbmdlbC5jaDAeFw0yMzEyMzAwODQ4
NTlaFw0yNTAyMDIwODQ4NTlaMGoxCzAJBgNVBAYTAkNIMRAwDgYDVQQIEwdUaHVy
Z2F1MRMwEQYDVQQKEwpndWVuZ2VsLmNoMQ4wDAYDVQQDEwV3ZWItMTEkMCIGCSqG
SIb3DQEJARYVcG9zdG1hc3RlckBndWVuZ2VsLmNoMIIBIjANBgkqhkiG9w0BAQEF
AAOCAQ8AMIIBCgKCAQEAsHLnVGQNOe+O4Nq54BtPuNbimLxjFvIIjL4imq71cWLQ
D6D1O8/taRG26OfdzxeAjZB/z7ue0bIqNg7TM/NsBFu49ksmzCkyxUnndddy4fhq
LFnaQ+HBEO6RW03eSwEGRWib2um0cgYlc+mAJE0l+ydnlDBm+b9hxaFUraSCUATu
DQTlLcNQXzsV5q/7/gAB0nGMwUq3uK6dMQnt/LE78cbQ8ynhI9bzAxxl7uKtQVwk
mSJ8h8T5aTaWjjevdMwGYf71tgXqjGtQftiT3reJ2BcFGjZoz14xwJCp6Ah0Av+u
Fcv9Sng24/37v3DRAYxLb1WNd6uv0rojdG9YEE19FwIDAQABo4IBMDCCASwwDAYD
VR0TAQH/BAIwADALBgNVHQ8EBAMCA6gwHQYDVR0OBBYEFFp+g3m7IUMqWmP6NuOJ
X9tgPP/lMIG9BgNVHSMEgbUwgbKAFCIgDVFAYUK+3brZycF3tpMow5nsoYGDpIGA
MH4xCzAJBgNVBAYTAkNIMRAwDgYDVQQIEwdUaHVyZ2F1MRAwDgYDVQQHEwdLZWZp
a29uMRMwEQYDVQQKEwpndWVuZ2VsLmNoMRAwDgYDVQQDEwdDQSAyMDIyMSQwIgYJ
KoZIhvcNAQkBFhVwb3N0bWFzdGVyQGd1ZW5nZWwuY2iCFG0pkFTpF+nCauZSrYRO
MI5uV/scMBEGCWCGSAGG+EIBAQQEAwIGwDAdBgNVHSUEFjAUBggrBgEFBQcDAQYI
KwYBBQUHAwIwDQYJKoZIhvcNAQELBQADggIBAKAhA+cYG+CcJbBXxZ/TNfRto8sE
a3f1H1Twk2/EAWw1bgZetGYFuahhbr6VH0CBYz4xSUZc0V5kbSH2aGBZLstUCiJC
iiaRZXCVVhVGHUGOnGbdxzX41giZcZEuSEsr3SP8H2Ij58Z8Ozg8GpbPEz35iVhd
Kk+RI94+nlU1cmbQWexmgDhioFiYJfeLGGVnknLgbMez8mnjns8fcJ623rwnIW6A
IHnYIHVLaVvtnBT/narAdUD4gWdvTR2Z2l7VTXLAnVTXy5nz2YDd+vNPNt3PZ6MV
xHQJJKmiwPqOnzCpukshMb5hO0Cb0t4NFSPqSx2Y+jR78R+Z154wyocD4/Gz/BmH
NquLVxYEek8YX4iDqLbigt4BnuHCzBOAcOKmjO2PZOgJUToDI9/uNafSh9/di0wF
GrEwy3ixYaX+yo61L7eE/Mc1J7/I/XugMuAJMYX/lOZfadV2LtTmMbO+z0f1oYw3
a0zxET+MDk5kO0GAwrLG0FqnLtlE7Vbj0jJPvIvaaliW4M8/zEnz9NhkMm2uMEc7
kGa7FRr3uNAxGnmZVNVTpdkop3ZHsLAN9NTTRy45qdROyU+20u3rz5OTiYP3Z7Qv
JZ16lbDdWh2Nj9MyAuaPBjbdHUTZSoAh51zEi1lKX3OW1bmooJgv+uihYEExc9fr
HEZTO88xgXFaFgOt
-----END CERTIFICATE-----
