Certificate:
    Data:
        Version: 3 (0x2)
        Serial Number: 384 (0x180)
        Signature Algorithm: sha256WithRSAEncryption
        Issuer: C=CH, ST=Thurgau, L=Kefikon, O=guengel.ch, CN=CA guengel.ch/emailAddress=postmaster@guengel.ch
        Validity
            Not Before: Jan  3 10:09:01 2020 GMT
            Not After : Feb  6 10:09:01 2021 GMT
        Subject: C=CH, ST=Thurgau, O=guengel.ch, CN=web-1/emailAddress=postmaster@guengel.ch
        Subject Public Key Info:
            Public Key Algorithm: rsaEncryption
                RSA Public-Key: (2048 bit)
                Modulus:
                    00:c5:d6:10:3c:be:87:59:63:df:e3:b3:6c:8a:6d:
                    d6:d6:1f:60:1a:34:90:78:e9:96:17:c6:22:d9:19:
                    bd:aa:8d:de:0e:03:85:21:1a:be:f6:65:12:2a:08:
                    23:0b:95:f3:19:96:3e:7b:2d:7f:ca:5e:5f:76:53:
                    66:d9:06:96:a5:8e:f7:6a:92:3e:6a:33:3d:6f:7f:
                    1f:cd:73:37:af:95:0d:92:db:83:b1:00:2d:1e:fb:
                    9f:c1:ac:f7:9f:d8:56:eb:6a:89:49:17:87:b3:41:
                    fb:89:73:6e:ab:22:69:ba:7f:0b:51:03:00:59:bb:
                    ae:3d:76:66:c8:c6:0c:c3:f5:65:ad:b5:3c:ae:ed:
                    42:4d:f2:59:4a:f5:83:3e:ac:51:6c:a1:17:60:10:
                    b5:bc:cb:e0:72:0e:99:a1:e5:7a:f0:75:77:55:98:
                    7a:d3:ff:9e:ca:c1:69:94:cb:5c:30:25:3e:d6:c8:
                    ef:d2:32:67:1b:21:ee:23:a4:5e:2f:bf:3c:0c:89:
                    64:47:08:6b:56:41:6f:f3:42:dc:4f:32:62:f1:e7:
                    7d:11:8f:38:fe:6f:57:1e:9d:74:bc:5b:40:41:82:
                    5d:17:15:54:0a:f3:0a:2e:a0:68:7d:7d:94:aa:af:
                    b5:13:53:9a:f8:40:fd:2b:d1:19:32:6c:0f:95:8f:
                    c9:b7
                Exponent: 65537 (0x10001)
        X509v3 extensions:
            X509v3 Basic Constraints: 
                CA:FALSE
            Netscape Comment: 
                OpenSSL Generated Certificate
            X509v3 Subject Key Identifier: 
                B4:AC:5C:36:06:45:E8:94:64:7F:DF:3D:AD:0A:FA:71:A5:F4:7F:4C
            X509v3 Authority Key Identifier: 
                keyid:D6:88:F1:AA:C1:2B:09:8C:B8:5C:9D:CE:DF:57:39:62:26:10:20:90
                DirName:/C=CH/ST=Thurgau/L=Kefikon/O=guengel.ch/CN=CA guengel.ch/emailAddress=postmaster@guengel.ch
                serial:E5:25:3B:A6:77:BD:CB:FF

    Signature Algorithm: sha256WithRSAEncryption
         a9:45:a7:2e:6e:c0:88:2f:61:10:2d:96:18:76:2d:c3:48:49:
         39:32:c7:b1:a2:08:cc:17:69:53:9b:3d:1f:aa:7b:41:fe:a4:
         57:ba:72:37:dc:76:46:95:8f:f5:c2:41:6c:3e:5d:8b:69:2d:
         b7:eb:d0:57:92:0a:af:97:1a:54:a0:e5:0f:6d:1d:81:9b:2f:
         b2:7a:77:b1:bf:b8:56:52:65:6e:5e:f0:1b:bb:12:23:ed:0c:
         31:4e:f5:ab:14:5e:56:5c:c9:9d:09:9a:e1:9e:08:4f:77:4d:
         e8:a7:0b:bc:80:29:66:1a:d0:a6:95:83:8b:ee:f0:ee:96:e3:
         bd:66:f5:c9:12:64:33:2f:e1:97:ce:39:8f:62:5c:16:f3:62:
         dc:5b:5c:ea:88:90:79:93:ee:20:71:7d:ac:48:61:d7:bc:0a:
         65:b7:86:81:69:b4:74:61:f9:82:7c:42:0f:73:f1:2e:59:f1:
         40:82:49:20:0b:ae:8c:59:39:1d:55:a9:d8:16:14:8c:d0:8e:
         ec:97:9e:ab:2b:c3:fe:fc:e5:92:34:5f:f1:91:71:ea:18:4c:
         c1:04:a0:2b:05:cd:e0:bc:5b:41:48:f9:6a:f6:c1:2e:a9:ca:
         5b:ee:76:5d:78:c1:ca:6f:a5:a4:6d:dd:e3:b0:4e:4d:e7:11:
         4a:98:a3:b5:05:5c:f9:c1:58:44:37:e1:1a:02:85:4b:62:41:
         d9:16:f8:41:e9:c9:37:0c:10:7d:58:ef:30:6b:ad:c7:5d:c1:
         b4:e6:4b:1d:a1:c0:f2:c5:35:5a:aa:fb:68:32:44:85:57:69:
         89:54:be:79:a0:51:a5:93:40:52:26:d0:90:51:8b:54:ec:41:
         ba:7b:db:19:9e:8e:df:da:be:c6:fe:90:f4:19:1b:c1:31:de:
         ae:31:65:31:61:47:6c:57:6e:57:70:f7:67:6a:28:be:24:2c:
         e9:a0:6f:a3:17:12:6e:ef:aa:92:ef:b8:98:40:c6:17:3c:50:
         bd:e6:93:53:aa:98:9c:61:cf:5e:a4:6a:a4:cb:b2:a2:63:d3:
         f5:08:f6:62:0d:57:69:37:35:bc:8f:91:77:b9:70:db:63:b4:
         33:2a:3d:b4:0a:39:a3:c8:19:cf:94:44:44:18:17:ab:95:f2:
         75:d8:32:bd:a6:4a:47:95:ed:8d:58:d9:7d:ea:65:0d:70:2c:
         5b:72:b7:7e:31:7d:cf:2b:b3:71:d5:db:53:79:15:77:80:10:
         c5:f7:39:d7:12:9b:13:d1:8c:99:c0:3b:7f:d5:cc:73:30:da:
         f8:fe:fb:3a:58:cd:26:07:60:40:18:b8:4f:61:ec:26:e9:ab:
         19:91:72:11:6a:e0:c5:2d
-----BEGIN CERTIFICATE-----
MIIFhTCCA22gAwIBAgICAYAwDQYJKoZIhvcNAQELBQAwgYQxCzAJBgNVBAYTAkNI
MRAwDgYDVQQIEwdUaHVyZ2F1MRAwDgYDVQQHEwdLZWZpa29uMRMwEQYDVQQKEwpn
dWVuZ2VsLmNoMRYwFAYDVQQDEw1DQSBndWVuZ2VsLmNoMSQwIgYJKoZIhvcNAQkB
FhVwb3N0bWFzdGVyQGd1ZW5nZWwuY2gwHhcNMjAwMTAzMTAwOTAxWhcNMjEwMjA2
MTAwOTAxWjBqMQswCQYDVQQGEwJDSDEQMA4GA1UECBMHVGh1cmdhdTETMBEGA1UE
ChMKZ3VlbmdlbC5jaDEOMAwGA1UEAxMFd2ViLTExJDAiBgkqhkiG9w0BCQEWFXBv
c3RtYXN0ZXJAZ3VlbmdlbC5jaDCCASIwDQYJKoZIhvcNAQEBBQADggEPADCCAQoC
ggEBAMXWEDy+h1lj3+OzbIpt1tYfYBo0kHjplhfGItkZvaqN3g4DhSEavvZlEioI
IwuV8xmWPnstf8peX3ZTZtkGlqWO92qSPmozPW9/H81zN6+VDZLbg7EALR77n8Gs
95/YVutqiUkXh7NB+4lzbqsiabp/C1EDAFm7rj12ZsjGDMP1Za21PK7tQk3yWUr1
gz6sUWyhF2AQtbzL4HIOmaHlevB1d1WYetP/nsrBaZTLXDAlPtbI79IyZxsh7iOk
Xi+/PAyJZEcIa1ZBb/NC3E8yYvHnfRGPOP5vVx6ddLxbQEGCXRcVVArzCi6gaH19
lKqvtRNTmvhA/SvRGTJsD5WPybcCAwEAAaOCARgwggEUMAkGA1UdEwQCMAAwLAYJ
YIZIAYb4QgENBB8WHU9wZW5TU0wgR2VuZXJhdGVkIENlcnRpZmljYXRlMB0GA1Ud
DgQWBBS0rFw2BkXolGR/3z2tCvpxpfR/TDCBuQYDVR0jBIGxMIGugBTWiPGqwSsJ
jLhcnc7fVzliJhAgkKGBiqSBhzCBhDELMAkGA1UEBhMCQ0gxEDAOBgNVBAgTB1Ro
dXJnYXUxEDAOBgNVBAcTB0tlZmlrb24xEzARBgNVBAoTCmd1ZW5nZWwuY2gxFjAU
BgNVBAMTDUNBIGd1ZW5nZWwuY2gxJDAiBgkqhkiG9w0BCQEWFXBvc3RtYXN0ZXJA
Z3VlbmdlbC5jaIIJAOUlO6Z3vcv/MA0GCSqGSIb3DQEBCwUAA4ICAQCpRacubsCI
L2EQLZYYdi3DSEk5MsexogjMF2lTmz0fqntB/qRXunI33HZGlY/1wkFsPl2LaS23
69BXkgqvlxpUoOUPbR2Bmy+yenexv7hWUmVuXvAbuxIj7QwxTvWrFF5WXMmdCZrh
nghPd03opwu8gClmGtCmlYOL7vDuluO9ZvXJEmQzL+GXzjmPYlwW82LcW1zqiJB5
k+4gcX2sSGHXvAplt4aBabR0YfmCfEIPc/EuWfFAgkkgC66MWTkdVanYFhSM0I7s
l56rK8P+/OWSNF/xkXHqGEzBBKArBc3gvFtBSPlq9sEuqcpb7nZdeMHKb6Wkbd3j
sE5N5xFKmKO1BVz5wVhEN+EaAoVLYkHZFvhB6ck3DBB9WO8wa63HXcG05ksdocDy
xTVaqvtoMkSFV2mJVL55oFGlk0BSJtCQUYtU7EG6e9sZno7f2r7G/pD0GRvBMd6u
MWUxYUdsV25XcPdnaii+JCzpoG+jFxJu76qS77iYQMYXPFC95pNTqpicYc9epGqk
y7KiY9P1CPZiDVdpNzW8j5F3uXDbY7QzKj20CjmjyBnPlEREGBerlfJ12DK9pkpH
le2NWNl96mUNcCxbcrd+MX3PK7Nx1dtTeRV3gBDF9znXEpsT0YyZwDt/1cxzMNr4
/vs6WM0mB2BAGLhPYewm6asZkXIRauDFLQ==
-----END CERTIFICATE-----
