Certificate:
    Data:
        Version: 3 (0x2)
        Serial Number:
            57:ad:19:cb:1d:42:b3:62:37:23:84:8b:a5:b8:0a:be:bb:f0:2e:07
        Signature Algorithm: sha256WithRSAEncryption
        Issuer: C=CH, ST=Thurgau, L=Kefikon, O=guengel.ch, CN=CA 2022/emailAddress=postmaster@guengel.ch
        Validity
            Not Before: Feb 11 13:58:59 2022 GMT
            Not After : Mar 18 13:58:59 2023 GMT
        Subject: C=CH, ST=Thurgau, O=guengel.ch, CN=web-1/emailAddress=postmaster@guengel.ch
        Subject Public Key Info:
            Public Key Algorithm: rsaEncryption
                RSA Public-Key: (2048 bit)
                Modulus:
                    00:b0:72:e7:54:64:0d:39:ef:8e:e0:da:b9:e0:1b:
                    4f:b8:d6:e2:98:bc:63:16:f2:08:8c:be:22:9a:ae:
                    f5:71:62:d0:0f:a0:f5:3b:cf:ed:69:11:b6:e8:e7:
                    dd:cf:17:80:8d:90:7f:cf:bb:9e:d1:b2:2a:36:0e:
                    d3:33:f3:6c:04:5b:b8:f6:4b:26:cc:29:32:c5:49:
                    e7:75:d7:72:e1:f8:6a:2c:59:da:43:e1:c1:10:ee:
                    91:5b:4d:de:4b:01:06:45:68:9b:da:e9:b4:72:06:
                    25:73:e9:80:24:4d:25:fb:27:67:94:30:66:f9:bf:
                    61:c5:a1:54:ad:a4:82:50:04:ee:0d:04:e5:2d:c3:
                    50:5f:3b:15:e6:af:fb:fe:00:01:d2:71:8c:c1:4a:
                    b7:b8:ae:9d:31:09:ed:fc:b1:3b:f1:c6:d0:f3:29:
                    e1:23:d6:f3:03:1c:65:ee:e2:ad:41:5c:24:99:22:
                    7c:87:c4:f9:69:36:96:8e:37:af:74:cc:06:61:fe:
                    f5:b6:05:ea:8c:6b:50:7e:d8:93:de:b7:89:d8:17:
                    05:1a:36:68:cf:5e:31:c0:90:a9:e8:08:74:02:ff:
                    ae:15:cb:fd:4a:78:36:e3:fd:fb:bf:70:d1:01:8c:
                    4b:6f:55:8d:77:ab:af:d2:ba:23:74:6f:58:10:4d:
                    7d:17
                Exponent: 65537 (0x10001)
        X509v3 extensions:
            X509v3 Basic Constraints: critical
                CA:FALSE
            X509v3 Key Usage: 
                Digital Signature, Key Encipherment, Key Agreement
            X509v3 Subject Key Identifier: 
                5A:7E:83:79:BB:21:43:2A:5A:63:FA:36:E3:89:5F:DB:60:3C:FF:E5
            X509v3 Authority Key Identifier: 
                keyid:22:20:0D:51:40:61:42:BE:DD:BA:D9:C9:C1:77:B6:93:28:C3:99:EC
                DirName:/C=CH/ST=Thurgau/L=Kefikon/O=guengel.ch/CN=CA 2022/emailAddress=postmaster@guengel.ch
                serial:6D:29:90:54:E9:17:E9:C2:6A:E6:52:AD:84:4E:30:8E:6E:57:FB:1C

            Netscape Cert Type: 
                SSL Client, SSL Server
            X509v3 Extended Key Usage: 
                TLS Web Server Authentication, TLS Web Client Authentication
    Signature Algorithm: sha256WithRSAEncryption
         5d:fc:8e:b6:ad:2f:d4:a0:7b:1e:0d:7b:65:01:91:0c:64:1f:
         ac:52:a9:89:ef:66:6f:1d:ad:9a:32:0f:c5:84:4c:4c:d8:f8:
         4b:8c:4f:df:f8:5e:b7:e7:4c:70:8f:87:b0:a2:7c:e0:80:e1:
         09:62:35:96:a7:af:9e:db:90:46:48:88:e7:9a:80:24:6b:06:
         16:b3:6e:d1:65:42:47:71:72:de:b6:0e:7e:03:d7:f6:4f:97:
         69:6d:63:e4:2e:fb:4b:84:62:b2:3f:5b:e4:2e:de:7b:bb:1a:
         35:62:d8:98:2a:31:be:c0:04:c4:e3:61:77:16:c7:4c:b4:56:
         8d:0d:1b:d1:28:6c:13:89:12:c4:55:c6:77:64:b0:04:ab:97:
         12:4e:b9:b8:d0:65:b1:0e:d7:8a:fd:db:aa:ee:28:c9:87:cb:
         ff:b7:be:72:36:6f:80:fe:a2:10:80:9d:f6:c3:2f:0a:10:46:
         56:e7:62:59:67:ea:e3:ce:6e:9c:62:4e:3e:e0:ef:ba:20:f9:
         69:f4:40:9e:c2:95:b8:ac:e8:a5:7d:78:61:be:77:bf:87:af:
         a4:03:3a:2a:ea:86:3f:a6:8b:fc:17:4e:52:65:97:2f:dd:93:
         bf:9f:f1:19:05:44:29:00:a3:41:5d:4e:05:81:3f:a8:59:ae:
         0b:68:50:61:03:ba:cd:4f:1c:0a:1a:85:0f:99:d4:76:fb:ff:
         38:13:81:a1:d7:ac:ca:94:5a:ac:ad:25:ff:58:ff:5f:67:13:
         fa:d9:73:5a:33:f8:48:1a:bf:64:18:b5:4e:66:6b:82:1b:37:
         54:91:ca:8b:7f:bb:73:10:f2:ab:df:f3:d8:f5:53:9f:bd:4a:
         96:85:0c:4d:6f:40:39:02:fd:ef:12:0f:bc:d1:f0:29:54:b3:
         b5:cb:99:fc:10:5c:8d:f4:b0:d7:2f:90:3c:a2:7a:ee:db:92:
         2c:9c:ac:6c:81:90:b6:a9:7c:13:bc:4a:c3:cd:f4:cf:1d:32:
         2d:e9:6e:c4:58:15:e1:a1:10:ac:08:5e:06:b5:03:f0:97:37:
         68:3b:17:31:2b:d0:b3:d8:b0:b6:dd:46:fa:bb:b7:18:6d:57:
         37:82:56:1a:60:4d:1b:17:75:48:f0:99:94:7d:44:07:0e:7e:
         2d:61:18:72:84:f3:1c:2a:ef:ba:2a:22:92:39:fd:a9:bb:8f:
         cd:2f:4d:83:bd:85:5c:30:59:3f:dc:59:4a:5b:7f:fe:e9:67:
         ad:4d:ba:31:16:f0:be:0d:92:8d:87:ee:ef:7b:98:55:9a:0a:
         d3:99:02:1a:37:e0:64:35:46:cd:21:89:f9:24:ca:d0:b4:d1:
         06:37:08:2c:b2:f0:13:6a
-----BEGIN CERTIFICATE-----
MIIFqDCCA5CgAwIBAgIUV60Zyx1Cs2I3I4SLpbgKvrvwLgcwDQYJKoZIhvcNAQEL
BQAwfjELMAkGA1UEBhMCQ0gxEDAOBgNVBAgTB1RodXJnYXUxEDAOBgNVBAcTB0tl
Zmlrb24xEzARBgNVBAoTCmd1ZW5nZWwuY2gxEDAOBgNVBAMTB0NBIDIwMjIxJDAi
BgkqhkiG9w0BCQEWFXBvc3RtYXN0ZXJAZ3VlbmdlbC5jaDAeFw0yMjAyMTExMzU4
NTlaFw0yMzAzMTgxMzU4NTlaMGoxCzAJBgNVBAYTAkNIMRAwDgYDVQQIEwdUaHVy
Z2F1MRMwEQYDVQQKEwpndWVuZ2VsLmNoMQ4wDAYDVQQDEwV3ZWItMTEkMCIGCSqG
SIb3DQEJARYVcG9zdG1hc3RlckBndWVuZ2VsLmNoMIIBIjANBgkqhkiG9w0BAQEF
AAOCAQ8AMIIBCgKCAQEAsHLnVGQNOe+O4Nq54BtPuNbimLxjFvIIjL4imq71cWLQ
D6D1O8/taRG26OfdzxeAjZB/z7ue0bIqNg7TM/NsBFu49ksmzCkyxUnndddy4fhq
LFnaQ+HBEO6RW03eSwEGRWib2um0cgYlc+mAJE0l+ydnlDBm+b9hxaFUraSCUATu
DQTlLcNQXzsV5q/7/gAB0nGMwUq3uK6dMQnt/LE78cbQ8ynhI9bzAxxl7uKtQVwk
mSJ8h8T5aTaWjjevdMwGYf71tgXqjGtQftiT3reJ2BcFGjZoz14xwJCp6Ah0Av+u
Fcv9Sng24/37v3DRAYxLb1WNd6uv0rojdG9YEE19FwIDAQABo4IBMDCCASwwDAYD
VR0TAQH/BAIwADALBgNVHQ8EBAMCA6gwHQYDVR0OBBYEFFp+g3m7IUMqWmP6NuOJ
X9tgPP/lMIG9BgNVHSMEgbUwgbKAFCIgDVFAYUK+3brZycF3tpMow5nsoYGDpIGA
MH4xCzAJBgNVBAYTAkNIMRAwDgYDVQQIEwdUaHVyZ2F1MRAwDgYDVQQHEwdLZWZp
a29uMRMwEQYDVQQKEwpndWVuZ2VsLmNoMRAwDgYDVQQDEwdDQSAyMDIyMSQwIgYJ
KoZIhvcNAQkBFhVwb3N0bWFzdGVyQGd1ZW5nZWwuY2iCFG0pkFTpF+nCauZSrYRO
MI5uV/scMBEGCWCGSAGG+EIBAQQEAwIGwDAdBgNVHSUEFjAUBggrBgEFBQcDAQYI
KwYBBQUHAwIwDQYJKoZIhvcNAQELBQADggIBAF38jratL9Sgex4Ne2UBkQxkH6xS
qYnvZm8drZoyD8WETEzY+EuMT9/4XrfnTHCPh7CifOCA4QliNZanr57bkEZIiOea
gCRrBhazbtFlQkdxct62Dn4D1/ZPl2ltY+Qu+0uEYrI/W+Qu3nu7GjVi2JgqMb7A
BMTjYXcWx0y0Vo0NG9EobBOJEsRVxndksASrlxJOubjQZbEO14r926ruKMmHy/+3
vnI2b4D+ohCAnfbDLwoQRlbnYlln6uPObpxiTj7g77og+Wn0QJ7Clbis6KV9eGG+
d7+Hr6QDOirqhj+mi/wXTlJlly/dk7+f8RkFRCkAo0FdTgWBP6hZrgtoUGEDus1P
HAoahQ+Z1Hb7/zgTgaHXrMqUWqytJf9Y/19nE/rZc1oz+Egav2QYtU5ma4IbN1SR
yot/u3MQ8qvf89j1U5+9SpaFDE1vQDkC/e8SD7zR8ClUs7XLmfwQXI30sNcvkDyi
eu7bkiycrGyBkLapfBO8SsPN9M8dMi3pbsRYFeGhEKwIXga1A/CXN2g7FzEr0LPY
sLbdRvq7txhtVzeCVhpgTRsXdUjwmZR9RAcOfi1hGHKE8xwq77oqIpI5/am7j80v
TYO9hVwwWT/cWUpbf/7pZ61NujEW8L4Nko2H7u97mFWaCtOZAho34GQ1Rs0hifkk
ytC00QY3CCyy8BNq
-----END CERTIFICATE-----
