Certificate:
    Data:
        Version: 3 (0x2)
        Serial Number: 475 (0x1db)
        Signature Algorithm: sha256WithRSAEncryption
        Issuer: C=CH, ST=Thurgau, L=Kefikon, O=guengel.ch, CN=CA guengel.ch/emailAddress=postmaster@guengel.ch
        Validity
            Not Before: Feb 11 07:07:29 2022 GMT
            Not After : Mar 18 07:07:29 2023 GMT
        Subject: C=CH, ST=Thurgau, O=guengel.ch, CN=web-1/emailAddress=postmaster@guengel.ch
        Subject Public Key Info:
            Public Key Algorithm: rsaEncryption
                RSA Public-Key: (2048 bit)
                Modulus:
                    00:c5:d6:10:3c:be:87:59:63:df:e3:b3:6c:8a:6d:
                    d6:d6:1f:60:1a:34:90:78:e9:96:17:c6:22:d9:19:
                    bd:aa:8d:de:0e:03:85:21:1a:be:f6:65:12:2a:08:
                    23:0b:95:f3:19:96:3e:7b:2d:7f:ca:5e:5f:76:53:
                    66:d9:06:96:a5:8e:f7:6a:92:3e:6a:33:3d:6f:7f:
                    1f:cd:73:37:af:95:0d:92:db:83:b1:00:2d:1e:fb:
                    9f:c1:ac:f7:9f:d8:56:eb:6a:89:49:17:87:b3:41:
                    fb:89:73:6e:ab:22:69:ba:7f:0b:51:03:00:59:bb:
                    ae:3d:76:66:c8:c6:0c:c3:f5:65:ad:b5:3c:ae:ed:
                    42:4d:f2:59:4a:f5:83:3e:ac:51:6c:a1:17:60:10:
                    b5:bc:cb:e0:72:0e:99:a1:e5:7a:f0:75:77:55:98:
                    7a:d3:ff:9e:ca:c1:69:94:cb:5c:30:25:3e:d6:c8:
                    ef:d2:32:67:1b:21:ee:23:a4:5e:2f:bf:3c:0c:89:
                    64:47:08:6b:56:41:6f:f3:42:dc:4f:32:62:f1:e7:
                    7d:11:8f:38:fe:6f:57:1e:9d:74:bc:5b:40:41:82:
                    5d:17:15:54:0a:f3:0a:2e:a0:68:7d:7d:94:aa:af:
                    b5:13:53:9a:f8:40:fd:2b:d1:19:32:6c:0f:95:8f:
                    c9:b7
                Exponent: 65537 (0x10001)
        X509v3 extensions:
            X509v3 Key Usage: 
                Digital Signature, Key Encipherment, Key Agreement
            X509v3 Basic Constraints: critical
                CA:FALSE
            Netscape Cert Type: 
                SSL Client, SSL Server
            X509v3 Extended Key Usage: 
                TLS Web Server Authentication, TLS Web Client Authentication
            X509v3 Subject Alternative Name: 
                DNS:web-1
            X509v3 Subject Key Identifier: 
                B4:AC:5C:36:06:45:E8:94:64:7F:DF:3D:AD:0A:FA:71:A5:F4:7F:4C
            X509v3 Authority Key Identifier: 
                keyid:D6:88:F1:AA:C1:2B:09:8C:B8:5C:9D:CE:DF:57:39:62:26:10:20:90
                DirName:/C=CH/ST=Thurgau/L=Kefikon/O=guengel.ch/CN=CA guengel.ch/emailAddress=postmaster@guengel.ch
                serial:E5:25:3B:A6:77:BD:CB:FF

    Signature Algorithm: sha256WithRSAEncryption
         00:c6:03:5f:73:b6:e6:fe:7b:66:9a:50:6c:cb:b4:79:ce:c9:
         94:88:35:e3:83:06:0a:d5:10:ff:10:cb:16:90:3c:b6:f8:76:
         92:cb:d4:22:b8:f7:06:ae:f2:3e:5c:d5:58:35:9c:91:93:44:
         31:d5:19:97:1a:37:7d:c3:28:2b:8b:77:ee:98:c7:e0:1a:cf:
         4e:3a:7a:4e:31:62:2c:f9:77:96:89:3f:05:88:c5:25:58:63:
         7e:17:35:c9:f6:38:f4:a2:b6:f4:01:be:45:dd:51:9a:08:1a:
         e8:fc:d4:84:d7:fd:1f:e3:1a:e9:22:97:56:5c:00:36:5a:21:
         35:e8:83:06:2e:41:29:55:2f:e6:c1:d3:db:cd:39:43:bd:f6:
         f7:96:20:fd:1b:88:53:45:d2:ef:7b:75:22:89:31:7f:6e:d1:
         c3:43:68:e8:39:bf:0b:d6:22:fa:4c:2b:6a:a3:47:c3:ae:f2:
         cc:ba:f1:b2:8c:4e:b9:c5:29:c9:f7:01:19:94:c9:8e:d7:38:
         d9:ea:15:26:6b:a6:fd:6d:61:77:12:f4:29:6d:2b:28:0c:27:
         c3:64:d1:60:05:ee:72:b6:5d:6d:fa:92:50:a1:1f:42:8a:b7:
         f1:cb:66:8d:1c:32:0c:be:dd:5e:3f:bf:3d:05:85:d5:7a:df:
         da:5d:eb:b8:7f:62:fb:96:6d:41:a7:e6:e2:93:42:c2:f0:fc:
         7d:12:77:0a:7b:a5:c8:e8:e0:1a:f6:c3:18:df:3c:e8:db:c6:
         e2:9b:37:1d:ff:2e:b2:5c:5a:4b:02:80:fe:34:a5:bc:18:26:
         f7:ad:1c:58:45:cb:95:2d:fb:03:e8:e0:65:b3:96:7e:94:1a:
         23:fd:e0:ad:10:ff:de:e9:40:68:70:67:45:d8:1c:f6:90:66:
         de:ce:aa:74:3d:48:f4:08:d0:83:08:99:19:9f:17:76:0f:bf:
         50:8c:b6:1b:3c:63:68:54:bf:88:7a:0e:d2:82:32:8e:ec:f4:
         6f:26:0f:8b:50:fd:33:2a:a6:17:5b:92:b0:d5:ec:15:f6:bf:
         fe:a2:10:d1:60:28:d1:7a:c5:3a:5f:3c:a6:3a:f9:29:81:2f:
         8a:84:a1:82:b2:fa:98:aa:76:7b:5c:e1:51:df:5c:6e:a8:86:
         14:8e:75:33:d2:92:a6:3d:7d:ea:78:be:7b:28:b5:c1:16:5d:
         9e:9c:c7:5d:6a:d7:86:f0:3d:5e:85:9d:56:8d:a4:d5:31:49:
         8b:f6:ef:8c:49:30:91:0d:b3:85:cc:50:ed:98:3c:6d:71:57:
         db:57:b2:b0:85:ce:34:1e:21:51:a6:47:89:36:d4:77:04:e0:
         60:0c:1b:c0:e5:0e:34:99
-----BEGIN CERTIFICATE-----
MIIFqzCCA5OgAwIBAgICAdswDQYJKoZIhvcNAQELBQAwgYQxCzAJBgNVBAYTAkNI
MRAwDgYDVQQIEwdUaHVyZ2F1MRAwDgYDVQQHEwdLZWZpa29uMRMwEQYDVQQKEwpn
dWVuZ2VsLmNoMRYwFAYDVQQDEw1DQSBndWVuZ2VsLmNoMSQwIgYJKoZIhvcNAQkB
FhVwb3N0bWFzdGVyQGd1ZW5nZWwuY2gwHhcNMjIwMjExMDcwNzI5WhcNMjMwMzE4
MDcwNzI5WjBqMQswCQYDVQQGEwJDSDEQMA4GA1UECBMHVGh1cmdhdTETMBEGA1UE
ChMKZ3VlbmdlbC5jaDEOMAwGA1UEAxMFd2ViLTExJDAiBgkqhkiG9w0BCQEWFXBv
c3RtYXN0ZXJAZ3VlbmdlbC5jaDCCASIwDQYJKoZIhvcNAQEBBQADggEPADCCAQoC
ggEBAMXWEDy+h1lj3+OzbIpt1tYfYBo0kHjplhfGItkZvaqN3g4DhSEavvZlEioI
IwuV8xmWPnstf8peX3ZTZtkGlqWO92qSPmozPW9/H81zN6+VDZLbg7EALR77n8Gs
95/YVutqiUkXh7NB+4lzbqsiabp/C1EDAFm7rj12ZsjGDMP1Za21PK7tQk3yWUr1
gz6sUWyhF2AQtbzL4HIOmaHlevB1d1WYetP/nsrBaZTLXDAlPtbI79IyZxsh7iOk
Xi+/PAyJZEcIa1ZBb/NC3E8yYvHnfRGPOP5vVx6ddLxbQEGCXRcVVArzCi6gaH19
lKqvtRNTmvhA/SvRGTJsD5WPybcCAwEAAaOCAT4wggE6MAsGA1UdDwQEAwIDqDAM
BgNVHRMBAf8EAjAAMBEGCWCGSAGG+EIBAQQEAwIGwDAdBgNVHSUEFjAUBggrBgEF
BQcDAQYIKwYBBQUHAwIwEAYDVR0RBAkwB4IFd2ViLTEwHQYDVR0OBBYEFLSsXDYG
ReiUZH/fPa0K+nGl9H9MMIG5BgNVHSMEgbEwga6AFNaI8arBKwmMuFydzt9XOWIm
ECCQoYGKpIGHMIGEMQswCQYDVQQGEwJDSDEQMA4GA1UECBMHVGh1cmdhdTEQMA4G
A1UEBxMHS2VmaWtvbjETMBEGA1UEChMKZ3VlbmdlbC5jaDEWMBQGA1UEAxMNQ0Eg
Z3VlbmdlbC5jaDEkMCIGCSqGSIb3DQEJARYVcG9zdG1hc3RlckBndWVuZ2VsLmNo
ggkA5SU7pne9y/8wDQYJKoZIhvcNAQELBQADggIBAADGA19ztub+e2aaUGzLtHnO
yZSINeODBgrVEP8QyxaQPLb4dpLL1CK49wau8j5c1Vg1nJGTRDHVGZcaN33DKCuL
d+6Yx+Aaz046ek4xYiz5d5aJPwWIxSVYY34XNcn2OPSitvQBvkXdUZoIGuj81ITX
/R/jGukil1ZcADZaITXogwYuQSlVL+bB09vNOUO99veWIP0biFNF0u97dSKJMX9u
0cNDaOg5vwvWIvpMK2qjR8Ou8sy68bKMTrnFKcn3ARmUyY7XONnqFSZrpv1tYXcS
9CltKygMJ8Nk0WAF7nK2XW36klChH0KKt/HLZo0cMgy+3V4/vz0FhdV639pd67h/
YvuWbUGn5uKTQsLw/H0Sdwp7pcjo4Br2wxjfPOjbxuKbNx3/LrJcWksCgP40pbwY
JvetHFhFy5Ut+wPo4GWzln6UGiP94K0Q/97pQGhwZ0XYHPaQZt7OqnQ9SPQI0IMI
mRmfF3YPv1CMths8Y2hUv4h6DtKCMo7s9G8mD4tQ/TMqphdbkrDV7BX2v/6iENFg
KNF6xTpfPKY6+SmBL4qEoYKy+piqdntc4VHfXG6ohhSOdTPSkqY9fep4vnsotcEW
XZ6cx11q14bwPV6FnVaNpNUxSYv274xJMJENs4XMUO2YPG1xV9tXsrCFzjQeIVGm
R4k21HcE4GAMG8DlDjSZ
-----END CERTIFICATE-----
