Certificate:
    Data:
        Version: 3 (0x2)
        Serial Number: 427 (0x1ab)
        Signature Algorithm: sha256WithRSAEncryption
        Issuer: C=CH, ST=Thurgau, L=Kefikon, O=guengel.ch, CN=CA guengel.ch/emailAddress=postmaster@guengel.ch
        Validity
            Not Before: Feb  6 15:14:34 2021 GMT
            Not After : Mar 13 15:14:34 2022 GMT
        Subject: C=CH, ST=Thurgau, O=guengel.ch, CN=web-1/emailAddress=postmaster@guengel.ch
        Subject Public Key Info:
            Public Key Algorithm: rsaEncryption
                RSA Public-Key: (2048 bit)
                Modulus:
                    00:c5:d6:10:3c:be:87:59:63:df:e3:b3:6c:8a:6d:
                    d6:d6:1f:60:1a:34:90:78:e9:96:17:c6:22:d9:19:
                    bd:aa:8d:de:0e:03:85:21:1a:be:f6:65:12:2a:08:
                    23:0b:95:f3:19:96:3e:7b:2d:7f:ca:5e:5f:76:53:
                    66:d9:06:96:a5:8e:f7:6a:92:3e:6a:33:3d:6f:7f:
                    1f:cd:73:37:af:95:0d:92:db:83:b1:00:2d:1e:fb:
                    9f:c1:ac:f7:9f:d8:56:eb:6a:89:49:17:87:b3:41:
                    fb:89:73:6e:ab:22:69:ba:7f:0b:51:03:00:59:bb:
                    ae:3d:76:66:c8:c6:0c:c3:f5:65:ad:b5:3c:ae:ed:
                    42:4d:f2:59:4a:f5:83:3e:ac:51:6c:a1:17:60:10:
                    b5:bc:cb:e0:72:0e:99:a1:e5:7a:f0:75:77:55:98:
                    7a:d3:ff:9e:ca:c1:69:94:cb:5c:30:25:3e:d6:c8:
                    ef:d2:32:67:1b:21:ee:23:a4:5e:2f:bf:3c:0c:89:
                    64:47:08:6b:56:41:6f:f3:42:dc:4f:32:62:f1:e7:
                    7d:11:8f:38:fe:6f:57:1e:9d:74:bc:5b:40:41:82:
                    5d:17:15:54:0a:f3:0a:2e:a0:68:7d:7d:94:aa:af:
                    b5:13:53:9a:f8:40:fd:2b:d1:19:32:6c:0f:95:8f:
                    c9:b7
                Exponent: 65537 (0x10001)
        X509v3 extensions:
            X509v3 Key Usage: 
                Digital Signature, Key Encipherment, Key Agreement
            X509v3 Basic Constraints: critical
                CA:FALSE
            Netscape Cert Type: 
                SSL Client, SSL Server
            X509v3 Extended Key Usage: 
                TLS Web Server Authentication, TLS Web Client Authentication
            X509v3 Subject Alternative Name: 
                DNS:web-1
            X509v3 Subject Key Identifier: 
                B4:AC:5C:36:06:45:E8:94:64:7F:DF:3D:AD:0A:FA:71:A5:F4:7F:4C
            X509v3 Authority Key Identifier: 
                keyid:D6:88:F1:AA:C1:2B:09:8C:B8:5C:9D:CE:DF:57:39:62:26:10:20:90
                DirName:/C=CH/ST=Thurgau/L=Kefikon/O=guengel.ch/CN=CA guengel.ch/emailAddress=postmaster@guengel.ch
                serial:E5:25:3B:A6:77:BD:CB:FF

    Signature Algorithm: sha256WithRSAEncryption
         94:21:e4:34:cd:f8:1c:a8:e0:fc:78:2c:1d:2d:2b:b2:91:ef:
         32:45:9b:4d:08:2a:32:52:ab:27:15:2f:b0:44:bc:73:e6:53:
         b6:2a:2a:f5:53:33:c0:be:20:95:d3:71:28:94:05:cf:f9:e7:
         fa:a0:de:38:fd:a5:b6:1c:27:54:19:5e:39:b5:1b:62:f1:ce:
         0a:a9:4b:94:15:94:7a:6c:7c:38:ee:b9:16:2b:be:a0:ac:53:
         89:2b:c4:91:8f:72:66:63:66:fe:a4:d1:5e:99:b0:c7:03:58:
         43:e8:18:81:60:47:25:2f:a5:0d:2a:3b:00:60:92:e8:f5:17:
         fc:a1:87:5b:4e:8f:75:de:40:40:ec:b5:0c:6d:42:1e:92:58:
         ba:49:6b:98:41:f3:eb:71:df:a7:18:ab:89:6a:7a:c1:82:f8:
         dd:d3:f1:48:77:35:f7:33:27:ed:73:58:2c:e0:be:fd:86:70:
         e7:c2:95:7c:e5:9e:1c:a7:98:fe:38:76:1e:e1:89:af:b4:e6:
         3c:4c:d7:e4:56:f5:ce:ee:0b:6c:7e:1d:c7:b6:6f:97:de:5a:
         93:fb:04:1f:a0:5e:71:9d:48:ca:67:03:f8:a4:22:f9:6a:7b:
         69:9a:1d:00:bf:40:02:01:6b:8a:b0:79:c3:03:22:19:11:38:
         a4:c7:a8:04:e4:a2:91:a2:27:e3:01:90:61:76:6e:13:a0:2f:
         de:18:c4:c3:f0:f0:92:46:be:84:8c:46:03:0b:1b:16:f8:b9:
         ee:cb:01:a5:21:4f:a2:70:07:8d:4f:58:5d:83:6f:da:9c:a7:
         51:62:fe:ea:08:cc:2b:9b:d8:a0:ec:22:7a:10:b6:44:78:be:
         d4:eb:12:a3:8b:5b:86:68:c5:4c:dd:fe:7e:d9:8f:72:a6:bf:
         c5:37:e6:9a:58:c0:01:c2:c3:77:6f:50:75:31:db:10:3f:d5:
         6c:f0:ce:a8:39:1f:74:08:15:6d:49:7e:ab:41:8b:9b:7e:92:
         5f:51:32:5d:29:f8:f1:49:c9:a7:36:e7:70:a4:96:1c:f2:6b:
         b9:34:5c:f7:ab:2b:e3:a2:8d:7e:80:d2:2a:5e:ef:03:c2:40:
         ef:c4:01:5f:f2:3f:02:9b:36:d8:8a:46:af:66:0b:a5:28:49:
         45:11:15:bd:92:8c:5a:43:17:76:4c:4e:1e:58:68:99:51:9b:
         80:c7:25:f2:32:57:7b:19:7d:33:90:5e:53:cd:92:a3:7f:cb:
         eb:ea:03:bd:f6:af:96:6f:cb:4d:19:35:f6:b4:9d:06:3b:20:
         61:58:3c:ca:08:19:3c:43:5b:77:30:d6:1f:a9:3c:9e:30:ef:
         52:c2:43:a9:bd:4c:b0:f0
-----BEGIN CERTIFICATE-----
MIIFqzCCA5OgAwIBAgICAaswDQYJKoZIhvcNAQELBQAwgYQxCzAJBgNVBAYTAkNI
MRAwDgYDVQQIEwdUaHVyZ2F1MRAwDgYDVQQHEwdLZWZpa29uMRMwEQYDVQQKEwpn
dWVuZ2VsLmNoMRYwFAYDVQQDEw1DQSBndWVuZ2VsLmNoMSQwIgYJKoZIhvcNAQkB
FhVwb3N0bWFzdGVyQGd1ZW5nZWwuY2gwHhcNMjEwMjA2MTUxNDM0WhcNMjIwMzEz
MTUxNDM0WjBqMQswCQYDVQQGEwJDSDEQMA4GA1UECBMHVGh1cmdhdTETMBEGA1UE
ChMKZ3VlbmdlbC5jaDEOMAwGA1UEAxMFd2ViLTExJDAiBgkqhkiG9w0BCQEWFXBv
c3RtYXN0ZXJAZ3VlbmdlbC5jaDCCASIwDQYJKoZIhvcNAQEBBQADggEPADCCAQoC
ggEBAMXWEDy+h1lj3+OzbIpt1tYfYBo0kHjplhfGItkZvaqN3g4DhSEavvZlEioI
IwuV8xmWPnstf8peX3ZTZtkGlqWO92qSPmozPW9/H81zN6+VDZLbg7EALR77n8Gs
95/YVutqiUkXh7NB+4lzbqsiabp/C1EDAFm7rj12ZsjGDMP1Za21PK7tQk3yWUr1
gz6sUWyhF2AQtbzL4HIOmaHlevB1d1WYetP/nsrBaZTLXDAlPtbI79IyZxsh7iOk
Xi+/PAyJZEcIa1ZBb/NC3E8yYvHnfRGPOP5vVx6ddLxbQEGCXRcVVArzCi6gaH19
lKqvtRNTmvhA/SvRGTJsD5WPybcCAwEAAaOCAT4wggE6MAsGA1UdDwQEAwIDqDAM
BgNVHRMBAf8EAjAAMBEGCWCGSAGG+EIBAQQEAwIGwDAdBgNVHSUEFjAUBggrBgEF
BQcDAQYIKwYBBQUHAwIwEAYDVR0RBAkwB4IFd2ViLTEwHQYDVR0OBBYEFLSsXDYG
ReiUZH/fPa0K+nGl9H9MMIG5BgNVHSMEgbEwga6AFNaI8arBKwmMuFydzt9XOWIm
ECCQoYGKpIGHMIGEMQswCQYDVQQGEwJDSDEQMA4GA1UECBMHVGh1cmdhdTEQMA4G
A1UEBxMHS2VmaWtvbjETMBEGA1UEChMKZ3VlbmdlbC5jaDEWMBQGA1UEAxMNQ0Eg
Z3VlbmdlbC5jaDEkMCIGCSqGSIb3DQEJARYVcG9zdG1hc3RlckBndWVuZ2VsLmNo
ggkA5SU7pne9y/8wDQYJKoZIhvcNAQELBQADggIBAJQh5DTN+Byo4Px4LB0tK7KR
7zJFm00IKjJSqycVL7BEvHPmU7YqKvVTM8C+IJXTcSiUBc/55/qg3jj9pbYcJ1QZ
Xjm1G2LxzgqpS5QVlHpsfDjuuRYrvqCsU4krxJGPcmZjZv6k0V6ZsMcDWEPoGIFg
RyUvpQ0qOwBgkuj1F/yhh1tOj3XeQEDstQxtQh6SWLpJa5hB8+tx36cYq4lqesGC
+N3T8Uh3NfczJ+1zWCzgvv2GcOfClXzlnhynmP44dh7hia+05jxM1+RW9c7uC2x+
Hce2b5feWpP7BB+gXnGdSMpnA/ikIvlqe2maHQC/QAIBa4qwecMDIhkROKTHqATk
opGiJ+MBkGF2bhOgL94YxMPw8JJGvoSMRgMLGxb4ue7LAaUhT6JwB41PWF2Db9qc
p1Fi/uoIzCub2KDsInoQtkR4vtTrEqOLW4ZoxUzd/n7Zj3Kmv8U35ppYwAHCw3dv
UHUx2xA/1Wzwzqg5H3QIFW1JfqtBi5t+kl9RMl0p+PFJyac253Cklhzya7k0XPer
K+OijX6A0ipe7wPCQO/EAV/yPwKbNtiKRq9mC6UoSUURFb2SjFpDF3ZMTh5YaJlR
m4DHJfIyV3sZfTOQXlPNkqN/y+vqA732r5Zvy00ZNfa0nQY7IGFYPMoIGTxDW3cw
1h+pPJ4w71LCQ6m9TLDw
-----END CERTIFICATE-----
