Certificate:
    Data:
        Version: 3 (0x2)
        Serial Number:
            65:71:ea:1f:04:7b:66:31:04:10:7e:4f:5b:61:81:78:54:93:df:68
        Signature Algorithm: sha256WithRSAEncryption
        Issuer: C=CH, ST=Thurgau, L=Kefikon, O=guengel.ch, CN=CA 2022/emailAddress=postmaster@guengel.ch
        Validity
            Not Before: Feb 28 06:47:41 2023 GMT
            Not After : Apr  3 06:47:41 2024 GMT
        Subject: C=CH, ST=Thurgau, O=guengel.ch, CN=web-1/emailAddress=postmaster@guengel.ch
        Subject Public Key Info:
            Public Key Algorithm: rsaEncryption
                RSA Public-Key: (2048 bit)
                Modulus:
                    00:b0:72:e7:54:64:0d:39:ef:8e:e0:da:b9:e0:1b:
                    4f:b8:d6:e2:98:bc:63:16:f2:08:8c:be:22:9a:ae:
                    f5:71:62:d0:0f:a0:f5:3b:cf:ed:69:11:b6:e8:e7:
                    dd:cf:17:80:8d:90:7f:cf:bb:9e:d1:b2:2a:36:0e:
                    d3:33:f3:6c:04:5b:b8:f6:4b:26:cc:29:32:c5:49:
                    e7:75:d7:72:e1:f8:6a:2c:59:da:43:e1:c1:10:ee:
                    91:5b:4d:de:4b:01:06:45:68:9b:da:e9:b4:72:06:
                    25:73:e9:80:24:4d:25:fb:27:67:94:30:66:f9:bf:
                    61:c5:a1:54:ad:a4:82:50:04:ee:0d:04:e5:2d:c3:
                    50:5f:3b:15:e6:af:fb:fe:00:01:d2:71:8c:c1:4a:
                    b7:b8:ae:9d:31:09:ed:fc:b1:3b:f1:c6:d0:f3:29:
                    e1:23:d6:f3:03:1c:65:ee:e2:ad:41:5c:24:99:22:
                    7c:87:c4:f9:69:36:96:8e:37:af:74:cc:06:61:fe:
                    f5:b6:05:ea:8c:6b:50:7e:d8:93:de:b7:89:d8:17:
                    05:1a:36:68:cf:5e:31:c0:90:a9:e8:08:74:02:ff:
                    ae:15:cb:fd:4a:78:36:e3:fd:fb:bf:70:d1:01:8c:
                    4b:6f:55:8d:77:ab:af:d2:ba:23:74:6f:58:10:4d:
                    7d:17
                Exponent: 65537 (0x10001)
        X509v3 extensions:
            X509v3 Basic Constraints: critical
                CA:FALSE
            X509v3 Key Usage: 
                Digital Signature, Key Encipherment, Key Agreement
            X509v3 Subject Key Identifier: 
                5A:7E:83:79:BB:21:43:2A:5A:63:FA:36:E3:89:5F:DB:60:3C:FF:E5
            X509v3 Authority Key Identifier: 
                keyid:22:20:0D:51:40:61:42:BE:DD:BA:D9:C9:C1:77:B6:93:28:C3:99:EC
                DirName:/C=CH/ST=Thurgau/L=Kefikon/O=guengel.ch/CN=CA 2022/emailAddress=postmaster@guengel.ch
                serial:6D:29:90:54:E9:17:E9:C2:6A:E6:52:AD:84:4E:30:8E:6E:57:FB:1C

            Netscape Cert Type: 
                SSL Client, SSL Server
            X509v3 Extended Key Usage: 
                TLS Web Server Authentication, TLS Web Client Authentication
    Signature Algorithm: sha256WithRSAEncryption
         c0:0c:29:05:2c:54:5c:27:38:28:32:a8:15:6c:06:e7:38:2c:
         21:66:69:3e:a9:d0:df:32:e6:60:66:29:33:4e:6b:e1:21:b2:
         45:43:ff:73:16:17:af:84:ce:b0:bb:8f:80:9f:ba:8b:5d:e4:
         37:b5:1b:f7:74:a5:0a:ae:97:60:e3:81:2c:92:3b:e4:c7:8d:
         00:08:53:c9:01:33:24:f8:f0:de:1d:79:f1:28:6a:b3:84:b3:
         d9:a7:d5:7b:e6:7e:42:d7:5e:e8:03:55:61:0f:74:f0:e6:fd:
         01:15:95:2b:6f:e9:57:3b:77:70:12:88:9f:50:83:69:4b:ff:
         82:fd:11:74:65:b4:11:19:4d:e0:40:f5:76:6a:79:33:cf:74:
         de:d1:1d:6e:78:75:08:46:8f:e6:da:0d:f9:58:47:23:80:d8:
         4c:07:6c:d7:ae:72:95:17:1f:9c:d9:15:8b:18:93:bd:58:b4:
         9c:af:22:ee:43:f8:8f:8c:37:62:13:46:51:d3:6d:29:b0:35:
         97:8c:74:1e:d4:c5:9b:fb:b8:52:2d:ee:63:87:b7:1c:07:1a:
         bb:9f:3c:81:d6:75:6d:0c:c2:6e:78:ad:a8:0f:81:71:6e:37:
         b3:3b:ad:dd:bf:e6:28:4f:e5:b4:31:92:f5:bf:8f:2b:6e:d0:
         4f:30:a5:4b:43:3e:c1:3d:ce:ca:39:c6:e3:ab:33:2e:d0:26:
         0c:24:aa:4b:ee:9d:20:11:3d:10:d8:79:38:3e:7a:10:95:58:
         23:32:cf:0e:14:72:82:03:18:1a:e1:a2:8c:83:b0:ad:29:8c:
         ec:d6:e2:21:c1:86:f5:88:8c:d1:6b:42:53:44:b9:82:82:94:
         69:b2:f8:98:78:af:80:6a:bb:e1:d2:7a:25:4d:48:b8:04:e4:
         1f:dd:ca:8e:d2:89:3f:32:5f:c0:1f:41:78:7b:4d:93:fa:6d:
         6d:e8:9b:af:74:e2:0f:e4:32:87:a9:60:a0:c8:77:d9:e7:f3:
         63:83:01:e5:34:fe:fc:18:99:ac:91:b2:a0:5f:da:8c:35:7c:
         4c:ff:18:bd:cd:5f:4f:5d:d5:f5:94:cb:2e:48:4c:42:ba:ce:
         24:e5:ae:04:e3:8b:65:a3:29:f8:aa:60:41:fd:f8:1a:0f:51:
         2b:81:57:65:c8:fb:1c:90:1c:09:1e:30:cd:a4:87:a0:dc:96:
         bd:1b:c6:e9:c0:ee:6d:c3:5c:ed:3c:29:e0:94:64:98:f7:00:
         3c:6a:36:2c:cd:55:5f:88:f0:58:49:9f:dd:7d:04:f5:9b:91:
         56:53:dc:15:c8:1a:48:25:f4:b2:b8:35:cc:8e:62:c8:c3:c5:
         a8:7b:ae:cf:74:db:16:f6
-----BEGIN CERTIFICATE-----
MIIFqDCCA5CgAwIBAgIUZXHqHwR7ZjEEEH5PW2GBeFST32gwDQYJKoZIhvcNAQEL
BQAwfjELMAkGA1UEBhMCQ0gxEDAOBgNVBAgTB1RodXJnYXUxEDAOBgNVBAcTB0tl
Zmlrb24xEzARBgNVBAoTCmd1ZW5nZWwuY2gxEDAOBgNVBAMTB0NBIDIwMjIxJDAi
BgkqhkiG9w0BCQEWFXBvc3RtYXN0ZXJAZ3VlbmdlbC5jaDAeFw0yMzAyMjgwNjQ3
NDFaFw0yNDA0MDMwNjQ3NDFaMGoxCzAJBgNVBAYTAkNIMRAwDgYDVQQIEwdUaHVy
Z2F1MRMwEQYDVQQKEwpndWVuZ2VsLmNoMQ4wDAYDVQQDEwV3ZWItMTEkMCIGCSqG
SIb3DQEJARYVcG9zdG1hc3RlckBndWVuZ2VsLmNoMIIBIjANBgkqhkiG9w0BAQEF
AAOCAQ8AMIIBCgKCAQEAsHLnVGQNOe+O4Nq54BtPuNbimLxjFvIIjL4imq71cWLQ
D6D1O8/taRG26OfdzxeAjZB/z7ue0bIqNg7TM/NsBFu49ksmzCkyxUnndddy4fhq
LFnaQ+HBEO6RW03eSwEGRWib2um0cgYlc+mAJE0l+ydnlDBm+b9hxaFUraSCUATu
DQTlLcNQXzsV5q/7/gAB0nGMwUq3uK6dMQnt/LE78cbQ8ynhI9bzAxxl7uKtQVwk
mSJ8h8T5aTaWjjevdMwGYf71tgXqjGtQftiT3reJ2BcFGjZoz14xwJCp6Ah0Av+u
Fcv9Sng24/37v3DRAYxLb1WNd6uv0rojdG9YEE19FwIDAQABo4IBMDCCASwwDAYD
VR0TAQH/BAIwADALBgNVHQ8EBAMCA6gwHQYDVR0OBBYEFFp+g3m7IUMqWmP6NuOJ
X9tgPP/lMIG9BgNVHSMEgbUwgbKAFCIgDVFAYUK+3brZycF3tpMow5nsoYGDpIGA
MH4xCzAJBgNVBAYTAkNIMRAwDgYDVQQIEwdUaHVyZ2F1MRAwDgYDVQQHEwdLZWZp
a29uMRMwEQYDVQQKEwpndWVuZ2VsLmNoMRAwDgYDVQQDEwdDQSAyMDIyMSQwIgYJ
KoZIhvcNAQkBFhVwb3N0bWFzdGVyQGd1ZW5nZWwuY2iCFG0pkFTpF+nCauZSrYRO
MI5uV/scMBEGCWCGSAGG+EIBAQQEAwIGwDAdBgNVHSUEFjAUBggrBgEFBQcDAQYI
KwYBBQUHAwIwDQYJKoZIhvcNAQELBQADggIBAMAMKQUsVFwnOCgyqBVsBuc4LCFm
aT6p0N8y5mBmKTNOa+EhskVD/3MWF6+EzrC7j4Cfuotd5De1G/d0pQqul2DjgSyS
O+THjQAIU8kBMyT48N4defEoarOEs9mn1XvmfkLXXugDVWEPdPDm/QEVlStv6Vc7
d3ASiJ9Qg2lL/4L9EXRltBEZTeBA9XZqeTPPdN7RHW54dQhGj+baDflYRyOA2EwH
bNeucpUXH5zZFYsYk71YtJyvIu5D+I+MN2ITRlHTbSmwNZeMdB7UxZv7uFIt7mOH
txwHGrufPIHWdW0Mwm54ragPgXFuN7M7rd2/5ihP5bQxkvW/jytu0E8wpUtDPsE9
zso5xuOrMy7QJgwkqkvunSARPRDYeTg+ehCVWCMyzw4UcoIDGBrhooyDsK0pjOzW
4iHBhvWIjNFrQlNEuYKClGmy+Jh4r4Bqu+HSeiVNSLgE5B/dyo7SiT8yX8AfQXh7
TZP6bW3om6904g/kMoepYKDId9nn82ODAeU0/vwYmayRsqBf2ow1fEz/GL3NX09d
1fWUyy5ITEK6ziTlrgTji2WjKfiqYEH9+BoPUSuBV2XI+xyQHAkeMM2kh6Dclr0b
xunA7m3DXO08KeCUZJj3ADxqNizNVV+I8FhJn919BPWbkVZT3BXIGkgl9LK4NcyO
YsjDxah7rs902xb2
-----END CERTIFICATE-----
