Certificate:
    Data:
        Version: 3 (0x2)
        Serial Number: 286 (0x11e)
    Signature Algorithm: sha256WithRSAEncryption
        Issuer: C=CH, ST=Thurgau, L=Kefikon, O=guengel.ch, CN=CA guengel.ch/emailAddress=postmaster@guengel.ch
        Validity
            Not Before: Dec 26 11:15:22 2017 GMT
            Not After : Jan 10 11:15:22 2019 GMT
        Subject: C=CH, ST=Thurgau, O=guengel.ch, CN=webmail.web.kruemel.home/emailAddress=postmaster@guengel.ch
        Subject Public Key Info:
            Public Key Algorithm: rsaEncryption
                Public-Key: (2048 bit)
                Modulus:
                    00:a3:ca:06:5c:08:66:6d:e0:06:00:c0:ff:f6:6d:
                    3f:54:b9:17:da:8f:85:e5:4d:eb:d5:22:37:e4:05:
                    1b:f8:32:4a:d0:0a:00:cd:2a:d5:d1:fc:86:33:58:
                    87:7f:2f:24:c5:4c:ac:ff:c8:88:8b:0b:4c:95:4c:
                    a2:95:ea:b1:4d:d5:46:c1:a4:9e:99:ad:8a:16:c5:
                    f1:13:56:a5:b9:aa:23:4a:c2:93:a9:e5:ab:0c:b4:
                    3e:69:04:44:55:ee:49:cd:14:05:03:00:e3:a6:26:
                    f2:50:78:83:aa:68:59:34:ae:de:6f:97:df:3d:da:
                    6f:9e:f8:46:79:f1:06:3d:a9:07:63:46:a7:33:f8:
                    7f:7d:31:32:46:0e:54:bc:68:c3:a0:5e:97:2e:97:
                    a0:6e:8f:19:06:7b:46:4a:00:cb:d5:bd:13:c4:7b:
                    e0:7b:ef:c7:77:fc:4a:a6:e5:36:7d:d2:10:1a:ce:
                    1d:59:90:14:db:0f:3e:2d:97:c1:67:e4:64:31:7e:
                    4e:1d:1b:6f:75:12:16:5d:a2:aa:c2:ca:ad:61:81:
                    14:c1:60:38:37:f8:bb:2b:f0:3b:4f:8a:21:cc:30:
                    8c:20:53:20:6d:06:09:9b:f8:c7:cd:e5:18:4a:2e:
                    70:3b:a2:48:3b:3c:41:b5:4b:e1:f9:f7:51:c3:1f:
                    4a:11
                Exponent: 65537 (0x10001)
        X509v3 extensions:
            X509v3 Basic Constraints: 
                CA:FALSE
            Netscape Comment: 
                OpenSSL Generated Certificate
            X509v3 Subject Key Identifier: 
                56:28:D6:D4:29:E4:86:BA:B0:D8:79:65:FB:A3:FB:DC:2E:A4:ED:80
            X509v3 Authority Key Identifier: 
                keyid:D6:88:F1:AA:C1:2B:09:8C:B8:5C:9D:CE:DF:57:39:62:26:10:20:90
                DirName:/C=CH/ST=Thurgau/L=Kefikon/O=guengel.ch/CN=CA guengel.ch/emailAddress=postmaster@guengel.ch
                serial:E5:25:3B:A6:77:BD:CB:FF

    Signature Algorithm: sha256WithRSAEncryption
         51:ee:e0:52:d3:a4:cb:d3:73:e3:05:e3:8b:c3:d8:d3:a8:74:
         be:f2:8b:cf:00:1e:98:6b:e6:fe:b3:ea:2b:94:ee:1f:fc:e5:
         f2:30:45:99:17:88:17:01:82:8f:c0:ad:d4:6e:71:7d:fd:bc:
         cc:2c:3b:3a:b9:a0:9a:a0:a3:6a:c3:02:0e:df:50:c4:66:27:
         ac:32:53:f7:17:8d:6a:6d:34:b3:d1:81:a7:28:f2:49:58:c7:
         70:eb:70:c3:90:27:24:d4:2a:c2:f4:cf:e8:b1:38:a5:5c:cf:
         d7:13:45:22:4c:73:79:ce:4d:b8:8b:6f:5d:45:2e:cb:f9:17:
         7d:86:0d:79:b4:c8:e7:fb:67:65:4f:2d:14:51:bd:eb:91:51:
         84:32:55:bb:8e:5b:7f:90:4b:60:32:09:fc:1d:77:9e:00:2f:
         7f:57:de:62:7a:f3:eb:48:99:9b:48:51:cd:21:67:83:d8:9e:
         a4:a4:ff:33:6a:de:7e:b8:ec:f9:80:7e:7f:9e:e6:96:0e:8e:
         25:e9:34:a6:82:4d:c6:00:64:05:2a:8b:84:65:2b:0a:b7:df:
         8c:1e:67:f3:05:27:85:89:33:bd:e4:be:48:00:5e:47:b0:9a:
         6d:21:cc:e6:9f:11:42:99:b7:b8:c1:2b:18:f0:89:0a:3d:4a:
         9a:b6:12:d6:d0:73:06:ce:e9:27:6d:db:60:1a:dd:08:63:64:
         08:b9:c8:ae:ab:34:5b:9f:18:4b:b1:f1:5f:c5:30:1f:4f:f8:
         4a:c1:87:ee:5a:4d:05:1a:27:6a:a8:45:66:bb:77:fa:31:29:
         a2:db:3f:7a:1f:70:83:f9:62:3a:5d:90:4f:7e:23:40:6e:bf:
         c2:fa:f1:ba:60:7a:10:79:b6:b8:84:46:59:44:d3:d6:5d:b8:
         43:d7:24:52:31:78:05:ca:ba:10:bb:ab:24:b7:19:6c:a9:dd:
         55:c8:48:fe:a2:d3:e2:db:c3:d5:23:ee:36:6c:d0:ef:de:ad:
         01:63:39:8b:51:8d:5d:7d:78:00:a7:c3:d7:3d:1b:3e:f1:19:
         e5:70:25:ad:5c:fc:96:94:c3:e6:97:27:e7:51:7b:df:cb:2c:
         6b:64:44:f3:60:69:9a:ed:f1:30:4d:44:d0:1c:8e:f6:8e:f1:
         d6:12:fe:8d:b3:4f:05:d5:ab:fc:d2:6c:98:83:13:fd:e0:2f:
         4a:8d:fa:41:5b:8d:1e:46:5f:6b:cb:9b:a8:32:1a:48:1b:b2:
         05:de:d3:49:61:2b:a7:09:d8:2f:c3:48:3b:ab:93:a0:5b:38:
         2d:0f:83:df:b4:19:11:2d:c3:42:04:64:2a:2b:94:2f:45:d1:
         c2:6e:61:c1:05:8c:23:36
-----BEGIN CERTIFICATE-----
MIIFmDCCA4CgAwIBAgICAR4wDQYJKoZIhvcNAQELBQAwgYQxCzAJBgNVBAYTAkNI
MRAwDgYDVQQIEwdUaHVyZ2F1MRAwDgYDVQQHEwdLZWZpa29uMRMwEQYDVQQKEwpn
dWVuZ2VsLmNoMRYwFAYDVQQDEw1DQSBndWVuZ2VsLmNoMSQwIgYJKoZIhvcNAQkB
FhVwb3N0bWFzdGVyQGd1ZW5nZWwuY2gwHhcNMTcxMjI2MTExNTIyWhcNMTkwMTEw
MTExNTIyWjB9MQswCQYDVQQGEwJDSDEQMA4GA1UECBMHVGh1cmdhdTETMBEGA1UE
ChMKZ3VlbmdlbC5jaDEhMB8GA1UEAxMYd2VibWFpbC53ZWIua3J1ZW1lbC5ob21l
MSQwIgYJKoZIhvcNAQkBFhVwb3N0bWFzdGVyQGd1ZW5nZWwuY2gwggEiMA0GCSqG
SIb3DQEBAQUAA4IBDwAwggEKAoIBAQCjygZcCGZt4AYAwP/2bT9UuRfaj4XlTevV
IjfkBRv4MkrQCgDNKtXR/IYzWId/LyTFTKz/yIiLC0yVTKKV6rFN1UbBpJ6ZrYoW
xfETVqW5qiNKwpOp5asMtD5pBERV7knNFAUDAOOmJvJQeIOqaFk0rt5vl9892m+e
+EZ58QY9qQdjRqcz+H99MTJGDlS8aMOgXpcul6BujxkGe0ZKAMvVvRPEe+B778d3
/Eqm5TZ90hAazh1ZkBTbDz4tl8Fn5GQxfk4dG291EhZdoqrCyq1hgRTBYDg3+Lsr
8DtPiiHMMIwgUyBtBgmb+MfN5RhKLnA7okg7PEG1S+H591HDH0oRAgMBAAGjggEY
MIIBFDAJBgNVHRMEAjAAMCwGCWCGSAGG+EIBDQQfFh1PcGVuU1NMIEdlbmVyYXRl
ZCBDZXJ0aWZpY2F0ZTAdBgNVHQ4EFgQUVijW1Cnkhrqw2Hll+6P73C6k7YAwgbkG
A1UdIwSBsTCBroAU1ojxqsErCYy4XJ3O31c5YiYQIJChgYqkgYcwgYQxCzAJBgNV
BAYTAkNIMRAwDgYDVQQIEwdUaHVyZ2F1MRAwDgYDVQQHEwdLZWZpa29uMRMwEQYD
VQQKEwpndWVuZ2VsLmNoMRYwFAYDVQQDEw1DQSBndWVuZ2VsLmNoMSQwIgYJKoZI
hvcNAQkBFhVwb3N0bWFzdGVyQGd1ZW5nZWwuY2iCCQDlJTumd73L/zANBgkqhkiG
9w0BAQsFAAOCAgEAUe7gUtOky9Nz4wXji8PY06h0vvKLzwAemGvm/rPqK5TuH/zl
8jBFmReIFwGCj8Ct1G5xff28zCw7OrmgmqCjasMCDt9QxGYnrDJT9xeNam00s9GB
pyjySVjHcOtww5AnJNQqwvTP6LE4pVzP1xNFIkxzec5NuItvXUUuy/kXfYYNebTI
5/tnZU8tFFG965FRhDJVu45bf5BLYDIJ/B13ngAvf1feYnrz60iZm0hRzSFng9ie
pKT/M2refrjs+YB+f57mlg6OJek0poJNxgBkBSqLhGUrCrffjB5n8wUnhYkzveS+
SABeR7CabSHM5p8RQpm3uMErGPCJCj1KmrYS1tBzBs7pJ23bYBrdCGNkCLnIrqs0
W58YS7HxX8UwH0/4SsGH7lpNBRonaqhFZrt3+jEpots/eh9wg/liOl2QT34jQG6/
wvrxumB6EHm2uIRGWUTT1l24Q9ckUjF4Bcq6ELurJLcZbKndVchI/qLT4tvD1SPu
NmzQ796tAWM5i1GNXX14AKfD1z0bPvEZ5XAlrVz8lpTD5pcn51F738ssa2RE82Bp
mu3xME1E0ByO9o7x1hL+jbNPBdWr/NJsmIMT/eAvSo36QVuNHkZfa8ubqDIaSBuy
Bd7TSWErpwnYL8NIO6uToFs4LQ+D37QZES3DQgRkKiuUL0XRwm5hwQWMIzY=
-----END CERTIFICATE-----
