Certificate:
    Data:
        Version: 3 (0x2)
        Serial Number: 357 (0x165)
    Signature Algorithm: sha256WithRSAEncryption
        Issuer: C=CH, ST=Thurgau, L=Kefikon, O=guengel.ch, CN=CA guengel.ch/emailAddress=postmaster@guengel.ch
        Validity
            Not Before: Dec 29 14:40:05 2018 GMT
            Not After : Feb  2 14:40:05 2020 GMT
        Subject: C=CH, ST=Thurgau, O=guengel.ch, CN=webmail.web.kruemel.home/emailAddress=postmaster@guengel.ch
        Subject Public Key Info:
            Public Key Algorithm: rsaEncryption
                Public-Key: (2048 bit)
                Modulus:
                    00:a3:ca:06:5c:08:66:6d:e0:06:00:c0:ff:f6:6d:
                    3f:54:b9:17:da:8f:85:e5:4d:eb:d5:22:37:e4:05:
                    1b:f8:32:4a:d0:0a:00:cd:2a:d5:d1:fc:86:33:58:
                    87:7f:2f:24:c5:4c:ac:ff:c8:88:8b:0b:4c:95:4c:
                    a2:95:ea:b1:4d:d5:46:c1:a4:9e:99:ad:8a:16:c5:
                    f1:13:56:a5:b9:aa:23:4a:c2:93:a9:e5:ab:0c:b4:
                    3e:69:04:44:55:ee:49:cd:14:05:03:00:e3:a6:26:
                    f2:50:78:83:aa:68:59:34:ae:de:6f:97:df:3d:da:
                    6f:9e:f8:46:79:f1:06:3d:a9:07:63:46:a7:33:f8:
                    7f:7d:31:32:46:0e:54:bc:68:c3:a0:5e:97:2e:97:
                    a0:6e:8f:19:06:7b:46:4a:00:cb:d5:bd:13:c4:7b:
                    e0:7b:ef:c7:77:fc:4a:a6:e5:36:7d:d2:10:1a:ce:
                    1d:59:90:14:db:0f:3e:2d:97:c1:67:e4:64:31:7e:
                    4e:1d:1b:6f:75:12:16:5d:a2:aa:c2:ca:ad:61:81:
                    14:c1:60:38:37:f8:bb:2b:f0:3b:4f:8a:21:cc:30:
                    8c:20:53:20:6d:06:09:9b:f8:c7:cd:e5:18:4a:2e:
                    70:3b:a2:48:3b:3c:41:b5:4b:e1:f9:f7:51:c3:1f:
                    4a:11
                Exponent: 65537 (0x10001)
        X509v3 extensions:
            X509v3 Basic Constraints: 
                CA:FALSE
            Netscape Comment: 
                OpenSSL Generated Certificate
            X509v3 Subject Key Identifier: 
                56:28:D6:D4:29:E4:86:BA:B0:D8:79:65:FB:A3:FB:DC:2E:A4:ED:80
            X509v3 Authority Key Identifier: 
                keyid:D6:88:F1:AA:C1:2B:09:8C:B8:5C:9D:CE:DF:57:39:62:26:10:20:90
                DirName:/C=CH/ST=Thurgau/L=Kefikon/O=guengel.ch/CN=CA guengel.ch/emailAddress=postmaster@guengel.ch
                serial:E5:25:3B:A6:77:BD:CB:FF

    Signature Algorithm: sha256WithRSAEncryption
         1a:82:6f:39:00:d1:7f:45:9d:42:0b:c0:ad:aa:d1:e8:d8:f3:
         0c:55:88:4c:b1:78:81:56:e5:98:c3:7d:c9:35:b8:98:16:ad:
         52:6a:3b:60:56:5d:2d:8f:4a:d4:22:7d:d6:89:9b:27:4f:1a:
         96:d2:79:96:65:54:d9:36:0f:40:6a:a3:81:d0:aa:45:43:02:
         8d:90:cf:af:72:14:a8:9c:05:18:1c:86:5b:18:fc:73:3e:55:
         0f:08:90:15:93:ed:9e:a0:ca:4e:ab:c1:ce:82:32:dd:71:54:
         89:a4:d6:42:9c:78:67:59:4d:35:f9:93:76:25:09:9c:9f:36:
         e3:89:27:30:3a:62:40:06:9c:dc:79:5d:bf:db:13:71:d6:6e:
         2a:f5:94:73:1f:32:62:78:57:5d:89:b3:51:90:bd:43:f9:df:
         80:19:b0:ef:20:ab:c4:0a:67:20:98:49:52:3c:23:01:58:1a:
         6a:a8:f9:34:ae:e8:46:27:87:69:74:ff:45:47:b0:05:de:14:
         08:53:be:66:4f:9f:fe:68:1e:46:76:07:2d:5e:92:fe:e1:77:
         6b:3c:61:37:8a:9a:a8:9a:c8:73:e1:a7:83:9f:3b:70:e3:ba:
         0e:3f:65:9c:23:b0:66:81:3b:60:83:72:ef:14:fc:41:cf:5b:
         56:b8:62:de:e4:d0:25:2e:09:6e:35:fe:50:00:5d:0b:56:8b:
         2f:7e:ef:d6:71:82:16:31:0f:03:31:d3:7e:4e:71:af:01:9c:
         ba:38:4f:68:7b:3b:19:cf:b6:45:12:6c:13:8d:7d:dc:d5:05:
         9b:7d:5c:a5:8d:50:8b:98:5f:76:a4:b7:d0:30:30:23:bb:6d:
         7e:91:06:68:42:42:4b:a3:e7:bb:a6:51:37:51:1f:42:88:f4:
         be:ad:9d:0c:86:b3:c6:92:e5:c6:1d:a8:66:08:f8:70:ae:02:
         fe:69:41:9a:e7:cf:8a:67:03:ba:8d:88:7f:f3:4a:bc:df:2e:
         c9:dd:79:7d:c7:29:e3:2d:6e:46:85:e0:3a:43:07:c7:00:87:
         0b:91:2f:ed:f7:3e:28:e4:a7:8d:1a:8b:f4:0d:69:de:90:41:
         27:11:2c:e9:5a:10:67:62:a2:15:3f:ce:6b:b9:52:ce:d7:ca:
         a9:84:8e:48:6c:23:2d:33:84:44:4f:a0:1d:29:b9:d5:60:26:
         f4:a4:b1:e6:9a:77:05:67:4a:68:d8:e5:b0:cc:dd:59:74:b6:
         d7:fa:e7:e7:4c:b5:10:1c:f3:ab:dc:b0:81:3b:43:96:79:6c:
         52:78:ca:7b:07:21:00:af:a0:ca:a5:4a:10:9a:eb:15:71:9a:
         91:f9:da:ad:d2:8d:ca:d9
-----BEGIN CERTIFICATE-----
MIIFmDCCA4CgAwIBAgICAWUwDQYJKoZIhvcNAQELBQAwgYQxCzAJBgNVBAYTAkNI
MRAwDgYDVQQIEwdUaHVyZ2F1MRAwDgYDVQQHEwdLZWZpa29uMRMwEQYDVQQKEwpn
dWVuZ2VsLmNoMRYwFAYDVQQDEw1DQSBndWVuZ2VsLmNoMSQwIgYJKoZIhvcNAQkB
FhVwb3N0bWFzdGVyQGd1ZW5nZWwuY2gwHhcNMTgxMjI5MTQ0MDA1WhcNMjAwMjAy
MTQ0MDA1WjB9MQswCQYDVQQGEwJDSDEQMA4GA1UECBMHVGh1cmdhdTETMBEGA1UE
ChMKZ3VlbmdlbC5jaDEhMB8GA1UEAxMYd2VibWFpbC53ZWIua3J1ZW1lbC5ob21l
MSQwIgYJKoZIhvcNAQkBFhVwb3N0bWFzdGVyQGd1ZW5nZWwuY2gwggEiMA0GCSqG
SIb3DQEBAQUAA4IBDwAwggEKAoIBAQCjygZcCGZt4AYAwP/2bT9UuRfaj4XlTevV
IjfkBRv4MkrQCgDNKtXR/IYzWId/LyTFTKz/yIiLC0yVTKKV6rFN1UbBpJ6ZrYoW
xfETVqW5qiNKwpOp5asMtD5pBERV7knNFAUDAOOmJvJQeIOqaFk0rt5vl9892m+e
+EZ58QY9qQdjRqcz+H99MTJGDlS8aMOgXpcul6BujxkGe0ZKAMvVvRPEe+B778d3
/Eqm5TZ90hAazh1ZkBTbDz4tl8Fn5GQxfk4dG291EhZdoqrCyq1hgRTBYDg3+Lsr
8DtPiiHMMIwgUyBtBgmb+MfN5RhKLnA7okg7PEG1S+H591HDH0oRAgMBAAGjggEY
MIIBFDAJBgNVHRMEAjAAMCwGCWCGSAGG+EIBDQQfFh1PcGVuU1NMIEdlbmVyYXRl
ZCBDZXJ0aWZpY2F0ZTAdBgNVHQ4EFgQUVijW1Cnkhrqw2Hll+6P73C6k7YAwgbkG
A1UdIwSBsTCBroAU1ojxqsErCYy4XJ3O31c5YiYQIJChgYqkgYcwgYQxCzAJBgNV
BAYTAkNIMRAwDgYDVQQIEwdUaHVyZ2F1MRAwDgYDVQQHEwdLZWZpa29uMRMwEQYD
VQQKEwpndWVuZ2VsLmNoMRYwFAYDVQQDEw1DQSBndWVuZ2VsLmNoMSQwIgYJKoZI
hvcNAQkBFhVwb3N0bWFzdGVyQGd1ZW5nZWwuY2iCCQDlJTumd73L/zANBgkqhkiG
9w0BAQsFAAOCAgEAGoJvOQDRf0WdQgvArarR6NjzDFWITLF4gVblmMN9yTW4mBat
Umo7YFZdLY9K1CJ91ombJ08altJ5lmVU2TYPQGqjgdCqRUMCjZDPr3IUqJwFGByG
Wxj8cz5VDwiQFZPtnqDKTqvBzoIy3XFUiaTWQpx4Z1lNNfmTdiUJnJ8244knMDpi
QAac3Hldv9sTcdZuKvWUcx8yYnhXXYmzUZC9Q/nfgBmw7yCrxApnIJhJUjwjAVga
aqj5NK7oRieHaXT/RUewBd4UCFO+Zk+f/mgeRnYHLV6S/uF3azxhN4qaqJrIc+Gn
g587cOO6Dj9lnCOwZoE7YINy7xT8Qc9bVrhi3uTQJS4JbjX+UABdC1aLL37v1nGC
FjEPAzHTfk5xrwGcujhPaHs7Gc+2RRJsE4193NUFm31cpY1Qi5hfdqS30DAwI7tt
fpEGaEJCS6Pnu6ZRN1EfQoj0vq2dDIazxpLlxh2oZgj4cK4C/mlBmufPimcDuo2I
f/NKvN8uyd15fccp4y1uRoXgOkMHxwCHC5Ev7fc+KOSnjRqL9A1p3pBBJxEs6VoQ
Z2KiFT/Oa7lSztfKqYSOSGwjLTOERE+gHSm51WAm9KSx5pp3BWdKaNjlsMzdWXS2
1/rn50y1EBzzq9ywgTtDlnlsUnjKewchAK+gyqVKEJrrFXGakfnardKNytk=
-----END CERTIFICATE-----
