Certificate:
    Data:
        Version: 3 (0x2)
        Serial Number: 318 (0x13e)
    Signature Algorithm: sha256WithRSAEncryption
        Issuer: C=CH, ST=Thurgau, L=Kefikon, O=guengel.ch, CN=CA guengel.ch/emailAddress=postmaster@guengel.ch
        Validity
            Not Before: Jan  6 18:03:02 2018 GMT
            Not After : Feb 10 18:03:02 2019 GMT
        Subject: C=CH, ST=Thurgau, O=guengel.ch, CN=webmail.web.kruemel.home/emailAddress=postmaster@guengel.ch
        Subject Public Key Info:
            Public Key Algorithm: rsaEncryption
                Public-Key: (2048 bit)
                Modulus:
                    00:a3:ca:06:5c:08:66:6d:e0:06:00:c0:ff:f6:6d:
                    3f:54:b9:17:da:8f:85:e5:4d:eb:d5:22:37:e4:05:
                    1b:f8:32:4a:d0:0a:00:cd:2a:d5:d1:fc:86:33:58:
                    87:7f:2f:24:c5:4c:ac:ff:c8:88:8b:0b:4c:95:4c:
                    a2:95:ea:b1:4d:d5:46:c1:a4:9e:99:ad:8a:16:c5:
                    f1:13:56:a5:b9:aa:23:4a:c2:93:a9:e5:ab:0c:b4:
                    3e:69:04:44:55:ee:49:cd:14:05:03:00:e3:a6:26:
                    f2:50:78:83:aa:68:59:34:ae:de:6f:97:df:3d:da:
                    6f:9e:f8:46:79:f1:06:3d:a9:07:63:46:a7:33:f8:
                    7f:7d:31:32:46:0e:54:bc:68:c3:a0:5e:97:2e:97:
                    a0:6e:8f:19:06:7b:46:4a:00:cb:d5:bd:13:c4:7b:
                    e0:7b:ef:c7:77:fc:4a:a6:e5:36:7d:d2:10:1a:ce:
                    1d:59:90:14:db:0f:3e:2d:97:c1:67:e4:64:31:7e:
                    4e:1d:1b:6f:75:12:16:5d:a2:aa:c2:ca:ad:61:81:
                    14:c1:60:38:37:f8:bb:2b:f0:3b:4f:8a:21:cc:30:
                    8c:20:53:20:6d:06:09:9b:f8:c7:cd:e5:18:4a:2e:
                    70:3b:a2:48:3b:3c:41:b5:4b:e1:f9:f7:51:c3:1f:
                    4a:11
                Exponent: 65537 (0x10001)
        X509v3 extensions:
            X509v3 Basic Constraints: 
                CA:FALSE
            Netscape Comment: 
                OpenSSL Generated Certificate
            X509v3 Subject Key Identifier: 
                56:28:D6:D4:29:E4:86:BA:B0:D8:79:65:FB:A3:FB:DC:2E:A4:ED:80
            X509v3 Authority Key Identifier: 
                keyid:D6:88:F1:AA:C1:2B:09:8C:B8:5C:9D:CE:DF:57:39:62:26:10:20:90
                DirName:/C=CH/ST=Thurgau/L=Kefikon/O=guengel.ch/CN=CA guengel.ch/emailAddress=postmaster@guengel.ch
                serial:E5:25:3B:A6:77:BD:CB:FF

    Signature Algorithm: sha256WithRSAEncryption
         0a:82:a3:a6:64:a0:00:a0:1c:19:77:24:3a:af:29:5e:28:c1:
         0d:23:1b:20:7b:8e:0d:42:53:98:54:4b:cc:d5:c5:94:60:ff:
         a3:01:ed:bf:10:af:bf:8b:fa:f8:6f:89:b6:5d:ad:e3:b3:95:
         b3:a2:ff:d4:f6:b0:d1:14:44:69:70:39:df:21:15:f7:c3:d1:
         dc:95:a9:84:43:67:51:a2:a8:be:b8:2f:1b:08:a3:3e:a8:db:
         8c:de:9d:12:51:1a:b7:79:39:e6:1f:e4:39:9b:be:34:a8:c7:
         c6:77:65:46:53:61:eb:07:a3:03:1c:07:9a:dd:be:a2:cb:95:
         86:e5:c1:3c:ff:56:25:c4:e4:14:25:0e:f5:99:d5:5e:ca:e1:
         3f:0d:a5:53:cf:00:9a:24:b9:88:d5:90:ca:9b:73:4e:27:75:
         ec:cd:10:ce:ee:61:ab:04:f5:e8:af:3e:59:88:3c:d5:9b:84:
         53:08:c3:94:4c:c1:7d:88:1f:dd:39:bd:86:21:68:cf:7f:d5:
         76:b4:b9:24:3f:50:2c:96:b4:a0:83:99:75:c6:b2:cf:71:fc:
         91:65:4f:da:f4:7c:80:f9:de:e4:52:9c:b0:55:e1:54:c4:60:
         e9:ce:5c:a9:12:d9:3c:e8:df:cf:04:2b:2f:81:e0:5a:d3:00:
         1f:2d:94:6d:9d:e8:2d:97:11:83:6d:8c:b8:c6:23:21:07:8c:
         ec:e1:d8:3d:75:66:dc:5f:8a:05:82:dd:e8:67:8f:3a:f7:15:
         00:fa:a9:e7:e2:4c:72:cc:33:96:c8:75:29:23:a7:e2:c5:e0:
         58:cd:49:4e:58:c3:8f:30:42:e0:e6:a1:f5:f8:7c:26:d2:c2:
         62:70:3e:de:91:ca:85:ee:16:52:41:17:6c:a6:db:a9:87:e9:
         49:63:60:b5:b0:df:39:00:bf:0f:60:db:3a:c9:7f:5b:c4:24:
         91:bb:be:96:f5:9b:4b:39:78:9a:33:5c:5c:9d:4c:5e:58:3b:
         c4:0c:d2:66:0b:4e:f8:6a:d5:33:84:97:2d:b6:0b:a5:77:aa:
         3f:7d:fc:60:45:0a:cf:d4:f1:e1:ec:45:35:08:6b:32:77:11:
         f9:bc:4a:6a:ed:34:c9:66:26:6f:81:89:b6:b7:f0:3f:91:25:
         e2:d6:db:93:4a:27:8c:5b:c8:2e:68:b7:d2:b3:df:77:99:7f:
         fe:26:89:55:c0:1e:87:2f:79:8c:2a:85:b4:22:9b:bb:5f:0f:
         7a:47:96:61:f8:7a:a8:4e:2e:13:c2:95:3d:a3:c3:06:ac:1b:
         78:a7:d3:5b:77:2a:6a:35:58:b0:0c:fd:e7:68:3b:12:19:de:
         92:32:a9:06:ca:2c:97:53
-----BEGIN CERTIFICATE-----
MIIFmDCCA4CgAwIBAgICAT4wDQYJKoZIhvcNAQELBQAwgYQxCzAJBgNVBAYTAkNI
MRAwDgYDVQQIEwdUaHVyZ2F1MRAwDgYDVQQHEwdLZWZpa29uMRMwEQYDVQQKEwpn
dWVuZ2VsLmNoMRYwFAYDVQQDEw1DQSBndWVuZ2VsLmNoMSQwIgYJKoZIhvcNAQkB
FhVwb3N0bWFzdGVyQGd1ZW5nZWwuY2gwHhcNMTgwMTA2MTgwMzAyWhcNMTkwMjEw
MTgwMzAyWjB9MQswCQYDVQQGEwJDSDEQMA4GA1UECBMHVGh1cmdhdTETMBEGA1UE
ChMKZ3VlbmdlbC5jaDEhMB8GA1UEAxMYd2VibWFpbC53ZWIua3J1ZW1lbC5ob21l
MSQwIgYJKoZIhvcNAQkBFhVwb3N0bWFzdGVyQGd1ZW5nZWwuY2gwggEiMA0GCSqG
SIb3DQEBAQUAA4IBDwAwggEKAoIBAQCjygZcCGZt4AYAwP/2bT9UuRfaj4XlTevV
IjfkBRv4MkrQCgDNKtXR/IYzWId/LyTFTKz/yIiLC0yVTKKV6rFN1UbBpJ6ZrYoW
xfETVqW5qiNKwpOp5asMtD5pBERV7knNFAUDAOOmJvJQeIOqaFk0rt5vl9892m+e
+EZ58QY9qQdjRqcz+H99MTJGDlS8aMOgXpcul6BujxkGe0ZKAMvVvRPEe+B778d3
/Eqm5TZ90hAazh1ZkBTbDz4tl8Fn5GQxfk4dG291EhZdoqrCyq1hgRTBYDg3+Lsr
8DtPiiHMMIwgUyBtBgmb+MfN5RhKLnA7okg7PEG1S+H591HDH0oRAgMBAAGjggEY
MIIBFDAJBgNVHRMEAjAAMCwGCWCGSAGG+EIBDQQfFh1PcGVuU1NMIEdlbmVyYXRl
ZCBDZXJ0aWZpY2F0ZTAdBgNVHQ4EFgQUVijW1Cnkhrqw2Hll+6P73C6k7YAwgbkG
A1UdIwSBsTCBroAU1ojxqsErCYy4XJ3O31c5YiYQIJChgYqkgYcwgYQxCzAJBgNV
BAYTAkNIMRAwDgYDVQQIEwdUaHVyZ2F1MRAwDgYDVQQHEwdLZWZpa29uMRMwEQYD
VQQKEwpndWVuZ2VsLmNoMRYwFAYDVQQDEw1DQSBndWVuZ2VsLmNoMSQwIgYJKoZI
hvcNAQkBFhVwb3N0bWFzdGVyQGd1ZW5nZWwuY2iCCQDlJTumd73L/zANBgkqhkiG
9w0BAQsFAAOCAgEACoKjpmSgAKAcGXckOq8pXijBDSMbIHuODUJTmFRLzNXFlGD/
owHtvxCvv4v6+G+Jtl2t47OVs6L/1Paw0RREaXA53yEV98PR3JWphENnUaKovrgv
GwijPqjbjN6dElEat3k55h/kOZu+NKjHxndlRlNh6wejAxwHmt2+osuVhuXBPP9W
JcTkFCUO9ZnVXsrhPw2lU88AmiS5iNWQyptzTid17M0Qzu5hqwT16K8+WYg81ZuE
UwjDlEzBfYgf3Tm9hiFoz3/VdrS5JD9QLJa0oIOZdcayz3H8kWVP2vR8gPne5FKc
sFXhVMRg6c5cqRLZPOjfzwQrL4HgWtMAHy2UbZ3oLZcRg22MuMYjIQeM7OHYPXVm
3F+KBYLd6GePOvcVAPqp5+JMcswzlsh1KSOn4sXgWM1JTljDjzBC4Oah9fh8JtLC
YnA+3pHKhe4WUkEXbKbbqYfpSWNgtbDfOQC/D2DbOsl/W8Qkkbu+lvWbSzl4mjNc
XJ1MXlg7xAzSZgtO+GrVM4SXLbYLpXeqP338YEUKz9Tx4exFNQhrMncR+bxKau00
yWYmb4GJtrfwP5El4tbbk0onjFvILmi30rPfd5l//iaJVcAehy95jCqFtCKbu18P
ekeWYfh6qE4uE8KVPaPDBqwbeKfTW3cqajVYsAz952g7EhnekjKpBsosl1M=
-----END CERTIFICATE-----
