Certificate:
    Data:
        Version: 3 (0x2)
        Serial Number: 320 (0x140)
    Signature Algorithm: sha256WithRSAEncryption
        Issuer: C=CH, ST=Thurgau, L=Kefikon, O=guengel.ch, CN=CA guengel.ch/emailAddress=postmaster@guengel.ch
        Validity
            Not Before: Jan  6 18:03:02 2018 GMT
            Not After : Feb 10 18:03:02 2019 GMT
        Subject: C=CH, ST=Thurgau, O=guengel.ch, CN=wiki.web.kruemel.home/emailAddress=postmaster@guengel.ch
        Subject Public Key Info:
            Public Key Algorithm: rsaEncryption
                Public-Key: (2048 bit)
                Modulus:
                    00:a8:e5:98:d4:7d:22:f2:87:f0:e5:7e:9e:3d:17:
                    24:f4:12:2d:39:e1:c4:ec:9f:31:65:dd:83:ba:3f:
                    c1:ee:5a:66:99:20:93:b2:51:4b:97:75:52:cc:a1:
                    c4:c2:14:5a:2d:8d:9c:63:7a:21:c2:31:81:f8:a5:
                    0c:1b:8b:20:36:03:dd:b4:14:f8:3b:44:c9:8f:28:
                    81:83:5d:b3:d3:aa:2e:a6:bd:c2:07:86:c2:96:93:
                    43:23:aa:16:4b:6f:a9:0f:d4:2b:18:f2:9c:57:91:
                    14:53:ae:83:78:20:1b:0f:cc:83:55:60:bc:32:dc:
                    d1:35:59:41:09:d0:76:a6:40:99:86:9b:d6:e1:a0:
                    eb:16:e7:e2:59:9d:a1:f8:28:d3:f1:c7:87:34:c1:
                    ef:11:3f:ee:58:2b:51:1c:e4:5a:91:99:f1:0e:25:
                    da:b2:c1:2e:bf:e0:ef:92:69:bd:c4:f2:bf:e3:aa:
                    22:70:a7:d6:10:48:fc:2b:a1:23:7f:56:36:c0:84:
                    c2:05:5c:0b:48:73:01:80:4d:2a:f7:c8:6f:99:38:
                    bb:65:ca:dd:4c:70:86:bc:01:65:c4:fc:cd:3c:6d:
                    d9:51:3c:09:df:be:34:de:7e:3d:26:d2:96:27:ba:
                    c0:df:52:77:63:27:c6:d2:b2:4f:2d:be:4c:dd:19:
                    ef:25
                Exponent: 65537 (0x10001)
        X509v3 extensions:
            X509v3 Basic Constraints: 
                CA:FALSE
            Netscape Comment: 
                OpenSSL Generated Certificate
            X509v3 Subject Key Identifier: 
                8C:E0:8B:12:EA:D9:45:54:AC:43:16:4A:00:2A:ED:14:52:F9:BB:17
            X509v3 Authority Key Identifier: 
                keyid:D6:88:F1:AA:C1:2B:09:8C:B8:5C:9D:CE:DF:57:39:62:26:10:20:90
                DirName:/C=CH/ST=Thurgau/L=Kefikon/O=guengel.ch/CN=CA guengel.ch/emailAddress=postmaster@guengel.ch
                serial:E5:25:3B:A6:77:BD:CB:FF

    Signature Algorithm: sha256WithRSAEncryption
         3d:3d:52:35:92:97:d6:c7:cf:20:f4:a4:dd:80:ae:71:6f:0f:
         01:3f:a4:5c:35:8e:b3:d3:30:4d:21:7a:7d:8c:8d:70:e1:d0:
         a6:55:e4:73:d2:22:c5:68:03:87:d3:13:35:b2:71:ad:ca:c2:
         58:4f:de:0b:0e:d6:8d:75:7a:1c:2b:e6:51:bd:74:24:44:ef:
         8d:07:b7:a9:4b:2c:69:1b:d7:56:78:10:ed:79:84:ed:8a:3b:
         c2:2c:3a:a2:98:a3:c9:b9:53:cd:4a:19:a9:90:a6:6e:1c:29:
         80:cc:9b:49:02:fe:a3:ae:5d:ea:c4:28:89:4e:3c:12:b5:24:
         b4:d2:7f:99:15:00:a0:76:e9:1a:d2:e0:8a:30:47:bc:69:b2:
         b9:c9:7d:c8:af:e3:c9:af:b6:d3:f3:2e:9b:e4:93:5d:b0:59:
         44:c1:c1:7a:93:b2:aa:db:a0:75:d4:83:b2:45:e7:6c:c3:be:
         3f:c8:d0:20:91:e4:12:e1:2a:b8:c8:a5:89:7f:81:4f:82:c9:
         23:8e:08:37:7e:f6:eb:d9:2f:cf:11:3d:b4:a9:45:25:89:11:
         bd:8e:9f:df:74:60:95:69:2b:a4:9b:5c:6b:f5:44:0f:27:83:
         f0:81:46:5f:e6:98:b0:f8:90:9d:07:11:95:f3:9c:02:e5:f1:
         cd:64:98:6b:04:d1:6a:cf:2f:7d:13:be:52:ce:09:76:4f:c7:
         7e:8b:58:46:78:c1:cb:44:b1:36:13:15:1f:9f:ee:1e:8a:c5:
         f8:be:22:a6:b7:6f:8d:8b:fe:c6:e7:c8:7d:a5:aa:2d:e1:9b:
         41:0b:cc:6c:98:34:48:59:2f:89:42:3e:da:32:32:c7:db:4b:
         21:f3:fa:9b:ae:10:1b:0e:97:e4:4c:29:4b:01:61:fa:ef:c7:
         e7:b5:f4:a0:2b:30:47:5b:d2:0a:a6:05:1f:f1:56:30:7b:65:
         c5:99:83:f5:d8:66:01:e2:2a:74:ff:0c:05:47:4e:83:36:e7:
         f2:93:68:fd:41:b3:e9:46:49:d9:52:20:e5:36:5f:74:54:d8:
         b0:ca:45:ee:31:fd:91:53:f5:1c:f1:1d:ed:1a:b5:25:c8:42:
         ca:1c:76:6f:3c:a7:97:b3:7f:ab:e5:53:de:f3:40:c4:68:e9:
         15:c1:2a:75:f1:fd:bd:45:a3:cf:a6:47:0a:bb:61:dc:7d:3e:
         a0:6a:88:f9:e5:e3:3c:88:c0:c7:fc:8a:05:ec:c4:23:5d:79:
         11:a1:bb:ac:d7:2e:d9:f5:86:93:54:af:9d:87:e9:67:da:1f:
         74:06:4a:ac:ab:a4:76:44:0a:8b:a1:d5:63:82:98:b8:96:30:
         9b:3a:d0:e6:cc:4d:1b:fc
-----BEGIN CERTIFICATE-----
MIIFlTCCA32gAwIBAgICAUAwDQYJKoZIhvcNAQELBQAwgYQxCzAJBgNVBAYTAkNI
MRAwDgYDVQQIEwdUaHVyZ2F1MRAwDgYDVQQHEwdLZWZpa29uMRMwEQYDVQQKEwpn
dWVuZ2VsLmNoMRYwFAYDVQQDEw1DQSBndWVuZ2VsLmNoMSQwIgYJKoZIhvcNAQkB
FhVwb3N0bWFzdGVyQGd1ZW5nZWwuY2gwHhcNMTgwMTA2MTgwMzAyWhcNMTkwMjEw
MTgwMzAyWjB6MQswCQYDVQQGEwJDSDEQMA4GA1UECBMHVGh1cmdhdTETMBEGA1UE
ChMKZ3VlbmdlbC5jaDEeMBwGA1UEAxMVd2lraS53ZWIua3J1ZW1lbC5ob21lMSQw
IgYJKoZIhvcNAQkBFhVwb3N0bWFzdGVyQGd1ZW5nZWwuY2gwggEiMA0GCSqGSIb3
DQEBAQUAA4IBDwAwggEKAoIBAQCo5ZjUfSLyh/Dlfp49FyT0Ei054cTsnzFl3YO6
P8HuWmaZIJOyUUuXdVLMocTCFFotjZxjeiHCMYH4pQwbiyA2A920FPg7RMmPKIGD
XbPTqi6mvcIHhsKWk0MjqhZLb6kP1CsY8pxXkRRTroN4IBsPzINVYLwy3NE1WUEJ
0HamQJmGm9bhoOsW5+JZnaH4KNPxx4c0we8RP+5YK1Ec5FqRmfEOJdqywS6/4O+S
ab3E8r/jqiJwp9YQSPwroSN/VjbAhMIFXAtIcwGATSr3yG+ZOLtlyt1McIa8AWXE
/M08bdlRPAnfvjTefj0m0pYnusDfUndjJ8bSsk8tvkzdGe8lAgMBAAGjggEYMIIB
FDAJBgNVHRMEAjAAMCwGCWCGSAGG+EIBDQQfFh1PcGVuU1NMIEdlbmVyYXRlZCBD
ZXJ0aWZpY2F0ZTAdBgNVHQ4EFgQUjOCLEurZRVSsQxZKACrtFFL5uxcwgbkGA1Ud
IwSBsTCBroAU1ojxqsErCYy4XJ3O31c5YiYQIJChgYqkgYcwgYQxCzAJBgNVBAYT
AkNIMRAwDgYDVQQIEwdUaHVyZ2F1MRAwDgYDVQQHEwdLZWZpa29uMRMwEQYDVQQK
EwpndWVuZ2VsLmNoMRYwFAYDVQQDEw1DQSBndWVuZ2VsLmNoMSQwIgYJKoZIhvcN
AQkBFhVwb3N0bWFzdGVyQGd1ZW5nZWwuY2iCCQDlJTumd73L/zANBgkqhkiG9w0B
AQsFAAOCAgEAPT1SNZKX1sfPIPSk3YCucW8PAT+kXDWOs9MwTSF6fYyNcOHQplXk
c9IixWgDh9MTNbJxrcrCWE/eCw7WjXV6HCvmUb10JETvjQe3qUssaRvXVngQ7XmE
7Yo7wiw6opijyblTzUoZqZCmbhwpgMybSQL+o65d6sQoiU48ErUktNJ/mRUAoHbp
GtLgijBHvGmyucl9yK/jya+20/Mum+STXbBZRMHBepOyqtugddSDskXnbMO+P8jQ
IJHkEuEquMiliX+BT4LJI44IN37269kvzxE9tKlFJYkRvY6f33RglWkrpJtca/VE
DyeD8IFGX+aYsPiQnQcRlfOcAuXxzWSYawTRas8vfRO+Us4Jdk/HfotYRnjBy0Sx
NhMVH5/uHorF+L4iprdvjYv+xufIfaWqLeGbQQvMbJg0SFkviUI+2jIyx9tLIfP6
m64QGw6X5EwpSwFh+u/H57X0oCswR1vSCqYFH/FWMHtlxZmD9dhmAeIqdP8MBUdO
gzbn8pNo/UGz6UZJ2VIg5TZfdFTYsMpF7jH9kVP1HPEd7Rq1JchCyhx2bzynl7N/
q+VT3vNAxGjpFcEqdfH9vUWjz6ZHCrth3H0+oGqI+eXjPIjAx/yKBezEI115EaG7
rNcu2fWGk1SvnYfpZ9ofdAZKrKukdkQKi6HVY4KYuJYwmzrQ5sxNG/w=
-----END CERTIFICATE-----
