Certificate:
    Data:
        Version: 3 (0x2)
        Serial Number: 358 (0x166)
    Signature Algorithm: sha256WithRSAEncryption
        Issuer: C=CH, ST=Thurgau, L=Kefikon, O=guengel.ch, CN=CA guengel.ch/emailAddress=postmaster@guengel.ch
        Validity
            Not Before: Dec 29 14:40:05 2018 GMT
            Not After : Feb  2 14:40:05 2020 GMT
        Subject: C=CH, ST=Thurgau, O=guengel.ch, CN=www.web.kruemel.home/emailAddress=postmaster@guengel.ch
        Subject Public Key Info:
            Public Key Algorithm: rsaEncryption
                Public-Key: (2048 bit)
                Modulus:
                    00:df:cf:40:75:b7:1b:57:10:33:79:3b:3f:a7:9c:
                    60:fd:ec:8e:56:ab:44:d1:13:6f:5e:9e:75:16:f9:
                    4e:8a:75:a7:7d:64:c2:82:28:ef:6d:7f:c0:ac:90:
                    29:53:16:9a:43:b1:34:e1:9c:69:c9:e6:72:d5:e8:
                    aa:38:37:f0:5e:f4:43:e4:98:d2:ac:24:60:df:53:
                    ec:af:56:7f:48:7f:ce:73:4b:7e:e8:18:0d:90:12:
                    93:f3:09:5e:c1:04:02:d8:8d:c0:75:23:42:67:5d:
                    26:1f:0b:92:28:c8:44:56:a6:b4:ba:3c:eb:38:ff:
                    66:ff:ec:a1:b5:1b:de:6e:0a:8c:07:cf:14:6d:1b:
                    b6:e4:52:dc:ca:32:3c:38:3d:a9:b6:43:d5:f1:cb:
                    84:57:6c:72:4c:2e:70:f0:e1:dd:02:d3:90:e3:7c:
                    d0:6e:17:c3:5e:a8:c5:7d:e5:6f:62:a5:ea:9f:43:
                    59:96:1a:c8:3d:6a:90:4a:52:e5:90:6c:fd:6d:b6:
                    d7:6c:0d:18:80:59:f5:ea:35:9f:cb:c8:c9:cf:32:
                    a3:d0:02:d1:28:8c:88:5d:38:a0:04:af:ea:f0:32:
                    0b:32:a4:b1:39:2f:da:a2:fb:2f:92:c8:0e:07:aa:
                    e1:b3:29:89:81:cc:3e:45:fc:df:92:06:66:49:67:
                    39:fb
                Exponent: 65537 (0x10001)
        X509v3 extensions:
            X509v3 Basic Constraints: 
                CA:FALSE
            Netscape Comment: 
                OpenSSL Generated Certificate
            X509v3 Subject Key Identifier: 
                FD:E6:E2:1A:31:DF:27:1B:6F:D9:F5:9C:FE:65:9A:2B:56:8D:E1:4C
            X509v3 Authority Key Identifier: 
                keyid:D6:88:F1:AA:C1:2B:09:8C:B8:5C:9D:CE:DF:57:39:62:26:10:20:90
                DirName:/C=CH/ST=Thurgau/L=Kefikon/O=guengel.ch/CN=CA guengel.ch/emailAddress=postmaster@guengel.ch
                serial:E5:25:3B:A6:77:BD:CB:FF

    Signature Algorithm: sha256WithRSAEncryption
         05:91:94:cf:9a:f9:7b:a0:f3:6c:6c:9c:87:19:c2:21:0a:a9:
         d5:6a:a3:b5:81:c1:fb:bc:eb:16:b1:5a:88:9d:75:4c:a1:be:
         41:4d:89:98:c8:da:a7:ab:03:4c:f9:de:ec:da:3f:41:69:5c:
         19:ea:16:1c:a0:e4:e2:95:06:6b:da:52:8c:5a:3b:5d:7a:a9:
         75:b3:30:ac:ac:b4:c9:80:ba:82:00:74:e2:61:ca:1b:bf:9f:
         2b:7f:86:19:e2:97:54:db:2c:e3:69:72:25:1b:fe:8d:7e:e7:
         29:96:ee:bb:66:01:bd:88:16:ae:17:72:2f:f0:a3:70:75:21:
         6e:59:98:54:af:fb:7b:e2:a9:d2:8c:ae:ac:c6:5a:e9:f6:20:
         e6:a0:19:c5:76:e2:e4:13:42:54:ed:51:f3:af:73:4b:36:b4:
         05:e3:1e:bb:77:50:fc:03:d1:de:ff:cb:7f:fb:0f:13:ad:5e:
         da:fb:e7:3c:5e:6f:3b:2a:91:02:85:66:05:d5:5b:25:e5:ee:
         46:e5:ff:a0:82:e5:9b:e1:d0:64:c7:6b:5b:1a:a0:02:af:14:
         4d:48:18:8e:08:41:d9:d5:2d:c7:93:c1:33:eb:a2:1c:9c:5f:
         58:12:12:2d:b0:6c:fe:f0:eb:fc:c7:ef:0b:e7:fb:22:6c:d0:
         4f:b9:09:f9:48:e4:58:ae:8e:5f:b2:87:0f:a1:44:a1:87:94:
         c9:25:67:25:4b:d0:60:64:8f:e1:27:be:c9:07:6a:bc:00:a2:
         c3:47:a2:dd:00:1c:53:05:13:b7:d4:71:ae:a6:4c:3c:bd:53:
         03:b3:66:55:f1:c2:a2:0a:ad:ab:ea:6d:a5:fa:f8:c6:12:92:
         62:89:58:01:a6:30:bf:c0:19:0d:92:8f:3d:28:9c:f2:ad:07:
         c6:44:a7:fc:a3:da:e2:5c:09:e7:47:49:43:a6:bf:e9:07:73:
         09:46:b3:de:05:ca:f4:d7:ed:be:22:7f:fa:19:7d:17:5e:af:
         73:61:d0:0d:46:49:62:29:09:38:c9:00:af:93:75:e8:78:5f:
         4f:01:49:47:0a:18:c5:0e:ac:85:65:94:d8:11:d4:9b:82:5d:
         7f:d4:e6:7f:3c:71:21:eb:54:5c:7c:c9:c1:ec:47:13:06:84:
         0d:d8:e2:4e:a0:38:05:da:67:0e:f6:03:df:eb:21:1d:b1:e0:
         c9:9b:b1:8d:7c:40:f1:88:d0:45:75:67:7a:33:bb:00:15:a1:
         7b:ac:19:93:21:a9:39:e3:a1:d0:62:e1:56:d9:8e:16:df:79:
         a0:09:5b:23:57:5b:76:20:08:93:cc:b8:85:cb:35:b8:f5:e9:
         82:27:f7:42:3a:a2:a2:49
-----BEGIN CERTIFICATE-----
MIIFlDCCA3ygAwIBAgICAWYwDQYJKoZIhvcNAQELBQAwgYQxCzAJBgNVBAYTAkNI
MRAwDgYDVQQIEwdUaHVyZ2F1MRAwDgYDVQQHEwdLZWZpa29uMRMwEQYDVQQKEwpn
dWVuZ2VsLmNoMRYwFAYDVQQDEw1DQSBndWVuZ2VsLmNoMSQwIgYJKoZIhvcNAQkB
FhVwb3N0bWFzdGVyQGd1ZW5nZWwuY2gwHhcNMTgxMjI5MTQ0MDA1WhcNMjAwMjAy
MTQ0MDA1WjB5MQswCQYDVQQGEwJDSDEQMA4GA1UECBMHVGh1cmdhdTETMBEGA1UE
ChMKZ3VlbmdlbC5jaDEdMBsGA1UEAxMUd3d3LndlYi5rcnVlbWVsLmhvbWUxJDAi
BgkqhkiG9w0BCQEWFXBvc3RtYXN0ZXJAZ3VlbmdlbC5jaDCCASIwDQYJKoZIhvcN
AQEBBQADggEPADCCAQoCggEBAN/PQHW3G1cQM3k7P6ecYP3sjlarRNETb16edRb5
Top1p31kwoIo721/wKyQKVMWmkOxNOGcacnmctXoqjg38F70Q+SY0qwkYN9T7K9W
f0h/znNLfugYDZASk/MJXsEEAtiNwHUjQmddJh8LkijIRFamtLo86zj/Zv/sobUb
3m4KjAfPFG0btuRS3MoyPDg9qbZD1fHLhFdsckwucPDh3QLTkON80G4Xw16oxX3l
b2Kl6p9DWZYayD1qkEpS5ZBs/W2212wNGIBZ9eo1n8vIyc8yo9AC0SiMiF04oASv
6vAyCzKksTkv2qL7L5LIDgeq4bMpiYHMPkX835IGZklnOfsCAwEAAaOCARgwggEU
MAkGA1UdEwQCMAAwLAYJYIZIAYb4QgENBB8WHU9wZW5TU0wgR2VuZXJhdGVkIENl
cnRpZmljYXRlMB0GA1UdDgQWBBT95uIaMd8nG2/Z9Zz+ZZorVo3hTDCBuQYDVR0j
BIGxMIGugBTWiPGqwSsJjLhcnc7fVzliJhAgkKGBiqSBhzCBhDELMAkGA1UEBhMC
Q0gxEDAOBgNVBAgTB1RodXJnYXUxEDAOBgNVBAcTB0tlZmlrb24xEzARBgNVBAoT
Cmd1ZW5nZWwuY2gxFjAUBgNVBAMTDUNBIGd1ZW5nZWwuY2gxJDAiBgkqhkiG9w0B
CQEWFXBvc3RtYXN0ZXJAZ3VlbmdlbC5jaIIJAOUlO6Z3vcv/MA0GCSqGSIb3DQEB
CwUAA4ICAQAFkZTPmvl7oPNsbJyHGcIhCqnVaqO1gcH7vOsWsVqInXVMob5BTYmY
yNqnqwNM+d7s2j9BaVwZ6hYcoOTilQZr2lKMWjtdeql1szCsrLTJgLqCAHTiYcob
v58rf4YZ4pdU2yzjaXIlG/6Nfucplu67ZgG9iBauF3Iv8KNwdSFuWZhUr/t74qnS
jK6sxlrp9iDmoBnFduLkE0JU7VHzr3NLNrQF4x67d1D8A9He/8t/+w8TrV7a++c8
Xm87KpEChWYF1Vsl5e5G5f+gguWb4dBkx2tbGqACrxRNSBiOCEHZ1S3Hk8Ez66Ic
nF9YEhItsGz+8Ov8x+8L5/sibNBPuQn5SORYro5fsocPoUShh5TJJWclS9BgZI/h
J77JB2q8AKLDR6LdABxTBRO31HGupkw8vVMDs2ZV8cKiCq2r6m2l+vjGEpJiiVgB
pjC/wBkNko89KJzyrQfGRKf8o9riXAnnR0lDpr/pB3MJRrPeBcr01+2+In/6GX0X
Xq9zYdANRkliKQk4yQCvk3XoeF9PAUlHChjFDqyFZZTYEdSbgl1/1OZ/PHEh61Rc
fMnB7EcTBoQN2OJOoDgF2mcO9gPf6yEdseDJm7GNfEDxiNBFdWd6M7sAFaF7rBmT
Iak546HQYuFW2Y4W33mgCVsjV1t2IAiTzLiFyzW49emCJ/dCOqKiSQ==
-----END CERTIFICATE-----
