Certificate:
    Data:
        Version: 3 (0x2)
        Serial Number: 321 (0x141)
    Signature Algorithm: sha256WithRSAEncryption
        Issuer: C=CH, ST=Thurgau, L=Kefikon, O=guengel.ch, CN=CA guengel.ch/emailAddress=postmaster@guengel.ch
        Validity
            Not Before: Jan  6 18:03:02 2018 GMT
            Not After : Feb 10 18:03:02 2019 GMT
        Subject: C=CH, ST=Thurgau, O=guengel.ch, CN=www.web.kruemel.home/emailAddress=postmaster@guengel.ch
        Subject Public Key Info:
            Public Key Algorithm: rsaEncryption
                Public-Key: (2048 bit)
                Modulus:
                    00:df:cf:40:75:b7:1b:57:10:33:79:3b:3f:a7:9c:
                    60:fd:ec:8e:56:ab:44:d1:13:6f:5e:9e:75:16:f9:
                    4e:8a:75:a7:7d:64:c2:82:28:ef:6d:7f:c0:ac:90:
                    29:53:16:9a:43:b1:34:e1:9c:69:c9:e6:72:d5:e8:
                    aa:38:37:f0:5e:f4:43:e4:98:d2:ac:24:60:df:53:
                    ec:af:56:7f:48:7f:ce:73:4b:7e:e8:18:0d:90:12:
                    93:f3:09:5e:c1:04:02:d8:8d:c0:75:23:42:67:5d:
                    26:1f:0b:92:28:c8:44:56:a6:b4:ba:3c:eb:38:ff:
                    66:ff:ec:a1:b5:1b:de:6e:0a:8c:07:cf:14:6d:1b:
                    b6:e4:52:dc:ca:32:3c:38:3d:a9:b6:43:d5:f1:cb:
                    84:57:6c:72:4c:2e:70:f0:e1:dd:02:d3:90:e3:7c:
                    d0:6e:17:c3:5e:a8:c5:7d:e5:6f:62:a5:ea:9f:43:
                    59:96:1a:c8:3d:6a:90:4a:52:e5:90:6c:fd:6d:b6:
                    d7:6c:0d:18:80:59:f5:ea:35:9f:cb:c8:c9:cf:32:
                    a3:d0:02:d1:28:8c:88:5d:38:a0:04:af:ea:f0:32:
                    0b:32:a4:b1:39:2f:da:a2:fb:2f:92:c8:0e:07:aa:
                    e1:b3:29:89:81:cc:3e:45:fc:df:92:06:66:49:67:
                    39:fb
                Exponent: 65537 (0x10001)
        X509v3 extensions:
            X509v3 Basic Constraints: 
                CA:FALSE
            Netscape Comment: 
                OpenSSL Generated Certificate
            X509v3 Subject Key Identifier: 
                FD:E6:E2:1A:31:DF:27:1B:6F:D9:F5:9C:FE:65:9A:2B:56:8D:E1:4C
            X509v3 Authority Key Identifier: 
                keyid:D6:88:F1:AA:C1:2B:09:8C:B8:5C:9D:CE:DF:57:39:62:26:10:20:90
                DirName:/C=CH/ST=Thurgau/L=Kefikon/O=guengel.ch/CN=CA guengel.ch/emailAddress=postmaster@guengel.ch
                serial:E5:25:3B:A6:77:BD:CB:FF

    Signature Algorithm: sha256WithRSAEncryption
         11:20:17:ed:2e:e7:8e:0e:c0:72:6e:72:b2:55:61:d2:09:67:
         7f:30:c7:db:ca:11:cb:34:97:08:3a:ec:6c:a5:42:e1:b2:6a:
         fc:42:48:0e:7e:f1:1a:5d:25:21:03:19:b3:cc:f7:58:1b:15:
         f5:66:5a:48:89:db:f6:d8:14:92:36:90:4d:cb:08:78:4e:80:
         71:90:3b:f8:8e:22:da:0b:6c:60:00:8c:25:6c:29:c0:81:f5:
         f6:34:a1:ad:3d:8e:6c:6e:0c:83:49:25:04:64:0d:cd:aa:89:
         4f:1c:d8:dc:ad:56:e3:a5:96:fe:a7:28:0b:cb:df:89:a0:81:
         7a:47:8e:4a:ea:82:fa:44:10:68:c4:ec:06:b4:72:a0:bf:f7:
         21:4c:14:f3:ef:34:a1:44:e2:44:6c:a2:18:09:f0:f4:62:00:
         4f:7f:36:62:83:f3:5b:f1:5e:98:23:c0:83:88:da:0d:59:1f:
         39:25:59:ed:8f:b2:a7:e7:71:b5:10:34:c0:3a:50:d7:b4:d8:
         d7:14:92:88:f7:f0:24:1c:21:9d:4e:58:e3:18:74:aa:86:c9:
         3d:b5:59:6d:ec:6e:cd:24:63:b0:ef:88:20:0a:1c:3d:66:6a:
         a2:4e:d2:10:64:51:56:60:86:aa:32:43:75:bf:ad:b1:5f:64:
         32:13:49:30:22:1c:a8:19:66:2b:17:74:29:83:fc:7e:46:bd:
         49:1c:c7:c5:23:d2:6a:4a:2c:16:00:1c:7a:0b:34:18:cd:42:
         ea:cd:00:c9:c0:a9:24:5c:33:2b:d3:b1:8b:5b:df:f9:4b:79:
         bc:b2:71:7e:74:94:3a:d5:89:8b:06:9f:bd:80:d0:18:cc:ea:
         ea:eb:b5:8d:d8:7f:ee:43:ca:20:85:0c:ad:45:a3:04:4a:6a:
         35:87:e4:e2:04:ac:66:13:c4:77:9c:1f:d3:b2:b5:ae:ba:39:
         00:c3:39:e0:01:15:0f:71:a5:3e:93:88:7f:ae:f7:87:fe:fd:
         1d:b6:bc:12:ac:4f:1e:0b:ab:b7:06:56:6b:5d:94:e1:f0:1e:
         98:4b:d7:32:b1:5b:22:79:df:5c:72:9c:b1:a0:68:ae:df:a5:
         0d:7d:cd:ec:fb:6b:79:63:71:ba:56:ee:11:de:cc:3c:04:08:
         f4:2f:35:a1:27:3c:0a:ed:a9:dd:dc:2d:09:68:b2:c8:eb:a0:
         a4:d6:fc:23:0a:eb:2e:0f:b2:7f:3e:c4:d8:34:75:3d:e4:c7:
         08:85:4e:26:61:8c:d7:4d:90:d0:a2:78:75:96:a4:0d:14:f7:
         fc:a9:8c:c7:3c:c2:51:be:d3:02:00:1c:12:48:75:b0:f8:c9:
         83:71:a4:5a:22:e3:44:f6
-----BEGIN CERTIFICATE-----
MIIFlDCCA3ygAwIBAgICAUEwDQYJKoZIhvcNAQELBQAwgYQxCzAJBgNVBAYTAkNI
MRAwDgYDVQQIEwdUaHVyZ2F1MRAwDgYDVQQHEwdLZWZpa29uMRMwEQYDVQQKEwpn
dWVuZ2VsLmNoMRYwFAYDVQQDEw1DQSBndWVuZ2VsLmNoMSQwIgYJKoZIhvcNAQkB
FhVwb3N0bWFzdGVyQGd1ZW5nZWwuY2gwHhcNMTgwMTA2MTgwMzAyWhcNMTkwMjEw
MTgwMzAyWjB5MQswCQYDVQQGEwJDSDEQMA4GA1UECBMHVGh1cmdhdTETMBEGA1UE
ChMKZ3VlbmdlbC5jaDEdMBsGA1UEAxMUd3d3LndlYi5rcnVlbWVsLmhvbWUxJDAi
BgkqhkiG9w0BCQEWFXBvc3RtYXN0ZXJAZ3VlbmdlbC5jaDCCASIwDQYJKoZIhvcN
AQEBBQADggEPADCCAQoCggEBAN/PQHW3G1cQM3k7P6ecYP3sjlarRNETb16edRb5
Top1p31kwoIo721/wKyQKVMWmkOxNOGcacnmctXoqjg38F70Q+SY0qwkYN9T7K9W
f0h/znNLfugYDZASk/MJXsEEAtiNwHUjQmddJh8LkijIRFamtLo86zj/Zv/sobUb
3m4KjAfPFG0btuRS3MoyPDg9qbZD1fHLhFdsckwucPDh3QLTkON80G4Xw16oxX3l
b2Kl6p9DWZYayD1qkEpS5ZBs/W2212wNGIBZ9eo1n8vIyc8yo9AC0SiMiF04oASv
6vAyCzKksTkv2qL7L5LIDgeq4bMpiYHMPkX835IGZklnOfsCAwEAAaOCARgwggEU
MAkGA1UdEwQCMAAwLAYJYIZIAYb4QgENBB8WHU9wZW5TU0wgR2VuZXJhdGVkIENl
cnRpZmljYXRlMB0GA1UdDgQWBBT95uIaMd8nG2/Z9Zz+ZZorVo3hTDCBuQYDVR0j
BIGxMIGugBTWiPGqwSsJjLhcnc7fVzliJhAgkKGBiqSBhzCBhDELMAkGA1UEBhMC
Q0gxEDAOBgNVBAgTB1RodXJnYXUxEDAOBgNVBAcTB0tlZmlrb24xEzARBgNVBAoT
Cmd1ZW5nZWwuY2gxFjAUBgNVBAMTDUNBIGd1ZW5nZWwuY2gxJDAiBgkqhkiG9w0B
CQEWFXBvc3RtYXN0ZXJAZ3VlbmdlbC5jaIIJAOUlO6Z3vcv/MA0GCSqGSIb3DQEB
CwUAA4ICAQARIBftLueODsBybnKyVWHSCWd/MMfbyhHLNJcIOuxspULhsmr8QkgO
fvEaXSUhAxmzzPdYGxX1ZlpIidv22BSSNpBNywh4ToBxkDv4jiLaC2xgAIwlbCnA
gfX2NKGtPY5sbgyDSSUEZA3NqolPHNjcrVbjpZb+pygLy9+JoIF6R45K6oL6RBBo
xOwGtHKgv/chTBTz7zShROJEbKIYCfD0YgBPfzZig/Nb8V6YI8CDiNoNWR85JVnt
j7Kn53G1EDTAOlDXtNjXFJKI9/AkHCGdTljjGHSqhsk9tVlt7G7NJGOw74ggChw9
ZmqiTtIQZFFWYIaqMkN1v62xX2QyE0kwIhyoGWYrF3Qpg/x+Rr1JHMfFI9JqSiwW
ABx6CzQYzULqzQDJwKkkXDMr07GLW9/5S3m8snF+dJQ61YmLBp+9gNAYzOrq67WN
2H/uQ8oghQytRaMESmo1h+TiBKxmE8R3nB/TsrWuujkAwzngARUPcaU+k4h/rveH
/v0dtrwSrE8eC6u3BlZrXZTh8B6YS9cysVsied9ccpyxoGiu36UNfc3s+2t5Y3G6
Vu4R3sw8BAj0LzWhJzwK7and3C0JaLLI66Ck1vwjCusuD7J/PsTYNHU95McIhU4m
YYzXTZDQonh1lqQNFPf8qYzHPMJRvtMCABwSSHWw+MmDcaRaIuNE9g==
-----END CERTIFICATE-----
