Certificate:
    Data:
        Version: 3 (0x2)
        Serial Number: 359 (0x167)
    Signature Algorithm: sha256WithRSAEncryption
        Issuer: C=CH, ST=Thurgau, L=Kefikon, O=guengel.ch, CN=CA guengel.ch/emailAddress=postmaster@guengel.ch
        Validity
            Not Before: Dec 29 14:40:05 2018 GMT
            Not After : Feb  2 14:40:05 2020 GMT
        Subject: C=CH, ST=Thurgau, O=guengel.ch, CN=yapet.web.kruemel.home/emailAddress=postmaster@guengel.ch
        Subject Public Key Info:
            Public Key Algorithm: rsaEncryption
                Public-Key: (2048 bit)
                Modulus:
                    00:d2:2f:3a:c3:1b:c6:d4:36:ac:50:47:da:15:20:
                    69:15:3e:89:84:86:75:2f:f0:6b:25:b4:59:e6:89:
                    3c:95:fa:a7:0a:ab:06:28:1e:32:cf:cb:3d:4e:a1:
                    5a:1f:29:19:a9:b0:e4:9d:1c:52:8f:39:27:02:e0:
                    ed:e4:dd:f5:07:7d:86:b5:b7:76:2f:4c:8c:04:af:
                    ba:1c:56:51:14:8d:96:b2:e2:d6:e9:02:df:5d:de:
                    ba:ff:a9:f7:f9:f1:11:1a:1d:f0:1c:10:a3:47:56:
                    d9:c0:bc:85:9d:1c:6f:35:0d:3a:ff:1f:fa:2f:80:
                    bc:ed:00:ed:ee:e2:2c:b7:b6:fa:60:a5:34:74:c7:
                    b0:27:b5:33:69:70:17:7e:b2:d7:dc:d0:9f:f6:de:
                    b7:ff:5b:10:75:24:11:1b:5d:66:f0:8a:e9:a8:86:
                    c4:23:a4:4d:37:9a:e0:bf:bb:84:07:bf:41:41:00:
                    05:aa:d2:05:72:fb:64:6e:d1:42:a6:07:10:6a:d1:
                    77:76:18:f8:b2:31:8d:82:c5:6a:07:f7:36:56:44:
                    9f:03:37:b8:fb:b4:41:05:d8:58:92:d5:84:15:1e:
                    b5:50:97:b1:53:92:c2:7d:7e:c3:d8:b8:6a:9e:f8:
                    b9:ea:55:2e:a3:6d:14:92:d9:82:c3:f9:3c:ef:bc:
                    28:6f
                Exponent: 65537 (0x10001)
        X509v3 extensions:
            X509v3 Basic Constraints: 
                CA:FALSE
            Netscape Comment: 
                OpenSSL Generated Certificate
            X509v3 Subject Key Identifier: 
                C5:30:36:96:8B:97:36:91:9A:F9:2E:33:C0:F0:70:75:F2:DE:33:DD
            X509v3 Authority Key Identifier: 
                keyid:D6:88:F1:AA:C1:2B:09:8C:B8:5C:9D:CE:DF:57:39:62:26:10:20:90
                DirName:/C=CH/ST=Thurgau/L=Kefikon/O=guengel.ch/CN=CA guengel.ch/emailAddress=postmaster@guengel.ch
                serial:E5:25:3B:A6:77:BD:CB:FF

    Signature Algorithm: sha256WithRSAEncryption
         80:8f:54:37:dc:f9:ab:50:f1:98:17:c3:91:1e:5a:1e:66:dd:
         85:df:bc:8c:af:e9:5f:99:70:4d:b6:b4:03:39:d6:a5:39:e4:
         e0:5a:76:a0:20:ab:6e:76:e7:9f:d7:e8:ff:5b:f0:35:97:27:
         63:cd:bd:2f:7b:95:50:06:21:d4:de:3d:16:09:0c:88:f9:ef:
         fb:90:ec:2d:cb:17:a5:c5:1f:ea:4c:d7:bd:35:e7:75:d8:4b:
         7b:c4:13:ce:26:37:db:a1:f6:0f:81:1f:a9:10:8d:a9:52:2d:
         c8:f8:17:4f:43:d5:dd:ee:4d:3e:16:bc:8f:24:11:44:e4:d8:
         d0:de:0c:8d:f1:26:90:3a:56:0c:15:84:84:be:6f:6a:ef:10:
         b0:9b:d5:9c:34:80:45:2b:c6:22:20:fa:68:ca:e4:1f:cb:fd:
         a4:22:32:56:e8:43:da:64:25:6f:4c:40:be:f5:1e:a3:48:36:
         a7:52:e2:10:91:39:35:04:59:5e:f3:9e:32:4b:fc:7e:62:36:
         eb:f4:29:77:f0:e0:a0:f2:39:c7:1f:56:2e:90:8e:50:d9:80:
         4b:98:79:68:8a:25:b3:2e:4a:5f:ba:89:ac:a9:54:70:c2:a5:
         eb:9b:dd:af:62:89:a0:3d:07:24:b0:a1:fd:ac:c5:c4:a7:b7:
         6b:16:2a:bb:f1:0a:24:a3:9d:7a:a7:18:ae:65:ff:4c:7c:bd:
         9d:3a:e8:74:59:25:e5:7f:70:9d:fc:62:63:ba:97:65:40:35:
         c0:29:b1:98:b1:aa:06:6e:9b:23:75:bf:68:e2:39:20:71:42:
         ae:c6:c2:8c:82:08:9c:2e:86:d1:d8:ae:81:af:6d:31:00:5f:
         0b:0d:73:90:b5:87:72:17:29:46:c3:6c:f3:18:c2:d5:b2:71:
         43:fd:10:f9:1d:cb:6b:f7:d0:bd:8f:be:6c:56:4f:2a:21:a1:
         c6:50:60:fb:af:c4:9a:0f:f1:da:eb:57:d7:ca:e1:28:7d:24:
         8e:d4:58:e9:05:54:e1:44:29:5a:50:ea:ae:8d:0d:fb:a2:76:
         23:02:bd:fd:58:23:cd:a5:7b:0f:bb:7c:33:94:12:96:9a:ad:
         8a:f2:89:68:3c:ad:14:0a:ef:ca:d9:cd:0a:fe:42:4f:a0:3d:
         23:43:b0:98:4b:3f:88:18:5e:e6:01:16:a9:04:f5:e4:a3:70:
         d6:09:f2:94:85:d0:9f:a5:02:05:22:8d:d4:46:12:5d:33:fc:
         fa:95:37:3d:ed:f5:69:b4:30:c8:26:d7:47:9c:e1:96:6f:75:
         13:40:32:fe:b8:87:2c:86:63:51:e7:9d:b8:f9:ff:c1:80:59:
         c6:37:ae:14:0a:09:e7:04
-----BEGIN CERTIFICATE-----
MIIFljCCA36gAwIBAgICAWcwDQYJKoZIhvcNAQELBQAwgYQxCzAJBgNVBAYTAkNI
MRAwDgYDVQQIEwdUaHVyZ2F1MRAwDgYDVQQHEwdLZWZpa29uMRMwEQYDVQQKEwpn
dWVuZ2VsLmNoMRYwFAYDVQQDEw1DQSBndWVuZ2VsLmNoMSQwIgYJKoZIhvcNAQkB
FhVwb3N0bWFzdGVyQGd1ZW5nZWwuY2gwHhcNMTgxMjI5MTQ0MDA1WhcNMjAwMjAy
MTQ0MDA1WjB7MQswCQYDVQQGEwJDSDEQMA4GA1UECBMHVGh1cmdhdTETMBEGA1UE
ChMKZ3VlbmdlbC5jaDEfMB0GA1UEAxMWeWFwZXQud2ViLmtydWVtZWwuaG9tZTEk
MCIGCSqGSIb3DQEJARYVcG9zdG1hc3RlckBndWVuZ2VsLmNoMIIBIjANBgkqhkiG
9w0BAQEFAAOCAQ8AMIIBCgKCAQEA0i86wxvG1DasUEfaFSBpFT6JhIZ1L/BrJbRZ
5ok8lfqnCqsGKB4yz8s9TqFaHykZqbDknRxSjzknAuDt5N31B32Gtbd2L0yMBK+6
HFZRFI2WsuLW6QLfXd66/6n3+fERGh3wHBCjR1bZwLyFnRxvNQ06/x/6L4C87QDt
7uIst7b6YKU0dMewJ7UzaXAXfrLX3NCf9t63/1sQdSQRG11m8IrpqIbEI6RNN5rg
v7uEB79BQQAFqtIFcvtkbtFCpgcQatF3dhj4sjGNgsVqB/c2VkSfAze4+7RBBdhY
ktWEFR61UJexU5LCfX7D2Lhqnvi56lUuo20UktmCw/k877wobwIDAQABo4IBGDCC
ARQwCQYDVR0TBAIwADAsBglghkgBhvhCAQ0EHxYdT3BlblNTTCBHZW5lcmF0ZWQg
Q2VydGlmaWNhdGUwHQYDVR0OBBYEFMUwNpaLlzaRmvkuM8DwcHXy3jPdMIG5BgNV
HSMEgbEwga6AFNaI8arBKwmMuFydzt9XOWImECCQoYGKpIGHMIGEMQswCQYDVQQG
EwJDSDEQMA4GA1UECBMHVGh1cmdhdTEQMA4GA1UEBxMHS2VmaWtvbjETMBEGA1UE
ChMKZ3VlbmdlbC5jaDEWMBQGA1UEAxMNQ0EgZ3VlbmdlbC5jaDEkMCIGCSqGSIb3
DQEJARYVcG9zdG1hc3RlckBndWVuZ2VsLmNoggkA5SU7pne9y/8wDQYJKoZIhvcN
AQELBQADggIBAICPVDfc+atQ8ZgXw5EeWh5m3YXfvIyv6V+ZcE22tAM51qU55OBa
dqAgq25255/X6P9b8DWXJ2PNvS97lVAGIdTePRYJDIj57/uQ7C3LF6XFH+pM1701
53XYS3vEE84mN9uh9g+BH6kQjalSLcj4F09D1d3uTT4WvI8kEUTk2NDeDI3xJpA6
VgwVhIS+b2rvELCb1Zw0gEUrxiIg+mjK5B/L/aQiMlboQ9pkJW9MQL71HqNINqdS
4hCROTUEWV7znjJL/H5iNuv0KXfw4KDyOccfVi6QjlDZgEuYeWiKJbMuSl+6iayp
VHDCpeub3a9iiaA9BySwof2sxcSnt2sWKrvxCiSjnXqnGK5l/0x8vZ066HRZJeV/
cJ38YmO6l2VANcApsZixqgZumyN1v2jiOSBxQq7GwoyCCJwuhtHYroGvbTEAXwsN
c5C1h3IXKUbDbPMYwtWycUP9EPkdy2v30L2PvmxWTyohocZQYPuvxJoP8drrV9fK
4Sh9JI7UWOkFVOFEKVpQ6q6NDfuidiMCvf1YI82lew+7fDOUEpaarYryiWg8rRQK
78rZzQr+Qk+gPSNDsJhLP4gYXuYBFqkE9eSjcNYJ8pSF0J+lAgUijdRGEl0z/PqV
Nz3t9Wm0MMgm10ec4ZZvdRNAMv64hyyGY1Hnnbj5/8GAWcY3rhQKCecE
-----END CERTIFICATE-----
