Certificate:
    Data:
        Version: 3 (0x2)
        Serial Number:
            6a:1a:82:0d:d1:6c:2d:4d:ad:07:25:ea:c1:91:2d:c3:bf:6c:6f:55
        Signature Algorithm: sha256WithRSAEncryption
        Issuer: C=CH, ST=Thurgau, L=Kefikon, O=guengel.ch, CN=CA 2022/emailAddress=postmaster@guengel.ch
        Validity
            Not Before: Feb 11 14:00:25 2022 GMT
            Not After : Mar 18 14:00:25 2023 GMT
        Subject: C=CH, ST=Thurgau, O=guengel.ch, CN=yayap.dmz.kruemel.home/emailAddress=postmaster@guengel.ch
        Subject Public Key Info:
            Public Key Algorithm: rsaEncryption
                RSA Public-Key: (2048 bit)
                Modulus:
                    00:c4:da:d7:5d:2a:59:92:6e:58:73:5b:6a:43:1b:
                    51:0d:b4:3e:cf:ea:30:ad:5f:27:bd:1d:ae:d1:04:
                    a9:9c:2b:a2:88:12:3e:d3:f7:53:4c:49:3f:17:7e:
                    96:c2:b4:aa:0a:68:45:eb:8c:3f:27:20:51:01:f0:
                    25:18:c0:ec:76:af:61:4f:96:6b:0d:de:fb:48:ef:
                    fd:c6:f0:34:62:85:55:fd:c4:28:4a:4b:19:06:67:
                    7c:96:76:69:f3:89:82:2f:c3:7d:2a:3e:cf:d0:d3:
                    51:9d:c5:59:56:47:54:f6:7c:33:c5:c6:a0:2e:05:
                    59:c3:a7:08:08:51:be:cf:33:54:68:13:90:e2:ef:
                    a8:e4:2a:d9:78:0f:b7:7f:50:17:2c:45:d7:4f:71:
                    95:f1:16:42:5c:83:71:32:09:54:67:b8:f4:33:dd:
                    eb:c2:e5:66:b7:46:99:44:c5:5e:db:13:d8:11:27:
                    f6:81:59:42:1a:f8:e1:41:aa:33:ce:b2:f2:fa:80:
                    ed:ce:be:e5:b3:88:17:7f:43:af:20:83:8b:1f:e3:
                    3e:c2:dd:49:d3:27:50:4b:83:58:fd:3d:f1:52:37:
                    61:df:c1:1e:91:7f:e3:d5:44:0d:35:7f:ca:f6:14:
                    b3:25:a4:23:b1:e0:bf:ca:4d:5c:b2:f4:3c:71:1b:
                    ab:4d
                Exponent: 65537 (0x10001)
        X509v3 extensions:
            X509v3 Basic Constraints: critical
                CA:FALSE
            X509v3 Key Usage: 
                Digital Signature, Key Encipherment, Key Agreement
            X509v3 Subject Key Identifier: 
                88:39:B5:DB:72:90:9A:90:01:04:9E:86:12:E2:8F:7C:74:27:C3:5A
            X509v3 Authority Key Identifier: 
                keyid:22:20:0D:51:40:61:42:BE:DD:BA:D9:C9:C1:77:B6:93:28:C3:99:EC
                DirName:/C=CH/ST=Thurgau/L=Kefikon/O=guengel.ch/CN=CA 2022/emailAddress=postmaster@guengel.ch
                serial:6D:29:90:54:E9:17:E9:C2:6A:E6:52:AD:84:4E:30:8E:6E:57:FB:1C

            Netscape Cert Type: 
                SSL Client, SSL Server
            X509v3 Extended Key Usage: 
                TLS Web Server Authentication, TLS Web Client Authentication
    Signature Algorithm: sha256WithRSAEncryption
         b9:76:87:0a:16:ef:c7:ad:99:9f:85:de:54:15:6b:9c:92:ae:
         bb:e4:94:4e:bc:24:e2:8a:d7:7b:74:82:bd:e4:10:3e:ba:ef:
         e9:a6:87:76:d8:9c:73:be:80:6c:65:13:0b:35:03:dc:ee:d1:
         a6:97:10:ef:65:62:07:a5:d6:e0:20:f7:a0:15:04:27:76:b9:
         db:0b:93:35:65:ef:ed:6e:23:71:c2:8d:cf:e3:e2:38:62:b1:
         db:72:56:b8:b9:18:c0:34:21:0d:cf:6c:c0:be:8c:a4:c9:f4:
         e7:1c:f5:cf:a0:d6:f0:00:50:2e:3b:45:ca:dc:bf:96:5a:41:
         71:06:e6:7a:46:ae:01:a8:dd:1e:bf:d3:60:af:02:e6:ff:77:
         7a:7e:74:7e:d7:18:90:e1:90:d0:31:9b:7d:a1:eb:f3:71:0d:
         f6:67:d7:94:85:d0:3b:67:67:fd:1e:68:d1:dc:c5:09:91:1e:
         a0:e7:92:d4:06:fa:fa:2e:f3:e3:e7:2f:18:44:0b:f0:60:09:
         c5:d0:a1:c0:f3:fd:df:f7:1b:c0:fa:ff:d2:27:e0:d9:5f:9a:
         21:46:f7:ac:8a:59:18:00:48:19:52:1a:9d:d2:f6:3a:f6:8f:
         35:65:79:9b:18:59:e8:c2:93:44:a8:18:5b:10:88:3d:58:d8:
         d1:1d:b8:ed:97:ce:94:9c:08:e6:ad:fa:ff:bb:9f:77:3b:fa:
         fa:92:63:1d:a0:34:f3:9d:f1:0b:ee:1b:9d:eb:b3:5f:de:d3:
         c5:ae:0a:41:b8:2a:1d:61:5a:73:ef:5e:58:bc:36:d4:55:c9:
         30:6e:8b:62:a4:55:a4:fd:72:40:f8:fe:10:3d:06:6b:08:a3:
         ee:5f:c5:c6:7f:2e:4d:e6:07:4c:b6:22:19:b2:28:a8:7b:ce:
         b0:2f:98:db:ff:80:45:82:82:56:78:61:ef:05:29:2b:fd:69:
         8a:15:25:22:e2:b6:09:dd:b5:ce:66:f0:03:c0:48:46:fd:9a:
         17:3c:3a:71:dc:ae:90:a6:b9:86:ad:02:82:00:9e:1f:e8:7e:
         7a:07:ca:25:87:79:db:d1:b7:e1:24:4d:8e:0b:44:3f:30:90:
         5c:0a:49:c3:bf:80:ae:1b:0c:46:33:ca:b8:39:9d:e0:97:aa:
         ad:09:b1:6a:e5:f4:0d:e2:83:24:69:96:54:c3:db:8d:05:a8:
         62:93:42:03:54:33:91:fc:0e:15:f4:f8:1c:f0:f2:25:56:1c:
         67:e1:39:da:ca:9a:a9:f7:41:17:12:43:06:89:cf:c2:2a:4d:
         d7:b4:ad:8d:85:77:a3:dc:29:d8:96:60:d1:aa:67:ba:97:c7:
         43:14:82:e8:1c:10:83:85
-----BEGIN CERTIFICATE-----
MIIFuTCCA6GgAwIBAgIUahqCDdFsLU2tByXqwZEtw79sb1UwDQYJKoZIhvcNAQEL
BQAwfjELMAkGA1UEBhMCQ0gxEDAOBgNVBAgTB1RodXJnYXUxEDAOBgNVBAcTB0tl
Zmlrb24xEzARBgNVBAoTCmd1ZW5nZWwuY2gxEDAOBgNVBAMTB0NBIDIwMjIxJDAi
BgkqhkiG9w0BCQEWFXBvc3RtYXN0ZXJAZ3VlbmdlbC5jaDAeFw0yMjAyMTExNDAw
MjVaFw0yMzAzMTgxNDAwMjVaMHsxCzAJBgNVBAYTAkNIMRAwDgYDVQQIEwdUaHVy
Z2F1MRMwEQYDVQQKEwpndWVuZ2VsLmNoMR8wHQYDVQQDExZ5YXlhcC5kbXoua3J1
ZW1lbC5ob21lMSQwIgYJKoZIhvcNAQkBFhVwb3N0bWFzdGVyQGd1ZW5nZWwuY2gw
ggEiMA0GCSqGSIb3DQEBAQUAA4IBDwAwggEKAoIBAQDE2tddKlmSblhzW2pDG1EN
tD7P6jCtXye9Ha7RBKmcK6KIEj7T91NMST8XfpbCtKoKaEXrjD8nIFEB8CUYwOx2
r2FPlmsN3vtI7/3G8DRihVX9xChKSxkGZ3yWdmnziYIvw30qPs/Q01GdxVlWR1T2
fDPFxqAuBVnDpwgIUb7PM1RoE5Di76jkKtl4D7d/UBcsRddPcZXxFkJcg3EyCVRn
uPQz3evC5Wa3RplExV7bE9gRJ/aBWUIa+OFBqjPOsvL6gO3OvuWziBd/Q68gg4sf
4z7C3UnTJ1BLg1j9PfFSN2HfwR6Rf+PVRA01f8r2FLMlpCOx4L/KTVyy9DxxG6tN
AgMBAAGjggEwMIIBLDAMBgNVHRMBAf8EAjAAMAsGA1UdDwQEAwIDqDAdBgNVHQ4E
FgQUiDm123KQmpABBJ6GEuKPfHQnw1owgb0GA1UdIwSBtTCBsoAUIiANUUBhQr7d
utnJwXe2kyjDmeyhgYOkgYAwfjELMAkGA1UEBhMCQ0gxEDAOBgNVBAgTB1RodXJn
YXUxEDAOBgNVBAcTB0tlZmlrb24xEzARBgNVBAoTCmd1ZW5nZWwuY2gxEDAOBgNV
BAMTB0NBIDIwMjIxJDAiBgkqhkiG9w0BCQEWFXBvc3RtYXN0ZXJAZ3VlbmdlbC5j
aIIUbSmQVOkX6cJq5lKthE4wjm5X+xwwEQYJYIZIAYb4QgEBBAQDAgbAMB0GA1Ud
JQQWMBQGCCsGAQUFBwMBBggrBgEFBQcDAjANBgkqhkiG9w0BAQsFAAOCAgEAuXaH
Chbvx62Zn4XeVBVrnJKuu+SUTrwk4orXe3SCveQQPrrv6aaHdticc76AbGUTCzUD
3O7RppcQ72ViB6XW4CD3oBUEJ3a52wuTNWXv7W4jccKNz+PiOGKx23JWuLkYwDQh
Dc9swL6MpMn05xz1z6DW8ABQLjtFyty/llpBcQbmekauAajdHr/TYK8C5v93en50
ftcYkOGQ0DGbfaHr83EN9mfXlIXQO2dn/R5o0dzFCZEeoOeS1Ab6+i7z4+cvGEQL
8GAJxdChwPP93/cbwPr/0ifg2V+aIUb3rIpZGABIGVIandL2OvaPNWV5mxhZ6MKT
RKgYWxCIPVjY0R247ZfOlJwI5q36/7ufdzv6+pJjHaA0853xC+4bneuzX97Txa4K
QbgqHWFac+9eWLw21FXJMG6LYqRVpP1yQPj+ED0Gawij7l/Fxn8uTeYHTLYiGbIo
qHvOsC+Y2/+ARYKCVnhh7wUpK/1pihUlIuK2Cd21zmbwA8BIRv2aFzw6cdyukKa5
hq0CggCeH+h+egfKJYd529G34SRNjgtEPzCQXApJw7+ArhsMRjPKuDmd4JeqrQmx
auX0DeKDJGmWVMPbjQWoYpNCA1QzkfwOFfT4HPDyJVYcZ+E52sqaqfdBFxJDBonP
wipN17StjYV3o9wp2JZg0apnupfHQxSC6BwQg4U=
-----END CERTIFICATE-----
