Certificate:
    Data:
        Version: 3 (0x2)
        Serial Number: 380 (0x17c)
        Signature Algorithm: sha256WithRSAEncryption
        Issuer: C=CH, ST=Thurgau, L=Kefikon, O=guengel.ch, CN=CA guengel.ch/emailAddress=postmaster@guengel.ch
        Validity
            Not Before: Jan  3 10:08:56 2020 GMT
            Not After : Feb  6 10:08:56 2021 GMT
        Subject: C=CH, ST=Thurgau, O=guengel.ch, CN=yayap.dmz.kruemel.home/emailAddress=postmaster@guengel.ch
        Subject Public Key Info:
            Public Key Algorithm: rsaEncryption
                RSA Public-Key: (2048 bit)
                Modulus:
                    00:ea:b9:12:c6:94:33:a4:66:1d:dd:4d:ee:bd:c2:
                    f5:32:20:e8:28:90:79:28:ef:dd:63:86:d0:09:4f:
                    87:1f:3a:a6:22:18:6e:64:16:a2:5b:f4:77:42:db:
                    b0:03:45:86:2f:6d:14:ff:69:3f:36:00:a5:d4:82:
                    b0:f0:6e:ce:f9:e3:83:c8:ff:eb:79:8a:6b:01:42:
                    b4:bd:1c:02:76:f3:07:90:62:de:a4:29:41:b6:ed:
                    27:ed:58:40:9e:07:24:46:ce:69:4e:f5:40:e6:32:
                    c3:2f:bc:2e:74:93:9a:a9:84:f6:63:3a:4c:6b:9f:
                    c8:fb:21:e2:8f:d0:ae:39:31:8e:76:ac:57:81:1f:
                    49:4b:f6:48:9a:69:e8:c3:2b:a8:d3:ea:0a:4c:30:
                    98:aa:af:43:7a:f6:e0:6a:b0:38:d4:98:37:9d:a6:
                    23:ae:0b:25:c0:6b:d6:c8:c5:c0:7f:83:72:c8:b5:
                    de:29:be:a3:e5:35:e9:48:93:4b:e6:9c:7f:ba:c9:
                    74:95:dd:6c:e6:3a:43:24:26:e8:25:4c:25:f5:c1:
                    93:ac:cf:d9:f0:cd:34:b5:e4:ef:f0:1d:eb:13:0e:
                    2c:62:ed:e8:6f:a1:46:2c:7c:0e:7b:78:b9:bd:db:
                    c2:d9:f4:66:12:fc:d4:59:4d:8d:c8:66:27:ca:e9:
                    48:7b
                Exponent: 65537 (0x10001)
        X509v3 extensions:
            X509v3 Basic Constraints: 
                CA:FALSE
            Netscape Comment: 
                OpenSSL Generated Certificate
            X509v3 Subject Key Identifier: 
                DE:6C:9B:34:92:4F:27:BC:06:BB:14:61:FA:68:88:8A:C9:B6:F7:A1
            X509v3 Authority Key Identifier: 
                keyid:D6:88:F1:AA:C1:2B:09:8C:B8:5C:9D:CE:DF:57:39:62:26:10:20:90
                DirName:/C=CH/ST=Thurgau/L=Kefikon/O=guengel.ch/CN=CA guengel.ch/emailAddress=postmaster@guengel.ch
                serial:E5:25:3B:A6:77:BD:CB:FF

    Signature Algorithm: sha256WithRSAEncryption
         d3:79:50:5b:d6:8a:cf:30:3f:19:22:da:7e:d0:0c:b1:84:0b:
         51:88:23:a0:d5:55:25:c9:1f:a2:ad:d4:fe:d3:a5:76:1f:ac:
         99:d1:a1:aa:c3:d3:2d:1f:91:4c:aa:00:c1:92:0d:bb:6e:3c:
         74:ec:38:c2:ba:9e:10:ed:af:04:90:5b:f8:97:3b:87:d1:9f:
         c8:01:8b:a9:40:ec:48:05:a5:8e:f1:c9:82:68:17:fd:f8:40:
         b8:6f:a8:95:25:b3:9d:f9:81:54:13:cd:30:94:a2:d4:fd:2d:
         ba:fe:2b:83:f5:99:24:84:f8:df:07:a6:1b:cd:e0:7e:dc:b5:
         ad:01:fa:51:89:a6:57:f8:7f:f4:e7:5f:e7:6c:ba:af:7f:a6:
         ad:85:aa:ea:85:ef:8f:e9:e2:ef:00:ce:dc:0e:63:71:2c:6b:
         2e:ae:69:85:e9:e7:13:df:cf:f5:e3:d6:df:5f:99:89:81:ee:
         26:bd:b4:d5:85:bd:b8:65:6e:a5:f7:8c:72:a3:fe:04:4f:9a:
         4a:5c:09:cb:69:40:5a:06:2f:76:26:55:50:81:70:c8:cc:7b:
         20:14:83:27:8e:f1:db:99:c2:b6:79:8c:92:b3:65:2c:d6:5d:
         e1:64:ae:76:f7:a0:9f:ca:ee:87:9d:83:b4:7a:1b:9d:4c:c0:
         c9:79:23:93:26:e2:16:68:b5:73:a1:03:f7:25:16:c0:3f:5a:
         6c:5e:2a:f8:4e:1d:c0:cb:e8:35:91:8d:dc:1d:2a:b0:a0:a0:
         8e:e3:f3:1e:43:c4:17:7d:8a:e4:8b:9f:24:37:20:cd:5a:9a:
         d4:7e:3b:22:8b:4b:a4:dd:7a:ee:b8:c0:72:05:f8:fc:1e:d4:
         b8:6d:f9:fd:0c:bd:a4:ed:19:65:b8:17:41:8e:17:8f:cf:7e:
         03:ae:1d:93:b1:fc:29:90:2d:cb:e7:73:e5:da:b7:0b:1b:6c:
         65:74:0d:0d:9d:9e:fe:4e:bc:48:46:e7:59:51:91:aa:aa:f1:
         b0:d5:65:8e:56:f0:65:b5:b3:a2:3b:da:f9:ec:fe:11:cd:5a:
         8b:d5:6a:0a:c2:b1:45:14:67:41:d0:c4:b1:00:6b:66:0f:6b:
         98:9a:da:91:b1:64:4f:e0:b6:dd:ea:d0:58:be:48:1e:28:b5:
         eb:6a:da:25:0e:ec:2d:3f:75:7c:ea:05:8a:51:d7:ac:bd:5f:
         3c:6a:00:df:22:e0:a1:92:47:1d:eb:65:77:6b:68:4d:ca:15:
         9f:ce:b8:27:20:cd:37:95:1f:0f:04:ab:1f:4e:39:58:1b:3b:
         48:6b:b0:37:2f:17:d9:5a:26:bc:94:43:b0:b7:c7:0b:0e:a9:
         b9:a5:1f:f8:4d:44:85:4d
-----BEGIN CERTIFICATE-----
MIIFljCCA36gAwIBAgICAXwwDQYJKoZIhvcNAQELBQAwgYQxCzAJBgNVBAYTAkNI
MRAwDgYDVQQIEwdUaHVyZ2F1MRAwDgYDVQQHEwdLZWZpa29uMRMwEQYDVQQKEwpn
dWVuZ2VsLmNoMRYwFAYDVQQDEw1DQSBndWVuZ2VsLmNoMSQwIgYJKoZIhvcNAQkB
FhVwb3N0bWFzdGVyQGd1ZW5nZWwuY2gwHhcNMjAwMTAzMTAwODU2WhcNMjEwMjA2
MTAwODU2WjB7MQswCQYDVQQGEwJDSDEQMA4GA1UECBMHVGh1cmdhdTETMBEGA1UE
ChMKZ3VlbmdlbC5jaDEfMB0GA1UEAxMWeWF5YXAuZG16LmtydWVtZWwuaG9tZTEk
MCIGCSqGSIb3DQEJARYVcG9zdG1hc3RlckBndWVuZ2VsLmNoMIIBIjANBgkqhkiG
9w0BAQEFAAOCAQ8AMIIBCgKCAQEA6rkSxpQzpGYd3U3uvcL1MiDoKJB5KO/dY4bQ
CU+HHzqmIhhuZBaiW/R3QtuwA0WGL20U/2k/NgCl1IKw8G7O+eODyP/reYprAUK0
vRwCdvMHkGLepClBtu0n7VhAngckRs5pTvVA5jLDL7wudJOaqYT2YzpMa5/I+yHi
j9CuOTGOdqxXgR9JS/ZImmnowyuo0+oKTDCYqq9DevbgarA41Jg3naYjrgslwGvW
yMXAf4NyyLXeKb6j5TXpSJNL5px/usl0ld1s5jpDJCboJUwl9cGTrM/Z8M00teTv
8B3rEw4sYu3ob6FGLHwOe3i5vdvC2fRmEvzUWU2NyGYnyulIewIDAQABo4IBGDCC
ARQwCQYDVR0TBAIwADAsBglghkgBhvhCAQ0EHxYdT3BlblNTTCBHZW5lcmF0ZWQg
Q2VydGlmaWNhdGUwHQYDVR0OBBYEFN5smzSSTye8BrsUYfpoiIrJtvehMIG5BgNV
HSMEgbEwga6AFNaI8arBKwmMuFydzt9XOWImECCQoYGKpIGHMIGEMQswCQYDVQQG
EwJDSDEQMA4GA1UECBMHVGh1cmdhdTEQMA4GA1UEBxMHS2VmaWtvbjETMBEGA1UE
ChMKZ3VlbmdlbC5jaDEWMBQGA1UEAxMNQ0EgZ3VlbmdlbC5jaDEkMCIGCSqGSIb3
DQEJARYVcG9zdG1hc3RlckBndWVuZ2VsLmNoggkA5SU7pne9y/8wDQYJKoZIhvcN
AQELBQADggIBANN5UFvWis8wPxki2n7QDLGEC1GII6DVVSXJH6Kt1P7TpXYfrJnR
oarD0y0fkUyqAMGSDbtuPHTsOMK6nhDtrwSQW/iXO4fRn8gBi6lA7EgFpY7xyYJo
F/34QLhvqJUls535gVQTzTCUotT9Lbr+K4P1mSSE+N8HphvN4H7cta0B+lGJplf4
f/TnX+dsuq9/pq2FquqF74/p4u8AztwOY3Esay6uaYXp5xPfz/Xj1t9fmYmB7ia9
tNWFvbhlbqX3jHKj/gRPmkpcCctpQFoGL3YmVVCBcMjMeyAUgyeO8duZwrZ5jJKz
ZSzWXeFkrnb3oJ/K7oedg7R6G51MwMl5I5Mm4hZotXOhA/clFsA/WmxeKvhOHcDL
6DWRjdwdKrCgoI7j8x5DxBd9iuSLnyQ3IM1amtR+OyKLS6Tdeu64wHIF+Pwe1Lht
+f0MvaTtGWW4F0GOF4/PfgOuHZOx/CmQLcvnc+XatwsbbGV0DQ2dnv5OvEhG51lR
kaqq8bDVZY5W8GW1s6I72vns/hHNWovVagrCsUUUZ0HQxLEAa2YPa5ia2pGxZE/g
tt3q0Fi+SB4otetq2iUO7C0/dXzqBYpR16y9XzxqAN8i4KGSRx3rZXdraE3KFZ/O
uCcgzTeVHw8Eqx9OOVgbO0hrsDcvF9laJryUQ7C3xwsOqbmlH/hNRIVN
-----END CERTIFICATE-----
