Certificate:
    Data:
        Version: 3 (0x2)
        Serial Number: 440 (0x1b8)
        Signature Algorithm: sha256WithRSAEncryption
        Issuer: C=CH, ST=Thurgau, L=Kefikon, O=guengel.ch, CN=CA guengel.ch/emailAddress=postmaster@guengel.ch
        Validity
            Not Before: Feb  6 15:19:10 2021 GMT
            Not After : Mar 13 15:19:10 2022 GMT
        Subject: C=CH, ST=Thurgau, O=guengel.ch, CN=yayap.dmz.kruemel.home/emailAddress=postmaster@guengel.ch
        Subject Public Key Info:
            Public Key Algorithm: rsaEncryption
                RSA Public-Key: (2048 bit)
                Modulus:
                    00:ea:b9:12:c6:94:33:a4:66:1d:dd:4d:ee:bd:c2:
                    f5:32:20:e8:28:90:79:28:ef:dd:63:86:d0:09:4f:
                    87:1f:3a:a6:22:18:6e:64:16:a2:5b:f4:77:42:db:
                    b0:03:45:86:2f:6d:14:ff:69:3f:36:00:a5:d4:82:
                    b0:f0:6e:ce:f9:e3:83:c8:ff:eb:79:8a:6b:01:42:
                    b4:bd:1c:02:76:f3:07:90:62:de:a4:29:41:b6:ed:
                    27:ed:58:40:9e:07:24:46:ce:69:4e:f5:40:e6:32:
                    c3:2f:bc:2e:74:93:9a:a9:84:f6:63:3a:4c:6b:9f:
                    c8:fb:21:e2:8f:d0:ae:39:31:8e:76:ac:57:81:1f:
                    49:4b:f6:48:9a:69:e8:c3:2b:a8:d3:ea:0a:4c:30:
                    98:aa:af:43:7a:f6:e0:6a:b0:38:d4:98:37:9d:a6:
                    23:ae:0b:25:c0:6b:d6:c8:c5:c0:7f:83:72:c8:b5:
                    de:29:be:a3:e5:35:e9:48:93:4b:e6:9c:7f:ba:c9:
                    74:95:dd:6c:e6:3a:43:24:26:e8:25:4c:25:f5:c1:
                    93:ac:cf:d9:f0:cd:34:b5:e4:ef:f0:1d:eb:13:0e:
                    2c:62:ed:e8:6f:a1:46:2c:7c:0e:7b:78:b9:bd:db:
                    c2:d9:f4:66:12:fc:d4:59:4d:8d:c8:66:27:ca:e9:
                    48:7b
                Exponent: 65537 (0x10001)
        X509v3 extensions:
            X509v3 Key Usage: 
                Digital Signature, Key Encipherment, Key Agreement
            X509v3 Basic Constraints: critical
                CA:FALSE
            Netscape Cert Type: 
                SSL Client, SSL Server
            X509v3 Extended Key Usage: 
                TLS Web Server Authentication, TLS Web Client Authentication
            X509v3 Subject Alternative Name: 
                DNS:yayap.dmz.kruemel.home
            X509v3 Subject Key Identifier: 
                DE:6C:9B:34:92:4F:27:BC:06:BB:14:61:FA:68:88:8A:C9:B6:F7:A1
            X509v3 Authority Key Identifier: 
                keyid:D6:88:F1:AA:C1:2B:09:8C:B8:5C:9D:CE:DF:57:39:62:26:10:20:90
                DirName:/C=CH/ST=Thurgau/L=Kefikon/O=guengel.ch/CN=CA guengel.ch/emailAddress=postmaster@guengel.ch
                serial:E5:25:3B:A6:77:BD:CB:FF

    Signature Algorithm: sha256WithRSAEncryption
         6c:44:6f:ea:78:9c:e7:24:56:7e:84:e4:4c:c6:ab:e9:6b:fd:
         4f:34:71:8b:02:9e:c4:0a:be:c2:db:7f:1d:7c:24:83:7c:27:
         c8:53:f3:50:7e:7d:e7:99:c0:f7:da:6d:81:1c:e1:de:3c:23:
         e7:f0:69:fc:5f:c5:49:e0:76:36:12:ab:40:74:57:16:cd:db:
         ef:21:23:a4:4a:e9:21:34:49:26:dc:5f:25:a3:10:54:22:44:
         cd:e4:19:bf:c1:c8:84:7b:c8:58:70:23:8f:c6:ce:96:03:c6:
         1a:35:9a:2f:d8:1d:3a:b7:51:9c:08:52:41:0a:3d:cc:8b:fc:
         22:b0:9b:d8:da:a3:86:cf:b8:7c:91:a0:b6:fa:2b:c7:df:26:
         83:95:c3:ba:b8:27:e9:b9:d3:e7:d4:62:2b:71:fe:92:3a:87:
         ec:10:49:b3:a5:dc:79:4b:fb:c9:c7:18:4a:a1:ea:39:c3:f6:
         76:f0:70:9e:8a:99:8e:c4:3d:dd:66:b2:42:fa:32:a9:e7:72:
         11:ad:c6:49:a0:f7:3a:bc:14:18:00:f7:dc:c2:e6:7d:06:0b:
         c5:f8:96:36:41:ed:0d:d5:de:1b:db:b1:38:34:ae:13:34:6c:
         82:24:2f:c5:75:2f:1a:34:5f:26:db:cf:d1:3f:55:27:f2:ca:
         1c:9e:4d:fc:5a:82:45:bb:f9:0e:a2:24:a9:07:33:8f:2b:ef:
         54:40:dd:83:b2:9a:14:52:d5:32:1d:c7:d9:ff:06:b4:d4:e9:
         eb:11:37:d6:8e:a6:f1:3b:15:02:68:f6:f5:4a:58:8e:54:55:
         45:45:3a:f1:56:60:71:bc:ea:1c:23:df:54:ae:b8:0f:75:03:
         69:20:b9:7e:36:4a:7c:1b:95:6c:78:0f:b9:4c:69:e2:2f:13:
         56:2a:cb:7e:c6:d8:85:55:19:a5:65:3b:8c:f1:76:13:f9:69:
         73:15:c7:42:72:80:22:34:e3:a4:54:24:8f:03:87:57:4a:21:
         75:9d:61:21:54:0b:5b:7c:2b:1a:30:71:cb:fa:95:ee:a0:3c:
         9d:02:d0:e4:65:06:88:88:d0:49:26:ae:39:e0:a3:a1:d3:71:
         26:76:1b:c1:7a:28:d4:54:8a:08:59:26:53:15:b0:53:04:9d:
         2c:a5:a2:97:c5:4f:4c:0d:95:bf:20:a3:a8:e8:88:ad:4c:8e:
         aa:99:00:de:35:ee:d4:c8:e1:05:51:38:0b:41:8c:fa:64:d1:
         c2:96:2c:06:89:c9:9c:85:73:f1:85:a8:d8:5e:47:15:b5:b7:
         40:a4:df:41:9b:c7:b6:58:19:29:fa:cc:d8:84:1f:88:80:ba:
         f7:76:9d:55:53:8b:22:bb
-----BEGIN CERTIFICATE-----
MIIFzTCCA7WgAwIBAgICAbgwDQYJKoZIhvcNAQELBQAwgYQxCzAJBgNVBAYTAkNI
MRAwDgYDVQQIEwdUaHVyZ2F1MRAwDgYDVQQHEwdLZWZpa29uMRMwEQYDVQQKEwpn
dWVuZ2VsLmNoMRYwFAYDVQQDEw1DQSBndWVuZ2VsLmNoMSQwIgYJKoZIhvcNAQkB
FhVwb3N0bWFzdGVyQGd1ZW5nZWwuY2gwHhcNMjEwMjA2MTUxOTEwWhcNMjIwMzEz
MTUxOTEwWjB7MQswCQYDVQQGEwJDSDEQMA4GA1UECBMHVGh1cmdhdTETMBEGA1UE
ChMKZ3VlbmdlbC5jaDEfMB0GA1UEAxMWeWF5YXAuZG16LmtydWVtZWwuaG9tZTEk
MCIGCSqGSIb3DQEJARYVcG9zdG1hc3RlckBndWVuZ2VsLmNoMIIBIjANBgkqhkiG
9w0BAQEFAAOCAQ8AMIIBCgKCAQEA6rkSxpQzpGYd3U3uvcL1MiDoKJB5KO/dY4bQ
CU+HHzqmIhhuZBaiW/R3QtuwA0WGL20U/2k/NgCl1IKw8G7O+eODyP/reYprAUK0
vRwCdvMHkGLepClBtu0n7VhAngckRs5pTvVA5jLDL7wudJOaqYT2YzpMa5/I+yHi
j9CuOTGOdqxXgR9JS/ZImmnowyuo0+oKTDCYqq9DevbgarA41Jg3naYjrgslwGvW
yMXAf4NyyLXeKb6j5TXpSJNL5px/usl0ld1s5jpDJCboJUwl9cGTrM/Z8M00teTv
8B3rEw4sYu3ob6FGLHwOe3i5vdvC2fRmEvzUWU2NyGYnyulIewIDAQABo4IBTzCC
AUswCwYDVR0PBAQDAgOoMAwGA1UdEwEB/wQCMAAwEQYJYIZIAYb4QgEBBAQDAgbA
MB0GA1UdJQQWMBQGCCsGAQUFBwMBBggrBgEFBQcDAjAhBgNVHREEGjAYghZ5YXlh
cC5kbXoua3J1ZW1lbC5ob21lMB0GA1UdDgQWBBTebJs0kk8nvAa7FGH6aIiKybb3
oTCBuQYDVR0jBIGxMIGugBTWiPGqwSsJjLhcnc7fVzliJhAgkKGBiqSBhzCBhDEL
MAkGA1UEBhMCQ0gxEDAOBgNVBAgTB1RodXJnYXUxEDAOBgNVBAcTB0tlZmlrb24x
EzARBgNVBAoTCmd1ZW5nZWwuY2gxFjAUBgNVBAMTDUNBIGd1ZW5nZWwuY2gxJDAi
BgkqhkiG9w0BCQEWFXBvc3RtYXN0ZXJAZ3VlbmdlbC5jaIIJAOUlO6Z3vcv/MA0G
CSqGSIb3DQEBCwUAA4ICAQBsRG/qeJznJFZ+hORMxqvpa/1PNHGLAp7ECr7C238d
fCSDfCfIU/NQfn3nmcD32m2BHOHePCPn8Gn8X8VJ4HY2EqtAdFcWzdvvISOkSukh
NEkm3F8loxBUIkTN5Bm/wciEe8hYcCOPxs6WA8YaNZov2B06t1GcCFJBCj3Mi/wi
sJvY2qOGz7h8kaC2+ivH3yaDlcO6uCfpudPn1GIrcf6SOofsEEmzpdx5S/vJxxhK
oeo5w/Z28HCeipmOxD3dZrJC+jKp53IRrcZJoPc6vBQYAPfcwuZ9BgvF+JY2Qe0N
1d4b27E4NK4TNGyCJC/FdS8aNF8m28/RP1Un8socnk38WoJFu/kOoiSpBzOPK+9U
QN2DspoUUtUyHcfZ/wa01OnrETfWjqbxOxUCaPb1SliOVFVFRTrxVmBxvOocI99U
rrgPdQNpILl+Nkp8G5VseA+5TGniLxNWKst+xtiFVRmlZTuM8XYT+WlzFcdCcoAi
NOOkVCSPA4dXSiF1nWEhVAtbfCsaMHHL+pXuoDydAtDkZQaIiNBJJq454KOh03Em
dhvBeijUVIoIWSZTFbBTBJ0spaKXxU9MDZW/IKOo6IitTI6qmQDeNe7UyOEFUTgL
QYz6ZNHCliwGicmchXPxhajYXkcVtbdApN9Bm8e2WBkp+szYhB+IgLr3dp1VU4si
uw==
-----END CERTIFICATE-----
