Certificate:
    Data:
        Version: 3 (0x2)
        Serial Number:
            28:ec:3b:c8:ac:c5:da:20:b7:36:0e:69:d7:51:ed:86:0f:1e:04:3e
        Signature Algorithm: sha256WithRSAEncryption
        Issuer: C=CH, ST=Thurgau, L=Kefikon, O=guengel.ch, CN=CA 2022/emailAddress=postmaster@guengel.ch
        Validity
            Not Before: Dec 30 08:44:54 2023 GMT
            Not After : Feb  2 08:44:54 2025 GMT
        Subject: C=CH, ST=Thurgau, O=guengel.ch, CN=yayap.dmz.kruemel.home/emailAddress=postmaster@guengel.ch
        Subject Public Key Info:
            Public Key Algorithm: rsaEncryption
                RSA Public-Key: (2048 bit)
                Modulus:
                    00:c4:da:d7:5d:2a:59:92:6e:58:73:5b:6a:43:1b:
                    51:0d:b4:3e:cf:ea:30:ad:5f:27:bd:1d:ae:d1:04:
                    a9:9c:2b:a2:88:12:3e:d3:f7:53:4c:49:3f:17:7e:
                    96:c2:b4:aa:0a:68:45:eb:8c:3f:27:20:51:01:f0:
                    25:18:c0:ec:76:af:61:4f:96:6b:0d:de:fb:48:ef:
                    fd:c6:f0:34:62:85:55:fd:c4:28:4a:4b:19:06:67:
                    7c:96:76:69:f3:89:82:2f:c3:7d:2a:3e:cf:d0:d3:
                    51:9d:c5:59:56:47:54:f6:7c:33:c5:c6:a0:2e:05:
                    59:c3:a7:08:08:51:be:cf:33:54:68:13:90:e2:ef:
                    a8:e4:2a:d9:78:0f:b7:7f:50:17:2c:45:d7:4f:71:
                    95:f1:16:42:5c:83:71:32:09:54:67:b8:f4:33:dd:
                    eb:c2:e5:66:b7:46:99:44:c5:5e:db:13:d8:11:27:
                    f6:81:59:42:1a:f8:e1:41:aa:33:ce:b2:f2:fa:80:
                    ed:ce:be:e5:b3:88:17:7f:43:af:20:83:8b:1f:e3:
                    3e:c2:dd:49:d3:27:50:4b:83:58:fd:3d:f1:52:37:
                    61:df:c1:1e:91:7f:e3:d5:44:0d:35:7f:ca:f6:14:
                    b3:25:a4:23:b1:e0:bf:ca:4d:5c:b2:f4:3c:71:1b:
                    ab:4d
                Exponent: 65537 (0x10001)
        X509v3 extensions:
            X509v3 Basic Constraints: critical
                CA:FALSE
            X509v3 Key Usage: 
                Digital Signature, Key Encipherment, Key Agreement
            X509v3 Subject Key Identifier: 
                88:39:B5:DB:72:90:9A:90:01:04:9E:86:12:E2:8F:7C:74:27:C3:5A
            X509v3 Authority Key Identifier: 
                keyid:22:20:0D:51:40:61:42:BE:DD:BA:D9:C9:C1:77:B6:93:28:C3:99:EC
                DirName:/C=CH/ST=Thurgau/L=Kefikon/O=guengel.ch/CN=CA 2022/emailAddress=postmaster@guengel.ch
                serial:6D:29:90:54:E9:17:E9:C2:6A:E6:52:AD:84:4E:30:8E:6E:57:FB:1C

            Netscape Cert Type: 
                SSL Client, SSL Server
            X509v3 Extended Key Usage: 
                TLS Web Server Authentication, TLS Web Client Authentication
    Signature Algorithm: sha256WithRSAEncryption
         72:02:9c:28:40:1b:7a:2c:fa:52:63:b2:b2:43:60:f8:4d:ad:
         fe:c3:a1:b5:60:ab:0b:7e:c2:67:3d:3b:05:c7:c6:0b:10:05:
         66:71:1b:8e:bc:7e:08:29:fc:de:78:3f:46:8a:ee:73:05:54:
         3b:c3:1f:fa:d6:6f:31:e6:04:9e:da:2b:63:4f:0a:00:eb:42:
         05:60:61:02:ee:a3:22:f9:0f:34:3a:73:05:ab:58:db:1e:76:
         56:d7:11:04:06:ca:a3:32:63:92:d2:d7:9f:54:6d:15:7f:57:
         62:e1:18:aa:9e:03:91:31:5e:e9:57:0d:18:31:3d:05:9c:e7:
         be:2b:84:b4:09:ff:8d:70:25:2d:41:4b:0c:e4:f8:fc:dd:8e:
         a6:8d:cb:6a:56:da:f9:66:16:00:d0:76:33:da:63:6a:9b:f0:
         01:4c:11:da:3c:b2:46:da:c5:88:f7:c0:97:78:39:6e:3d:6e:
         e6:0d:df:a1:62:c0:5f:12:04:44:f1:9e:89:e2:9d:e0:68:b9:
         5a:d2:3a:37:44:92:37:da:97:ac:3e:c7:04:16:45:04:53:ad:
         fa:f2:8a:a5:12:a9:64:a3:3c:b7:cb:ff:0a:19:56:b5:a3:82:
         65:68:91:08:87:c8:ab:98:b1:e3:34:ff:05:df:b3:6d:a8:8a:
         14:2b:49:17:6b:12:c3:0f:98:81:33:71:68:b2:c7:c9:5c:63:
         db:3d:f8:df:c2:ca:1d:75:0b:e8:15:de:d0:fc:0d:d0:95:9f:
         51:79:71:9e:f1:d9:ca:70:f8:ce:8e:ab:92:cf:53:75:5d:b5:
         ab:e6:b8:a3:20:be:8b:ce:ef:d7:56:7f:c2:db:5c:86:ee:45:
         54:e2:bd:0f:72:cf:87:5f:ef:60:05:5c:5a:f6:97:69:c2:32:
         ca:37:25:e2:13:06:f0:e6:33:17:85:3b:7a:04:a6:f0:22:25:
         f8:fd:95:e1:e2:b6:1b:e9:b5:4f:0f:9a:0e:29:94:fb:d9:ba:
         5b:9f:6d:dd:ba:04:8b:d4:ba:95:81:76:cd:93:32:04:1a:35:
         4a:44:7a:4f:b6:82:c2:7c:73:38:e8:39:d7:78:c7:f7:3b:cb:
         0f:1d:d2:5a:a2:0d:27:2a:7f:c8:a8:a6:db:4f:0a:c3:1e:b4:
         45:ed:b6:5e:27:e3:a0:48:70:82:71:04:ec:63:1b:98:92:36:
         1d:01:52:5a:65:f4:38:5d:4b:70:1c:58:ea:d2:83:91:85:78:
         cb:f2:b0:d1:72:fd:a0:60:cd:fc:af:e3:15:50:ff:e9:5c:64:
         e2:ce:ed:92:71:35:5d:c8:24:24:4a:aa:e4:4e:c7:68:50:98:
         17:27:94:45:bd:22:c6:b4
-----BEGIN CERTIFICATE-----
MIIFuTCCA6GgAwIBAgIUKOw7yKzF2iC3Ng5p11Hthg8eBD4wDQYJKoZIhvcNAQEL
BQAwfjELMAkGA1UEBhMCQ0gxEDAOBgNVBAgTB1RodXJnYXUxEDAOBgNVBAcTB0tl
Zmlrb24xEzARBgNVBAoTCmd1ZW5nZWwuY2gxEDAOBgNVBAMTB0NBIDIwMjIxJDAi
BgkqhkiG9w0BCQEWFXBvc3RtYXN0ZXJAZ3VlbmdlbC5jaDAeFw0yMzEyMzAwODQ0
NTRaFw0yNTAyMDIwODQ0NTRaMHsxCzAJBgNVBAYTAkNIMRAwDgYDVQQIEwdUaHVy
Z2F1MRMwEQYDVQQKEwpndWVuZ2VsLmNoMR8wHQYDVQQDExZ5YXlhcC5kbXoua3J1
ZW1lbC5ob21lMSQwIgYJKoZIhvcNAQkBFhVwb3N0bWFzdGVyQGd1ZW5nZWwuY2gw
ggEiMA0GCSqGSIb3DQEBAQUAA4IBDwAwggEKAoIBAQDE2tddKlmSblhzW2pDG1EN
tD7P6jCtXye9Ha7RBKmcK6KIEj7T91NMST8XfpbCtKoKaEXrjD8nIFEB8CUYwOx2
r2FPlmsN3vtI7/3G8DRihVX9xChKSxkGZ3yWdmnziYIvw30qPs/Q01GdxVlWR1T2
fDPFxqAuBVnDpwgIUb7PM1RoE5Di76jkKtl4D7d/UBcsRddPcZXxFkJcg3EyCVRn
uPQz3evC5Wa3RplExV7bE9gRJ/aBWUIa+OFBqjPOsvL6gO3OvuWziBd/Q68gg4sf
4z7C3UnTJ1BLg1j9PfFSN2HfwR6Rf+PVRA01f8r2FLMlpCOx4L/KTVyy9DxxG6tN
AgMBAAGjggEwMIIBLDAMBgNVHRMBAf8EAjAAMAsGA1UdDwQEAwIDqDAdBgNVHQ4E
FgQUiDm123KQmpABBJ6GEuKPfHQnw1owgb0GA1UdIwSBtTCBsoAUIiANUUBhQr7d
utnJwXe2kyjDmeyhgYOkgYAwfjELMAkGA1UEBhMCQ0gxEDAOBgNVBAgTB1RodXJn
YXUxEDAOBgNVBAcTB0tlZmlrb24xEzARBgNVBAoTCmd1ZW5nZWwuY2gxEDAOBgNV
BAMTB0NBIDIwMjIxJDAiBgkqhkiG9w0BCQEWFXBvc3RtYXN0ZXJAZ3VlbmdlbC5j
aIIUbSmQVOkX6cJq5lKthE4wjm5X+xwwEQYJYIZIAYb4QgEBBAQDAgbAMB0GA1Ud
JQQWMBQGCCsGAQUFBwMBBggrBgEFBQcDAjANBgkqhkiG9w0BAQsFAAOCAgEAcgKc
KEAbeiz6UmOyskNg+E2t/sOhtWCrC37CZz07BcfGCxAFZnEbjrx+CCn83ng/Roru
cwVUO8Mf+tZvMeYEntorY08KAOtCBWBhAu6jIvkPNDpzBatY2x52VtcRBAbKozJj
ktLXn1RtFX9XYuEYqp4DkTFe6VcNGDE9BZznviuEtAn/jXAlLUFLDOT4/N2Opo3L
alba+WYWANB2M9pjapvwAUwR2jyyRtrFiPfAl3g5bj1u5g3foWLAXxIERPGeieKd
4Gi5WtI6N0SSN9qXrD7HBBZFBFOt+vKKpRKpZKM8t8v/ChlWtaOCZWiRCIfIq5ix
4zT/Bd+zbaiKFCtJF2sSww+YgTNxaLLHyVxj2z3438LKHXUL6BXe0PwN0JWfUXlx
nvHZynD4zo6rks9TdV21q+a4oyC+i87v11Z/wttchu5FVOK9D3LPh1/vYAVcWvaX
acIyyjcl4hMG8OYzF4U7egSm8CIl+P2V4eK2G+m1Tw+aDimU+9m6W59t3boEi9S6
lYF2zZMyBBo1SkR6T7aCwnxzOOg513jH9zvLDx3SWqINJyp/yKim208Kwx60Re22
XifjoEhwgnEE7GMbmJI2HQFSWmX0OF1LcBxY6tKDkYV4y/Kw0XL9oGDN/K/jFVD/
6Vxk4s7tknE1XcgkJEqq5E7HaFCYFyeURb0ixrQ=
-----END CERTIFICATE-----
