Certificate:
    Data:
        Version: 3 (0x2)
        Serial Number: 322 (0x142)
    Signature Algorithm: sha256WithRSAEncryption
        Issuer: C=CH, ST=Thurgau, L=Kefikon, O=guengel.ch, CN=CA guengel.ch/emailAddress=postmaster@guengel.ch
        Validity
            Not Before: Jan  6 18:03:03 2018 GMT
            Not After : Feb 10 18:03:03 2019 GMT
        Subject: C=CH, ST=Thurgau, O=guengel.ch, CN=yayap.dmz.kruemel.home/emailAddress=postmaster@guengel.ch
        Subject Public Key Info:
            Public Key Algorithm: rsaEncryption
                Public-Key: (2048 bit)
                Modulus:
                    00:ea:b9:12:c6:94:33:a4:66:1d:dd:4d:ee:bd:c2:
                    f5:32:20:e8:28:90:79:28:ef:dd:63:86:d0:09:4f:
                    87:1f:3a:a6:22:18:6e:64:16:a2:5b:f4:77:42:db:
                    b0:03:45:86:2f:6d:14:ff:69:3f:36:00:a5:d4:82:
                    b0:f0:6e:ce:f9:e3:83:c8:ff:eb:79:8a:6b:01:42:
                    b4:bd:1c:02:76:f3:07:90:62:de:a4:29:41:b6:ed:
                    27:ed:58:40:9e:07:24:46:ce:69:4e:f5:40:e6:32:
                    c3:2f:bc:2e:74:93:9a:a9:84:f6:63:3a:4c:6b:9f:
                    c8:fb:21:e2:8f:d0:ae:39:31:8e:76:ac:57:81:1f:
                    49:4b:f6:48:9a:69:e8:c3:2b:a8:d3:ea:0a:4c:30:
                    98:aa:af:43:7a:f6:e0:6a:b0:38:d4:98:37:9d:a6:
                    23:ae:0b:25:c0:6b:d6:c8:c5:c0:7f:83:72:c8:b5:
                    de:29:be:a3:e5:35:e9:48:93:4b:e6:9c:7f:ba:c9:
                    74:95:dd:6c:e6:3a:43:24:26:e8:25:4c:25:f5:c1:
                    93:ac:cf:d9:f0:cd:34:b5:e4:ef:f0:1d:eb:13:0e:
                    2c:62:ed:e8:6f:a1:46:2c:7c:0e:7b:78:b9:bd:db:
                    c2:d9:f4:66:12:fc:d4:59:4d:8d:c8:66:27:ca:e9:
                    48:7b
                Exponent: 65537 (0x10001)
        X509v3 extensions:
            X509v3 Basic Constraints: 
                CA:FALSE
            Netscape Comment: 
                OpenSSL Generated Certificate
            X509v3 Subject Key Identifier: 
                DE:6C:9B:34:92:4F:27:BC:06:BB:14:61:FA:68:88:8A:C9:B6:F7:A1
            X509v3 Authority Key Identifier: 
                keyid:D6:88:F1:AA:C1:2B:09:8C:B8:5C:9D:CE:DF:57:39:62:26:10:20:90
                DirName:/C=CH/ST=Thurgau/L=Kefikon/O=guengel.ch/CN=CA guengel.ch/emailAddress=postmaster@guengel.ch
                serial:E5:25:3B:A6:77:BD:CB:FF

    Signature Algorithm: sha256WithRSAEncryption
         2a:c2:f4:03:a6:59:0b:33:b4:a8:f4:c3:89:75:ce:92:98:8f:
         9f:14:58:56:84:8a:c1:9f:92:df:22:af:6d:ec:4e:29:2b:91:
         2c:cb:bc:26:29:39:57:94:69:53:3c:20:03:89:93:24:28:39:
         d2:f3:89:60:01:92:8e:ce:ec:17:75:c8:cc:ad:6f:0c:cb:9a:
         19:31:9d:04:9c:e8:13:83:91:b0:50:31:3b:0c:9b:a3:cd:d9:
         98:ac:ba:dc:66:dd:7a:0f:94:87:46:a6:4f:b9:73:e5:05:5f:
         3a:e6:3a:36:69:82:65:6f:7c:22:85:4b:e2:31:9b:41:a2:50:
         79:18:95:0c:c2:17:77:2b:bf:c3:71:1b:47:a6:b7:1f:eb:26:
         2e:ed:fd:ce:8d:06:fb:7d:12:d8:e1:f5:7f:26:76:50:40:93:
         a4:df:ea:79:23:9d:9d:d8:35:e5:94:a1:6b:16:ca:f7:99:45:
         c0:00:a4:9c:58:75:51:eb:03:f1:34:3c:5b:70:14:b7:1f:0d:
         f7:72:18:19:aa:6d:0a:2d:bf:9f:4c:fa:b7:6b:f4:50:32:4c:
         0b:92:78:a2:2c:77:47:c3:6e:f4:0d:c4:42:b8:6f:17:14:ea:
         85:ec:bd:b3:6d:aa:cc:cf:c4:39:d9:3b:84:6f:83:8f:b1:a9:
         7c:9e:78:f3:d1:72:80:0c:d7:c3:bd:21:b4:34:5e:09:3c:a8:
         9b:66:ee:37:28:a2:73:2d:de:17:29:b9:26:bd:8d:02:16:fb:
         f9:d9:00:04:1e:bf:08:00:b2:02:e7:b5:35:ce:65:a3:ad:a2:
         0f:48:39:cf:41:16:7f:91:89:f7:d8:44:b2:a3:10:7c:e5:d0:
         44:cc:ee:b4:a6:a5:85:23:76:df:70:36:8d:a1:cf:5b:04:7b:
         ad:1e:77:ca:d1:29:74:e5:f0:44:7d:bd:3f:fe:3c:93:fd:dc:
         5e:e1:42:25:7d:94:fd:05:6d:2d:fc:06:d7:73:3f:11:b6:5f:
         77:93:ea:6f:c3:91:91:19:84:da:a0:96:ba:e4:41:97:74:c2:
         e8:b7:c7:1f:ea:9d:bf:25:92:19:bc:f8:6b:1c:27:43:22:b1:
         38:e4:30:a8:70:6f:41:35:8e:9f:47:93:13:0a:df:9b:4d:f9:
         b0:56:14:72:1a:7f:1e:81:67:8a:60:e6:92:90:3d:9b:68:44:
         72:98:c1:28:96:b9:49:99:97:30:9b:4f:e1:1e:8d:76:31:ef:
         bb:7e:e8:c7:d5:22:3f:32:bc:1c:5e:e9:9f:c6:b3:45:45:dd:
         81:bd:04:32:d6:12:e9:98:ca:fc:93:b0:8c:15:ac:23:01:9d:
         9a:2a:8d:e5:0d:31:cf:f2
-----BEGIN CERTIFICATE-----
MIIFljCCA36gAwIBAgICAUIwDQYJKoZIhvcNAQELBQAwgYQxCzAJBgNVBAYTAkNI
MRAwDgYDVQQIEwdUaHVyZ2F1MRAwDgYDVQQHEwdLZWZpa29uMRMwEQYDVQQKEwpn
dWVuZ2VsLmNoMRYwFAYDVQQDEw1DQSBndWVuZ2VsLmNoMSQwIgYJKoZIhvcNAQkB
FhVwb3N0bWFzdGVyQGd1ZW5nZWwuY2gwHhcNMTgwMTA2MTgwMzAzWhcNMTkwMjEw
MTgwMzAzWjB7MQswCQYDVQQGEwJDSDEQMA4GA1UECBMHVGh1cmdhdTETMBEGA1UE
ChMKZ3VlbmdlbC5jaDEfMB0GA1UEAxMWeWF5YXAuZG16LmtydWVtZWwuaG9tZTEk
MCIGCSqGSIb3DQEJARYVcG9zdG1hc3RlckBndWVuZ2VsLmNoMIIBIjANBgkqhkiG
9w0BAQEFAAOCAQ8AMIIBCgKCAQEA6rkSxpQzpGYd3U3uvcL1MiDoKJB5KO/dY4bQ
CU+HHzqmIhhuZBaiW/R3QtuwA0WGL20U/2k/NgCl1IKw8G7O+eODyP/reYprAUK0
vRwCdvMHkGLepClBtu0n7VhAngckRs5pTvVA5jLDL7wudJOaqYT2YzpMa5/I+yHi
j9CuOTGOdqxXgR9JS/ZImmnowyuo0+oKTDCYqq9DevbgarA41Jg3naYjrgslwGvW
yMXAf4NyyLXeKb6j5TXpSJNL5px/usl0ld1s5jpDJCboJUwl9cGTrM/Z8M00teTv
8B3rEw4sYu3ob6FGLHwOe3i5vdvC2fRmEvzUWU2NyGYnyulIewIDAQABo4IBGDCC
ARQwCQYDVR0TBAIwADAsBglghkgBhvhCAQ0EHxYdT3BlblNTTCBHZW5lcmF0ZWQg
Q2VydGlmaWNhdGUwHQYDVR0OBBYEFN5smzSSTye8BrsUYfpoiIrJtvehMIG5BgNV
HSMEgbEwga6AFNaI8arBKwmMuFydzt9XOWImECCQoYGKpIGHMIGEMQswCQYDVQQG
EwJDSDEQMA4GA1UECBMHVGh1cmdhdTEQMA4GA1UEBxMHS2VmaWtvbjETMBEGA1UE
ChMKZ3VlbmdlbC5jaDEWMBQGA1UEAxMNQ0EgZ3VlbmdlbC5jaDEkMCIGCSqGSIb3
DQEJARYVcG9zdG1hc3RlckBndWVuZ2VsLmNoggkA5SU7pne9y/8wDQYJKoZIhvcN
AQELBQADggIBACrC9AOmWQsztKj0w4l1zpKYj58UWFaEisGfkt8ir23sTikrkSzL
vCYpOVeUaVM8IAOJkyQoOdLziWABko7O7Bd1yMytbwzLmhkxnQSc6BODkbBQMTsM
m6PN2Zisutxm3XoPlIdGpk+5c+UFXzrmOjZpgmVvfCKFS+Ixm0GiUHkYlQzCF3cr
v8NxG0emtx/rJi7t/c6NBvt9Etjh9X8mdlBAk6Tf6nkjnZ3YNeWUoWsWyveZRcAA
pJxYdVHrA/E0PFtwFLcfDfdyGBmqbQotv59M+rdr9FAyTAuSeKIsd0fDbvQNxEK4
bxcU6oXsvbNtqszPxDnZO4Rvg4+xqXyeePPRcoAM18O9IbQ0Xgk8qJtm7jcoonMt
3hcpuSa9jQIW+/nZAAQevwgAsgLntTXOZaOtog9IOc9BFn+RiffYRLKjEHzl0ETM
7rSmpYUjdt9wNo2hz1sEe60ed8rRKXTl8ER9vT/+PJP93F7hQiV9lP0FbS38Btdz
PxG2X3eT6m/DkZEZhNqglrrkQZd0wui3xx/qnb8lkhm8+GscJ0MisTjkMKhwb0E1
jp9HkxMK35tN+bBWFHIafx6BZ4pg5pKQPZtoRHKYwSiWuUmZlzCbT+EejXYx77t+
6MfVIj8yvBxe6Z/Gs0VF3YG9BDLWEumYyvyTsIwVrCMBnZoqjeUNMc/y
-----END CERTIFICATE-----
