Certificate:
    Data:
        Version: 3 (0x2)
        Serial Number: 469 (0x1d5)
        Signature Algorithm: sha256WithRSAEncryption
        Issuer: C=CH, ST=Thurgau, L=Kefikon, O=guengel.ch, CN=CA guengel.ch/emailAddress=postmaster@guengel.ch
        Validity
            Not Before: Feb 11 07:07:19 2022 GMT
            Not After : Mar 18 07:07:19 2023 GMT
        Subject: C=CH, ST=Thurgau, O=guengel.ch, CN=yayap.dmz.kruemel.home/emailAddress=postmaster@guengel.ch
        Subject Public Key Info:
            Public Key Algorithm: rsaEncryption
                RSA Public-Key: (2048 bit)
                Modulus:
                    00:ea:b9:12:c6:94:33:a4:66:1d:dd:4d:ee:bd:c2:
                    f5:32:20:e8:28:90:79:28:ef:dd:63:86:d0:09:4f:
                    87:1f:3a:a6:22:18:6e:64:16:a2:5b:f4:77:42:db:
                    b0:03:45:86:2f:6d:14:ff:69:3f:36:00:a5:d4:82:
                    b0:f0:6e:ce:f9:e3:83:c8:ff:eb:79:8a:6b:01:42:
                    b4:bd:1c:02:76:f3:07:90:62:de:a4:29:41:b6:ed:
                    27:ed:58:40:9e:07:24:46:ce:69:4e:f5:40:e6:32:
                    c3:2f:bc:2e:74:93:9a:a9:84:f6:63:3a:4c:6b:9f:
                    c8:fb:21:e2:8f:d0:ae:39:31:8e:76:ac:57:81:1f:
                    49:4b:f6:48:9a:69:e8:c3:2b:a8:d3:ea:0a:4c:30:
                    98:aa:af:43:7a:f6:e0:6a:b0:38:d4:98:37:9d:a6:
                    23:ae:0b:25:c0:6b:d6:c8:c5:c0:7f:83:72:c8:b5:
                    de:29:be:a3:e5:35:e9:48:93:4b:e6:9c:7f:ba:c9:
                    74:95:dd:6c:e6:3a:43:24:26:e8:25:4c:25:f5:c1:
                    93:ac:cf:d9:f0:cd:34:b5:e4:ef:f0:1d:eb:13:0e:
                    2c:62:ed:e8:6f:a1:46:2c:7c:0e:7b:78:b9:bd:db:
                    c2:d9:f4:66:12:fc:d4:59:4d:8d:c8:66:27:ca:e9:
                    48:7b
                Exponent: 65537 (0x10001)
        X509v3 extensions:
            X509v3 Key Usage: 
                Digital Signature, Key Encipherment, Key Agreement
            X509v3 Basic Constraints: critical
                CA:FALSE
            Netscape Cert Type: 
                SSL Client, SSL Server
            X509v3 Extended Key Usage: 
                TLS Web Server Authentication, TLS Web Client Authentication
            X509v3 Subject Alternative Name: 
                DNS:yayap.dmz.kruemel.home
            X509v3 Subject Key Identifier: 
                DE:6C:9B:34:92:4F:27:BC:06:BB:14:61:FA:68:88:8A:C9:B6:F7:A1
            X509v3 Authority Key Identifier: 
                keyid:D6:88:F1:AA:C1:2B:09:8C:B8:5C:9D:CE:DF:57:39:62:26:10:20:90
                DirName:/C=CH/ST=Thurgau/L=Kefikon/O=guengel.ch/CN=CA guengel.ch/emailAddress=postmaster@guengel.ch
                serial:E5:25:3B:A6:77:BD:CB:FF

    Signature Algorithm: sha256WithRSAEncryption
         49:d3:5f:06:17:46:e1:fa:8b:c1:04:b0:14:96:23:29:38:71:
         b2:c3:09:b4:7b:c1:ec:42:02:3e:06:f2:9d:9b:9e:ca:f8:6e:
         ad:e7:75:6a:a0:24:e5:1d:42:e1:aa:6f:f1:3a:29:03:8f:af:
         b7:c8:d8:17:05:3f:ff:12:c5:d0:08:59:90:e6:b1:4f:86:e3:
         80:39:9c:33:b4:a4:4f:60:fa:0e:20:13:96:2c:a9:36:fe:af:
         76:42:ad:a3:3e:8f:de:bb:ef:b6:a1:ce:26:37:d6:80:91:e5:
         40:c2:21:c9:8e:65:9e:73:61:d4:73:65:43:bb:04:05:63:27:
         04:21:c8:77:64:a3:a4:87:bd:00:0b:d3:fa:9a:23:e4:7b:9c:
         37:e4:74:5b:5a:b5:1b:9d:ae:5a:6b:1a:14:7d:fd:6f:48:53:
         78:19:ad:a9:25:e3:2c:61:be:84:f5:22:47:23:ec:b4:aa:88:
         b0:1e:68:c4:14:81:c3:ce:99:67:61:d4:85:14:12:9c:43:28:
         d2:fa:5a:be:38:b4:73:b2:7f:c2:47:54:fb:45:ea:74:f2:6e:
         af:75:d5:ac:cf:b5:f6:00:ae:6d:f0:4e:e9:f1:fa:1f:f9:d8:
         57:04:41:a6:0b:bc:d6:9a:47:e3:e2:4d:58:0f:00:03:d5:01:
         d5:d2:3a:87:5a:50:f1:25:c9:b1:22:9c:2c:3b:8c:aa:76:1d:
         85:a6:f0:7a:60:22:d1:cd:57:77:c3:e6:06:1c:cc:a7:66:d9:
         6c:95:11:4c:1c:c1:9a:da:08:a5:9f:99:eb:66:f1:6d:ce:ed:
         0c:74:9e:8b:df:c3:d7:15:6c:60:a9:b7:b2:80:38:ee:34:81:
         3a:e6:73:86:32:70:fd:da:96:44:82:dd:25:ea:e9:1f:ac:e8:
         58:64:52:48:b1:c8:a2:1f:84:6e:fe:15:a5:fa:13:2e:ed:e6:
         87:34:24:a5:02:ed:b7:f2:90:94:12:57:41:10:f2:86:24:70:
         a4:95:2f:d4:65:8f:d1:b1:e1:48:56:30:43:7d:52:f8:c4:e4:
         35:72:60:a8:ce:e1:0e:b0:16:b0:73:21:68:e1:a6:29:7d:09:
         a9:7a:19:39:1a:e2:5d:b4:47:a4:94:f0:e3:27:62:33:e3:c8:
         c5:11:ce:61:76:56:a7:9a:48:80:dd:dc:31:51:f2:aa:86:2e:
         89:c5:20:c3:21:f8:26:72:e4:31:06:cb:f8:ec:80:7f:16:bf:
         cd:a5:74:5c:e4:07:1c:5e:ca:92:94:31:df:fa:42:50:05:5c:
         d6:9e:1d:92:1a:bf:c0:b5:a0:3b:c1:d7:30:ea:37:b9:8c:8e:
         cc:96:d2:d6:45:a6:56:1c
-----BEGIN CERTIFICATE-----
MIIFzTCCA7WgAwIBAgICAdUwDQYJKoZIhvcNAQELBQAwgYQxCzAJBgNVBAYTAkNI
MRAwDgYDVQQIEwdUaHVyZ2F1MRAwDgYDVQQHEwdLZWZpa29uMRMwEQYDVQQKEwpn
dWVuZ2VsLmNoMRYwFAYDVQQDEw1DQSBndWVuZ2VsLmNoMSQwIgYJKoZIhvcNAQkB
FhVwb3N0bWFzdGVyQGd1ZW5nZWwuY2gwHhcNMjIwMjExMDcwNzE5WhcNMjMwMzE4
MDcwNzE5WjB7MQswCQYDVQQGEwJDSDEQMA4GA1UECBMHVGh1cmdhdTETMBEGA1UE
ChMKZ3VlbmdlbC5jaDEfMB0GA1UEAxMWeWF5YXAuZG16LmtydWVtZWwuaG9tZTEk
MCIGCSqGSIb3DQEJARYVcG9zdG1hc3RlckBndWVuZ2VsLmNoMIIBIjANBgkqhkiG
9w0BAQEFAAOCAQ8AMIIBCgKCAQEA6rkSxpQzpGYd3U3uvcL1MiDoKJB5KO/dY4bQ
CU+HHzqmIhhuZBaiW/R3QtuwA0WGL20U/2k/NgCl1IKw8G7O+eODyP/reYprAUK0
vRwCdvMHkGLepClBtu0n7VhAngckRs5pTvVA5jLDL7wudJOaqYT2YzpMa5/I+yHi
j9CuOTGOdqxXgR9JS/ZImmnowyuo0+oKTDCYqq9DevbgarA41Jg3naYjrgslwGvW
yMXAf4NyyLXeKb6j5TXpSJNL5px/usl0ld1s5jpDJCboJUwl9cGTrM/Z8M00teTv
8B3rEw4sYu3ob6FGLHwOe3i5vdvC2fRmEvzUWU2NyGYnyulIewIDAQABo4IBTzCC
AUswCwYDVR0PBAQDAgOoMAwGA1UdEwEB/wQCMAAwEQYJYIZIAYb4QgEBBAQDAgbA
MB0GA1UdJQQWMBQGCCsGAQUFBwMBBggrBgEFBQcDAjAhBgNVHREEGjAYghZ5YXlh
cC5kbXoua3J1ZW1lbC5ob21lMB0GA1UdDgQWBBTebJs0kk8nvAa7FGH6aIiKybb3
oTCBuQYDVR0jBIGxMIGugBTWiPGqwSsJjLhcnc7fVzliJhAgkKGBiqSBhzCBhDEL
MAkGA1UEBhMCQ0gxEDAOBgNVBAgTB1RodXJnYXUxEDAOBgNVBAcTB0tlZmlrb24x
EzARBgNVBAoTCmd1ZW5nZWwuY2gxFjAUBgNVBAMTDUNBIGd1ZW5nZWwuY2gxJDAi
BgkqhkiG9w0BCQEWFXBvc3RtYXN0ZXJAZ3VlbmdlbC5jaIIJAOUlO6Z3vcv/MA0G
CSqGSIb3DQEBCwUAA4ICAQBJ018GF0bh+ovBBLAUliMpOHGywwm0e8HsQgI+BvKd
m57K+G6t53VqoCTlHULhqm/xOikDj6+3yNgXBT//EsXQCFmQ5rFPhuOAOZwztKRP
YPoOIBOWLKk2/q92Qq2jPo/eu++2oc4mN9aAkeVAwiHJjmWec2HUc2VDuwQFYycE
Ich3ZKOkh70AC9P6miPke5w35HRbWrUbna5aaxoUff1vSFN4Ga2pJeMsYb6E9SJH
I+y0qoiwHmjEFIHDzplnYdSFFBKcQyjS+lq+OLRzsn/CR1T7Rep08m6vddWsz7X2
AK5t8E7p8fof+dhXBEGmC7zWmkfj4k1YDwAD1QHV0jqHWlDxJcmxIpwsO4yqdh2F
pvB6YCLRzVd3w+YGHMynZtlslRFMHMGa2giln5nrZvFtzu0MdJ6L38PXFWxgqbey
gDjuNIE65nOGMnD92pZEgt0l6ukfrOhYZFJIsciiH4Ru/hWl+hMu7eaHNCSlAu23
8pCUEldBEPKGJHCklS/UZY/RseFIVjBDfVL4xOQ1cmCozuEOsBawcyFo4aYpfQmp
ehk5GuJdtEeklPDjJ2Iz48jFEc5hdlanmkiA3dwxUfKqhi6JxSDDIfgmcuQxBsv4
7IB/Fr/NpXRc5AccXsqSlDHf+kJQBVzWnh2SGr/AtaA7wdcw6je5jI7MltLWRaZW
HA==
-----END CERTIFICATE-----
