Certificate:
    Data:
        Version: 3 (0x2)
        Serial Number: 360 (0x168)
    Signature Algorithm: sha256WithRSAEncryption
        Issuer: C=CH, ST=Thurgau, L=Kefikon, O=guengel.ch, CN=CA guengel.ch/emailAddress=postmaster@guengel.ch
        Validity
            Not Before: Dec 29 14:40:06 2018 GMT
            Not After : Feb  2 14:40:06 2020 GMT
        Subject: C=CH, ST=Thurgau, O=guengel.ch, CN=yayap.dmz.kruemel.home/emailAddress=postmaster@guengel.ch
        Subject Public Key Info:
            Public Key Algorithm: rsaEncryption
                Public-Key: (2048 bit)
                Modulus:
                    00:ea:b9:12:c6:94:33:a4:66:1d:dd:4d:ee:bd:c2:
                    f5:32:20:e8:28:90:79:28:ef:dd:63:86:d0:09:4f:
                    87:1f:3a:a6:22:18:6e:64:16:a2:5b:f4:77:42:db:
                    b0:03:45:86:2f:6d:14:ff:69:3f:36:00:a5:d4:82:
                    b0:f0:6e:ce:f9:e3:83:c8:ff:eb:79:8a:6b:01:42:
                    b4:bd:1c:02:76:f3:07:90:62:de:a4:29:41:b6:ed:
                    27:ed:58:40:9e:07:24:46:ce:69:4e:f5:40:e6:32:
                    c3:2f:bc:2e:74:93:9a:a9:84:f6:63:3a:4c:6b:9f:
                    c8:fb:21:e2:8f:d0:ae:39:31:8e:76:ac:57:81:1f:
                    49:4b:f6:48:9a:69:e8:c3:2b:a8:d3:ea:0a:4c:30:
                    98:aa:af:43:7a:f6:e0:6a:b0:38:d4:98:37:9d:a6:
                    23:ae:0b:25:c0:6b:d6:c8:c5:c0:7f:83:72:c8:b5:
                    de:29:be:a3:e5:35:e9:48:93:4b:e6:9c:7f:ba:c9:
                    74:95:dd:6c:e6:3a:43:24:26:e8:25:4c:25:f5:c1:
                    93:ac:cf:d9:f0:cd:34:b5:e4:ef:f0:1d:eb:13:0e:
                    2c:62:ed:e8:6f:a1:46:2c:7c:0e:7b:78:b9:bd:db:
                    c2:d9:f4:66:12:fc:d4:59:4d:8d:c8:66:27:ca:e9:
                    48:7b
                Exponent: 65537 (0x10001)
        X509v3 extensions:
            X509v3 Basic Constraints: 
                CA:FALSE
            Netscape Comment: 
                OpenSSL Generated Certificate
            X509v3 Subject Key Identifier: 
                DE:6C:9B:34:92:4F:27:BC:06:BB:14:61:FA:68:88:8A:C9:B6:F7:A1
            X509v3 Authority Key Identifier: 
                keyid:D6:88:F1:AA:C1:2B:09:8C:B8:5C:9D:CE:DF:57:39:62:26:10:20:90
                DirName:/C=CH/ST=Thurgau/L=Kefikon/O=guengel.ch/CN=CA guengel.ch/emailAddress=postmaster@guengel.ch
                serial:E5:25:3B:A6:77:BD:CB:FF

    Signature Algorithm: sha256WithRSAEncryption
         c3:ab:da:58:4d:29:00:88:5e:16:1f:8c:b4:98:ad:08:6a:da:
         87:4f:f2:55:0e:4d:ca:80:f5:1c:aa:c6:a2:fc:69:1b:85:24:
         0c:4f:80:03:02:86:2f:d3:0d:bb:23:56:e2:50:8f:db:88:61:
         2b:cb:0e:94:0f:7f:f4:48:5f:91:b8:19:07:bf:a5:80:a9:d9:
         d3:81:41:c2:3e:6c:73:3e:89:4a:8c:f5:f3:c0:71:05:dd:63:
         40:54:e4:8d:d6:df:28:f3:02:0c:f7:5a:93:1b:1b:a0:bf:cc:
         a8:67:a7:57:8e:d0:2b:6b:8c:5d:1e:44:e0:f4:f8:cb:c3:02:
         98:17:0d:d6:5a:75:04:6c:09:98:7c:3b:d6:78:a4:3d:7b:f9:
         bc:de:cc:b7:6a:2b:f6:c8:b9:65:0b:7d:e5:cd:b6:5f:7e:7f:
         f6:16:02:70:5a:c8:d7:95:c0:ed:bd:45:ba:d8:27:97:3d:4f:
         ba:19:75:d9:9d:00:d9:14:66:7b:52:70:c1:3a:43:ed:d3:ff:
         c9:8e:df:26:ec:95:15:aa:b8:b5:75:e7:6c:56:8e:16:8c:2a:
         73:59:0f:df:ec:78:11:4d:f4:5a:64:71:ff:ad:ca:fd:82:22:
         22:dc:d2:a1:5a:6b:b8:e3:d2:48:ab:80:ad:c6:42:83:35:e5:
         f3:6c:bd:22:0e:36:8a:2e:72:28:55:b2:90:4f:59:4b:56:f5:
         fa:05:6e:8e:90:4d:06:5c:e8:a7:48:af:23:30:ff:ec:29:00:
         c9:4c:73:f8:e2:8a:23:de:43:73:85:c3:c8:9c:cf:a7:27:1a:
         50:31:9c:d8:fb:79:49:89:7e:c9:34:6d:ad:e1:d7:1f:ff:41:
         06:47:ed:50:45:03:5a:b8:ed:0a:10:32:a5:d3:2d:3d:98:2e:
         80:7b:2d:a2:5e:43:9b:a5:e5:04:eb:17:e1:ee:d5:e9:80:67:
         33:ec:c9:a7:be:ff:96:02:6c:76:aa:c9:41:65:7f:4e:03:0e:
         ca:e6:4e:15:d6:25:d7:38:98:35:1b:c4:42:76:46:26:f9:b7:
         3c:65:1f:7a:13:3a:43:12:0c:4a:a9:97:4a:3b:5a:aa:27:a9:
         cd:70:57:9e:75:75:7d:ba:fc:71:6e:1a:52:06:56:18:2d:20:
         a9:81:b4:af:a2:18:73:84:ca:14:13:38:d6:78:35:ff:6c:db:
         7c:ba:32:c8:f6:dc:80:ed:b4:28:10:4d:5f:38:97:97:c4:e7:
         d1:16:37:03:03:cf:bd:16:bc:b4:bc:63:b5:e3:4e:dc:8a:70:
         0f:fc:f8:41:86:05:96:94:43:5c:c7:4b:9a:6a:24:d2:eb:ef:
         88:9e:c8:0d:bb:f1:5a:d1
-----BEGIN CERTIFICATE-----
MIIFljCCA36gAwIBAgICAWgwDQYJKoZIhvcNAQELBQAwgYQxCzAJBgNVBAYTAkNI
MRAwDgYDVQQIEwdUaHVyZ2F1MRAwDgYDVQQHEwdLZWZpa29uMRMwEQYDVQQKEwpn
dWVuZ2VsLmNoMRYwFAYDVQQDEw1DQSBndWVuZ2VsLmNoMSQwIgYJKoZIhvcNAQkB
FhVwb3N0bWFzdGVyQGd1ZW5nZWwuY2gwHhcNMTgxMjI5MTQ0MDA2WhcNMjAwMjAy
MTQ0MDA2WjB7MQswCQYDVQQGEwJDSDEQMA4GA1UECBMHVGh1cmdhdTETMBEGA1UE
ChMKZ3VlbmdlbC5jaDEfMB0GA1UEAxMWeWF5YXAuZG16LmtydWVtZWwuaG9tZTEk
MCIGCSqGSIb3DQEJARYVcG9zdG1hc3RlckBndWVuZ2VsLmNoMIIBIjANBgkqhkiG
9w0BAQEFAAOCAQ8AMIIBCgKCAQEA6rkSxpQzpGYd3U3uvcL1MiDoKJB5KO/dY4bQ
CU+HHzqmIhhuZBaiW/R3QtuwA0WGL20U/2k/NgCl1IKw8G7O+eODyP/reYprAUK0
vRwCdvMHkGLepClBtu0n7VhAngckRs5pTvVA5jLDL7wudJOaqYT2YzpMa5/I+yHi
j9CuOTGOdqxXgR9JS/ZImmnowyuo0+oKTDCYqq9DevbgarA41Jg3naYjrgslwGvW
yMXAf4NyyLXeKb6j5TXpSJNL5px/usl0ld1s5jpDJCboJUwl9cGTrM/Z8M00teTv
8B3rEw4sYu3ob6FGLHwOe3i5vdvC2fRmEvzUWU2NyGYnyulIewIDAQABo4IBGDCC
ARQwCQYDVR0TBAIwADAsBglghkgBhvhCAQ0EHxYdT3BlblNTTCBHZW5lcmF0ZWQg
Q2VydGlmaWNhdGUwHQYDVR0OBBYEFN5smzSSTye8BrsUYfpoiIrJtvehMIG5BgNV
HSMEgbEwga6AFNaI8arBKwmMuFydzt9XOWImECCQoYGKpIGHMIGEMQswCQYDVQQG
EwJDSDEQMA4GA1UECBMHVGh1cmdhdTEQMA4GA1UEBxMHS2VmaWtvbjETMBEGA1UE
ChMKZ3VlbmdlbC5jaDEWMBQGA1UEAxMNQ0EgZ3VlbmdlbC5jaDEkMCIGCSqGSIb3
DQEJARYVcG9zdG1hc3RlckBndWVuZ2VsLmNoggkA5SU7pne9y/8wDQYJKoZIhvcN
AQELBQADggIBAMOr2lhNKQCIXhYfjLSYrQhq2odP8lUOTcqA9RyqxqL8aRuFJAxP
gAMChi/TDbsjVuJQj9uIYSvLDpQPf/RIX5G4GQe/pYCp2dOBQcI+bHM+iUqM9fPA
cQXdY0BU5I3W3yjzAgz3WpMbG6C/zKhnp1eO0CtrjF0eROD0+MvDApgXDdZadQRs
CZh8O9Z4pD17+bzezLdqK/bIuWULfeXNtl9+f/YWAnBayNeVwO29RbrYJ5c9T7oZ
ddmdANkUZntScME6Q+3T/8mO3ybslRWquLV152xWjhaMKnNZD9/seBFN9Fpkcf+t
yv2CIiLc0qFaa7jj0kirgK3GQoM15fNsvSIONooucihVspBPWUtW9foFbo6QTQZc
6KdIryMw/+wpAMlMc/jiiiPeQ3OFw8icz6cnGlAxnNj7eUmJfsk0ba3h1x//QQZH
7VBFA1q47QoQMqXTLT2YLoB7LaJeQ5ul5QTrF+Hu1emAZzPsyae+/5YCbHaqyUFl
f04DDsrmThXWJdc4mDUbxEJ2Rib5tzxlH3oTOkMSDEqpl0o7Wqonqc1wV551dX26
/HFuGlIGVhgtIKmBtK+iGHOEyhQTONZ4Nf9s23y6Msj23IDttCgQTV84l5fE59EW
NwMDz70WvLS8Y7XjTtyKcA/8+EGGBZaUQ1zHS5pqJNLr74ieyA278VrR
-----END CERTIFICATE-----
