Certificate:
    Data:
        Version: 3 (0x2)
        Serial Number:
            5a:bc:0e:97:98:56:09:8f:76:0d:1b:16:eb:ff:02:18:c5:e9:48:8c
        Signature Algorithm: sha256WithRSAEncryption
        Issuer: C=CH, ST=Thurgau, L=Kefikon, O=guengel.ch, CN=CA 2022/emailAddress=postmaster@guengel.ch
        Validity
            Not Before: Jan  3 14:04:33 2025 GMT
            Not After : Feb  7 14:04:33 2026 GMT
        Subject: C=CH, ST=Thurgau, O=guengel.ch, CN=yayap.dmz.kruemel.home/emailAddress=postmaster@guengel.ch
        Subject Public Key Info:
            Public Key Algorithm: rsaEncryption
                Public-Key: (2048 bit)
                Modulus:
                    00:c4:da:d7:5d:2a:59:92:6e:58:73:5b:6a:43:1b:
                    51:0d:b4:3e:cf:ea:30:ad:5f:27:bd:1d:ae:d1:04:
                    a9:9c:2b:a2:88:12:3e:d3:f7:53:4c:49:3f:17:7e:
                    96:c2:b4:aa:0a:68:45:eb:8c:3f:27:20:51:01:f0:
                    25:18:c0:ec:76:af:61:4f:96:6b:0d:de:fb:48:ef:
                    fd:c6:f0:34:62:85:55:fd:c4:28:4a:4b:19:06:67:
                    7c:96:76:69:f3:89:82:2f:c3:7d:2a:3e:cf:d0:d3:
                    51:9d:c5:59:56:47:54:f6:7c:33:c5:c6:a0:2e:05:
                    59:c3:a7:08:08:51:be:cf:33:54:68:13:90:e2:ef:
                    a8:e4:2a:d9:78:0f:b7:7f:50:17:2c:45:d7:4f:71:
                    95:f1:16:42:5c:83:71:32:09:54:67:b8:f4:33:dd:
                    eb:c2:e5:66:b7:46:99:44:c5:5e:db:13:d8:11:27:
                    f6:81:59:42:1a:f8:e1:41:aa:33:ce:b2:f2:fa:80:
                    ed:ce:be:e5:b3:88:17:7f:43:af:20:83:8b:1f:e3:
                    3e:c2:dd:49:d3:27:50:4b:83:58:fd:3d:f1:52:37:
                    61:df:c1:1e:91:7f:e3:d5:44:0d:35:7f:ca:f6:14:
                    b3:25:a4:23:b1:e0:bf:ca:4d:5c:b2:f4:3c:71:1b:
                    ab:4d
                Exponent: 65537 (0x10001)
        X509v3 extensions:
            X509v3 Basic Constraints: critical
                CA:FALSE
            X509v3 Key Usage: 
                Digital Signature, Key Encipherment, Key Agreement
            X509v3 Subject Key Identifier: 
                88:39:B5:DB:72:90:9A:90:01:04:9E:86:12:E2:8F:7C:74:27:C3:5A
            X509v3 Authority Key Identifier: 
                keyid:22:20:0D:51:40:61:42:BE:DD:BA:D9:C9:C1:77:B6:93:28:C3:99:EC
                DirName:/C=CH/ST=Thurgau/L=Kefikon/O=guengel.ch/CN=CA 2022/emailAddress=postmaster@guengel.ch
                serial:6D:29:90:54:E9:17:E9:C2:6A:E6:52:AD:84:4E:30:8E:6E:57:FB:1C
            Netscape Cert Type: 
                SSL Client, SSL Server
            X509v3 Extended Key Usage: 
                TLS Web Server Authentication, TLS Web Client Authentication
    Signature Algorithm: sha256WithRSAEncryption
    Signature Value:
        27:55:a1:87:65:00:f3:2e:14:d4:50:c4:20:d8:7e:7a:ff:1a:
        21:da:24:ff:40:f2:60:ed:99:14:72:ac:a8:44:b8:28:c1:44:
        06:9f:a7:e0:44:e9:e8:b0:29:d5:73:ba:1b:5c:1b:d7:66:0f:
        6d:da:b4:a0:fd:92:04:1f:8c:f4:ee:0d:4a:3e:56:33:60:f8:
        5e:52:0f:77:05:0d:f8:83:d6:d1:aa:3c:2c:d7:27:c5:7f:14:
        12:fc:d2:48:50:56:3d:f5:e5:05:70:71:f3:1b:01:94:fd:ab:
        95:14:36:0e:01:ad:9c:36:81:30:31:c5:42:fa:ce:dc:00:1e:
        71:d0:69:74:91:bc:f5:77:07:a2:a7:f5:c0:43:47:c6:91:f1:
        88:32:02:23:96:50:f0:3e:37:e1:2c:35:7c:5a:79:7c:41:0c:
        66:1b:66:a6:0e:76:57:5f:ba:43:a5:3b:06:1a:bf:ef:6c:88:
        08:eb:fc:c9:ec:93:63:81:d5:2e:be:d7:cc:f5:99:2d:1b:db:
        69:30:0e:a6:a5:61:cf:d4:f0:39:77:7d:9c:a7:ff:c5:0a:47:
        d3:f9:75:91:08:d0:ec:e0:76:0d:4f:04:36:c1:f0:e7:1b:69:
        81:5f:f7:4a:db:a2:b6:8f:20:4b:40:f0:3b:10:14:b3:36:a9:
        39:a5:c7:b2:18:c6:ca:32:9e:c6:f5:88:37:40:00:6d:71:10:
        56:13:2a:21:9e:74:49:c6:44:16:89:e2:74:aa:40:ee:8a:72:
        06:88:ae:ef:f8:6d:8d:cf:a2:1f:38:a3:25:2f:7d:01:83:b0:
        fa:69:69:30:75:14:d5:63:cc:2c:73:a6:1a:8d:d8:79:50:fb:
        8a:a4:71:47:72:6f:70:43:32:99:11:25:5d:71:b7:35:b7:d7:
        63:33:2b:d3:4d:90:c5:47:17:16:2a:c0:4d:c2:cd:52:e4:a1:
        a9:d4:19:51:a8:ef:03:b8:22:ff:35:7e:12:41:26:4b:f8:58:
        cb:9a:7e:15:e4:69:5a:8a:8c:3a:26:d3:9a:7b:60:59:b0:fb:
        05:f8:a2:a2:c1:e3:1b:ca:99:83:33:1e:6d:39:cf:85:13:84:
        11:9b:18:12:fc:67:15:ac:99:51:a8:91:c5:a7:e1:01:5d:23:
        24:20:94:82:0c:36:18:4a:72:53:73:1b:ad:9c:45:dd:1e:73:
        a4:d2:01:af:1d:e0:42:05:86:c5:b6:ea:6c:a2:0f:af:7a:be:
        c2:cf:3f:e6:aa:98:39:ce:93:55:ed:20:c7:64:52:d7:da:e4:
        59:80:5f:ed:33:5d:cb:3b:99:43:27:9c:16:5b:49:34:34:a1:
        2a:83:25:31:89:41:1a:5b
-----BEGIN CERTIFICATE-----
MIIFuTCCA6GgAwIBAgIUWrwOl5hWCY92DRsW6/8CGMXpSIwwDQYJKoZIhvcNAQEL
BQAwfjELMAkGA1UEBhMCQ0gxEDAOBgNVBAgTB1RodXJnYXUxEDAOBgNVBAcTB0tl
Zmlrb24xEzARBgNVBAoTCmd1ZW5nZWwuY2gxEDAOBgNVBAMTB0NBIDIwMjIxJDAi
BgkqhkiG9w0BCQEWFXBvc3RtYXN0ZXJAZ3VlbmdlbC5jaDAeFw0yNTAxMDMxNDA0
MzNaFw0yNjAyMDcxNDA0MzNaMHsxCzAJBgNVBAYTAkNIMRAwDgYDVQQIEwdUaHVy
Z2F1MRMwEQYDVQQKEwpndWVuZ2VsLmNoMR8wHQYDVQQDExZ5YXlhcC5kbXoua3J1
ZW1lbC5ob21lMSQwIgYJKoZIhvcNAQkBFhVwb3N0bWFzdGVyQGd1ZW5nZWwuY2gw
ggEiMA0GCSqGSIb3DQEBAQUAA4IBDwAwggEKAoIBAQDE2tddKlmSblhzW2pDG1EN
tD7P6jCtXye9Ha7RBKmcK6KIEj7T91NMST8XfpbCtKoKaEXrjD8nIFEB8CUYwOx2
r2FPlmsN3vtI7/3G8DRihVX9xChKSxkGZ3yWdmnziYIvw30qPs/Q01GdxVlWR1T2
fDPFxqAuBVnDpwgIUb7PM1RoE5Di76jkKtl4D7d/UBcsRddPcZXxFkJcg3EyCVRn
uPQz3evC5Wa3RplExV7bE9gRJ/aBWUIa+OFBqjPOsvL6gO3OvuWziBd/Q68gg4sf
4z7C3UnTJ1BLg1j9PfFSN2HfwR6Rf+PVRA01f8r2FLMlpCOx4L/KTVyy9DxxG6tN
AgMBAAGjggEwMIIBLDAMBgNVHRMBAf8EAjAAMAsGA1UdDwQEAwIDqDAdBgNVHQ4E
FgQUiDm123KQmpABBJ6GEuKPfHQnw1owgb0GA1UdIwSBtTCBsoAUIiANUUBhQr7d
utnJwXe2kyjDmeyhgYOkgYAwfjELMAkGA1UEBhMCQ0gxEDAOBgNVBAgTB1RodXJn
YXUxEDAOBgNVBAcTB0tlZmlrb24xEzARBgNVBAoTCmd1ZW5nZWwuY2gxEDAOBgNV
BAMTB0NBIDIwMjIxJDAiBgkqhkiG9w0BCQEWFXBvc3RtYXN0ZXJAZ3VlbmdlbC5j
aIIUbSmQVOkX6cJq5lKthE4wjm5X+xwwEQYJYIZIAYb4QgEBBAQDAgbAMB0GA1Ud
JQQWMBQGCCsGAQUFBwMBBggrBgEFBQcDAjANBgkqhkiG9w0BAQsFAAOCAgEAJ1Wh
h2UA8y4U1FDEINh+ev8aIdok/0DyYO2ZFHKsqES4KMFEBp+n4ETp6LAp1XO6G1wb
12YPbdq0oP2SBB+M9O4NSj5WM2D4XlIPdwUN+IPW0ao8LNcnxX8UEvzSSFBWPfXl
BXBx8xsBlP2rlRQ2DgGtnDaBMDHFQvrO3AAecdBpdJG89XcHoqf1wENHxpHxiDIC
I5ZQ8D434Sw1fFp5fEEMZhtmpg52V1+6Q6U7Bhq/72yICOv8yeyTY4HVLr7XzPWZ
LRvbaTAOpqVhz9TwOXd9nKf/xQpH0/l1kQjQ7OB2DU8ENsHw5xtpgV/3Stuito8g
S0DwOxAUszapOaXHshjGyjKexvWIN0AAbXEQVhMqIZ50ScZEFonidKpA7opyBoiu
7/htjc+iHzijJS99AYOw+mlpMHUU1WPMLHOmGo3YeVD7iqRxR3JvcEMymRElXXG3
NbfXYzMr002QxUcXFirATcLNUuShqdQZUajvA7gi/zV+EkEmS/hYy5p+FeRpWoqM
OibTmntgWbD7BfiiosHjG8qZgzMebTnPhROEEZsYEvxnFayZUaiRxafhAV0jJCCU
ggw2GEpyU3MbrZxF3R5zpNIBrx3gQgWGxbbqbKIPr3q+ws8/5qqYOc6TVe0gx2RS
19rkWYBf7TNdyzuZQyecFltJNDShKoMlMYlBGls=
-----END CERTIFICATE-----
