Certificate:
    Data:
        Version: 3 (0x2)
        Serial Number:
            59:0e:33:59:92:0b:70:da:28:c7:5a:8f:87:33:19:ae:b8:4c:7c:ec
        Signature Algorithm: sha256WithRSAEncryption
        Issuer: C=CH, ST=Thurgau, L=Kefikon, O=guengel.ch, CN=CA 2022/emailAddress=postmaster@guengel.ch
        Validity
            Not Before: Feb 28 06:43:10 2023 GMT
            Not After : Apr  3 06:43:10 2024 GMT
        Subject: C=CH, ST=Thurgau, O=guengel.ch, CN=yayap.dmz.kruemel.home/emailAddress=postmaster@guengel.ch
        Subject Public Key Info:
            Public Key Algorithm: rsaEncryption
                RSA Public-Key: (2048 bit)
                Modulus:
                    00:c4:da:d7:5d:2a:59:92:6e:58:73:5b:6a:43:1b:
                    51:0d:b4:3e:cf:ea:30:ad:5f:27:bd:1d:ae:d1:04:
                    a9:9c:2b:a2:88:12:3e:d3:f7:53:4c:49:3f:17:7e:
                    96:c2:b4:aa:0a:68:45:eb:8c:3f:27:20:51:01:f0:
                    25:18:c0:ec:76:af:61:4f:96:6b:0d:de:fb:48:ef:
                    fd:c6:f0:34:62:85:55:fd:c4:28:4a:4b:19:06:67:
                    7c:96:76:69:f3:89:82:2f:c3:7d:2a:3e:cf:d0:d3:
                    51:9d:c5:59:56:47:54:f6:7c:33:c5:c6:a0:2e:05:
                    59:c3:a7:08:08:51:be:cf:33:54:68:13:90:e2:ef:
                    a8:e4:2a:d9:78:0f:b7:7f:50:17:2c:45:d7:4f:71:
                    95:f1:16:42:5c:83:71:32:09:54:67:b8:f4:33:dd:
                    eb:c2:e5:66:b7:46:99:44:c5:5e:db:13:d8:11:27:
                    f6:81:59:42:1a:f8:e1:41:aa:33:ce:b2:f2:fa:80:
                    ed:ce:be:e5:b3:88:17:7f:43:af:20:83:8b:1f:e3:
                    3e:c2:dd:49:d3:27:50:4b:83:58:fd:3d:f1:52:37:
                    61:df:c1:1e:91:7f:e3:d5:44:0d:35:7f:ca:f6:14:
                    b3:25:a4:23:b1:e0:bf:ca:4d:5c:b2:f4:3c:71:1b:
                    ab:4d
                Exponent: 65537 (0x10001)
        X509v3 extensions:
            X509v3 Basic Constraints: critical
                CA:FALSE
            X509v3 Key Usage: 
                Digital Signature, Key Encipherment, Key Agreement
            X509v3 Subject Key Identifier: 
                88:39:B5:DB:72:90:9A:90:01:04:9E:86:12:E2:8F:7C:74:27:C3:5A
            X509v3 Authority Key Identifier: 
                keyid:22:20:0D:51:40:61:42:BE:DD:BA:D9:C9:C1:77:B6:93:28:C3:99:EC
                DirName:/C=CH/ST=Thurgau/L=Kefikon/O=guengel.ch/CN=CA 2022/emailAddress=postmaster@guengel.ch
                serial:6D:29:90:54:E9:17:E9:C2:6A:E6:52:AD:84:4E:30:8E:6E:57:FB:1C

            Netscape Cert Type: 
                SSL Client, SSL Server
            X509v3 Extended Key Usage: 
                TLS Web Server Authentication, TLS Web Client Authentication
    Signature Algorithm: sha256WithRSAEncryption
         0f:d2:e6:48:67:2b:b3:2f:4b:40:8e:94:e2:c8:f5:bf:45:b6:
         82:32:87:71:6a:d2:68:3f:fb:b7:41:9a:f2:03:ca:02:05:c9:
         e6:0a:71:c4:fb:84:fa:ad:90:19:d0:7d:88:2d:37:da:4d:7b:
         8f:b3:64:a5:5c:6a:db:c8:6a:6b:d6:13:9d:b2:b3:86:a6:2b:
         c7:cb:04:51:b7:70:dd:ef:28:50:7b:6b:db:b5:7f:2b:c1:46:
         fd:b9:b4:a0:48:20:95:17:11:2f:c5:75:50:69:dd:f2:40:f9:
         6c:8b:3e:e4:cf:f0:0c:5f:60:ba:c5:23:8f:18:35:2b:e2:8d:
         a8:55:e9:26:c4:e8:d7:20:d2:a8:6d:8b:86:7a:5a:aa:ed:12:
         10:e0:28:1b:42:1e:e4:c9:1e:e6:54:92:ee:23:18:02:35:b4:
         bd:1e:24:99:ab:9e:47:a5:dd:20:1d:f6:a3:39:9a:70:43:73:
         48:c9:ce:a6:62:78:f2:8c:30:90:75:7f:89:81:03:9d:47:0f:
         9c:a1:c3:dc:58:b3:05:46:44:60:36:b3:1a:38:ad:1d:61:d4:
         34:ac:19:e8:72:c8:27:98:d4:e6:56:85:0a:7d:99:fa:52:60:
         6d:93:e7:04:17:5c:80:1f:cf:44:1d:25:1f:0c:6e:03:8d:52:
         fd:6d:40:0e:30:83:f5:0a:50:c1:e4:e4:7b:63:01:da:cc:75:
         b3:16:3e:ea:75:d8:2f:2f:82:67:23:c6:df:30:cd:d4:d0:9a:
         65:24:67:9e:85:c3:5e:1b:6f:c4:85:99:9c:3c:70:2c:2b:1c:
         e7:e7:50:7b:f5:ee:09:9b:30:14:f3:aa:06:cf:3a:5b:1e:20:
         9e:b0:cf:cb:b6:b9:18:b9:fb:8f:df:90:a2:ca:44:1a:70:66:
         07:b1:a6:a2:d8:80:97:05:eb:df:57:b9:d0:4b:a7:03:9c:e8:
         1c:a6:aa:fb:02:b7:5a:8a:4f:6c:a9:d9:af:b2:e6:95:a7:e4:
         0e:5f:88:76:39:7d:48:13:0d:a8:e7:76:1e:2f:cd:e3:c2:4b:
         f8:22:68:99:60:58:52:4f:20:45:c1:ea:08:43:27:8a:3d:d4:
         59:6c:e1:ec:52:be:ab:58:49:9e:67:a2:ef:2d:55:a7:df:1f:
         44:f6:31:68:99:e6:4c:8b:30:5b:25:c7:34:2e:41:44:94:a2:
         d8:51:b5:d3:74:e7:13:ce:3d:3a:27:41:84:2a:fc:57:a5:c9:
         bb:7a:bd:b5:77:03:bd:e1:9a:33:d2:b1:f2:45:ed:f4:70:c0:
         a8:19:cb:01:4e:3b:1b:be:37:c2:20:80:f7:d9:1f:39:f9:9d:
         74:ac:aa:37:dc:a7:36:a3
-----BEGIN CERTIFICATE-----
MIIFuTCCA6GgAwIBAgIUWQ4zWZILcNoox1qPhzMZrrhMfOwwDQYJKoZIhvcNAQEL
BQAwfjELMAkGA1UEBhMCQ0gxEDAOBgNVBAgTB1RodXJnYXUxEDAOBgNVBAcTB0tl
Zmlrb24xEzARBgNVBAoTCmd1ZW5nZWwuY2gxEDAOBgNVBAMTB0NBIDIwMjIxJDAi
BgkqhkiG9w0BCQEWFXBvc3RtYXN0ZXJAZ3VlbmdlbC5jaDAeFw0yMzAyMjgwNjQz
MTBaFw0yNDA0MDMwNjQzMTBaMHsxCzAJBgNVBAYTAkNIMRAwDgYDVQQIEwdUaHVy
Z2F1MRMwEQYDVQQKEwpndWVuZ2VsLmNoMR8wHQYDVQQDExZ5YXlhcC5kbXoua3J1
ZW1lbC5ob21lMSQwIgYJKoZIhvcNAQkBFhVwb3N0bWFzdGVyQGd1ZW5nZWwuY2gw
ggEiMA0GCSqGSIb3DQEBAQUAA4IBDwAwggEKAoIBAQDE2tddKlmSblhzW2pDG1EN
tD7P6jCtXye9Ha7RBKmcK6KIEj7T91NMST8XfpbCtKoKaEXrjD8nIFEB8CUYwOx2
r2FPlmsN3vtI7/3G8DRihVX9xChKSxkGZ3yWdmnziYIvw30qPs/Q01GdxVlWR1T2
fDPFxqAuBVnDpwgIUb7PM1RoE5Di76jkKtl4D7d/UBcsRddPcZXxFkJcg3EyCVRn
uPQz3evC5Wa3RplExV7bE9gRJ/aBWUIa+OFBqjPOsvL6gO3OvuWziBd/Q68gg4sf
4z7C3UnTJ1BLg1j9PfFSN2HfwR6Rf+PVRA01f8r2FLMlpCOx4L/KTVyy9DxxG6tN
AgMBAAGjggEwMIIBLDAMBgNVHRMBAf8EAjAAMAsGA1UdDwQEAwIDqDAdBgNVHQ4E
FgQUiDm123KQmpABBJ6GEuKPfHQnw1owgb0GA1UdIwSBtTCBsoAUIiANUUBhQr7d
utnJwXe2kyjDmeyhgYOkgYAwfjELMAkGA1UEBhMCQ0gxEDAOBgNVBAgTB1RodXJn
YXUxEDAOBgNVBAcTB0tlZmlrb24xEzARBgNVBAoTCmd1ZW5nZWwuY2gxEDAOBgNV
BAMTB0NBIDIwMjIxJDAiBgkqhkiG9w0BCQEWFXBvc3RtYXN0ZXJAZ3VlbmdlbC5j
aIIUbSmQVOkX6cJq5lKthE4wjm5X+xwwEQYJYIZIAYb4QgEBBAQDAgbAMB0GA1Ud
JQQWMBQGCCsGAQUFBwMBBggrBgEFBQcDAjANBgkqhkiG9w0BAQsFAAOCAgEAD9Lm
SGcrsy9LQI6U4sj1v0W2gjKHcWrSaD/7t0Ga8gPKAgXJ5gpxxPuE+q2QGdB9iC03
2k17j7NkpVxq28hqa9YTnbKzhqYrx8sEUbdw3e8oUHtr27V/K8FG/bm0oEgglRcR
L8V1UGnd8kD5bIs+5M/wDF9gusUjjxg1K+KNqFXpJsTo1yDSqG2Lhnpaqu0SEOAo
G0Ie5Mke5lSS7iMYAjW0vR4kmaueR6XdIB32ozmacENzSMnOpmJ48owwkHV/iYED
nUcPnKHD3FizBUZEYDazGjitHWHUNKwZ6HLIJ5jU5laFCn2Z+lJgbZPnBBdcgB/P
RB0lHwxuA41S/W1ADjCD9QpQweTke2MB2sx1sxY+6nXYLy+CZyPG3zDN1NCaZSRn
noXDXhtvxIWZnDxwLCsc5+dQe/XuCZswFPOqBs86Wx4gnrDPy7a5GLn7j9+QospE
GnBmB7GmotiAlwXr31e50EunA5zoHKaq+wK3WopPbKnZr7LmlafkDl+Idjl9SBMN
qOd2Hi/N48JL+CJomWBYUk8gRcHqCEMnij3UWWzh7FK+q1hJnmei7y1Vp98fRPYx
aJnmTIswWyXHNC5BRJSi2FG103TnE849OidBhCr8V6XJu3q9tXcDveGaM9Kx8kXt
9HDAqBnLAU47G743wiCA99kfOfmddKyqN9ynNqM=
-----END CERTIFICATE-----
