Certificate:
    Data:
        Version: 3 (0x2)
        Serial Number: 8 (0x8)
    Signature Algorithm: sha256WithRSAEncryption
        Issuer: C=CH, ST=Thurgau, L=Kefikon, O=guengel.ch, OU=iked, CN=VPN CA/emailAddress=postmaster@guengel.ch
        Validity
            Not Before: Apr 26 17:58:43 2020 GMT
            Not After : Apr 26 17:58:43 2021 GMT
        Subject: C=CH, ST=Thurgau, L=Kefikon, O=guengel.ch, OU=iked, CN=ec2-18-194-242-242.eu-central-1.compute.amazonaws.com/emailAddress=postmaster@guengel.ch
        Subject Public Key Info:
            Public Key Algorithm: rsaEncryption
                Public-Key: (2048 bit)
                Modulus:
                    00:bc:9c:46:66:9f:17:7d:f7:47:cc:84:84:69:e2:
                    f2:33:f9:3e:c5:a9:93:2c:71:a5:21:44:e6:be:c6:
                    9b:d3:d2:d5:a8:84:44:25:60:c1:67:b1:57:29:55:
                    08:49:2c:e2:b9:bb:a9:62:cc:e2:c9:7b:31:1e:a2:
                    e7:5c:53:5e:4f:3b:e8:f5:d7:e9:e8:9d:c4:46:e3:
                    d7:88:23:43:f5:4d:1c:cd:e1:44:a0:80:eb:7d:18:
                    36:0e:4f:4f:23:3b:93:ea:91:2e:48:9d:bb:63:1c:
                    5d:69:cd:74:c1:72:23:63:e2:15:2f:4e:21:cf:4c:
                    f4:38:e3:f7:1c:5d:ad:fd:1d:4b:c1:b0:fb:84:ad:
                    b9:ba:9c:de:a2:52:ae:1f:2b:3d:73:bf:de:0e:8d:
                    c9:83:ab:07:ee:68:3b:b7:12:68:0d:d5:aa:56:63:
                    a5:d2:ea:ff:e7:3e:2c:7f:64:7c:94:c1:f8:f6:40:
                    e4:83:a9:93:c0:f2:b2:f4:e4:5b:89:e8:bb:e5:fa:
                    6e:6a:16:d0:a7:36:f1:a9:08:3e:e6:b7:92:cf:e6:
                    8c:a2:e0:21:83:6c:b7:21:48:a2:c0:a8:8c:95:f4:
                    a8:51:c0:61:38:20:ba:74:2f:4f:f8:b6:65:90:49:
                    16:90:21:2b:f2:35:58:5b:c3:46:5e:b6:1f:25:29:
                    46:11
                Exponent: 65537 (0x10001)
        X509v3 extensions:
            X509v3 Key Usage:
                Digital Signature, Certificate Sign, CRL Sign
            Netscape Cert Type:
                SSL Client, SSL Server
            X509v3 Subject Alternative Name:
                DNS:ec2-18-194-242-242.eu-central-1.compute.amazonaws.com
            X509v3 Extended Key Usage:
                TLS Web Server Authentication, TLS Web Client Authentication
    Signature Algorithm: sha256WithRSAEncryption
         3d:00:de:31:1a:4f:e1:ff:b2:37:91:c9:ca:4e:ed:8b:3d:f0:
         e4:bb:25:51:a6:86:03:33:6e:19:af:ae:d1:78:85:fe:78:bd:
         a0:62:d7:c4:6a:22:eb:ac:58:88:6e:b9:0e:63:8c:19:14:2b:
         28:18:d3:6b:e2:ca:6e:51:61:b8:f3:67:bb:0a:3d:34:8b:77:
         28:a3:cf:ef:49:74:f2:6f:a9:6b:bf:bd:43:f0:9d:3e:48:de:
         cb:e5:1c:05:de:86:cb:43:b1:31:c5:bc:01:c9:15:6c:aa:ee:
         1b:d1:b2:d3:2b:9d:09:6c:ae:d7:2a:c9:fa:f9:ca:07:c6:b5:
         e7:06:0e:28:b7:f6:66:24:fb:b3:73:a6:5d:5d:a1:92:45:bf:
         8a:ed:11:a8:47:ae:f3:2d:97:4f:4b:3e:58:c8:00:b7:dc:fe:
         57:36:8e:4c:29:c6:ce:79:a7:76:93:e2:ef:a5:56:d0:25:b7:
         e0:57:51:7f:60:56:f7:25:1f:56:8a:17:56:73:90:a4:5a:0a:
         b3:32:dd:c5:71:32:3a:df:6c:c1:ac:fb:9c:97:51:33:f9:8d:
         f7:74:ca:9a:6e:da:26:a7:34:ea:85:ff:b2:ca:c9:02:75:b0:
         52:7d:2f:9f:2d:2c:9b:3c:a4:3f:e9:c5:28:98:d3:93:df:b6:
         94:aa:8d:94
-----BEGIN CERTIFICATE-----
MIIESTCCAzGgAwIBAgIBCDANBgkqhkiG9w0BAQsFADCBjDELMAkGA1UEBhMCQ0gx
EDAOBgNVBAgMB1RodXJnYXUxEDAOBgNVBAcMB0tlZmlrb24xEzARBgNVBAoMCmd1
ZW5nZWwuY2gxDTALBgNVBAsMBGlrZWQxDzANBgNVBAMMBlZQTiBDQTEkMCIGCSqG
SIb3DQEJARYVcG9zdG1hc3RlckBndWVuZ2VsLmNoMB4XDTIwMDQyNjE3NTg0M1oX
DTIxMDQyNjE3NTg0M1owgbsxCzAJBgNVBAYTAkNIMRAwDgYDVQQIDAdUaHVyZ2F1
MRAwDgYDVQQHDAdLZWZpa29uMRMwEQYDVQQKDApndWVuZ2VsLmNoMQ0wCwYDVQQL
DARpa2VkMT4wPAYDVQQDDDVlYzItMTgtMTk0LTI0Mi0yNDIuZXUtY2VudHJhbC0x
LmNvbXB1dGUuYW1hem9uYXdzLmNvbTEkMCIGCSqGSIb3DQEJARYVcG9zdG1hc3Rl
ckBndWVuZ2VsLmNoMIIBIjANBgkqhkiG9w0BAQEFAAOCAQ8AMIIBCgKCAQEAvJxG
Zp8XffdHzISEaeLyM/k+xamTLHGlIUTmvsab09LVqIREJWDBZ7FXKVUISSziubup
YsziyXsxHqLnXFNeTzvo9dfp6J3ERuPXiCND9U0czeFEoIDrfRg2Dk9PIzuT6pEu
SJ27Yxxdac10wXIjY+IVL04hz0z0OOP3HF2t/R1LwbD7hK25upzeolKuHys9c7/e
Do3Jg6sH7mg7txJoDdWqVmOl0ur/5z4sf2R8lMH49kDkg6mTwPKy9ORbiei75fpu
ahbQpzbxqQg+5reSz+aMouAhg2y3IUiiwKiMlfSoUcBhOCC6dC9P+LZlkEkWkCEr
8jVYW8NGXrYfJSlGEQIDAQABo4GEMIGBMAsGA1UdDwQEAwIBhjARBglghkgBhvhC
AQEEBAMCBsAwQAYDVR0RBDkwN4I1ZWMyLTE4LTE5NC0yNDItMjQyLmV1LWNlbnRy
YWwtMS5jb21wdXRlLmFtYXpvbmF3cy5jb20wHQYDVR0lBBYwFAYIKwYBBQUHAwEG
CCsGAQUFBwMCMA0GCSqGSIb3DQEBCwUAA4IBAQA9AN4xGk/h/7I3kcnKTu2LPfDk
uyVRpoYDM24Zr67ReIX+eL2gYtfEaiLrrFiIbrkOY4wZFCsoGNNr4spuUWG482e7
Cj00i3coo8/vSXTyb6lrv71D8J0+SN7L5RwF3obLQ7ExxbwByRVsqu4b0bLTK50J
bK7XKsn6+coHxrXnBg4ot/ZmJPuzc6ZdXaGSRb+K7RGoR67zLZdPSz5YyAC33P5X
No5MKcbOead2k+LvpVbQJbfgV1F/YFb3JR9WihdWc5CkWgqzMt3FcTI632zBrPuc
l1Ez+Y33dMqabtompzTqhf+yyskCdbBSfS+fLSybPKQ/6cUomNOT37aUqo2U
-----END CERTIFICATE-----
