Certificate:
    Data:
        Version: 3 (0x2)
        Serial Number: 5 (0x5)
    Signature Algorithm: sha256WithRSAEncryption
        Issuer: C=CH, ST=Thurgau, L=Kefikon, O=guengel.ch, OU=iked, CN=VPN CA/emailAddress=postmaster@guengel.ch
        Validity
            Not Before: Aug 22 18:06:10 2019 GMT
            Not After : Aug 21 18:06:10 2020 GMT
        Subject: C=CH, ST=Thurgau, L=Kefikon, O=guengel.ch, OU=iked, CN=ec2-35-156-183-108.eu-central-1.compute.amazonaws.com/emailAddress=postmaster@guengel.ch
        Subject Public Key Info:
            Public Key Algorithm: rsaEncryption
                Public-Key: (2048 bit)
                Modulus:
                    00:d1:9c:5b:ed:8b:62:d9:0f:98:5b:91:0f:29:f0:
                    ab:54:27:b5:f5:64:36:ae:71:f7:4c:f2:be:8f:32:
                    3a:2a:b1:90:64:96:b3:3d:87:a5:e1:0e:ed:14:bd:
                    8d:78:96:0f:b1:d8:73:e2:03:2b:46:b6:ed:61:fc:
                    7b:8f:31:ef:63:e3:5f:d5:9f:93:74:af:e1:0d:03:
                    5e:96:4b:1d:f8:c9:e9:31:bf:35:0a:6d:ce:74:cd:
                    e4:49:62:c5:f8:61:fd:7f:a3:ad:56:fb:ff:b6:00:
                    7f:2b:61:48:73:c6:41:d3:20:79:45:4a:88:01:b1:
                    ad:b8:e8:07:be:ad:dc:d2:e3:f4:1d:fd:84:a5:74:
                    bf:4e:b7:1b:26:3d:5b:d5:b7:0a:85:bb:7c:8e:71:
                    d7:67:e5:1b:c7:ea:15:fb:54:81:85:06:59:f0:9b:
                    26:a0:a4:21:d3:76:b2:44:3b:cb:a7:fd:38:24:ab:
                    c4:9d:12:12:35:fe:f6:93:c0:6e:4d:07:eb:3b:9e:
                    8a:7e:fd:c3:56:24:d8:32:cf:4d:5a:aa:3c:67:ff:
                    89:7b:52:2b:d9:8d:e9:79:e1:5b:7f:e5:ab:e1:f0:
                    94:7a:ce:9a:e8:8a:55:6f:e5:21:8a:d6:c3:b9:8e:
                    cb:0f:72:03:54:f1:6b:5b:09:62:b7:0b:db:70:84:
                    57:af
                Exponent: 65537 (0x10001)
        X509v3 extensions:
            X509v3 Key Usage: 
                Digital Signature, Certificate Sign, CRL Sign
            Netscape Cert Type: 
                SSL Client, SSL Server
            X509v3 Subject Alternative Name: 
                DNS:ec2-35-156-183-108.eu-central-1.compute.amazonaws.com
            X509v3 Extended Key Usage: 
                TLS Web Server Authentication, TLS Web Client Authentication
    Signature Algorithm: sha256WithRSAEncryption
         18:6f:5f:c8:f0:71:4a:a8:f9:23:63:8e:ff:2d:b8:4a:15:91:
         bf:41:64:99:0e:84:60:2b:cb:7d:4b:cc:81:eb:7c:4d:7f:4e:
         f0:6a:49:11:0b:ef:5a:36:96:5e:df:04:1c:14:85:21:ef:34:
         e4:44:8c:41:b9:05:0c:62:8b:5e:6b:c2:0a:66:dc:6c:30:29:
         40:c9:4d:95:7d:8b:2e:43:52:2a:df:b5:12:19:14:de:26:a7:
         96:63:86:4c:c9:54:ef:76:ca:8f:55:1d:cd:d0:4c:39:ce:92:
         c6:ba:72:b2:84:bb:c2:c6:49:50:d0:97:37:ad:68:d3:27:6c:
         e1:53:90:5f:55:53:a8:10:69:6b:bf:11:47:1a:35:51:db:18:
         4b:fa:b7:ff:e3:01:c3:b3:bf:3e:0b:d3:a9:ca:19:5f:79:24:
         b4:d8:9c:da:45:61:f6:c6:7e:bf:04:3a:02:0d:4d:a4:0d:67:
         61:9b:27:a6:3a:ca:4a:30:ce:0c:94:68:3e:5f:4a:09:34:d9:
         5f:29:39:07:1f:d3:2b:41:e2:1e:99:78:e4:9b:fd:0c:66:60:
         47:76:81:3c:0d:08:c4:1b:7a:36:e5:c0:e4:6f:19:0b:bb:7c:
         46:14:cf:c2:27:84:e7:76:15:34:a3:4f:b1:15:e5:58:80:5b:
         3b:52:91:60
-----BEGIN CERTIFICATE-----
MIIESTCCAzGgAwIBAgIBBTANBgkqhkiG9w0BAQsFADCBjDELMAkGA1UEBhMCQ0gx
EDAOBgNVBAgMB1RodXJnYXUxEDAOBgNVBAcMB0tlZmlrb24xEzARBgNVBAoMCmd1
ZW5nZWwuY2gxDTALBgNVBAsMBGlrZWQxDzANBgNVBAMMBlZQTiBDQTEkMCIGCSqG
SIb3DQEJARYVcG9zdG1hc3RlckBndWVuZ2VsLmNoMB4XDTE5MDgyMjE4MDYxMFoX
DTIwMDgyMTE4MDYxMFowgbsxCzAJBgNVBAYTAkNIMRAwDgYDVQQIDAdUaHVyZ2F1
MRAwDgYDVQQHDAdLZWZpa29uMRMwEQYDVQQKDApndWVuZ2VsLmNoMQ0wCwYDVQQL
DARpa2VkMT4wPAYDVQQDDDVlYzItMzUtMTU2LTE4My0xMDguZXUtY2VudHJhbC0x
LmNvbXB1dGUuYW1hem9uYXdzLmNvbTEkMCIGCSqGSIb3DQEJARYVcG9zdG1hc3Rl
ckBndWVuZ2VsLmNoMIIBIjANBgkqhkiG9w0BAQEFAAOCAQ8AMIIBCgKCAQEA0Zxb
7Yti2Q+YW5EPKfCrVCe19WQ2rnH3TPK+jzI6KrGQZJazPYel4Q7tFL2NeJYPsdhz
4gMrRrbtYfx7jzHvY+Nf1Z+TdK/hDQNelksd+MnpMb81Cm3OdM3kSWLF+GH9f6Ot
Vvv/tgB/K2FIc8ZB0yB5RUqIAbGtuOgHvq3c0uP0Hf2EpXS/TrcbJj1b1bcKhbt8
jnHXZ+Ubx+oV+1SBhQZZ8JsmoKQh03ayRDvLp/04JKvEnRISNf72k8BuTQfrO56K
fv3DViTYMs9NWqo8Z/+Je1Ir2Y3peeFbf+Wr4fCUes6a6IpVb+UhitbDuY7LD3ID
VPFrWwlitwvbcIRXrwIDAQABo4GEMIGBMAsGA1UdDwQEAwIBhjARBglghkgBhvhC
AQEEBAMCBsAwQAYDVR0RBDkwN4I1ZWMyLTM1LTE1Ni0xODMtMTA4LmV1LWNlbnRy
YWwtMS5jb21wdXRlLmFtYXpvbmF3cy5jb20wHQYDVR0lBBYwFAYIKwYBBQUHAwEG
CCsGAQUFBwMCMA0GCSqGSIb3DQEBCwUAA4IBAQAYb1/I8HFKqPkjY47/LbhKFZG/
QWSZDoRgK8t9S8yB63xNf07wakkRC+9aNpZe3wQcFIUh7zTkRIxBuQUMYotea8IK
ZtxsMClAyU2VfYsuQ1Iq37USGRTeJqeWY4ZMyVTvdsqPVR3N0Ew5zpLGunKyhLvC
xklQ0Jc3rWjTJ2zhU5BfVVOoEGlrvxFHGjVR2xhL+rf/4wHDs78+C9OpyhlfeSS0
2JzaRWH2xn6/BDoCDU2kDWdhmyemOspKMM4MlGg+X0oJNNlfKTkHH9MrQeIemXjk
m/0MZmBHdoE8DQjEG3o25cDkbxkLu3xGFM/CJ4TndhU0o0+xFeVYgFs7UpFg
-----END CERTIFICATE-----
