Certificate:
    Data:
        Version: 3 (0x2)
        Serial Number: 10 (0xa)
    Signature Algorithm: sha256WithRSAEncryption
        Issuer: C=CH, ST=Thurgau, L=Kefikon, O=guengel.ch, OU=iked, CN=VPN CA/emailAddress=postmaster@guengel.ch
        Validity
            Not Before: May 21 15:53:06 2020 GMT
            Not After : May 21 15:53:06 2021 GMT
        Subject: C=CH, ST=Thurgau, L=Kefikon, O=guengel.ch, OU=iked, CN=ec2-3-123-24-250.eu-central-1.compute.amazonaws.com/emailAddress=postmaster@guengel.ch
        Subject Public Key Info:
            Public Key Algorithm: rsaEncryption
                RSA Public-Key: (2048 bit)
                Modulus:
                    00:ca:62:e8:67:c8:24:39:a7:b1:a2:28:b0:46:f5:
                    09:8c:5a:cf:89:c2:79:3f:cc:62:f0:53:37:43:cb:
                    b7:88:90:26:20:c7:8c:24:94:7c:81:77:11:f8:24:
                    30:84:f7:0e:38:f7:19:c9:24:76:33:af:f2:80:57:
                    dd:d9:a0:66:66:7d:50:0b:ba:dc:b0:aa:b2:bd:25:
                    cf:70:96:fa:f6:bb:ce:96:40:9d:33:65:78:2b:9a:
                    f4:0c:17:e1:c5:bc:ab:a8:b7:85:8d:92:c7:95:b3:
                    81:5e:4a:67:c2:39:e1:60:03:7f:05:d0:03:f1:89:
                    0f:07:9f:55:3b:36:77:bf:e7:d7:7c:bd:15:b0:ce:
                    68:07:55:21:d5:cb:8d:06:55:c6:7c:4d:a0:fd:2d:
                    c7:94:7b:92:c6:7f:2a:55:c3:39:2c:12:f0:0c:da:
                    48:ad:1b:94:39:34:a9:d2:9e:14:16:b7:fd:67:be:
                    a7:0e:47:61:9a:71:b8:b8:9e:9d:08:7b:12:1f:51:
                    37:f7:6b:64:63:cf:5f:41:e9:e6:c0:87:ff:38:27:
                    7f:59:b6:a7:85:f6:3e:1c:ed:5b:e5:b0:e5:5c:96:
                    65:88:06:90:86:ae:04:a6:a7:f6:59:db:43:2b:dc:
                    a4:93:a3:3a:85:0f:83:ce:59:1a:16:77:a1:a8:54:
                    c5:57
                Exponent: 65537 (0x10001)
        X509v3 extensions:
            X509v3 Key Usage: 
                Digital Signature, Key Agreement
            Netscape Cert Type: 
                SSL Client
            X509v3 Subject Alternative Name: 
                DNS:ec2-3-123-24-250.eu-central-1.compute.amazonaws.com
            X509v3 Extended Key Usage: 
                TLS Web Client Authentication
    Signature Algorithm: sha256WithRSAEncryption
         99:a0:17:7d:e9:cc:7b:72:3f:d4:bb:38:70:50:c8:29:10:2f:
         c4:a6:7c:44:ca:40:e8:02:6e:eb:97:dd:df:b4:a0:67:0a:04:
         c0:9a:35:63:26:bb:de:e4:55:a8:1e:44:be:58:b7:e3:3b:f2:
         c5:e8:fd:d6:6e:8c:96:46:fc:bc:4e:4d:7f:ca:81:5a:6e:60:
         5e:19:1e:61:c6:44:09:2d:db:ea:8c:6e:2e:2b:b0:a7:a5:bd:
         84:87:8a:d5:d3:aa:82:9d:9d:79:02:21:e3:b4:30:03:51:d3:
         96:b1:60:ca:0c:08:7b:8f:c8:df:dc:8e:e6:3b:2d:0a:98:fc:
         c9:0a:a8:50:6e:e2:f7:ed:e7:f3:c9:c0:5c:8c:1d:25:48:c7:
         62:d2:7c:95:92:c5:e2:cd:d1:35:70:10:45:3b:f8:d9:03:48:
         ec:f5:74:9d:ab:c3:77:d0:d4:13:f6:37:72:b3:9c:47:41:c6:
         c9:93:e8:ab:f9:26:f8:e1:94:84:ee:4a:7a:c8:78:60:12:64:
         cb:15:43:c4:16:10:f2:f6:59:69:40:3e:e1:07:0b:49:c6:f9:
         29:77:8f:ab:59:a1:19:ee:09:2f:a9:09:42:a9:ed:46:11:0f:
         d7:7a:f5:38:81:c7:75:19:bb:c8:e2:46:15:c2:ca:a9:dc:5f:
         07:3b:b9:1f
-----BEGIN CERTIFICATE-----
MIIEOTCCAyGgAwIBAgIBCjANBgkqhkiG9w0BAQsFADCBjDELMAkGA1UEBhMCQ0gx
EDAOBgNVBAgMB1RodXJnYXUxEDAOBgNVBAcMB0tlZmlrb24xEzARBgNVBAoMCmd1
ZW5nZWwuY2gxDTALBgNVBAsMBGlrZWQxDzANBgNVBAMMBlZQTiBDQTEkMCIGCSqG
SIb3DQEJARYVcG9zdG1hc3RlckBndWVuZ2VsLmNoMB4XDTIwMDUyMTE1NTMwNloX
DTIxMDUyMTE1NTMwNlowgbkxCzAJBgNVBAYTAkNIMRAwDgYDVQQIDAdUaHVyZ2F1
MRAwDgYDVQQHDAdLZWZpa29uMRMwEQYDVQQKDApndWVuZ2VsLmNoMQ0wCwYDVQQL
DARpa2VkMTwwOgYDVQQDDDNlYzItMy0xMjMtMjQtMjUwLmV1LWNlbnRyYWwtMS5j
b21wdXRlLmFtYXpvbmF3cy5jb20xJDAiBgkqhkiG9w0BCQEWFXBvc3RtYXN0ZXJA
Z3VlbmdlbC5jaDCCASIwDQYJKoZIhvcNAQEBBQADggEPADCCAQoCggEBAMpi6GfI
JDmnsaIosEb1CYxaz4nCeT/MYvBTN0PLt4iQJiDHjCSUfIF3EfgkMIT3Djj3Gckk
djOv8oBX3dmgZmZ9UAu63LCqsr0lz3CW+va7zpZAnTNleCua9AwX4cW8q6i3hY2S
x5WzgV5KZ8I54WADfwXQA/GJDwefVTs2d7/n13y9FbDOaAdVIdXLjQZVxnxNoP0t
x5R7ksZ/KlXDOSwS8AzaSK0blDk0qdKeFBa3/We+pw5HYZpxuLienQh7Eh9RN/dr
ZGPPX0Hp5sCH/zgnf1m2p4X2PhztW+Ww5VyWZYgGkIauBKan9lnbQyvcpJOjOoUP
g85ZGhZ3oahUxVcCAwEAAaN3MHUwCwYDVR0PBAQDAgOIMBEGCWCGSAGG+EIBAQQE
AwIHgDA+BgNVHREENzA1gjNlYzItMy0xMjMtMjQtMjUwLmV1LWNlbnRyYWwtMS5j
b21wdXRlLmFtYXpvbmF3cy5jb20wEwYDVR0lBAwwCgYIKwYBBQUHAwIwDQYJKoZI
hvcNAQELBQADggEBAJmgF33pzHtyP9S7OHBQyCkQL8SmfETKQOgCbuuX3d+0oGcK
BMCaNWMmu97kVageRL5Yt+M78sXo/dZujJZG/LxOTX/KgVpuYF4ZHmHGRAkt2+qM
bi4rsKelvYSHitXTqoKdnXkCIeO0MANR05axYMoMCHuPyN/cjuY7LQqY/MkKqFBu
4vft5/PJwFyMHSVIx2LSfJWSxeLN0TVwEEU7+NkDSOz1dJ2rw3fQ1BP2N3KznEdB
xsmT6Kv5JvjhlITuSnrIeGASZMsVQ8QWEPL2WWlAPuEHC0nG+Sl3j6tZoRnuCS+p
CUKp7UYRD9d69TiBx3UZu8jiRhXCyqncXwc7uR8=
-----END CERTIFICATE-----
