Certificate:
    Data:
        Version: 3 (0x2)
        Serial Number: 12 (0xc)
    Signature Algorithm: sha256WithRSAEncryption
        Issuer: C=CH, ST=Thurgau, L=Kefikon, O=guengel.ch, OU=iked, CN=VPN CA/emailAddress=postmaster@guengel.ch
        Validity
            Not Before: May 21 15:53:45 2020 GMT
            Not After : May 21 15:53:45 2021 GMT
        Subject: C=CH, ST=Thurgau, L=Kefikon, O=guengel.ch, OU=iked, CN=ec2-54-93-164-159.eu-central-1.compute.amazonaws.com/emailAddress=postmaster@guengel.ch
        Subject Public Key Info:
            Public Key Algorithm: rsaEncryption
                RSA Public-Key: (2048 bit)
                Modulus:
                    00:b1:ab:8d:69:1a:dd:99:b1:56:35:fa:0f:1a:6d:
                    c8:c3:4c:d1:80:da:b7:39:c2:3b:8f:de:75:0a:d4:
                    30:ab:f0:7c:b8:81:fc:90:44:d5:b1:00:aa:62:7f:
                    e3:eb:2b:fa:08:6e:d4:35:cc:86:ad:ba:72:47:cb:
                    34:38:87:f2:b8:62:cb:7f:c1:4d:8c:09:e7:fe:98:
                    37:59:27:95:4f:32:97:9b:b7:8a:7a:6c:b3:ab:4e:
                    69:5b:ca:61:55:78:12:c1:db:2f:b8:df:60:0d:45:
                    55:2f:c2:cc:e7:26:9a:6a:e5:89:a4:ad:a7:dc:92:
                    50:37:a1:40:36:12:b9:5f:fe:60:53:56:ab:b2:5d:
                    63:74:e1:ba:7a:c7:00:20:94:c1:a6:d0:c1:2b:90:
                    bc:69:5c:93:02:b2:42:d7:96:b1:f9:ec:7d:6b:b9:
                    75:dc:e3:4a:ae:af:d9:0f:cd:e0:f7:b8:15:9c:bb:
                    1a:4d:07:62:cd:a2:27:25:a0:ea:c6:02:96:d4:2c:
                    b0:7d:a1:5a:ac:c5:3b:17:1d:32:ee:af:4b:5a:83:
                    02:a7:bf:73:f7:1d:89:74:fd:13:b5:20:d9:91:5b:
                    32:e0:de:ab:26:58:d7:c5:2f:31:68:de:ab:65:89:
                    2a:da:8f:8a:44:9e:58:4d:93:a8:5f:9b:69:bd:39:
                    a8:09
                Exponent: 65537 (0x10001)
        X509v3 extensions:
            X509v3 Key Usage: 
                Digital Signature, Key Agreement
            Netscape Cert Type: 
                SSL Client
            X509v3 Subject Alternative Name: 
                DNS:ec2-54-93-164-159.eu-central-1.compute.amazonaws.com
            X509v3 Extended Key Usage: 
                TLS Web Client Authentication
    Signature Algorithm: sha256WithRSAEncryption
         5b:44:a1:b4:f0:0f:c4:ac:62:e6:7b:78:13:ae:d2:65:f2:3e:
         22:f5:a5:36:d8:4b:84:78:34:2f:2b:e9:35:7c:7b:39:d4:42:
         3f:cb:86:d0:73:6c:3c:8d:5f:e2:e4:01:28:0a:10:c3:0f:24:
         cb:ce:fd:ad:e3:82:cf:9b:35:71:ca:fd:bd:02:8c:05:84:b1:
         75:b7:24:c6:ea:29:d3:b2:64:fc:c4:9d:ad:21:b8:d6:a2:e3:
         95:85:15:53:42:92:3f:98:fc:bf:46:87:4b:52:30:28:83:20:
         72:05:28:f9:14:39:64:b9:e3:ae:1f:7a:5c:cd:61:bc:99:2a:
         82:04:1b:b7:2e:6f:86:65:89:7f:45:d8:ab:76:6c:9e:7a:e8:
         cf:11:87:2c:10:9c:69:00:93:f7:06:59:67:34:0e:20:47:7d:
         cb:77:7f:3b:6f:68:18:11:af:33:ce:93:c6:63:09:2f:7f:23:
         66:67:4a:e8:1c:ff:86:9b:37:17:c5:78:7c:94:f8:4a:fd:c0:
         c7:d1:81:5d:66:f3:8f:0a:c4:47:b8:1a:79:e0:c2:f8:73:12:
         f7:0b:9c:2e:b0:13:2e:97:91:db:36:79:6d:6e:3d:cc:9b:da:
         31:dc:4b:04:59:6f:34:40:4e:46:3b:28:58:74:7a:40:bf:73:
         34:dd:6a:92
-----BEGIN CERTIFICATE-----
MIIEOzCCAyOgAwIBAgIBDDANBgkqhkiG9w0BAQsFADCBjDELMAkGA1UEBhMCQ0gx
EDAOBgNVBAgMB1RodXJnYXUxEDAOBgNVBAcMB0tlZmlrb24xEzARBgNVBAoMCmd1
ZW5nZWwuY2gxDTALBgNVBAsMBGlrZWQxDzANBgNVBAMMBlZQTiBDQTEkMCIGCSqG
SIb3DQEJARYVcG9zdG1hc3RlckBndWVuZ2VsLmNoMB4XDTIwMDUyMTE1NTM0NVoX
DTIxMDUyMTE1NTM0NVowgboxCzAJBgNVBAYTAkNIMRAwDgYDVQQIDAdUaHVyZ2F1
MRAwDgYDVQQHDAdLZWZpa29uMRMwEQYDVQQKDApndWVuZ2VsLmNoMQ0wCwYDVQQL
DARpa2VkMT0wOwYDVQQDDDRlYzItNTQtOTMtMTY0LTE1OS5ldS1jZW50cmFsLTEu
Y29tcHV0ZS5hbWF6b25hd3MuY29tMSQwIgYJKoZIhvcNAQkBFhVwb3N0bWFzdGVy
QGd1ZW5nZWwuY2gwggEiMA0GCSqGSIb3DQEBAQUAA4IBDwAwggEKAoIBAQCxq41p
Gt2ZsVY1+g8abcjDTNGA2rc5wjuP3nUK1DCr8Hy4gfyQRNWxAKpif+PrK/oIbtQ1
zIatunJHyzQ4h/K4Yst/wU2MCef+mDdZJ5VPMpebt4p6bLOrTmlbymFVeBLB2y+4
32ANRVUvwsznJppq5YmkrafcklA3oUA2Erlf/mBTVquyXWN04bp6xwAglMGm0MEr
kLxpXJMCskLXlrH57H1ruXXc40qur9kPzeD3uBWcuxpNB2LNoicloOrGApbULLB9
oVqsxTsXHTLur0tagwKnv3P3HYl0/RO1INmRWzLg3qsmWNfFLzFo3qtliSraj4pE
nlhNk6hfm2m9OagJAgMBAAGjeDB2MAsGA1UdDwQEAwIDiDARBglghkgBhvhCAQEE
BAMCB4AwPwYDVR0RBDgwNoI0ZWMyLTU0LTkzLTE2NC0xNTkuZXUtY2VudHJhbC0x
LmNvbXB1dGUuYW1hem9uYXdzLmNvbTATBgNVHSUEDDAKBggrBgEFBQcDAjANBgkq
hkiG9w0BAQsFAAOCAQEAW0ShtPAPxKxi5nt4E67SZfI+IvWlNthLhHg0LyvpNXx7
OdRCP8uG0HNsPI1f4uQBKAoQww8ky879reOCz5s1ccr9vQKMBYSxdbckxuop07Jk
/MSdrSG41qLjlYUVU0KSP5j8v0aHS1IwKIMgcgUo+RQ5ZLnjrh96XM1hvJkqggQb
ty5vhmWJf0XYq3ZsnnrozxGHLBCcaQCT9wZZZzQOIEd9y3d/O29oGBGvM86TxmMJ
L38jZmdK6Bz/hps3F8V4fJT4Sv3Ax9GBXWbzjwrER7gaeeDC+HMS9wucLrATLpeR
2zZ5bW49zJvaMdxLBFlvNEBORjsoWHR6QL9zNN1qkg==
-----END CERTIFICATE-----
