Certificate:
    Data:
        Version: 3 (0x2)
        Serial Number: 7 (0x7)
    Signature Algorithm: sha256WithRSAEncryption
        Issuer: C=CH, ST=Thurgau, L=Kefikon, O=guengel.ch, OU=iked, CN=VPN CA/emailAddress=postmaster@guengel.ch
        Validity
            Not Before: Apr 26 15:50:53 2020 GMT
            Not After : Apr 26 15:50:53 2021 GMT
        Subject: C=CH, ST=Thurgau, L=Kefikon, O=guengel.ch, OU=iked, CN=ec2-18-156-97-236.eu-central-1.compute.amazonaws.com/emailAddress=postmaster@guengel.ch
        Subject Public Key Info:
            Public Key Algorithm: rsaEncryption
                Public-Key: (2048 bit)
                Modulus:
                    00:cb:4a:b0:a1:39:90:48:0c:58:e5:6a:f3:fa:a7:
                    ae:e9:88:04:83:a4:b1:15:81:66:ef:f5:b9:d4:5b:
                    d9:43:60:b2:b6:ee:45:cc:c6:24:1f:a7:fe:c8:eb:
                    0b:1c:80:4d:9d:8a:b9:af:54:23:c0:f9:40:5f:1a:
                    c5:2a:99:8a:39:dc:e3:a7:86:cd:6b:83:7b:7e:0f:
                    ae:0a:c8:d5:9d:d1:e2:e9:07:3a:46:e2:a6:a0:19:
                    e3:f1:15:79:c2:d9:c7:ac:a6:a5:71:6d:7b:85:cd:
                    e9:75:52:69:68:ab:e3:ef:f0:3a:ef:0b:45:8b:d2:
                    aa:fb:ba:07:3a:11:f6:4b:fc:be:fd:dc:16:35:25:
                    2d:24:2e:c3:e0:e9:d9:b5:e9:e4:36:4f:1c:3d:c4:
                    4d:bb:37:84:9b:4a:37:da:a0:d5:91:21:9c:b9:52:
                    a8:70:3f:29:8a:b2:eb:aa:db:e4:c3:68:e8:74:83:
                    4e:7c:f2:c8:ec:27:e9:cd:1c:f4:fe:5c:fd:30:9c:
                    f6:0d:72:30:71:4b:ef:a0:15:39:e0:5e:32:2e:dc:
                    57:a4:07:19:dc:5f:af:28:c5:ab:56:8d:c4:08:5d:
                    6a:af:3d:6c:c7:08:87:cd:4f:08:53:fb:b7:66:32:
                    79:b7:66:0e:5d:98:ea:b6:95:60:fd:7d:83:aa:1a:
                    2d:1f
                Exponent: 65537 (0x10001)
        X509v3 extensions:
            X509v3 Key Usage:
                Digital Signature, Certificate Sign, CRL Sign
            Netscape Cert Type:
                SSL Client, SSL Server
            X509v3 Subject Alternative Name:
                DNS:ec2-18-156-97-236.eu-central-1.compute.amazonaws.com
            X509v3 Extended Key Usage:
                TLS Web Server Authentication, TLS Web Client Authentication
    Signature Algorithm: sha256WithRSAEncryption
         63:1f:07:b4:b6:f8:11:e0:38:be:19:83:ae:c3:f5:75:97:84:
         0d:14:62:6d:a3:d3:58:30:de:51:39:3a:0b:76:56:52:8c:3f:
         44:bc:4d:8d:3b:2e:74:0b:e5:01:e7:12:22:28:4d:45:37:cb:
         c6:3c:e4:ec:a4:01:49:8f:98:54:40:7e:dd:6b:48:1f:49:19:
         1d:a5:a4:46:c4:5e:72:5a:28:39:9c:6e:14:1e:88:f1:6d:41:
         9c:41:ff:22:07:24:7e:cf:51:13:34:b0:dc:c6:cb:a4:5e:fa:
         14:1e:a4:07:23:08:d6:77:af:31:39:68:e3:dd:58:b8:60:94:
         96:63:69:5c:64:6b:a7:2b:a9:fa:52:4e:be:2e:c3:c2:c2:ec:
         52:a6:e4:a2:e9:46:16:b7:1b:ed:4d:19:23:92:87:5f:4b:bc:
         dd:f2:c2:18:a6:d3:bd:24:7a:c2:41:6a:ab:28:b7:06:3d:e8:
         eb:1e:d7:c9:da:1a:7f:c9:24:ce:52:fa:65:ff:00:88:fe:fa:
         81:61:6e:fe:1c:28:d9:48:17:96:4e:b3:71:1c:49:78:68:74:
         4c:84:af:d8:b7:6e:1e:85:c3:4f:97:54:2f:7a:83:31:a9:ca:
         12:f3:d6:56:6d:92:dc:75:2a:21:19:15:f6:a6:85:10:2c:7a:
         58:49:c2:24
-----BEGIN CERTIFICATE-----
MIIERzCCAy+gAwIBAgIBBzANBgkqhkiG9w0BAQsFADCBjDELMAkGA1UEBhMCQ0gx
EDAOBgNVBAgMB1RodXJnYXUxEDAOBgNVBAcMB0tlZmlrb24xEzARBgNVBAoMCmd1
ZW5nZWwuY2gxDTALBgNVBAsMBGlrZWQxDzANBgNVBAMMBlZQTiBDQTEkMCIGCSqG
SIb3DQEJARYVcG9zdG1hc3RlckBndWVuZ2VsLmNoMB4XDTIwMDQyNjE1NTA1M1oX
DTIxMDQyNjE1NTA1M1owgboxCzAJBgNVBAYTAkNIMRAwDgYDVQQIDAdUaHVyZ2F1
MRAwDgYDVQQHDAdLZWZpa29uMRMwEQYDVQQKDApndWVuZ2VsLmNoMQ0wCwYDVQQL
DARpa2VkMT0wOwYDVQQDDDRlYzItMTgtMTU2LTk3LTIzNi5ldS1jZW50cmFsLTEu
Y29tcHV0ZS5hbWF6b25hd3MuY29tMSQwIgYJKoZIhvcNAQkBFhVwb3N0bWFzdGVy
QGd1ZW5nZWwuY2gwggEiMA0GCSqGSIb3DQEBAQUAA4IBDwAwggEKAoIBAQDLSrCh
OZBIDFjlavP6p67piASDpLEVgWbv9bnUW9lDYLK27kXMxiQfp/7I6wscgE2dirmv
VCPA+UBfGsUqmYo53OOnhs1rg3t+D64KyNWd0eLpBzpG4qagGePxFXnC2cespqVx
bXuFzel1Umloq+Pv8DrvC0WL0qr7ugc6EfZL/L793BY1JS0kLsPg6dm16eQ2Txw9
xE27N4SbSjfaoNWRIZy5UqhwPymKsuuq2+TDaOh0g0588sjsJ+nNHPT+XP0wnPYN
cjBxS++gFTngXjIu3FekBxncX68oxatWjcQIXWqvPWzHCIfNTwhT+7dmMnm3Zg5d
mOq2lWD9fYOqGi0fAgMBAAGjgYMwgYAwCwYDVR0PBAQDAgGGMBEGCWCGSAGG+EIB
AQQEAwIGwDA/BgNVHREEODA2gjRlYzItMTgtMTU2LTk3LTIzNi5ldS1jZW50cmFs
LTEuY29tcHV0ZS5hbWF6b25hd3MuY29tMB0GA1UdJQQWMBQGCCsGAQUFBwMBBggr
BgEFBQcDAjANBgkqhkiG9w0BAQsFAAOCAQEAYx8HtLb4EeA4vhmDrsP1dZeEDRRi
baPTWDDeUTk6C3ZWUow/RLxNjTsudAvlAecSIihNRTfLxjzk7KQBSY+YVEB+3WtI
H0kZHaWkRsReclooOZxuFB6I8W1BnEH/Igckfs9REzSw3MbLpF76FB6kByMI1nev
MTlo491YuGCUlmNpXGRrpyup+lJOvi7DwsLsUqbkoulGFrcb7U0ZI5KHX0u83fLC
GKbTvSR6wkFqqyi3Bj3o6x7Xydoaf8kkzlL6Zf8AiP76gWFu/hwo2UgXlk6zcRxJ
eGh0TISv2LduHoXDT5dUL3qDManKEvPWVm2S3HUqIRkV9qaFECx6WEnCJA==
-----END CERTIFICATE-----
