Certificate:
    Data:
        Version: 3 (0x2)
        Serial Number: 3 (0x3)
    Signature Algorithm: sha256WithRSAEncryption
        Issuer: C=CH, ST=Thurgau, L=Kefikon, O=guengel.ch, OU=iked, CN=VPN CA/emailAddress=postmaster@guengel.ch
        Validity
            Not Before: Aug  9 19:39:32 2019 GMT
            Not After : Aug  8 19:39:32 2020 GMT
        Subject: C=CH, ST=Thurgau, L=Kefikon, O=guengel.ch, OU=iked, CN=ec2-52-29-59-221.eu-central-1.compute.amazonaws.com/emailAddress=postmaster@guengel.ch
        Subject Public Key Info:
            Public Key Algorithm: rsaEncryption
                Public-Key: (2048 bit)
                Modulus:
                    00:ec:af:9c:55:29:2e:56:04:11:ee:e1:0d:99:92:
                    0f:c0:58:c2:70:f0:aa:f2:cf:21:27:0c:55:d5:7d:
                    f0:81:60:28:0a:25:55:e1:a1:56:61:b6:2b:ef:06:
                    28:6c:65:1a:e1:2c:dc:ff:3a:6b:4f:31:3c:e6:39:
                    9a:92:96:f3:94:94:30:5b:48:44:96:cf:f3:6a:c7:
                    04:93:4f:f6:e2:82:37:4c:f9:c6:80:a6:bd:dc:d1:
                    2a:ea:bc:3c:8d:66:44:10:f8:1c:f7:af:9f:df:fb:
                    04:d5:9f:63:ab:fa:cb:7e:9e:b7:b1:3a:06:8a:26:
                    fe:df:d2:89:5c:5b:68:a4:3c:39:b6:f2:69:89:aa:
                    52:81:c3:66:c7:f6:53:18:6c:d8:74:cc:51:70:47:
                    56:80:71:c8:9a:47:01:42:23:a5:f0:cc:41:3f:68:
                    57:e8:91:d3:24:10:2f:d8:e2:7b:ba:55:c9:d0:99:
                    9e:ef:2a:ac:a1:fe:01:59:de:08:ed:9a:26:4d:ad:
                    4e:0b:38:ee:18:18:49:99:b7:8d:28:ab:bc:69:04:
                    b9:c8:9d:24:4a:19:d6:d6:29:08:34:9c:70:56:ab:
                    45:ab:8d:26:d3:78:6f:37:f5:1d:a9:d5:53:3b:68:
                    ec:e6:b2:a1:2f:53:fa:f2:98:6e:b2:6f:ca:96:ba:
                    87:79
                Exponent: 65537 (0x10001)
        X509v3 extensions:
            X509v3 Key Usage: 
                Digital Signature, Certificate Sign, CRL Sign
            Netscape Cert Type: 
                SSL Client, SSL Server
            X509v3 Subject Alternative Name: 
                DNS:ec2-52-29-59-221.eu-central-1.compute.amazonaws.com
            X509v3 Extended Key Usage: 
                TLS Web Server Authentication, TLS Web Client Authentication
    Signature Algorithm: sha256WithRSAEncryption
         4c:ad:4a:a6:54:cb:51:5d:01:7c:cd:4d:a1:ff:6e:ed:f7:7b:
         68:3d:3e:82:93:49:8a:65:c9:65:5b:a5:56:46:76:41:43:5d:
         f7:2b:cf:c7:02:78:36:69:8b:f3:9e:09:41:9b:32:f4:9a:2e:
         a1:6d:74:63:f1:5c:01:a7:af:01:35:c6:fb:3f:ea:2a:b4:de:
         0f:b2:ad:64:6c:9f:47:e7:b0:30:bf:62:a3:cc:cc:18:37:b2:
         43:a1:46:9f:f7:d8:0a:66:47:cc:e3:2c:42:82:06:37:51:80:
         3a:bc:c4:3e:0d:3c:f0:7e:ca:2c:04:94:d5:74:30:05:3e:d9:
         e4:24:08:d7:7a:00:11:05:51:91:f8:c4:a7:f3:eb:67:fe:f3:
         f5:be:6f:70:b4:6f:c7:87:95:8f:08:db:ca:65:c4:ab:7f:e7:
         51:4d:6b:ef:46:e7:86:64:95:a1:99:c2:ee:f6:f9:42:31:a8:
         64:d7:d8:46:cc:09:8b:b8:b8:01:0a:23:a4:20:57:3a:29:90:
         31:42:31:0d:ab:ec:57:e8:01:e1:8f:e8:4f:1f:58:09:47:86:
         10:78:f4:3c:b3:41:b2:20:96:f8:92:73:f7:12:db:e8:ab:e0:
         42:23:f3:81:cf:4b:3a:cd:9b:1d:dc:29:c5:a3:1e:60:01:dc:
         83:57:48:a2
-----BEGIN CERTIFICATE-----
MIIERDCCAyygAwIBAgIBAzANBgkqhkiG9w0BAQsFADCBjDELMAkGA1UEBhMCQ0gx
EDAOBgNVBAgMB1RodXJnYXUxEDAOBgNVBAcMB0tlZmlrb24xEzARBgNVBAoMCmd1
ZW5nZWwuY2gxDTALBgNVBAsMBGlrZWQxDzANBgNVBAMMBlZQTiBDQTEkMCIGCSqG
SIb3DQEJARYVcG9zdG1hc3RlckBndWVuZ2VsLmNoMB4XDTE5MDgwOTE5MzkzMloX
DTIwMDgwODE5MzkzMlowgbkxCzAJBgNVBAYTAkNIMRAwDgYDVQQIDAdUaHVyZ2F1
MRAwDgYDVQQHDAdLZWZpa29uMRMwEQYDVQQKDApndWVuZ2VsLmNoMQ0wCwYDVQQL
DARpa2VkMTwwOgYDVQQDDDNlYzItNTItMjktNTktMjIxLmV1LWNlbnRyYWwtMS5j
b21wdXRlLmFtYXpvbmF3cy5jb20xJDAiBgkqhkiG9w0BCQEWFXBvc3RtYXN0ZXJA
Z3VlbmdlbC5jaDCCASIwDQYJKoZIhvcNAQEBBQADggEPADCCAQoCggEBAOyvnFUp
LlYEEe7hDZmSD8BYwnDwqvLPIScMVdV98IFgKAolVeGhVmG2K+8GKGxlGuEs3P86
a08xPOY5mpKW85SUMFtIRJbP82rHBJNP9uKCN0z5xoCmvdzRKuq8PI1mRBD4HPev
n9/7BNWfY6v6y36et7E6Boom/t/SiVxbaKQ8ObbyaYmqUoHDZsf2Uxhs2HTMUXBH
VoBxyJpHAUIjpfDMQT9oV+iR0yQQL9jie7pVydCZnu8qrKH+AVneCO2aJk2tTgs4
7hgYSZm3jSirvGkEucidJEoZ1tYpCDSccFarRauNJtN4bzf1HanVUzto7OayoS9T
+vKYbrJvypa6h3kCAwEAAaOBgTB/MAsGA1UdDwQEAwIBhjARBglghkgBhvhCAQEE
BAMCBsAwPgYDVR0RBDcwNYIzZWMyLTUyLTI5LTU5LTIyMS5ldS1jZW50cmFsLTEu
Y29tcHV0ZS5hbWF6b25hd3MuY29tMB0GA1UdJQQWMBQGCCsGAQUFBwMBBggrBgEF
BQcDAjANBgkqhkiG9w0BAQsFAAOCAQEATK1KplTLUV0BfM1Nof9u7fd7aD0+gpNJ
imXJZVulVkZ2QUNd9yvPxwJ4NmmL854JQZsy9JouoW10Y/FcAaevATXG+z/qKrTe
D7KtZGyfR+ewML9io8zMGDeyQ6FGn/fYCmZHzOMsQoIGN1GAOrzEPg088H7KLASU
1XQwBT7Z5CQI13oAEQVRkfjEp/PrZ/7z9b5vcLRvx4eVjwjbymXEq3/nUU1r70bn
hmSVoZnC7vb5QjGoZNfYRswJi7i4AQojpCBXOimQMUIxDavsV+gB4Y/oTx9YCUeG
EHj0PLNBsiCW+JJz9xLb6KvgQiPzgc9LOs2bHdwpxaMeYAHcg1dIog==
-----END CERTIFICATE-----
