Certificate:
    Data:
        Version: 3 (0x2)
        Serial Number: 4 (0x4)
    Signature Algorithm: sha256WithRSAEncryption
        Issuer: C=CH, ST=Thurgau, L=Kefikon, O=guengel.ch, OU=iked, CN=VPN CA/emailAddress=postmaster@guengel.ch
        Validity
            Not Before: Aug 14 18:22:57 2019 GMT
            Not After : Aug 13 18:22:57 2020 GMT
        Subject: C=CH, ST=Thurgau, L=Kefikon, O=guengel.ch, OU=iked, CN=ec2-52-57-75-84.eu-central-1.compute.amazonaws.com/emailAddress=postmaster@guengel.ch
        Subject Public Key Info:
            Public Key Algorithm: rsaEncryption
                Public-Key: (2048 bit)
                Modulus:
                    00:cc:27:d4:7a:b7:d1:54:9c:c2:d9:0b:18:28:f4:
                    71:5c:85:c6:c6:dd:23:55:c7:ef:89:e1:75:62:c4:
                    41:b9:35:4b:7c:3b:d5:9f:e8:67:71:8d:d8:7a:46:
                    79:4a:79:15:c3:f2:77:1f:f2:21:78:43:43:17:aa:
                    14:9b:29:8f:63:5d:36:43:54:c5:6f:67:84:21:6a:
                    d6:f9:fb:50:38:94:3a:ad:cc:a4:0a:16:c3:8d:e5:
                    25:68:4e:be:97:f4:48:8b:9f:a6:4d:10:7a:65:48:
                    91:b7:4a:58:2d:32:cd:38:aa:77:b9:f4:c1:27:f9:
                    81:f3:7b:32:3d:5b:f7:3f:a5:cd:74:ee:70:b8:34:
                    cf:5b:7e:96:c2:1a:4a:52:8d:83:00:ee:36:f2:44:
                    b5:15:17:74:f9:fd:3b:fa:56:fb:b7:a0:35:1b:0c:
                    28:f7:91:5c:c3:19:1a:4b:b7:8f:14:c7:69:ae:48:
                    80:67:da:b4:23:b3:48:98:1c:5a:fe:cb:ae:9d:0f:
                    27:ca:ab:e4:d9:71:50:ed:61:dd:e8:ca:48:a6:e4:
                    f7:60:76:ee:9c:b0:61:6d:c8:c5:73:d5:db:5a:36:
                    c0:33:6e:80:ad:ed:44:5a:c3:69:0c:1e:35:87:17:
                    1e:4b:cd:8a:8f:fa:54:8d:09:11:f5:01:71:eb:31:
                    06:21
                Exponent: 65537 (0x10001)
        X509v3 extensions:
            X509v3 Key Usage: 
                Digital Signature, Certificate Sign, CRL Sign
            Netscape Cert Type: 
                SSL Client, SSL Server
            X509v3 Subject Alternative Name: 
                DNS:ec2-52-57-75-84.eu-central-1.compute.amazonaws.com
            X509v3 Extended Key Usage: 
                TLS Web Server Authentication, TLS Web Client Authentication
    Signature Algorithm: sha256WithRSAEncryption
         1e:35:cb:a1:59:41:5d:01:57:0f:56:94:ce:b3:ce:9e:51:6b:
         dc:21:21:d1:28:fe:c4:d8:64:3e:13:52:36:0a:0c:8f:94:9f:
         58:1c:75:48:b5:be:d8:0b:03:05:4b:c5:d6:1e:59:66:e8:31:
         79:2d:01:ec:5e:d9:30:91:0a:fd:e4:37:34:b3:32:c3:5f:33:
         ed:c2:86:d3:e3:d5:4c:ce:bf:d1:17:f7:12:20:e8:14:1b:80:
         37:d8:cb:4c:e2:78:30:7f:54:8f:0b:2a:fa:44:52:ca:5f:ba:
         52:22:c1:84:f1:eb:8b:b9:7c:86:3d:5c:cf:f9:97:c3:3c:4f:
         24:b1:8d:9b:df:55:29:b7:77:a6:86:99:3d:1b:83:e8:a5:36:
         37:58:ca:18:81:df:62:af:58:73:0f:59:44:2d:a6:58:47:38:
         e4:00:1f:82:d9:d5:fe:13:b7:d3:b4:db:54:a4:42:b5:68:e4:
         74:98:cf:4d:0b:2d:21:fd:83:69:a7:50:dc:e4:b6:24:58:dd:
         33:8b:79:1a:88:5a:45:2c:11:4a:6d:1b:bd:f9:93:d8:13:67:
         27:85:d7:e2:e3:6d:f9:13:01:e7:95:31:8e:69:fe:39:69:6a:
         a8:56:3d:aa:78:36:a5:1b:6e:98:68:24:9f:35:04:2e:9a:48:
         f4:e8:86:a6
-----BEGIN CERTIFICATE-----
MIIEQjCCAyqgAwIBAgIBBDANBgkqhkiG9w0BAQsFADCBjDELMAkGA1UEBhMCQ0gx
EDAOBgNVBAgMB1RodXJnYXUxEDAOBgNVBAcMB0tlZmlrb24xEzARBgNVBAoMCmd1
ZW5nZWwuY2gxDTALBgNVBAsMBGlrZWQxDzANBgNVBAMMBlZQTiBDQTEkMCIGCSqG
SIb3DQEJARYVcG9zdG1hc3RlckBndWVuZ2VsLmNoMB4XDTE5MDgxNDE4MjI1N1oX
DTIwMDgxMzE4MjI1N1owgbgxCzAJBgNVBAYTAkNIMRAwDgYDVQQIDAdUaHVyZ2F1
MRAwDgYDVQQHDAdLZWZpa29uMRMwEQYDVQQKDApndWVuZ2VsLmNoMQ0wCwYDVQQL
DARpa2VkMTswOQYDVQQDDDJlYzItNTItNTctNzUtODQuZXUtY2VudHJhbC0xLmNv
bXB1dGUuYW1hem9uYXdzLmNvbTEkMCIGCSqGSIb3DQEJARYVcG9zdG1hc3RlckBn
dWVuZ2VsLmNoMIIBIjANBgkqhkiG9w0BAQEFAAOCAQ8AMIIBCgKCAQEAzCfUerfR
VJzC2QsYKPRxXIXGxt0jVcfvieF1YsRBuTVLfDvVn+hncY3YekZ5SnkVw/J3H/Ih
eENDF6oUmymPY102Q1TFb2eEIWrW+ftQOJQ6rcykChbDjeUlaE6+l/RIi5+mTRB6
ZUiRt0pYLTLNOKp3ufTBJ/mB83syPVv3P6XNdO5wuDTPW36WwhpKUo2DAO428kS1
FRd0+f07+lb7t6A1Gwwo95FcwxkaS7ePFMdprkiAZ9q0I7NImBxa/suunQ8nyqvk
2XFQ7WHd6MpIpuT3YHbunLBhbcjFc9XbWjbAM26Are1EWsNpDB41hxceS82Kj/pU
jQkR9QFx6zEGIQIDAQABo4GAMH4wCwYDVR0PBAQDAgGGMBEGCWCGSAGG+EIBAQQE
AwIGwDA9BgNVHREENjA0gjJlYzItNTItNTctNzUtODQuZXUtY2VudHJhbC0xLmNv
bXB1dGUuYW1hem9uYXdzLmNvbTAdBgNVHSUEFjAUBggrBgEFBQcDAQYIKwYBBQUH
AwIwDQYJKoZIhvcNAQELBQADggEBAB41y6FZQV0BVw9WlM6zzp5Ra9whIdEo/sTY
ZD4TUjYKDI+Un1gcdUi1vtgLAwVLxdYeWWboMXktAexe2TCRCv3kNzSzMsNfM+3C
htPj1UzOv9EX9xIg6BQbgDfYy0zieDB/VI8LKvpEUspfulIiwYTx64u5fIY9XM/5
l8M8TySxjZvfVSm3d6aGmT0bg+ilNjdYyhiB32KvWHMPWUQtplhHOOQAH4LZ1f4T
t9O021SkQrVo5HSYz00LLSH9g2mnUNzktiRY3TOLeRqIWkUsEUptG735k9gTZyeF
1+LjbfkTAeeVMY5p/jlpaqhWPap4NqUbbphoJJ81BC6aSPTohqY=
-----END CERTIFICATE-----
