Certificate:
    Data:
        Version: 3 (0x2)
        Serial Number: 9 (0x9)
    Signature Algorithm: sha256WithRSAEncryption
        Issuer: C=CH, ST=Thurgau, L=Kefikon, O=guengel.ch, OU=iked, CN=VPN CA/emailAddress=postmaster@guengel.ch
        Validity
            Not Before: May 10 07:05:01 2020 GMT
            Not After : May 10 07:05:01 2021 GMT
        Subject: C=CH, ST=Thurgau, L=Kefikon, O=guengel.ch, OU=iked, CN=ec2-3-127-223-35.eu-central-1.compute.amazonaws.com/emailAddress=postmaster@guengel.ch
        Subject Public Key Info:
            Public Key Algorithm: rsaEncryption
                Public-Key: (2048 bit)
                Modulus:
                    00:c8:60:f0:8e:0c:de:7d:30:75:f3:6b:59:b2:1b:
                    ef:24:41:91:a8:6e:64:40:5b:02:2e:40:de:7a:03:
                    43:fc:9e:2b:1d:c3:e4:dc:9d:e1:2b:81:5d:bf:6a:
                    59:c8:9c:9b:7b:40:77:55:f8:6f:b7:ad:f1:53:3d:
                    2b:45:82:a4:42:5a:cb:ed:c5:dc:43:2e:c0:98:65:
                    4d:c9:93:07:cc:0d:f1:40:59:31:c7:b1:67:58:42:
                    73:7a:0a:26:e1:c6:af:fc:9e:32:ff:cb:13:22:ef:
                    d6:58:61:ab:85:ba:75:1d:72:aa:d1:cd:96:89:dc:
                    5c:b8:31:16:8b:b3:94:a3:af:b4:91:30:8e:24:0b:
                    dc:34:45:fe:9b:0c:c4:5f:52:94:ce:6e:54:cc:6d:
                    a6:a4:0f:ea:0d:be:71:86:e4:6d:6f:b0:c3:f0:cb:
                    57:38:c0:55:aa:31:e7:66:81:db:b2:50:85:c0:d9:
                    96:05:d0:39:1b:87:a5:04:51:b9:2a:6f:0a:9a:08:
                    31:2a:ee:61:4e:41:e3:04:e0:fc:ef:d0:24:6e:41:
                    86:11:60:af:a9:cf:75:e4:c6:9e:15:f5:b6:5f:75:
                    9a:bf:66:a4:3f:f4:20:ef:de:06:0c:86:a0:9f:69:
                    fe:ae:dd:5b:b6:c5:0f:cc:a2:ea:fd:23:28:66:76:
                    ed:6f
                Exponent: 65537 (0x10001)
        X509v3 extensions:
            X509v3 Key Usage:
                Digital Signature, Certificate Sign, CRL Sign
            Netscape Cert Type:
                SSL Client, SSL Server
            X509v3 Subject Alternative Name:
                DNS:ec2-3-127-223-35.eu-central-1.compute.amazonaws.com
            X509v3 Extended Key Usage:
                TLS Web Server Authentication, TLS Web Client Authentication
    Signature Algorithm: sha256WithRSAEncryption
         74:90:80:e5:8a:a5:46:aa:82:d8:03:0c:28:b3:5f:6b:ad:d7:
         3b:d4:f7:71:91:80:32:ef:63:43:e7:19:fb:8e:23:69:91:e0:
         d3:55:aa:d4:a9:a4:38:d2:a2:ba:24:84:8f:df:bb:53:bd:5b:
         59:45:38:8c:f8:b4:b6:c9:89:b2:e1:a4:10:78:cb:b6:a0:99:
         e1:b7:68:ff:20:f0:74:91:85:95:04:28:85:b7:5f:40:ea:fc:
         ad:cc:b1:3f:3f:80:32:b5:9c:a7:60:ed:22:40:85:40:37:e2:
         dd:5e:17:4a:ee:74:11:ab:ff:74:22:aa:ec:b9:42:d7:40:6e:
         8d:0c:7b:87:c4:f7:82:d0:eb:56:0e:c3:e6:5a:bd:18:8f:ea:
         65:2a:e7:16:10:a7:79:d8:db:3c:f9:34:48:59:fc:08:9c:51:
         53:b3:93:a2:aa:05:38:f1:4d:0f:fa:0c:44:6b:3d:49:06:f4:
         57:7a:2a:73:fe:a4:c0:ce:f9:fa:5e:40:e1:1e:0d:29:67:f8:
         39:48:f4:01:6b:64:99:b4:17:2d:d0:aa:2e:3e:b6:88:72:cf:
         5f:16:89:f6:22:6b:81:49:c3:cd:2c:fe:99:fa:08:ab:24:6d:
         e7:16:26:6f:c9:da:cc:0f:4d:02:7c:8f:0b:cd:85:a7:64:58:
         ca:12:87:fb
-----BEGIN CERTIFICATE-----
MIIERDCCAyygAwIBAgIBCTANBgkqhkiG9w0BAQsFADCBjDELMAkGA1UEBhMCQ0gx
EDAOBgNVBAgMB1RodXJnYXUxEDAOBgNVBAcMB0tlZmlrb24xEzARBgNVBAoMCmd1
ZW5nZWwuY2gxDTALBgNVBAsMBGlrZWQxDzANBgNVBAMMBlZQTiBDQTEkMCIGCSqG
SIb3DQEJARYVcG9zdG1hc3RlckBndWVuZ2VsLmNoMB4XDTIwMDUxMDA3MDUwMVoX
DTIxMDUxMDA3MDUwMVowgbkxCzAJBgNVBAYTAkNIMRAwDgYDVQQIDAdUaHVyZ2F1
MRAwDgYDVQQHDAdLZWZpa29uMRMwEQYDVQQKDApndWVuZ2VsLmNoMQ0wCwYDVQQL
DARpa2VkMTwwOgYDVQQDDDNlYzItMy0xMjctMjIzLTM1LmV1LWNlbnRyYWwtMS5j
b21wdXRlLmFtYXpvbmF3cy5jb20xJDAiBgkqhkiG9w0BCQEWFXBvc3RtYXN0ZXJA
Z3VlbmdlbC5jaDCCASIwDQYJKoZIhvcNAQEBBQADggEPADCCAQoCggEBAMhg8I4M
3n0wdfNrWbIb7yRBkahuZEBbAi5A3noDQ/yeKx3D5Nyd4SuBXb9qWcicm3tAd1X4
b7et8VM9K0WCpEJay+3F3EMuwJhlTcmTB8wN8UBZMcexZ1hCc3oKJuHGr/yeMv/L
EyLv1lhhq4W6dR1yqtHNloncXLgxFouzlKOvtJEwjiQL3DRF/psMxF9SlM5uVMxt
pqQP6g2+cYbkbW+ww/DLVzjAVaox52aB27JQhcDZlgXQORuHpQRRuSpvCpoIMSru
YU5B4wTg/O/QJG5BhhFgr6nPdeTGnhX1tl91mr9mpD/0IO/eBgyGoJ9p/q7dW7bF
D8yi6v0jKGZ27W8CAwEAAaOBgTB/MAsGA1UdDwQEAwIBhjARBglghkgBhvhCAQEE
BAMCBsAwPgYDVR0RBDcwNYIzZWMyLTMtMTI3LTIyMy0zNS5ldS1jZW50cmFsLTEu
Y29tcHV0ZS5hbWF6b25hd3MuY29tMB0GA1UdJQQWMBQGCCsGAQUFBwMBBggrBgEF
BQcDAjANBgkqhkiG9w0BAQsFAAOCAQEAdJCA5YqlRqqC2AMMKLNfa63XO9T3cZGA
Mu9jQ+cZ+44jaZHg01Wq1KmkONKiuiSEj9+7U71bWUU4jPi0tsmJsuGkEHjLtqCZ
4bdo/yDwdJGFlQQohbdfQOr8rcyxPz+AMrWcp2DtIkCFQDfi3V4XSu50Eav/dCKq
7LlC10BujQx7h8T3gtDrVg7D5lq9GI/qZSrnFhCnedjbPPk0SFn8CJxRU7OToqoF
OPFND/oMRGs9SQb0V3oqc/6kwM75+l5A4R4NKWf4OUj0AWtkmbQXLdCqLj62iHLP
XxaJ9iJrgUnDzSz+mfoIqyRt5xYmb8nazA9NAnyPC82Fp2RYyhKH+w==
-----END CERTIFICATE-----
